ARM GAS  C:\msys64\tmp\ccCxxl6h.s 			page 1


   1              		.cpu cortex-m4
   2              		.arch armv7e-m
   3              		.fpu fpv4-sp-d16
   4              		.eabi_attribute 27, 1
   5              		.eabi_attribute 28, 1
   6              		.eabi_attribute 20, 1
   7              		.eabi_attribute 21, 1
   8              		.eabi_attribute 23, 3
   9              		.eabi_attribute 24, 1
  10              		.eabi_attribute 25, 1
  11              		.eabi_attribute 26, 1
  12              		.eabi_attribute 30, 6
  13              		.eabi_attribute 34, 1
  14              		.eabi_attribute 18, 4
  15              		.file	"lr11xx_radio_types_str.c"
  16              		.text
  17              	.Ltext0:
  18              		.cfi_sections	.debug_frame
  19              		.file 1 "../../../lr11xx/common/printers/lr11xx_radio_types_str.c"
  20              		.section	.rodata
  21              		.align	2
  22              	.LC0:
  23 0000 4C523131 		.ascii	"LR11XX_RADIO_PA_SEL_LP\000"
  23      58585F52 
  23      4144494F 
  23      5F50415F 
  23      53454C5F 
  24 0017 00       		.align	2
  25              	.LC1:
  26 0018 4C523131 		.ascii	"LR11XX_RADIO_PA_SEL_HP\000"
  26      58585F52 
  26      4144494F 
  26      5F50415F 
  26      53454C5F 
  27 002f 00       		.align	2
  28              	.LC2:
  29 0030 4C523131 		.ascii	"LR11XX_RADIO_PA_SEL_HF\000"
  29      58585F52 
  29      4144494F 
  29      5F50415F 
  29      53454C5F 
  30 0047 00       		.align	2
  31              	.LC3:
  32 0048 556E6B6E 		.ascii	"Unknown\000"
  32      6F776E00 
  33              		.section	.text.lr11xx_radio_pa_selection_to_str,"ax",%progbits
  34              		.align	1
  35              		.global	lr11xx_radio_pa_selection_to_str
  36              		.syntax unified
  37              		.thumb
  38              		.thumb_func
  40              	lr11xx_radio_pa_selection_to_str:
  41              	.LFB0:
   1:../../../lr11xx/common/printers/lr11xx_radio_types_str.c **** /*!
   2:../../../lr11xx/common/printers/lr11xx_radio_types_str.c ****  * @file      lr11xx_radio_types_str.c
   3:../../../lr11xx/common/printers/lr11xx_radio_types_str.c ****  *
   4:../../../lr11xx/common/printers/lr11xx_radio_types_str.c ****  * @brief     Printer helper functions for LR11xx radio types
ARM GAS  C:\msys64\tmp\ccCxxl6h.s 			page 2


   5:../../../lr11xx/common/printers/lr11xx_radio_types_str.c ****  *
   6:../../../lr11xx/common/printers/lr11xx_radio_types_str.c ****  * @copyright
   7:../../../lr11xx/common/printers/lr11xx_radio_types_str.c ****  * The Clear BSD License
   8:../../../lr11xx/common/printers/lr11xx_radio_types_str.c ****  * Copyright Semtech Corporation 2023. All rights reserved.
   9:../../../lr11xx/common/printers/lr11xx_radio_types_str.c ****  *
  10:../../../lr11xx/common/printers/lr11xx_radio_types_str.c ****  * Redistribution and use in source and binary forms, with or without
  11:../../../lr11xx/common/printers/lr11xx_radio_types_str.c ****  * modification, are permitted (subject to the limitations in the disclaimer
  12:../../../lr11xx/common/printers/lr11xx_radio_types_str.c ****  * below) provided that the following conditions are met:
  13:../../../lr11xx/common/printers/lr11xx_radio_types_str.c ****  *     * Redistributions of source code must retain the above copyright
  14:../../../lr11xx/common/printers/lr11xx_radio_types_str.c ****  *       notice, this list of conditions and the following disclaimer.
  15:../../../lr11xx/common/printers/lr11xx_radio_types_str.c ****  *     * Redistributions in binary form must reproduce the above copyright
  16:../../../lr11xx/common/printers/lr11xx_radio_types_str.c ****  *       notice, this list of conditions and the following disclaimer in the
  17:../../../lr11xx/common/printers/lr11xx_radio_types_str.c ****  *       documentation and/or other materials provided with the distribution.
  18:../../../lr11xx/common/printers/lr11xx_radio_types_str.c ****  *     * Neither the name of the Semtech corporation nor the
  19:../../../lr11xx/common/printers/lr11xx_radio_types_str.c ****  *       names of its contributors may be used to endorse or promote products
  20:../../../lr11xx/common/printers/lr11xx_radio_types_str.c ****  *       derived from this software without specific prior written permission.
  21:../../../lr11xx/common/printers/lr11xx_radio_types_str.c ****  *
  22:../../../lr11xx/common/printers/lr11xx_radio_types_str.c ****  * NO EXPRESS OR IMPLIED LICENSES TO ANY PARTY'S PATENT RIGHTS ARE GRANTED BY
  23:../../../lr11xx/common/printers/lr11xx_radio_types_str.c ****  * THIS LICENSE. THIS SOFTWARE IS PROVIDED BY THE COPYRIGHT HOLDERS AND
  24:../../../lr11xx/common/printers/lr11xx_radio_types_str.c ****  * CONTRIBUTORS "AS IS" AND ANY EXPRESS OR IMPLIED WARRANTIES, INCLUDING, BUT
  25:../../../lr11xx/common/printers/lr11xx_radio_types_str.c ****  * NOT LIMITED TO, THE IMPLIED WARRANTIES OF MERCHANTABILITY AND FITNESS FOR A
  26:../../../lr11xx/common/printers/lr11xx_radio_types_str.c ****  * PARTICULAR PURPOSE ARE DISCLAIMED. IN NO EVENT SHALL SEMTECH CORPORATION BE
  27:../../../lr11xx/common/printers/lr11xx_radio_types_str.c ****  * LIABLE FOR ANY DIRECT, INDIRECT, INCIDENTAL, SPECIAL, EXEMPLARY, OR
  28:../../../lr11xx/common/printers/lr11xx_radio_types_str.c ****  * CONSEQUENTIAL DAMAGES (INCLUDING, BUT NOT LIMITED TO, PROCUREMENT OF
  29:../../../lr11xx/common/printers/lr11xx_radio_types_str.c ****  * SUBSTITUTE GOODS OR SERVICES; LOSS OF USE, DATA, OR PROFITS; OR BUSINESS
  30:../../../lr11xx/common/printers/lr11xx_radio_types_str.c ****  * INTERRUPTION) HOWEVER CAUSED AND ON ANY THEORY OF LIABILITY, WHETHER IN
  31:../../../lr11xx/common/printers/lr11xx_radio_types_str.c ****  * CONTRACT, STRICT LIABILITY, OR TORT (INCLUDING NEGLIGENCE OR OTHERWISE)
  32:../../../lr11xx/common/printers/lr11xx_radio_types_str.c ****  * ARISING IN ANY WAY OUT OF THE USE OF THIS SOFTWARE, EVEN IF ADVISED OF THE
  33:../../../lr11xx/common/printers/lr11xx_radio_types_str.c ****  * POSSIBILITY OF SUCH DAMAGE.
  34:../../../lr11xx/common/printers/lr11xx_radio_types_str.c ****  */
  35:../../../lr11xx/common/printers/lr11xx_radio_types_str.c **** 
  36:../../../lr11xx/common/printers/lr11xx_radio_types_str.c **** #include "lr11xx_radio_types_str.h"
  37:../../../lr11xx/common/printers/lr11xx_radio_types_str.c **** 
  38:../../../lr11xx/common/printers/lr11xx_radio_types_str.c **** const char* lr11xx_radio_pa_selection_to_str( const lr11xx_radio_pa_selection_t value )
  39:../../../lr11xx/common/printers/lr11xx_radio_types_str.c **** {
  42              		.loc 1 39 1
  43              		.cfi_startproc
  44              		@ args = 0, pretend = 0, frame = 8
  45              		@ frame_needed = 1, uses_anonymous_args = 0
  46              		@ link register save eliminated.
  47 0000 80B4     		push	{r7}
  48              	.LCFI0:
  49              		.cfi_def_cfa_offset 4
  50              		.cfi_offset 7, -4
  51 0002 83B0     		sub	sp, sp, #12
  52              	.LCFI1:
  53              		.cfi_def_cfa_offset 16
  54 0004 00AF     		add	r7, sp, #0
  55              	.LCFI2:
  56              		.cfi_def_cfa_register 7
  57 0006 0346     		mov	r3, r0
  58 0008 FB71     		strb	r3, [r7, #7]
  40:../../../lr11xx/common/printers/lr11xx_radio_types_str.c ****     switch( value )
  59              		.loc 1 40 5
  60 000a FB79     		ldrb	r3, [r7, #7]	@ zero_extendqisi2
  61 000c 022B     		cmp	r3, #2
  62 000e 0AD0     		beq	.L2
ARM GAS  C:\msys64\tmp\ccCxxl6h.s 			page 3


  63 0010 022B     		cmp	r3, #2
  64 0012 0ADC     		bgt	.L3
  65 0014 002B     		cmp	r3, #0
  66 0016 02D0     		beq	.L4
  67 0018 012B     		cmp	r3, #1
  68 001a 02D0     		beq	.L5
  69 001c 05E0     		b	.L3
  70              	.L4:
  41:../../../lr11xx/common/printers/lr11xx_radio_types_str.c ****     {
  42:../../../lr11xx/common/printers/lr11xx_radio_types_str.c ****     case LR11XX_RADIO_PA_SEL_LP:
  43:../../../lr11xx/common/printers/lr11xx_radio_types_str.c ****     {
  44:../../../lr11xx/common/printers/lr11xx_radio_types_str.c ****         return ( const char* ) "LR11XX_RADIO_PA_SEL_LP";
  71              		.loc 1 44 16
  72 001e 064B     		ldr	r3, .L7
  73 0020 04E0     		b	.L6
  74              	.L5:
  45:../../../lr11xx/common/printers/lr11xx_radio_types_str.c ****     }
  46:../../../lr11xx/common/printers/lr11xx_radio_types_str.c **** 
  47:../../../lr11xx/common/printers/lr11xx_radio_types_str.c ****     case LR11XX_RADIO_PA_SEL_HP:
  48:../../../lr11xx/common/printers/lr11xx_radio_types_str.c ****     {
  49:../../../lr11xx/common/printers/lr11xx_radio_types_str.c ****         return ( const char* ) "LR11XX_RADIO_PA_SEL_HP";
  75              		.loc 1 49 16
  76 0022 064B     		ldr	r3, .L7+4
  77 0024 02E0     		b	.L6
  78              	.L2:
  50:../../../lr11xx/common/printers/lr11xx_radio_types_str.c ****     }
  51:../../../lr11xx/common/printers/lr11xx_radio_types_str.c **** 
  52:../../../lr11xx/common/printers/lr11xx_radio_types_str.c ****     case LR11XX_RADIO_PA_SEL_HF:
  53:../../../lr11xx/common/printers/lr11xx_radio_types_str.c ****     {
  54:../../../lr11xx/common/printers/lr11xx_radio_types_str.c ****         return ( const char* ) "LR11XX_RADIO_PA_SEL_HF";
  79              		.loc 1 54 16
  80 0026 064B     		ldr	r3, .L7+8
  81 0028 00E0     		b	.L6
  82              	.L3:
  55:../../../lr11xx/common/printers/lr11xx_radio_types_str.c ****     }
  56:../../../lr11xx/common/printers/lr11xx_radio_types_str.c **** 
  57:../../../lr11xx/common/printers/lr11xx_radio_types_str.c ****     default:
  58:../../../lr11xx/common/printers/lr11xx_radio_types_str.c ****     {
  59:../../../lr11xx/common/printers/lr11xx_radio_types_str.c ****         return ( const char* ) "Unknown";
  83              		.loc 1 59 16
  84 002a 064B     		ldr	r3, .L7+12
  85              	.L6:
  60:../../../lr11xx/common/printers/lr11xx_radio_types_str.c ****     }
  61:../../../lr11xx/common/printers/lr11xx_radio_types_str.c ****     }
  62:../../../lr11xx/common/printers/lr11xx_radio_types_str.c **** }
  86              		.loc 1 62 1
  87 002c 1846     		mov	r0, r3
  88 002e 0C37     		adds	r7, r7, #12
  89              	.LCFI3:
  90              		.cfi_def_cfa_offset 4
  91 0030 BD46     		mov	sp, r7
  92              	.LCFI4:
  93              		.cfi_def_cfa_register 13
  94              		@ sp needed
  95 0032 5DF8047B 		ldr	r7, [sp], #4
  96              	.LCFI5:
  97              		.cfi_restore 7
ARM GAS  C:\msys64\tmp\ccCxxl6h.s 			page 4


  98              		.cfi_def_cfa_offset 0
  99 0036 7047     		bx	lr
 100              	.L8:
 101              		.align	2
 102              	.L7:
 103 0038 00000000 		.word	.LC0
 104 003c 18000000 		.word	.LC1
 105 0040 30000000 		.word	.LC2
 106 0044 48000000 		.word	.LC3
 107              		.cfi_endproc
 108              	.LFE0:
 110              		.section	.rodata
 111              		.align	2
 112              	.LC4:
 113 0050 4C523131 		.ascii	"LR11XX_RADIO_GFSK_ADDRESS_FILTERING_DISABLE\000"
 113      58585F52 
 113      4144494F 
 113      5F474653 
 113      4B5F4144 
 114              		.align	2
 115              	.LC5:
 116 007c 4C523131 		.ascii	"LR11XX_RADIO_GFSK_ADDRESS_FILTERING_NODE_ADDRESS\000"
 116      58585F52 
 116      4144494F 
 116      5F474653 
 116      4B5F4144 
 117 00ad 000000   		.align	2
 118              	.LC6:
 119 00b0 4C523131 		.ascii	"LR11XX_RADIO_GFSK_ADDRESS_FILTERING_NODE_AND_BROADC"
 119      58585F52 
 119      4144494F 
 119      5F474653 
 119      4B5F4144 
 120 00e3 4153545F 		.ascii	"AST_ADDRESSES\000"
 120      41444452 
 120      45535345 
 120      5300
 121              		.section	.text.lr11xx_radio_gfsk_address_filtering_to_str,"ax",%progbits
 122              		.align	1
 123              		.global	lr11xx_radio_gfsk_address_filtering_to_str
 124              		.syntax unified
 125              		.thumb
 126              		.thumb_func
 128              	lr11xx_radio_gfsk_address_filtering_to_str:
 129              	.LFB1:
  63:../../../lr11xx/common/printers/lr11xx_radio_types_str.c **** 
  64:../../../lr11xx/common/printers/lr11xx_radio_types_str.c **** const char* lr11xx_radio_gfsk_address_filtering_to_str( const lr11xx_radio_gfsk_address_filtering_t
  65:../../../lr11xx/common/printers/lr11xx_radio_types_str.c **** {
 130              		.loc 1 65 1
 131              		.cfi_startproc
 132              		@ args = 0, pretend = 0, frame = 8
 133              		@ frame_needed = 1, uses_anonymous_args = 0
 134              		@ link register save eliminated.
 135 0000 80B4     		push	{r7}
 136              	.LCFI6:
 137              		.cfi_def_cfa_offset 4
 138              		.cfi_offset 7, -4
ARM GAS  C:\msys64\tmp\ccCxxl6h.s 			page 5


 139 0002 83B0     		sub	sp, sp, #12
 140              	.LCFI7:
 141              		.cfi_def_cfa_offset 16
 142 0004 00AF     		add	r7, sp, #0
 143              	.LCFI8:
 144              		.cfi_def_cfa_register 7
 145 0006 0346     		mov	r3, r0
 146 0008 FB71     		strb	r3, [r7, #7]
  66:../../../lr11xx/common/printers/lr11xx_radio_types_str.c ****     switch( value )
 147              		.loc 1 66 5
 148 000a FB79     		ldrb	r3, [r7, #7]	@ zero_extendqisi2
 149 000c 022B     		cmp	r3, #2
 150 000e 0AD0     		beq	.L10
 151 0010 022B     		cmp	r3, #2
 152 0012 0ADC     		bgt	.L11
 153 0014 002B     		cmp	r3, #0
 154 0016 02D0     		beq	.L12
 155 0018 012B     		cmp	r3, #1
 156 001a 02D0     		beq	.L13
 157 001c 05E0     		b	.L11
 158              	.L12:
  67:../../../lr11xx/common/printers/lr11xx_radio_types_str.c ****     {
  68:../../../lr11xx/common/printers/lr11xx_radio_types_str.c ****     case LR11XX_RADIO_GFSK_ADDRESS_FILTERING_DISABLE:
  69:../../../lr11xx/common/printers/lr11xx_radio_types_str.c ****     {
  70:../../../lr11xx/common/printers/lr11xx_radio_types_str.c ****         return ( const char* ) "LR11XX_RADIO_GFSK_ADDRESS_FILTERING_DISABLE";
 159              		.loc 1 70 16
 160 001e 064B     		ldr	r3, .L15
 161 0020 04E0     		b	.L14
 162              	.L13:
  71:../../../lr11xx/common/printers/lr11xx_radio_types_str.c ****     }
  72:../../../lr11xx/common/printers/lr11xx_radio_types_str.c **** 
  73:../../../lr11xx/common/printers/lr11xx_radio_types_str.c ****     case LR11XX_RADIO_GFSK_ADDRESS_FILTERING_NODE_ADDRESS:
  74:../../../lr11xx/common/printers/lr11xx_radio_types_str.c ****     {
  75:../../../lr11xx/common/printers/lr11xx_radio_types_str.c ****         return ( const char* ) "LR11XX_RADIO_GFSK_ADDRESS_FILTERING_NODE_ADDRESS";
 163              		.loc 1 75 16
 164 0022 064B     		ldr	r3, .L15+4
 165 0024 02E0     		b	.L14
 166              	.L10:
  76:../../../lr11xx/common/printers/lr11xx_radio_types_str.c ****     }
  77:../../../lr11xx/common/printers/lr11xx_radio_types_str.c **** 
  78:../../../lr11xx/common/printers/lr11xx_radio_types_str.c ****     case LR11XX_RADIO_GFSK_ADDRESS_FILTERING_NODE_AND_BROADCAST_ADDRESSES:
  79:../../../lr11xx/common/printers/lr11xx_radio_types_str.c ****     {
  80:../../../lr11xx/common/printers/lr11xx_radio_types_str.c ****         return ( const char* ) "LR11XX_RADIO_GFSK_ADDRESS_FILTERING_NODE_AND_BROADCAST_ADDRESSES";
 167              		.loc 1 80 16
 168 0026 064B     		ldr	r3, .L15+8
 169 0028 00E0     		b	.L14
 170              	.L11:
  81:../../../lr11xx/common/printers/lr11xx_radio_types_str.c ****     }
  82:../../../lr11xx/common/printers/lr11xx_radio_types_str.c **** 
  83:../../../lr11xx/common/printers/lr11xx_radio_types_str.c ****     default:
  84:../../../lr11xx/common/printers/lr11xx_radio_types_str.c ****     {
  85:../../../lr11xx/common/printers/lr11xx_radio_types_str.c ****         return ( const char* ) "Unknown";
 171              		.loc 1 85 16
 172 002a 064B     		ldr	r3, .L15+12
 173              	.L14:
  86:../../../lr11xx/common/printers/lr11xx_radio_types_str.c ****     }
  87:../../../lr11xx/common/printers/lr11xx_radio_types_str.c ****     }
ARM GAS  C:\msys64\tmp\ccCxxl6h.s 			page 6


  88:../../../lr11xx/common/printers/lr11xx_radio_types_str.c **** }
 174              		.loc 1 88 1
 175 002c 1846     		mov	r0, r3
 176 002e 0C37     		adds	r7, r7, #12
 177              	.LCFI9:
 178              		.cfi_def_cfa_offset 4
 179 0030 BD46     		mov	sp, r7
 180              	.LCFI10:
 181              		.cfi_def_cfa_register 13
 182              		@ sp needed
 183 0032 5DF8047B 		ldr	r7, [sp], #4
 184              	.LCFI11:
 185              		.cfi_restore 7
 186              		.cfi_def_cfa_offset 0
 187 0036 7047     		bx	lr
 188              	.L16:
 189              		.align	2
 190              	.L15:
 191 0038 50000000 		.word	.LC4
 192 003c 7C000000 		.word	.LC5
 193 0040 B0000000 		.word	.LC6
 194 0044 48000000 		.word	.LC3
 195              		.cfi_endproc
 196              	.LFE1:
 198              		.section	.rodata
 199 00f1 000000   		.align	2
 200              	.LC7:
 201 00f4 4C523131 		.ascii	"LR11XX_RADIO_FALLBACK_STDBY_RC\000"
 201      58585F52 
 201      4144494F 
 201      5F46414C 
 201      4C424143 
 202 0113 00       		.align	2
 203              	.LC8:
 204 0114 4C523131 		.ascii	"LR11XX_RADIO_FALLBACK_STDBY_XOSC\000"
 204      58585F52 
 204      4144494F 
 204      5F46414C 
 204      4C424143 
 205 0135 000000   		.align	2
 206              	.LC9:
 207 0138 4C523131 		.ascii	"LR11XX_RADIO_FALLBACK_FS\000"
 207      58585F52 
 207      4144494F 
 207      5F46414C 
 207      4C424143 
 208              		.section	.text.lr11xx_radio_fallback_modes_to_str,"ax",%progbits
 209              		.align	1
 210              		.global	lr11xx_radio_fallback_modes_to_str
 211              		.syntax unified
 212              		.thumb
 213              		.thumb_func
 215              	lr11xx_radio_fallback_modes_to_str:
 216              	.LFB2:
  89:../../../lr11xx/common/printers/lr11xx_radio_types_str.c **** 
  90:../../../lr11xx/common/printers/lr11xx_radio_types_str.c **** const char* lr11xx_radio_fallback_modes_to_str( const lr11xx_radio_fallback_modes_t value )
  91:../../../lr11xx/common/printers/lr11xx_radio_types_str.c **** {
ARM GAS  C:\msys64\tmp\ccCxxl6h.s 			page 7


 217              		.loc 1 91 1
 218              		.cfi_startproc
 219              		@ args = 0, pretend = 0, frame = 8
 220              		@ frame_needed = 1, uses_anonymous_args = 0
 221              		@ link register save eliminated.
 222 0000 80B4     		push	{r7}
 223              	.LCFI12:
 224              		.cfi_def_cfa_offset 4
 225              		.cfi_offset 7, -4
 226 0002 83B0     		sub	sp, sp, #12
 227              	.LCFI13:
 228              		.cfi_def_cfa_offset 16
 229 0004 00AF     		add	r7, sp, #0
 230              	.LCFI14:
 231              		.cfi_def_cfa_register 7
 232 0006 0346     		mov	r3, r0
 233 0008 FB71     		strb	r3, [r7, #7]
  92:../../../lr11xx/common/printers/lr11xx_radio_types_str.c ****     switch( value )
 234              		.loc 1 92 5
 235 000a FB79     		ldrb	r3, [r7, #7]	@ zero_extendqisi2
 236 000c 032B     		cmp	r3, #3
 237 000e 0AD0     		beq	.L18
 238 0010 032B     		cmp	r3, #3
 239 0012 0ADC     		bgt	.L19
 240 0014 012B     		cmp	r3, #1
 241 0016 02D0     		beq	.L20
 242 0018 022B     		cmp	r3, #2
 243 001a 02D0     		beq	.L21
 244 001c 05E0     		b	.L19
 245              	.L20:
  93:../../../lr11xx/common/printers/lr11xx_radio_types_str.c ****     {
  94:../../../lr11xx/common/printers/lr11xx_radio_types_str.c ****     case LR11XX_RADIO_FALLBACK_STDBY_RC:
  95:../../../lr11xx/common/printers/lr11xx_radio_types_str.c ****     {
  96:../../../lr11xx/common/printers/lr11xx_radio_types_str.c ****         return ( const char* ) "LR11XX_RADIO_FALLBACK_STDBY_RC";
 246              		.loc 1 96 16
 247 001e 064B     		ldr	r3, .L23
 248 0020 04E0     		b	.L22
 249              	.L21:
  97:../../../lr11xx/common/printers/lr11xx_radio_types_str.c ****     }
  98:../../../lr11xx/common/printers/lr11xx_radio_types_str.c **** 
  99:../../../lr11xx/common/printers/lr11xx_radio_types_str.c ****     case LR11XX_RADIO_FALLBACK_STDBY_XOSC:
 100:../../../lr11xx/common/printers/lr11xx_radio_types_str.c ****     {
 101:../../../lr11xx/common/printers/lr11xx_radio_types_str.c ****         return ( const char* ) "LR11XX_RADIO_FALLBACK_STDBY_XOSC";
 250              		.loc 1 101 16
 251 0022 064B     		ldr	r3, .L23+4
 252 0024 02E0     		b	.L22
 253              	.L18:
 102:../../../lr11xx/common/printers/lr11xx_radio_types_str.c ****     }
 103:../../../lr11xx/common/printers/lr11xx_radio_types_str.c **** 
 104:../../../lr11xx/common/printers/lr11xx_radio_types_str.c ****     case LR11XX_RADIO_FALLBACK_FS:
 105:../../../lr11xx/common/printers/lr11xx_radio_types_str.c ****     {
 106:../../../lr11xx/common/printers/lr11xx_radio_types_str.c ****         return ( const char* ) "LR11XX_RADIO_FALLBACK_FS";
 254              		.loc 1 106 16
 255 0026 064B     		ldr	r3, .L23+8
 256 0028 00E0     		b	.L22
 257              	.L19:
 107:../../../lr11xx/common/printers/lr11xx_radio_types_str.c ****     }
ARM GAS  C:\msys64\tmp\ccCxxl6h.s 			page 8


 108:../../../lr11xx/common/printers/lr11xx_radio_types_str.c **** 
 109:../../../lr11xx/common/printers/lr11xx_radio_types_str.c ****     default:
 110:../../../lr11xx/common/printers/lr11xx_radio_types_str.c ****     {
 111:../../../lr11xx/common/printers/lr11xx_radio_types_str.c ****         return ( const char* ) "Unknown";
 258              		.loc 1 111 16
 259 002a 064B     		ldr	r3, .L23+12
 260              	.L22:
 112:../../../lr11xx/common/printers/lr11xx_radio_types_str.c ****     }
 113:../../../lr11xx/common/printers/lr11xx_radio_types_str.c ****     }
 114:../../../lr11xx/common/printers/lr11xx_radio_types_str.c **** }
 261              		.loc 1 114 1
 262 002c 1846     		mov	r0, r3
 263 002e 0C37     		adds	r7, r7, #12
 264              	.LCFI15:
 265              		.cfi_def_cfa_offset 4
 266 0030 BD46     		mov	sp, r7
 267              	.LCFI16:
 268              		.cfi_def_cfa_register 13
 269              		@ sp needed
 270 0032 5DF8047B 		ldr	r7, [sp], #4
 271              	.LCFI17:
 272              		.cfi_restore 7
 273              		.cfi_def_cfa_offset 0
 274 0036 7047     		bx	lr
 275              	.L24:
 276              		.align	2
 277              	.L23:
 278 0038 F4000000 		.word	.LC7
 279 003c 14010000 		.word	.LC8
 280 0040 38010000 		.word	.LC9
 281 0044 48000000 		.word	.LC3
 282              		.cfi_endproc
 283              	.LFE2:
 285              		.section	.rodata
 286 0151 000000   		.align	2
 287              	.LC10:
 288 0154 4C523131 		.ascii	"LR11XX_RADIO_RAMP_16_US\000"
 288      58585F52 
 288      4144494F 
 288      5F52414D 
 288      505F3136 
 289              		.align	2
 290              	.LC11:
 291 016c 4C523131 		.ascii	"LR11XX_RADIO_RAMP_32_US\000"
 291      58585F52 
 291      4144494F 
 291      5F52414D 
 291      505F3332 
 292              		.align	2
 293              	.LC12:
 294 0184 4C523131 		.ascii	"LR11XX_RADIO_RAMP_48_US\000"
 294      58585F52 
 294      4144494F 
 294      5F52414D 
 294      505F3438 
 295              		.align	2
 296              	.LC13:
ARM GAS  C:\msys64\tmp\ccCxxl6h.s 			page 9


 297 019c 4C523131 		.ascii	"LR11XX_RADIO_RAMP_64_US\000"
 297      58585F52 
 297      4144494F 
 297      5F52414D 
 297      505F3634 
 298              		.align	2
 299              	.LC14:
 300 01b4 4C523131 		.ascii	"LR11XX_RADIO_RAMP_80_US\000"
 300      58585F52 
 300      4144494F 
 300      5F52414D 
 300      505F3830 
 301              		.align	2
 302              	.LC15:
 303 01cc 4C523131 		.ascii	"LR11XX_RADIO_RAMP_96_US\000"
 303      58585F52 
 303      4144494F 
 303      5F52414D 
 303      505F3936 
 304              		.align	2
 305              	.LC16:
 306 01e4 4C523131 		.ascii	"LR11XX_RADIO_RAMP_112_US\000"
 306      58585F52 
 306      4144494F 
 306      5F52414D 
 306      505F3131 
 307 01fd 000000   		.align	2
 308              	.LC17:
 309 0200 4C523131 		.ascii	"LR11XX_RADIO_RAMP_128_US\000"
 309      58585F52 
 309      4144494F 
 309      5F52414D 
 309      505F3132 
 310 0219 000000   		.align	2
 311              	.LC18:
 312 021c 4C523131 		.ascii	"LR11XX_RADIO_RAMP_144_US\000"
 312      58585F52 
 312      4144494F 
 312      5F52414D 
 312      505F3134 
 313 0235 000000   		.align	2
 314              	.LC19:
 315 0238 4C523131 		.ascii	"LR11XX_RADIO_RAMP_160_US\000"
 315      58585F52 
 315      4144494F 
 315      5F52414D 
 315      505F3136 
 316 0251 000000   		.align	2
 317              	.LC20:
 318 0254 4C523131 		.ascii	"LR11XX_RADIO_RAMP_176_US\000"
 318      58585F52 
 318      4144494F 
 318      5F52414D 
 318      505F3137 
 319 026d 000000   		.align	2
 320              	.LC21:
 321 0270 4C523131 		.ascii	"LR11XX_RADIO_RAMP_192_US\000"
ARM GAS  C:\msys64\tmp\ccCxxl6h.s 			page 10


 321      58585F52 
 321      4144494F 
 321      5F52414D 
 321      505F3139 
 322 0289 000000   		.align	2
 323              	.LC22:
 324 028c 4C523131 		.ascii	"LR11XX_RADIO_RAMP_208_US\000"
 324      58585F52 
 324      4144494F 
 324      5F52414D 
 324      505F3230 
 325 02a5 000000   		.align	2
 326              	.LC23:
 327 02a8 4C523131 		.ascii	"LR11XX_RADIO_RAMP_240_US\000"
 327      58585F52 
 327      4144494F 
 327      5F52414D 
 327      505F3234 
 328 02c1 000000   		.align	2
 329              	.LC24:
 330 02c4 4C523131 		.ascii	"LR11XX_RADIO_RAMP_272_US\000"
 330      58585F52 
 330      4144494F 
 330      5F52414D 
 330      505F3237 
 331 02dd 000000   		.align	2
 332              	.LC25:
 333 02e0 4C523131 		.ascii	"LR11XX_RADIO_RAMP_304_US\000"
 333      58585F52 
 333      4144494F 
 333      5F52414D 
 333      505F3330 
 334              		.section	.text.lr11xx_radio_ramp_time_to_str,"ax",%progbits
 335              		.align	1
 336              		.global	lr11xx_radio_ramp_time_to_str
 337              		.syntax unified
 338              		.thumb
 339              		.thumb_func
 341              	lr11xx_radio_ramp_time_to_str:
 342              	.LFB3:
 115:../../../lr11xx/common/printers/lr11xx_radio_types_str.c **** 
 116:../../../lr11xx/common/printers/lr11xx_radio_types_str.c **** const char* lr11xx_radio_ramp_time_to_str( const lr11xx_radio_ramp_time_t value )
 117:../../../lr11xx/common/printers/lr11xx_radio_types_str.c **** {
 343              		.loc 1 117 1
 344              		.cfi_startproc
 345              		@ args = 0, pretend = 0, frame = 8
 346              		@ frame_needed = 1, uses_anonymous_args = 0
 347              		@ link register save eliminated.
 348 0000 80B4     		push	{r7}
 349              	.LCFI18:
 350              		.cfi_def_cfa_offset 4
 351              		.cfi_offset 7, -4
 352 0002 83B0     		sub	sp, sp, #12
 353              	.LCFI19:
 354              		.cfi_def_cfa_offset 16
 355 0004 00AF     		add	r7, sp, #0
 356              	.LCFI20:
ARM GAS  C:\msys64\tmp\ccCxxl6h.s 			page 11


 357              		.cfi_def_cfa_register 7
 358 0006 0346     		mov	r3, r0
 359 0008 FB71     		strb	r3, [r7, #7]
 118:../../../lr11xx/common/printers/lr11xx_radio_types_str.c ****     switch( value )
 360              		.loc 1 118 5
 361 000a FB79     		ldrb	r3, [r7, #7]	@ zero_extendqisi2
 362 000c 0F2B     		cmp	r3, #15
 363 000e 43D8     		bhi	.L26
 364 0010 01A2     		adr	r2, .L28
 365 0012 52F823F0 		ldr	pc, [r2, r3, lsl #2]
 366 0016 00BF     		.p2align 2
 367              	.L28:
 368 0018 59000000 		.word	.L43+1
 369 001c 5D000000 		.word	.L42+1
 370 0020 61000000 		.word	.L41+1
 371 0024 65000000 		.word	.L40+1
 372 0028 69000000 		.word	.L39+1
 373 002c 6D000000 		.word	.L38+1
 374 0030 71000000 		.word	.L37+1
 375 0034 75000000 		.word	.L36+1
 376 0038 79000000 		.word	.L35+1
 377 003c 7D000000 		.word	.L34+1
 378 0040 81000000 		.word	.L33+1
 379 0044 85000000 		.word	.L32+1
 380 0048 89000000 		.word	.L31+1
 381 004c 8D000000 		.word	.L30+1
 382 0050 91000000 		.word	.L29+1
 383 0054 95000000 		.word	.L27+1
 384              		.p2align 1
 385              	.L43:
 119:../../../lr11xx/common/printers/lr11xx_radio_types_str.c ****     {
 120:../../../lr11xx/common/printers/lr11xx_radio_types_str.c ****     case LR11XX_RADIO_RAMP_16_US:
 121:../../../lr11xx/common/printers/lr11xx_radio_types_str.c ****     {
 122:../../../lr11xx/common/printers/lr11xx_radio_types_str.c ****         return ( const char* ) "LR11XX_RADIO_RAMP_16_US";
 386              		.loc 1 122 16
 387 0058 134B     		ldr	r3, .L45
 388 005a 1EE0     		b	.L44
 389              	.L42:
 123:../../../lr11xx/common/printers/lr11xx_radio_types_str.c ****     }
 124:../../../lr11xx/common/printers/lr11xx_radio_types_str.c **** 
 125:../../../lr11xx/common/printers/lr11xx_radio_types_str.c ****     case LR11XX_RADIO_RAMP_32_US:
 126:../../../lr11xx/common/printers/lr11xx_radio_types_str.c ****     {
 127:../../../lr11xx/common/printers/lr11xx_radio_types_str.c ****         return ( const char* ) "LR11XX_RADIO_RAMP_32_US";
 390              		.loc 1 127 16
 391 005c 134B     		ldr	r3, .L45+4
 392 005e 1CE0     		b	.L44
 393              	.L41:
 128:../../../lr11xx/common/printers/lr11xx_radio_types_str.c ****     }
 129:../../../lr11xx/common/printers/lr11xx_radio_types_str.c **** 
 130:../../../lr11xx/common/printers/lr11xx_radio_types_str.c ****     case LR11XX_RADIO_RAMP_48_US:
 131:../../../lr11xx/common/printers/lr11xx_radio_types_str.c ****     {
 132:../../../lr11xx/common/printers/lr11xx_radio_types_str.c ****         return ( const char* ) "LR11XX_RADIO_RAMP_48_US";
 394              		.loc 1 132 16
 395 0060 134B     		ldr	r3, .L45+8
 396 0062 1AE0     		b	.L44
 397              	.L40:
 133:../../../lr11xx/common/printers/lr11xx_radio_types_str.c ****     }
ARM GAS  C:\msys64\tmp\ccCxxl6h.s 			page 12


 134:../../../lr11xx/common/printers/lr11xx_radio_types_str.c **** 
 135:../../../lr11xx/common/printers/lr11xx_radio_types_str.c ****     case LR11XX_RADIO_RAMP_64_US:
 136:../../../lr11xx/common/printers/lr11xx_radio_types_str.c ****     {
 137:../../../lr11xx/common/printers/lr11xx_radio_types_str.c ****         return ( const char* ) "LR11XX_RADIO_RAMP_64_US";
 398              		.loc 1 137 16
 399 0064 134B     		ldr	r3, .L45+12
 400 0066 18E0     		b	.L44
 401              	.L39:
 138:../../../lr11xx/common/printers/lr11xx_radio_types_str.c ****     }
 139:../../../lr11xx/common/printers/lr11xx_radio_types_str.c **** 
 140:../../../lr11xx/common/printers/lr11xx_radio_types_str.c ****     case LR11XX_RADIO_RAMP_80_US:
 141:../../../lr11xx/common/printers/lr11xx_radio_types_str.c ****     {
 142:../../../lr11xx/common/printers/lr11xx_radio_types_str.c ****         return ( const char* ) "LR11XX_RADIO_RAMP_80_US";
 402              		.loc 1 142 16
 403 0068 134B     		ldr	r3, .L45+16
 404 006a 16E0     		b	.L44
 405              	.L38:
 143:../../../lr11xx/common/printers/lr11xx_radio_types_str.c ****     }
 144:../../../lr11xx/common/printers/lr11xx_radio_types_str.c **** 
 145:../../../lr11xx/common/printers/lr11xx_radio_types_str.c ****     case LR11XX_RADIO_RAMP_96_US:
 146:../../../lr11xx/common/printers/lr11xx_radio_types_str.c ****     {
 147:../../../lr11xx/common/printers/lr11xx_radio_types_str.c ****         return ( const char* ) "LR11XX_RADIO_RAMP_96_US";
 406              		.loc 1 147 16
 407 006c 134B     		ldr	r3, .L45+20
 408 006e 14E0     		b	.L44
 409              	.L37:
 148:../../../lr11xx/common/printers/lr11xx_radio_types_str.c ****     }
 149:../../../lr11xx/common/printers/lr11xx_radio_types_str.c **** 
 150:../../../lr11xx/common/printers/lr11xx_radio_types_str.c ****     case LR11XX_RADIO_RAMP_112_US:
 151:../../../lr11xx/common/printers/lr11xx_radio_types_str.c ****     {
 152:../../../lr11xx/common/printers/lr11xx_radio_types_str.c ****         return ( const char* ) "LR11XX_RADIO_RAMP_112_US";
 410              		.loc 1 152 16
 411 0070 134B     		ldr	r3, .L45+24
 412 0072 12E0     		b	.L44
 413              	.L36:
 153:../../../lr11xx/common/printers/lr11xx_radio_types_str.c ****     }
 154:../../../lr11xx/common/printers/lr11xx_radio_types_str.c **** 
 155:../../../lr11xx/common/printers/lr11xx_radio_types_str.c ****     case LR11XX_RADIO_RAMP_128_US:
 156:../../../lr11xx/common/printers/lr11xx_radio_types_str.c ****     {
 157:../../../lr11xx/common/printers/lr11xx_radio_types_str.c ****         return ( const char* ) "LR11XX_RADIO_RAMP_128_US";
 414              		.loc 1 157 16
 415 0074 134B     		ldr	r3, .L45+28
 416 0076 10E0     		b	.L44
 417              	.L35:
 158:../../../lr11xx/common/printers/lr11xx_radio_types_str.c ****     }
 159:../../../lr11xx/common/printers/lr11xx_radio_types_str.c **** 
 160:../../../lr11xx/common/printers/lr11xx_radio_types_str.c ****     case LR11XX_RADIO_RAMP_144_US:
 161:../../../lr11xx/common/printers/lr11xx_radio_types_str.c ****     {
 162:../../../lr11xx/common/printers/lr11xx_radio_types_str.c ****         return ( const char* ) "LR11XX_RADIO_RAMP_144_US";
 418              		.loc 1 162 16
 419 0078 134B     		ldr	r3, .L45+32
 420 007a 0EE0     		b	.L44
 421              	.L34:
 163:../../../lr11xx/common/printers/lr11xx_radio_types_str.c ****     }
 164:../../../lr11xx/common/printers/lr11xx_radio_types_str.c **** 
 165:../../../lr11xx/common/printers/lr11xx_radio_types_str.c ****     case LR11XX_RADIO_RAMP_160_US:
 166:../../../lr11xx/common/printers/lr11xx_radio_types_str.c ****     {
ARM GAS  C:\msys64\tmp\ccCxxl6h.s 			page 13


 167:../../../lr11xx/common/printers/lr11xx_radio_types_str.c ****         return ( const char* ) "LR11XX_RADIO_RAMP_160_US";
 422              		.loc 1 167 16
 423 007c 134B     		ldr	r3, .L45+36
 424 007e 0CE0     		b	.L44
 425              	.L33:
 168:../../../lr11xx/common/printers/lr11xx_radio_types_str.c ****     }
 169:../../../lr11xx/common/printers/lr11xx_radio_types_str.c **** 
 170:../../../lr11xx/common/printers/lr11xx_radio_types_str.c ****     case LR11XX_RADIO_RAMP_176_US:
 171:../../../lr11xx/common/printers/lr11xx_radio_types_str.c ****     {
 172:../../../lr11xx/common/printers/lr11xx_radio_types_str.c ****         return ( const char* ) "LR11XX_RADIO_RAMP_176_US";
 426              		.loc 1 172 16
 427 0080 134B     		ldr	r3, .L45+40
 428 0082 0AE0     		b	.L44
 429              	.L32:
 173:../../../lr11xx/common/printers/lr11xx_radio_types_str.c ****     }
 174:../../../lr11xx/common/printers/lr11xx_radio_types_str.c **** 
 175:../../../lr11xx/common/printers/lr11xx_radio_types_str.c ****     case LR11XX_RADIO_RAMP_192_US:
 176:../../../lr11xx/common/printers/lr11xx_radio_types_str.c ****     {
 177:../../../lr11xx/common/printers/lr11xx_radio_types_str.c ****         return ( const char* ) "LR11XX_RADIO_RAMP_192_US";
 430              		.loc 1 177 16
 431 0084 134B     		ldr	r3, .L45+44
 432 0086 08E0     		b	.L44
 433              	.L31:
 178:../../../lr11xx/common/printers/lr11xx_radio_types_str.c ****     }
 179:../../../lr11xx/common/printers/lr11xx_radio_types_str.c **** 
 180:../../../lr11xx/common/printers/lr11xx_radio_types_str.c ****     case LR11XX_RADIO_RAMP_208_US:
 181:../../../lr11xx/common/printers/lr11xx_radio_types_str.c ****     {
 182:../../../lr11xx/common/printers/lr11xx_radio_types_str.c ****         return ( const char* ) "LR11XX_RADIO_RAMP_208_US";
 434              		.loc 1 182 16
 435 0088 134B     		ldr	r3, .L45+48
 436 008a 06E0     		b	.L44
 437              	.L30:
 183:../../../lr11xx/common/printers/lr11xx_radio_types_str.c ****     }
 184:../../../lr11xx/common/printers/lr11xx_radio_types_str.c **** 
 185:../../../lr11xx/common/printers/lr11xx_radio_types_str.c ****     case LR11XX_RADIO_RAMP_240_US:
 186:../../../lr11xx/common/printers/lr11xx_radio_types_str.c ****     {
 187:../../../lr11xx/common/printers/lr11xx_radio_types_str.c ****         return ( const char* ) "LR11XX_RADIO_RAMP_240_US";
 438              		.loc 1 187 16
 439 008c 134B     		ldr	r3, .L45+52
 440 008e 04E0     		b	.L44
 441              	.L29:
 188:../../../lr11xx/common/printers/lr11xx_radio_types_str.c ****     }
 189:../../../lr11xx/common/printers/lr11xx_radio_types_str.c **** 
 190:../../../lr11xx/common/printers/lr11xx_radio_types_str.c ****     case LR11XX_RADIO_RAMP_272_US:
 191:../../../lr11xx/common/printers/lr11xx_radio_types_str.c ****     {
 192:../../../lr11xx/common/printers/lr11xx_radio_types_str.c ****         return ( const char* ) "LR11XX_RADIO_RAMP_272_US";
 442              		.loc 1 192 16
 443 0090 134B     		ldr	r3, .L45+56
 444 0092 02E0     		b	.L44
 445              	.L27:
 193:../../../lr11xx/common/printers/lr11xx_radio_types_str.c ****     }
 194:../../../lr11xx/common/printers/lr11xx_radio_types_str.c **** 
 195:../../../lr11xx/common/printers/lr11xx_radio_types_str.c ****     case LR11XX_RADIO_RAMP_304_US:
 196:../../../lr11xx/common/printers/lr11xx_radio_types_str.c ****     {
 197:../../../lr11xx/common/printers/lr11xx_radio_types_str.c ****         return ( const char* ) "LR11XX_RADIO_RAMP_304_US";
 446              		.loc 1 197 16
 447 0094 134B     		ldr	r3, .L45+60
ARM GAS  C:\msys64\tmp\ccCxxl6h.s 			page 14


 448 0096 00E0     		b	.L44
 449              	.L26:
 198:../../../lr11xx/common/printers/lr11xx_radio_types_str.c ****     }
 199:../../../lr11xx/common/printers/lr11xx_radio_types_str.c **** 
 200:../../../lr11xx/common/printers/lr11xx_radio_types_str.c ****     default:
 201:../../../lr11xx/common/printers/lr11xx_radio_types_str.c ****     {
 202:../../../lr11xx/common/printers/lr11xx_radio_types_str.c ****         return ( const char* ) "Unknown";
 450              		.loc 1 202 16
 451 0098 134B     		ldr	r3, .L45+64
 452              	.L44:
 203:../../../lr11xx/common/printers/lr11xx_radio_types_str.c ****     }
 204:../../../lr11xx/common/printers/lr11xx_radio_types_str.c ****     }
 205:../../../lr11xx/common/printers/lr11xx_radio_types_str.c **** }
 453              		.loc 1 205 1
 454 009a 1846     		mov	r0, r3
 455 009c 0C37     		adds	r7, r7, #12
 456              	.LCFI21:
 457              		.cfi_def_cfa_offset 4
 458 009e BD46     		mov	sp, r7
 459              	.LCFI22:
 460              		.cfi_def_cfa_register 13
 461              		@ sp needed
 462 00a0 5DF8047B 		ldr	r7, [sp], #4
 463              	.LCFI23:
 464              		.cfi_restore 7
 465              		.cfi_def_cfa_offset 0
 466 00a4 7047     		bx	lr
 467              	.L46:
 468 00a6 00BF     		.align	2
 469              	.L45:
 470 00a8 54010000 		.word	.LC10
 471 00ac 6C010000 		.word	.LC11
 472 00b0 84010000 		.word	.LC12
 473 00b4 9C010000 		.word	.LC13
 474 00b8 B4010000 		.word	.LC14
 475 00bc CC010000 		.word	.LC15
 476 00c0 E4010000 		.word	.LC16
 477 00c4 00020000 		.word	.LC17
 478 00c8 1C020000 		.word	.LC18
 479 00cc 38020000 		.word	.LC19
 480 00d0 54020000 		.word	.LC20
 481 00d4 70020000 		.word	.LC21
 482 00d8 8C020000 		.word	.LC22
 483 00dc A8020000 		.word	.LC23
 484 00e0 C4020000 		.word	.LC24
 485 00e4 E0020000 		.word	.LC25
 486 00e8 48000000 		.word	.LC3
 487              		.cfi_endproc
 488              	.LFE3:
 490              		.section	.rodata
 491 02f9 000000   		.align	2
 492              	.LC26:
 493 02fc 4C523131 		.ascii	"LR11XX_RADIO_LORA_NETWORK_PRIVATE\000"
 493      58585F52 
 493      4144494F 
 493      5F4C4F52 
 493      415F4E45 
ARM GAS  C:\msys64\tmp\ccCxxl6h.s 			page 15


 494 031e 0000     		.align	2
 495              	.LC27:
 496 0320 4C523131 		.ascii	"LR11XX_RADIO_LORA_NETWORK_PUBLIC\000"
 496      58585F52 
 496      4144494F 
 496      5F4C4F52 
 496      415F4E45 
 497              		.section	.text.lr11xx_radio_lora_network_type_to_str,"ax",%progbits
 498              		.align	1
 499              		.global	lr11xx_radio_lora_network_type_to_str
 500              		.syntax unified
 501              		.thumb
 502              		.thumb_func
 504              	lr11xx_radio_lora_network_type_to_str:
 505              	.LFB4:
 206:../../../lr11xx/common/printers/lr11xx_radio_types_str.c **** 
 207:../../../lr11xx/common/printers/lr11xx_radio_types_str.c **** const char* lr11xx_radio_lora_network_type_to_str( const lr11xx_radio_lora_network_type_t value )
 208:../../../lr11xx/common/printers/lr11xx_radio_types_str.c **** {
 506              		.loc 1 208 1
 507              		.cfi_startproc
 508              		@ args = 0, pretend = 0, frame = 8
 509              		@ frame_needed = 1, uses_anonymous_args = 0
 510              		@ link register save eliminated.
 511 0000 80B4     		push	{r7}
 512              	.LCFI24:
 513              		.cfi_def_cfa_offset 4
 514              		.cfi_offset 7, -4
 515 0002 83B0     		sub	sp, sp, #12
 516              	.LCFI25:
 517              		.cfi_def_cfa_offset 16
 518 0004 00AF     		add	r7, sp, #0
 519              	.LCFI26:
 520              		.cfi_def_cfa_register 7
 521 0006 0346     		mov	r3, r0
 522 0008 FB71     		strb	r3, [r7, #7]
 209:../../../lr11xx/common/printers/lr11xx_radio_types_str.c ****     switch( value )
 523              		.loc 1 209 5
 524 000a FB79     		ldrb	r3, [r7, #7]	@ zero_extendqisi2
 525 000c 002B     		cmp	r3, #0
 526 000e 02D0     		beq	.L48
 527 0010 012B     		cmp	r3, #1
 528 0012 02D0     		beq	.L49
 529 0014 03E0     		b	.L52
 530              	.L48:
 210:../../../lr11xx/common/printers/lr11xx_radio_types_str.c ****     {
 211:../../../lr11xx/common/printers/lr11xx_radio_types_str.c ****     case LR11XX_RADIO_LORA_NETWORK_PRIVATE:
 212:../../../lr11xx/common/printers/lr11xx_radio_types_str.c ****     {
 213:../../../lr11xx/common/printers/lr11xx_radio_types_str.c ****         return ( const char* ) "LR11XX_RADIO_LORA_NETWORK_PRIVATE";
 531              		.loc 1 213 16
 532 0016 054B     		ldr	r3, .L53
 533 0018 02E0     		b	.L51
 534              	.L49:
 214:../../../lr11xx/common/printers/lr11xx_radio_types_str.c ****     }
 215:../../../lr11xx/common/printers/lr11xx_radio_types_str.c **** 
 216:../../../lr11xx/common/printers/lr11xx_radio_types_str.c ****     case LR11XX_RADIO_LORA_NETWORK_PUBLIC:
 217:../../../lr11xx/common/printers/lr11xx_radio_types_str.c ****     {
 218:../../../lr11xx/common/printers/lr11xx_radio_types_str.c ****         return ( const char* ) "LR11XX_RADIO_LORA_NETWORK_PUBLIC";
ARM GAS  C:\msys64\tmp\ccCxxl6h.s 			page 16


 535              		.loc 1 218 16
 536 001a 054B     		ldr	r3, .L53+4
 537 001c 00E0     		b	.L51
 538              	.L52:
 219:../../../lr11xx/common/printers/lr11xx_radio_types_str.c ****     }
 220:../../../lr11xx/common/printers/lr11xx_radio_types_str.c **** 
 221:../../../lr11xx/common/printers/lr11xx_radio_types_str.c ****     default:
 222:../../../lr11xx/common/printers/lr11xx_radio_types_str.c ****     {
 223:../../../lr11xx/common/printers/lr11xx_radio_types_str.c ****         return ( const char* ) "Unknown";
 539              		.loc 1 223 16
 540 001e 054B     		ldr	r3, .L53+8
 541              	.L51:
 224:../../../lr11xx/common/printers/lr11xx_radio_types_str.c ****     }
 225:../../../lr11xx/common/printers/lr11xx_radio_types_str.c ****     }
 226:../../../lr11xx/common/printers/lr11xx_radio_types_str.c **** }
 542              		.loc 1 226 1
 543 0020 1846     		mov	r0, r3
 544 0022 0C37     		adds	r7, r7, #12
 545              	.LCFI27:
 546              		.cfi_def_cfa_offset 4
 547 0024 BD46     		mov	sp, r7
 548              	.LCFI28:
 549              		.cfi_def_cfa_register 13
 550              		@ sp needed
 551 0026 5DF8047B 		ldr	r7, [sp], #4
 552              	.LCFI29:
 553              		.cfi_restore 7
 554              		.cfi_def_cfa_offset 0
 555 002a 7047     		bx	lr
 556              	.L54:
 557              		.align	2
 558              	.L53:
 559 002c FC020000 		.word	.LC26
 560 0030 20030000 		.word	.LC27
 561 0034 48000000 		.word	.LC3
 562              		.cfi_endproc
 563              	.LFE4:
 565              		.section	.rodata
 566 0341 000000   		.align	2
 567              	.LC28:
 568 0344 4C523131 		.ascii	"LR11XX_RADIO_LORA_SF5\000"
 568      58585F52 
 568      4144494F 
 568      5F4C4F52 
 568      415F5346 
 569 035a 0000     		.align	2
 570              	.LC29:
 571 035c 4C523131 		.ascii	"LR11XX_RADIO_LORA_SF6\000"
 571      58585F52 
 571      4144494F 
 571      5F4C4F52 
 571      415F5346 
 572 0372 0000     		.align	2
 573              	.LC30:
 574 0374 4C523131 		.ascii	"LR11XX_RADIO_LORA_SF7\000"
 574      58585F52 
 574      4144494F 
ARM GAS  C:\msys64\tmp\ccCxxl6h.s 			page 17


 574      5F4C4F52 
 574      415F5346 
 575 038a 0000     		.align	2
 576              	.LC31:
 577 038c 4C523131 		.ascii	"LR11XX_RADIO_LORA_SF8\000"
 577      58585F52 
 577      4144494F 
 577      5F4C4F52 
 577      415F5346 
 578 03a2 0000     		.align	2
 579              	.LC32:
 580 03a4 4C523131 		.ascii	"LR11XX_RADIO_LORA_SF9\000"
 580      58585F52 
 580      4144494F 
 580      5F4C4F52 
 580      415F5346 
 581 03ba 0000     		.align	2
 582              	.LC33:
 583 03bc 4C523131 		.ascii	"LR11XX_RADIO_LORA_SF10\000"
 583      58585F52 
 583      4144494F 
 583      5F4C4F52 
 583      415F5346 
 584 03d3 00       		.align	2
 585              	.LC34:
 586 03d4 4C523131 		.ascii	"LR11XX_RADIO_LORA_SF11\000"
 586      58585F52 
 586      4144494F 
 586      5F4C4F52 
 586      415F5346 
 587 03eb 00       		.align	2
 588              	.LC35:
 589 03ec 4C523131 		.ascii	"LR11XX_RADIO_LORA_SF12\000"
 589      58585F52 
 589      4144494F 
 589      5F4C4F52 
 589      415F5346 
 590              		.section	.text.lr11xx_radio_lora_sf_to_str,"ax",%progbits
 591              		.align	1
 592              		.global	lr11xx_radio_lora_sf_to_str
 593              		.syntax unified
 594              		.thumb
 595              		.thumb_func
 597              	lr11xx_radio_lora_sf_to_str:
 598              	.LFB5:
 227:../../../lr11xx/common/printers/lr11xx_radio_types_str.c **** 
 228:../../../lr11xx/common/printers/lr11xx_radio_types_str.c **** const char* lr11xx_radio_lora_sf_to_str( const lr11xx_radio_lora_sf_t value )
 229:../../../lr11xx/common/printers/lr11xx_radio_types_str.c **** {
 599              		.loc 1 229 1
 600              		.cfi_startproc
 601              		@ args = 0, pretend = 0, frame = 8
 602              		@ frame_needed = 1, uses_anonymous_args = 0
 603              		@ link register save eliminated.
 604 0000 80B4     		push	{r7}
 605              	.LCFI30:
 606              		.cfi_def_cfa_offset 4
 607              		.cfi_offset 7, -4
ARM GAS  C:\msys64\tmp\ccCxxl6h.s 			page 18


 608 0002 83B0     		sub	sp, sp, #12
 609              	.LCFI31:
 610              		.cfi_def_cfa_offset 16
 611 0004 00AF     		add	r7, sp, #0
 612              	.LCFI32:
 613              		.cfi_def_cfa_register 7
 614 0006 0346     		mov	r3, r0
 615 0008 FB71     		strb	r3, [r7, #7]
 230:../../../lr11xx/common/printers/lr11xx_radio_types_str.c ****     switch( value )
 616              		.loc 1 230 5
 617 000a FB79     		ldrb	r3, [r7, #7]	@ zero_extendqisi2
 618 000c 053B     		subs	r3, r3, #5
 619 000e 072B     		cmp	r3, #7
 620 0010 22D8     		bhi	.L56
 621 0012 01A2     		adr	r2, .L58
 622 0014 52F823F0 		ldr	pc, [r2, r3, lsl #2]
 623              		.p2align 2
 624              	.L58:
 625 0018 39000000 		.word	.L65+1
 626 001c 3D000000 		.word	.L64+1
 627 0020 41000000 		.word	.L63+1
 628 0024 45000000 		.word	.L62+1
 629 0028 49000000 		.word	.L61+1
 630 002c 4D000000 		.word	.L60+1
 631 0030 51000000 		.word	.L59+1
 632 0034 55000000 		.word	.L57+1
 633              		.p2align 1
 634              	.L65:
 231:../../../lr11xx/common/printers/lr11xx_radio_types_str.c ****     {
 232:../../../lr11xx/common/printers/lr11xx_radio_types_str.c ****     case LR11XX_RADIO_LORA_SF5:
 233:../../../lr11xx/common/printers/lr11xx_radio_types_str.c ****     {
 234:../../../lr11xx/common/printers/lr11xx_radio_types_str.c ****         return ( const char* ) "LR11XX_RADIO_LORA_SF5";
 635              		.loc 1 234 16
 636 0038 0B4B     		ldr	r3, .L67
 637 003a 0EE0     		b	.L66
 638              	.L64:
 235:../../../lr11xx/common/printers/lr11xx_radio_types_str.c ****     }
 236:../../../lr11xx/common/printers/lr11xx_radio_types_str.c **** 
 237:../../../lr11xx/common/printers/lr11xx_radio_types_str.c ****     case LR11XX_RADIO_LORA_SF6:
 238:../../../lr11xx/common/printers/lr11xx_radio_types_str.c ****     {
 239:../../../lr11xx/common/printers/lr11xx_radio_types_str.c ****         return ( const char* ) "LR11XX_RADIO_LORA_SF6";
 639              		.loc 1 239 16
 640 003c 0B4B     		ldr	r3, .L67+4
 641 003e 0CE0     		b	.L66
 642              	.L63:
 240:../../../lr11xx/common/printers/lr11xx_radio_types_str.c ****     }
 241:../../../lr11xx/common/printers/lr11xx_radio_types_str.c **** 
 242:../../../lr11xx/common/printers/lr11xx_radio_types_str.c ****     case LR11XX_RADIO_LORA_SF7:
 243:../../../lr11xx/common/printers/lr11xx_radio_types_str.c ****     {
 244:../../../lr11xx/common/printers/lr11xx_radio_types_str.c ****         return ( const char* ) "LR11XX_RADIO_LORA_SF7";
 643              		.loc 1 244 16
 644 0040 0B4B     		ldr	r3, .L67+8
 645 0042 0AE0     		b	.L66
 646              	.L62:
 245:../../../lr11xx/common/printers/lr11xx_radio_types_str.c ****     }
 246:../../../lr11xx/common/printers/lr11xx_radio_types_str.c **** 
 247:../../../lr11xx/common/printers/lr11xx_radio_types_str.c ****     case LR11XX_RADIO_LORA_SF8:
ARM GAS  C:\msys64\tmp\ccCxxl6h.s 			page 19


 248:../../../lr11xx/common/printers/lr11xx_radio_types_str.c ****     {
 249:../../../lr11xx/common/printers/lr11xx_radio_types_str.c ****         return ( const char* ) "LR11XX_RADIO_LORA_SF8";
 647              		.loc 1 249 16
 648 0044 0B4B     		ldr	r3, .L67+12
 649 0046 08E0     		b	.L66
 650              	.L61:
 250:../../../lr11xx/common/printers/lr11xx_radio_types_str.c ****     }
 251:../../../lr11xx/common/printers/lr11xx_radio_types_str.c **** 
 252:../../../lr11xx/common/printers/lr11xx_radio_types_str.c ****     case LR11XX_RADIO_LORA_SF9:
 253:../../../lr11xx/common/printers/lr11xx_radio_types_str.c ****     {
 254:../../../lr11xx/common/printers/lr11xx_radio_types_str.c ****         return ( const char* ) "LR11XX_RADIO_LORA_SF9";
 651              		.loc 1 254 16
 652 0048 0B4B     		ldr	r3, .L67+16
 653 004a 06E0     		b	.L66
 654              	.L60:
 255:../../../lr11xx/common/printers/lr11xx_radio_types_str.c ****     }
 256:../../../lr11xx/common/printers/lr11xx_radio_types_str.c **** 
 257:../../../lr11xx/common/printers/lr11xx_radio_types_str.c ****     case LR11XX_RADIO_LORA_SF10:
 258:../../../lr11xx/common/printers/lr11xx_radio_types_str.c ****     {
 259:../../../lr11xx/common/printers/lr11xx_radio_types_str.c ****         return ( const char* ) "LR11XX_RADIO_LORA_SF10";
 655              		.loc 1 259 16
 656 004c 0B4B     		ldr	r3, .L67+20
 657 004e 04E0     		b	.L66
 658              	.L59:
 260:../../../lr11xx/common/printers/lr11xx_radio_types_str.c ****     }
 261:../../../lr11xx/common/printers/lr11xx_radio_types_str.c **** 
 262:../../../lr11xx/common/printers/lr11xx_radio_types_str.c ****     case LR11XX_RADIO_LORA_SF11:
 263:../../../lr11xx/common/printers/lr11xx_radio_types_str.c ****     {
 264:../../../lr11xx/common/printers/lr11xx_radio_types_str.c ****         return ( const char* ) "LR11XX_RADIO_LORA_SF11";
 659              		.loc 1 264 16
 660 0050 0B4B     		ldr	r3, .L67+24
 661 0052 02E0     		b	.L66
 662              	.L57:
 265:../../../lr11xx/common/printers/lr11xx_radio_types_str.c ****     }
 266:../../../lr11xx/common/printers/lr11xx_radio_types_str.c **** 
 267:../../../lr11xx/common/printers/lr11xx_radio_types_str.c ****     case LR11XX_RADIO_LORA_SF12:
 268:../../../lr11xx/common/printers/lr11xx_radio_types_str.c ****     {
 269:../../../lr11xx/common/printers/lr11xx_radio_types_str.c ****         return ( const char* ) "LR11XX_RADIO_LORA_SF12";
 663              		.loc 1 269 16
 664 0054 0B4B     		ldr	r3, .L67+28
 665 0056 00E0     		b	.L66
 666              	.L56:
 270:../../../lr11xx/common/printers/lr11xx_radio_types_str.c ****     }
 271:../../../lr11xx/common/printers/lr11xx_radio_types_str.c **** 
 272:../../../lr11xx/common/printers/lr11xx_radio_types_str.c ****     default:
 273:../../../lr11xx/common/printers/lr11xx_radio_types_str.c ****     {
 274:../../../lr11xx/common/printers/lr11xx_radio_types_str.c ****         return ( const char* ) "Unknown";
 667              		.loc 1 274 16
 668 0058 0B4B     		ldr	r3, .L67+32
 669              	.L66:
 275:../../../lr11xx/common/printers/lr11xx_radio_types_str.c ****     }
 276:../../../lr11xx/common/printers/lr11xx_radio_types_str.c ****     }
 277:../../../lr11xx/common/printers/lr11xx_radio_types_str.c **** }
 670              		.loc 1 277 1
 671 005a 1846     		mov	r0, r3
 672 005c 0C37     		adds	r7, r7, #12
 673              	.LCFI33:
ARM GAS  C:\msys64\tmp\ccCxxl6h.s 			page 20


 674              		.cfi_def_cfa_offset 4
 675 005e BD46     		mov	sp, r7
 676              	.LCFI34:
 677              		.cfi_def_cfa_register 13
 678              		@ sp needed
 679 0060 5DF8047B 		ldr	r7, [sp], #4
 680              	.LCFI35:
 681              		.cfi_restore 7
 682              		.cfi_def_cfa_offset 0
 683 0064 7047     		bx	lr
 684              	.L68:
 685 0066 00BF     		.align	2
 686              	.L67:
 687 0068 44030000 		.word	.LC28
 688 006c 5C030000 		.word	.LC29
 689 0070 74030000 		.word	.LC30
 690 0074 8C030000 		.word	.LC31
 691 0078 A4030000 		.word	.LC32
 692 007c BC030000 		.word	.LC33
 693 0080 D4030000 		.word	.LC34
 694 0084 EC030000 		.word	.LC35
 695 0088 48000000 		.word	.LC3
 696              		.cfi_endproc
 697              	.LFE5:
 699              		.section	.rodata
 700 0403 00       		.align	2
 701              	.LC36:
 702 0404 4C523131 		.ascii	"LR11XX_RADIO_LORA_BW_10\000"
 702      58585F52 
 702      4144494F 
 702      5F4C4F52 
 702      415F4257 
 703              		.align	2
 704              	.LC37:
 705 041c 4C523131 		.ascii	"LR11XX_RADIO_LORA_BW_15\000"
 705      58585F52 
 705      4144494F 
 705      5F4C4F52 
 705      415F4257 
 706              		.align	2
 707              	.LC38:
 708 0434 4C523131 		.ascii	"LR11XX_RADIO_LORA_BW_20\000"
 708      58585F52 
 708      4144494F 
 708      5F4C4F52 
 708      415F4257 
 709              		.align	2
 710              	.LC39:
 711 044c 4C523131 		.ascii	"LR11XX_RADIO_LORA_BW_31\000"
 711      58585F52 
 711      4144494F 
 711      5F4C4F52 
 711      415F4257 
 712              		.align	2
 713              	.LC40:
 714 0464 4C523131 		.ascii	"LR11XX_RADIO_LORA_BW_41\000"
 714      58585F52 
ARM GAS  C:\msys64\tmp\ccCxxl6h.s 			page 21


 714      4144494F 
 714      5F4C4F52 
 714      415F4257 
 715              		.align	2
 716              	.LC41:
 717 047c 4C523131 		.ascii	"LR11XX_RADIO_LORA_BW_62\000"
 717      58585F52 
 717      4144494F 
 717      5F4C4F52 
 717      415F4257 
 718              		.align	2
 719              	.LC42:
 720 0494 4C523131 		.ascii	"LR11XX_RADIO_LORA_BW_125\000"
 720      58585F52 
 720      4144494F 
 720      5F4C4F52 
 720      415F4257 
 721 04ad 000000   		.align	2
 722              	.LC43:
 723 04b0 4C523131 		.ascii	"LR11XX_RADIO_LORA_BW_250\000"
 723      58585F52 
 723      4144494F 
 723      5F4C4F52 
 723      415F4257 
 724 04c9 000000   		.align	2
 725              	.LC44:
 726 04cc 4C523131 		.ascii	"LR11XX_RADIO_LORA_BW_500\000"
 726      58585F52 
 726      4144494F 
 726      5F4C4F52 
 726      415F4257 
 727 04e5 000000   		.align	2
 728              	.LC45:
 729 04e8 4C523131 		.ascii	"LR11XX_RADIO_LORA_BW_200\000"
 729      58585F52 
 729      4144494F 
 729      5F4C4F52 
 729      415F4257 
 730 0501 000000   		.align	2
 731              	.LC46:
 732 0504 4C523131 		.ascii	"LR11XX_RADIO_LORA_BW_400\000"
 732      58585F52 
 732      4144494F 
 732      5F4C4F52 
 732      415F4257 
 733 051d 000000   		.align	2
 734              	.LC47:
 735 0520 4C523131 		.ascii	"LR11XX_RADIO_LORA_BW_800\000"
 735      58585F52 
 735      4144494F 
 735      5F4C4F52 
 735      415F4257 
 736              		.section	.text.lr11xx_radio_lora_bw_to_str,"ax",%progbits
 737              		.align	1
 738              		.global	lr11xx_radio_lora_bw_to_str
 739              		.syntax unified
 740              		.thumb
ARM GAS  C:\msys64\tmp\ccCxxl6h.s 			page 22


 741              		.thumb_func
 743              	lr11xx_radio_lora_bw_to_str:
 744              	.LFB6:
 278:../../../lr11xx/common/printers/lr11xx_radio_types_str.c **** 
 279:../../../lr11xx/common/printers/lr11xx_radio_types_str.c **** const char* lr11xx_radio_lora_bw_to_str( const lr11xx_radio_lora_bw_t value )
 280:../../../lr11xx/common/printers/lr11xx_radio_types_str.c **** {
 745              		.loc 1 280 1
 746              		.cfi_startproc
 747              		@ args = 0, pretend = 0, frame = 8
 748              		@ frame_needed = 1, uses_anonymous_args = 0
 749              		@ link register save eliminated.
 750 0000 80B4     		push	{r7}
 751              	.LCFI36:
 752              		.cfi_def_cfa_offset 4
 753              		.cfi_offset 7, -4
 754 0002 83B0     		sub	sp, sp, #12
 755              	.LCFI37:
 756              		.cfi_def_cfa_offset 16
 757 0004 00AF     		add	r7, sp, #0
 758              	.LCFI38:
 759              		.cfi_def_cfa_register 7
 760 0006 0346     		mov	r3, r0
 761 0008 FB71     		strb	r3, [r7, #7]
 281:../../../lr11xx/common/printers/lr11xx_radio_types_str.c ****     switch( value )
 762              		.loc 1 281 5
 763 000a FB79     		ldrb	r3, [r7, #7]	@ zero_extendqisi2
 764 000c 013B     		subs	r3, r3, #1
 765 000e 0E2B     		cmp	r3, #14
 766 0010 38D8     		bhi	.L70
 767 0012 01A2     		adr	r2, .L72
 768 0014 52F823F0 		ldr	pc, [r2, r3, lsl #2]
 769              		.p2align 2
 770              	.L72:
 771 0018 59000000 		.word	.L83+1
 772 001c 61000000 		.word	.L82+1
 773 0020 69000000 		.word	.L81+1
 774 0024 6D000000 		.word	.L80+1
 775 0028 71000000 		.word	.L79+1
 776 002c 75000000 		.word	.L78+1
 777 0030 85000000 		.word	.L70+1
 778 0034 55000000 		.word	.L77+1
 779 0038 5D000000 		.word	.L76+1
 780 003c 65000000 		.word	.L75+1
 781 0040 85000000 		.word	.L70+1
 782 0044 85000000 		.word	.L70+1
 783 0048 79000000 		.word	.L74+1
 784 004c 7D000000 		.word	.L73+1
 785 0050 81000000 		.word	.L71+1
 786              		.p2align 1
 787              	.L77:
 282:../../../lr11xx/common/printers/lr11xx_radio_types_str.c ****     {
 283:../../../lr11xx/common/printers/lr11xx_radio_types_str.c ****     case LR11XX_RADIO_LORA_BW_10:
 284:../../../lr11xx/common/printers/lr11xx_radio_types_str.c ****     {
 285:../../../lr11xx/common/printers/lr11xx_radio_types_str.c ****         return ( const char* ) "LR11XX_RADIO_LORA_BW_10";
 788              		.loc 1 285 16
 789 0054 0F4B     		ldr	r3, .L85
 790 0056 16E0     		b	.L84
ARM GAS  C:\msys64\tmp\ccCxxl6h.s 			page 23


 791              	.L83:
 286:../../../lr11xx/common/printers/lr11xx_radio_types_str.c ****     }
 287:../../../lr11xx/common/printers/lr11xx_radio_types_str.c **** 
 288:../../../lr11xx/common/printers/lr11xx_radio_types_str.c ****     case LR11XX_RADIO_LORA_BW_15:
 289:../../../lr11xx/common/printers/lr11xx_radio_types_str.c ****     {
 290:../../../lr11xx/common/printers/lr11xx_radio_types_str.c ****         return ( const char* ) "LR11XX_RADIO_LORA_BW_15";
 792              		.loc 1 290 16
 793 0058 0F4B     		ldr	r3, .L85+4
 794 005a 14E0     		b	.L84
 795              	.L76:
 291:../../../lr11xx/common/printers/lr11xx_radio_types_str.c ****     }
 292:../../../lr11xx/common/printers/lr11xx_radio_types_str.c **** 
 293:../../../lr11xx/common/printers/lr11xx_radio_types_str.c ****     case LR11XX_RADIO_LORA_BW_20:
 294:../../../lr11xx/common/printers/lr11xx_radio_types_str.c ****     {
 295:../../../lr11xx/common/printers/lr11xx_radio_types_str.c ****         return ( const char* ) "LR11XX_RADIO_LORA_BW_20";
 796              		.loc 1 295 16
 797 005c 0F4B     		ldr	r3, .L85+8
 798 005e 12E0     		b	.L84
 799              	.L82:
 296:../../../lr11xx/common/printers/lr11xx_radio_types_str.c ****     }
 297:../../../lr11xx/common/printers/lr11xx_radio_types_str.c **** 
 298:../../../lr11xx/common/printers/lr11xx_radio_types_str.c ****     case LR11XX_RADIO_LORA_BW_31:
 299:../../../lr11xx/common/printers/lr11xx_radio_types_str.c ****     {
 300:../../../lr11xx/common/printers/lr11xx_radio_types_str.c ****         return ( const char* ) "LR11XX_RADIO_LORA_BW_31";
 800              		.loc 1 300 16
 801 0060 0F4B     		ldr	r3, .L85+12
 802 0062 10E0     		b	.L84
 803              	.L75:
 301:../../../lr11xx/common/printers/lr11xx_radio_types_str.c ****     }
 302:../../../lr11xx/common/printers/lr11xx_radio_types_str.c **** 
 303:../../../lr11xx/common/printers/lr11xx_radio_types_str.c ****     case LR11XX_RADIO_LORA_BW_41:
 304:../../../lr11xx/common/printers/lr11xx_radio_types_str.c ****     {
 305:../../../lr11xx/common/printers/lr11xx_radio_types_str.c ****         return ( const char* ) "LR11XX_RADIO_LORA_BW_41";
 804              		.loc 1 305 16
 805 0064 0F4B     		ldr	r3, .L85+16
 806 0066 0EE0     		b	.L84
 807              	.L81:
 306:../../../lr11xx/common/printers/lr11xx_radio_types_str.c ****     }
 307:../../../lr11xx/common/printers/lr11xx_radio_types_str.c **** 
 308:../../../lr11xx/common/printers/lr11xx_radio_types_str.c ****     case LR11XX_RADIO_LORA_BW_62:
 309:../../../lr11xx/common/printers/lr11xx_radio_types_str.c ****     {
 310:../../../lr11xx/common/printers/lr11xx_radio_types_str.c ****         return ( const char* ) "LR11XX_RADIO_LORA_BW_62";
 808              		.loc 1 310 16
 809 0068 0F4B     		ldr	r3, .L85+20
 810 006a 0CE0     		b	.L84
 811              	.L80:
 311:../../../lr11xx/common/printers/lr11xx_radio_types_str.c ****     }
 312:../../../lr11xx/common/printers/lr11xx_radio_types_str.c **** 
 313:../../../lr11xx/common/printers/lr11xx_radio_types_str.c ****     case LR11XX_RADIO_LORA_BW_125:
 314:../../../lr11xx/common/printers/lr11xx_radio_types_str.c ****     {
 315:../../../lr11xx/common/printers/lr11xx_radio_types_str.c ****         return ( const char* ) "LR11XX_RADIO_LORA_BW_125";
 812              		.loc 1 315 16
 813 006c 0F4B     		ldr	r3, .L85+24
 814 006e 0AE0     		b	.L84
 815              	.L79:
 316:../../../lr11xx/common/printers/lr11xx_radio_types_str.c ****     }
 317:../../../lr11xx/common/printers/lr11xx_radio_types_str.c **** 
ARM GAS  C:\msys64\tmp\ccCxxl6h.s 			page 24


 318:../../../lr11xx/common/printers/lr11xx_radio_types_str.c ****     case LR11XX_RADIO_LORA_BW_250:
 319:../../../lr11xx/common/printers/lr11xx_radio_types_str.c ****     {
 320:../../../lr11xx/common/printers/lr11xx_radio_types_str.c ****         return ( const char* ) "LR11XX_RADIO_LORA_BW_250";
 816              		.loc 1 320 16
 817 0070 0F4B     		ldr	r3, .L85+28
 818 0072 08E0     		b	.L84
 819              	.L78:
 321:../../../lr11xx/common/printers/lr11xx_radio_types_str.c ****     }
 322:../../../lr11xx/common/printers/lr11xx_radio_types_str.c **** 
 323:../../../lr11xx/common/printers/lr11xx_radio_types_str.c ****     case LR11XX_RADIO_LORA_BW_500:
 324:../../../lr11xx/common/printers/lr11xx_radio_types_str.c ****     {
 325:../../../lr11xx/common/printers/lr11xx_radio_types_str.c ****         return ( const char* ) "LR11XX_RADIO_LORA_BW_500";
 820              		.loc 1 325 16
 821 0074 0F4B     		ldr	r3, .L85+32
 822 0076 06E0     		b	.L84
 823              	.L74:
 326:../../../lr11xx/common/printers/lr11xx_radio_types_str.c ****     }
 327:../../../lr11xx/common/printers/lr11xx_radio_types_str.c **** 
 328:../../../lr11xx/common/printers/lr11xx_radio_types_str.c ****     case LR11XX_RADIO_LORA_BW_200:
 329:../../../lr11xx/common/printers/lr11xx_radio_types_str.c ****     {
 330:../../../lr11xx/common/printers/lr11xx_radio_types_str.c ****         return ( const char* ) "LR11XX_RADIO_LORA_BW_200";
 824              		.loc 1 330 16
 825 0078 0F4B     		ldr	r3, .L85+36
 826 007a 04E0     		b	.L84
 827              	.L73:
 331:../../../lr11xx/common/printers/lr11xx_radio_types_str.c ****     }
 332:../../../lr11xx/common/printers/lr11xx_radio_types_str.c **** 
 333:../../../lr11xx/common/printers/lr11xx_radio_types_str.c ****     case LR11XX_RADIO_LORA_BW_400:
 334:../../../lr11xx/common/printers/lr11xx_radio_types_str.c ****     {
 335:../../../lr11xx/common/printers/lr11xx_radio_types_str.c ****         return ( const char* ) "LR11XX_RADIO_LORA_BW_400";
 828              		.loc 1 335 16
 829 007c 0F4B     		ldr	r3, .L85+40
 830 007e 02E0     		b	.L84
 831              	.L71:
 336:../../../lr11xx/common/printers/lr11xx_radio_types_str.c ****     }
 337:../../../lr11xx/common/printers/lr11xx_radio_types_str.c **** 
 338:../../../lr11xx/common/printers/lr11xx_radio_types_str.c ****     case LR11XX_RADIO_LORA_BW_800:
 339:../../../lr11xx/common/printers/lr11xx_radio_types_str.c ****     {
 340:../../../lr11xx/common/printers/lr11xx_radio_types_str.c ****         return ( const char* ) "LR11XX_RADIO_LORA_BW_800";
 832              		.loc 1 340 16
 833 0080 0F4B     		ldr	r3, .L85+44
 834 0082 00E0     		b	.L84
 835              	.L70:
 341:../../../lr11xx/common/printers/lr11xx_radio_types_str.c ****     }
 342:../../../lr11xx/common/printers/lr11xx_radio_types_str.c **** 
 343:../../../lr11xx/common/printers/lr11xx_radio_types_str.c ****     default:
 344:../../../lr11xx/common/printers/lr11xx_radio_types_str.c ****     {
 345:../../../lr11xx/common/printers/lr11xx_radio_types_str.c ****         return ( const char* ) "Unknown";
 836              		.loc 1 345 16
 837 0084 0F4B     		ldr	r3, .L85+48
 838              	.L84:
 346:../../../lr11xx/common/printers/lr11xx_radio_types_str.c ****     }
 347:../../../lr11xx/common/printers/lr11xx_radio_types_str.c ****     }
 348:../../../lr11xx/common/printers/lr11xx_radio_types_str.c **** }
 839              		.loc 1 348 1
 840 0086 1846     		mov	r0, r3
 841 0088 0C37     		adds	r7, r7, #12
ARM GAS  C:\msys64\tmp\ccCxxl6h.s 			page 25


 842              	.LCFI39:
 843              		.cfi_def_cfa_offset 4
 844 008a BD46     		mov	sp, r7
 845              	.LCFI40:
 846              		.cfi_def_cfa_register 13
 847              		@ sp needed
 848 008c 5DF8047B 		ldr	r7, [sp], #4
 849              	.LCFI41:
 850              		.cfi_restore 7
 851              		.cfi_def_cfa_offset 0
 852 0090 7047     		bx	lr
 853              	.L86:
 854 0092 00BF     		.align	2
 855              	.L85:
 856 0094 04040000 		.word	.LC36
 857 0098 1C040000 		.word	.LC37
 858 009c 34040000 		.word	.LC38
 859 00a0 4C040000 		.word	.LC39
 860 00a4 64040000 		.word	.LC40
 861 00a8 7C040000 		.word	.LC41
 862 00ac 94040000 		.word	.LC42
 863 00b0 B0040000 		.word	.LC43
 864 00b4 CC040000 		.word	.LC44
 865 00b8 E8040000 		.word	.LC45
 866 00bc 04050000 		.word	.LC46
 867 00c0 20050000 		.word	.LC47
 868 00c4 48000000 		.word	.LC3
 869              		.cfi_endproc
 870              	.LFE6:
 872              		.section	.rodata
 873 0539 000000   		.align	2
 874              	.LC48:
 875 053c 4C523131 		.ascii	"LR11XX_RADIO_LORA_NO_CR\000"
 875      58585F52 
 875      4144494F 
 875      5F4C4F52 
 875      415F4E4F 
 876              		.align	2
 877              	.LC49:
 878 0554 4C523131 		.ascii	"LR11XX_RADIO_LORA_CR_4_5\000"
 878      58585F52 
 878      4144494F 
 878      5F4C4F52 
 878      415F4352 
 879 056d 000000   		.align	2
 880              	.LC50:
 881 0570 4C523131 		.ascii	"LR11XX_RADIO_LORA_CR_4_6\000"
 881      58585F52 
 881      4144494F 
 881      5F4C4F52 
 881      415F4352 
 882 0589 000000   		.align	2
 883              	.LC51:
 884 058c 4C523131 		.ascii	"LR11XX_RADIO_LORA_CR_4_7\000"
 884      58585F52 
 884      4144494F 
 884      5F4C4F52 
ARM GAS  C:\msys64\tmp\ccCxxl6h.s 			page 26


 884      415F4352 
 885 05a5 000000   		.align	2
 886              	.LC52:
 887 05a8 4C523131 		.ascii	"LR11XX_RADIO_LORA_CR_4_8\000"
 887      58585F52 
 887      4144494F 
 887      5F4C4F52 
 887      415F4352 
 888 05c1 000000   		.align	2
 889              	.LC53:
 890 05c4 4C523131 		.ascii	"LR11XX_RADIO_LORA_CR_LI_4_5\000"
 890      58585F52 
 890      4144494F 
 890      5F4C4F52 
 890      415F4352 
 891              		.align	2
 892              	.LC54:
 893 05e0 4C523131 		.ascii	"LR11XX_RADIO_LORA_CR_LI_4_6\000"
 893      58585F52 
 893      4144494F 
 893      5F4C4F52 
 893      415F4352 
 894              		.align	2
 895              	.LC55:
 896 05fc 4C523131 		.ascii	"LR11XX_RADIO_LORA_CR_LI_4_8\000"
 896      58585F52 
 896      4144494F 
 896      5F4C4F52 
 896      415F4352 
 897              		.section	.text.lr11xx_radio_lora_cr_to_str,"ax",%progbits
 898              		.align	1
 899              		.global	lr11xx_radio_lora_cr_to_str
 900              		.syntax unified
 901              		.thumb
 902              		.thumb_func
 904              	lr11xx_radio_lora_cr_to_str:
 905              	.LFB7:
 349:../../../lr11xx/common/printers/lr11xx_radio_types_str.c **** 
 350:../../../lr11xx/common/printers/lr11xx_radio_types_str.c **** const char* lr11xx_radio_lora_cr_to_str( const lr11xx_radio_lora_cr_t value )
 351:../../../lr11xx/common/printers/lr11xx_radio_types_str.c **** {
 906              		.loc 1 351 1
 907              		.cfi_startproc
 908              		@ args = 0, pretend = 0, frame = 8
 909              		@ frame_needed = 1, uses_anonymous_args = 0
 910              		@ link register save eliminated.
 911 0000 80B4     		push	{r7}
 912              	.LCFI42:
 913              		.cfi_def_cfa_offset 4
 914              		.cfi_offset 7, -4
 915 0002 83B0     		sub	sp, sp, #12
 916              	.LCFI43:
 917              		.cfi_def_cfa_offset 16
 918 0004 00AF     		add	r7, sp, #0
 919              	.LCFI44:
 920              		.cfi_def_cfa_register 7
 921 0006 0346     		mov	r3, r0
 922 0008 FB71     		strb	r3, [r7, #7]
ARM GAS  C:\msys64\tmp\ccCxxl6h.s 			page 27


 352:../../../lr11xx/common/printers/lr11xx_radio_types_str.c ****     switch( value )
 923              		.loc 1 352 5
 924 000a FB79     		ldrb	r3, [r7, #7]	@ zero_extendqisi2
 925 000c 072B     		cmp	r3, #7
 926 000e 23D8     		bhi	.L88
 927 0010 01A2     		adr	r2, .L90
 928 0012 52F823F0 		ldr	pc, [r2, r3, lsl #2]
 929 0016 00BF     		.p2align 2
 930              	.L90:
 931 0018 39000000 		.word	.L97+1
 932 001c 3D000000 		.word	.L96+1
 933 0020 41000000 		.word	.L95+1
 934 0024 45000000 		.word	.L94+1
 935 0028 49000000 		.word	.L93+1
 936 002c 4D000000 		.word	.L92+1
 937 0030 51000000 		.word	.L91+1
 938 0034 55000000 		.word	.L89+1
 939              		.p2align 1
 940              	.L97:
 353:../../../lr11xx/common/printers/lr11xx_radio_types_str.c ****     {
 354:../../../lr11xx/common/printers/lr11xx_radio_types_str.c ****     case LR11XX_RADIO_LORA_NO_CR:
 355:../../../lr11xx/common/printers/lr11xx_radio_types_str.c ****     {
 356:../../../lr11xx/common/printers/lr11xx_radio_types_str.c ****         return ( const char* ) "LR11XX_RADIO_LORA_NO_CR";
 941              		.loc 1 356 16
 942 0038 0B4B     		ldr	r3, .L99
 943 003a 0EE0     		b	.L98
 944              	.L96:
 357:../../../lr11xx/common/printers/lr11xx_radio_types_str.c ****     }
 358:../../../lr11xx/common/printers/lr11xx_radio_types_str.c **** 
 359:../../../lr11xx/common/printers/lr11xx_radio_types_str.c ****     case LR11XX_RADIO_LORA_CR_4_5:
 360:../../../lr11xx/common/printers/lr11xx_radio_types_str.c ****     {
 361:../../../lr11xx/common/printers/lr11xx_radio_types_str.c ****         return ( const char* ) "LR11XX_RADIO_LORA_CR_4_5";
 945              		.loc 1 361 16
 946 003c 0B4B     		ldr	r3, .L99+4
 947 003e 0CE0     		b	.L98
 948              	.L95:
 362:../../../lr11xx/common/printers/lr11xx_radio_types_str.c ****     }
 363:../../../lr11xx/common/printers/lr11xx_radio_types_str.c **** 
 364:../../../lr11xx/common/printers/lr11xx_radio_types_str.c ****     case LR11XX_RADIO_LORA_CR_4_6:
 365:../../../lr11xx/common/printers/lr11xx_radio_types_str.c ****     {
 366:../../../lr11xx/common/printers/lr11xx_radio_types_str.c ****         return ( const char* ) "LR11XX_RADIO_LORA_CR_4_6";
 949              		.loc 1 366 16
 950 0040 0B4B     		ldr	r3, .L99+8
 951 0042 0AE0     		b	.L98
 952              	.L94:
 367:../../../lr11xx/common/printers/lr11xx_radio_types_str.c ****     }
 368:../../../lr11xx/common/printers/lr11xx_radio_types_str.c **** 
 369:../../../lr11xx/common/printers/lr11xx_radio_types_str.c ****     case LR11XX_RADIO_LORA_CR_4_7:
 370:../../../lr11xx/common/printers/lr11xx_radio_types_str.c ****     {
 371:../../../lr11xx/common/printers/lr11xx_radio_types_str.c ****         return ( const char* ) "LR11XX_RADIO_LORA_CR_4_7";
 953              		.loc 1 371 16
 954 0044 0B4B     		ldr	r3, .L99+12
 955 0046 08E0     		b	.L98
 956              	.L93:
 372:../../../lr11xx/common/printers/lr11xx_radio_types_str.c ****     }
 373:../../../lr11xx/common/printers/lr11xx_radio_types_str.c **** 
 374:../../../lr11xx/common/printers/lr11xx_radio_types_str.c ****     case LR11XX_RADIO_LORA_CR_4_8:
ARM GAS  C:\msys64\tmp\ccCxxl6h.s 			page 28


 375:../../../lr11xx/common/printers/lr11xx_radio_types_str.c ****     {
 376:../../../lr11xx/common/printers/lr11xx_radio_types_str.c ****         return ( const char* ) "LR11XX_RADIO_LORA_CR_4_8";
 957              		.loc 1 376 16
 958 0048 0B4B     		ldr	r3, .L99+16
 959 004a 06E0     		b	.L98
 960              	.L92:
 377:../../../lr11xx/common/printers/lr11xx_radio_types_str.c ****     }
 378:../../../lr11xx/common/printers/lr11xx_radio_types_str.c **** 
 379:../../../lr11xx/common/printers/lr11xx_radio_types_str.c ****     case LR11XX_RADIO_LORA_CR_LI_4_5:
 380:../../../lr11xx/common/printers/lr11xx_radio_types_str.c ****     {
 381:../../../lr11xx/common/printers/lr11xx_radio_types_str.c ****         return ( const char* ) "LR11XX_RADIO_LORA_CR_LI_4_5";
 961              		.loc 1 381 16
 962 004c 0B4B     		ldr	r3, .L99+20
 963 004e 04E0     		b	.L98
 964              	.L91:
 382:../../../lr11xx/common/printers/lr11xx_radio_types_str.c ****     }
 383:../../../lr11xx/common/printers/lr11xx_radio_types_str.c **** 
 384:../../../lr11xx/common/printers/lr11xx_radio_types_str.c ****     case LR11XX_RADIO_LORA_CR_LI_4_6:
 385:../../../lr11xx/common/printers/lr11xx_radio_types_str.c ****     {
 386:../../../lr11xx/common/printers/lr11xx_radio_types_str.c ****         return ( const char* ) "LR11XX_RADIO_LORA_CR_LI_4_6";
 965              		.loc 1 386 16
 966 0050 0B4B     		ldr	r3, .L99+24
 967 0052 02E0     		b	.L98
 968              	.L89:
 387:../../../lr11xx/common/printers/lr11xx_radio_types_str.c ****     }
 388:../../../lr11xx/common/printers/lr11xx_radio_types_str.c **** 
 389:../../../lr11xx/common/printers/lr11xx_radio_types_str.c ****     case LR11XX_RADIO_LORA_CR_LI_4_8:
 390:../../../lr11xx/common/printers/lr11xx_radio_types_str.c ****     {
 391:../../../lr11xx/common/printers/lr11xx_radio_types_str.c ****         return ( const char* ) "LR11XX_RADIO_LORA_CR_LI_4_8";
 969              		.loc 1 391 16
 970 0054 0B4B     		ldr	r3, .L99+28
 971 0056 00E0     		b	.L98
 972              	.L88:
 392:../../../lr11xx/common/printers/lr11xx_radio_types_str.c ****     }
 393:../../../lr11xx/common/printers/lr11xx_radio_types_str.c **** 
 394:../../../lr11xx/common/printers/lr11xx_radio_types_str.c ****     default:
 395:../../../lr11xx/common/printers/lr11xx_radio_types_str.c ****     {
 396:../../../lr11xx/common/printers/lr11xx_radio_types_str.c ****         return ( const char* ) "Unknown";
 973              		.loc 1 396 16
 974 0058 0B4B     		ldr	r3, .L99+32
 975              	.L98:
 397:../../../lr11xx/common/printers/lr11xx_radio_types_str.c ****     }
 398:../../../lr11xx/common/printers/lr11xx_radio_types_str.c ****     }
 399:../../../lr11xx/common/printers/lr11xx_radio_types_str.c **** }
 976              		.loc 1 399 1
 977 005a 1846     		mov	r0, r3
 978 005c 0C37     		adds	r7, r7, #12
 979              	.LCFI45:
 980              		.cfi_def_cfa_offset 4
 981 005e BD46     		mov	sp, r7
 982              	.LCFI46:
 983              		.cfi_def_cfa_register 13
 984              		@ sp needed
 985 0060 5DF8047B 		ldr	r7, [sp], #4
 986              	.LCFI47:
 987              		.cfi_restore 7
 988              		.cfi_def_cfa_offset 0
ARM GAS  C:\msys64\tmp\ccCxxl6h.s 			page 29


 989 0064 7047     		bx	lr
 990              	.L100:
 991 0066 00BF     		.align	2
 992              	.L99:
 993 0068 3C050000 		.word	.LC48
 994 006c 54050000 		.word	.LC49
 995 0070 70050000 		.word	.LC50
 996 0074 8C050000 		.word	.LC51
 997 0078 A8050000 		.word	.LC52
 998 007c C4050000 		.word	.LC53
 999 0080 E0050000 		.word	.LC54
 1000 0084 FC050000 		.word	.LC55
 1001 0088 48000000 		.word	.LC3
 1002              		.cfi_endproc
 1003              	.LFE7:
 1005              		.section	.rodata
 1006              		.align	2
 1007              	.LC56:
 1008 0618 4C523131 		.ascii	"LR11XX_RADIO_MODE_SLEEP\000"
 1008      58585F52 
 1008      4144494F 
 1008      5F4D4F44 
 1008      455F534C 
 1009              		.align	2
 1010              	.LC57:
 1011 0630 4C523131 		.ascii	"LR11XX_RADIO_MODE_STANDBY_RC\000"
 1011      58585F52 
 1011      4144494F 
 1011      5F4D4F44 
 1011      455F5354 
 1012 064d 000000   		.align	2
 1013              	.LC58:
 1014 0650 4C523131 		.ascii	"LR11XX_RADIO_MODE_STANDBY_XOSC\000"
 1014      58585F52 
 1014      4144494F 
 1014      5F4D4F44 
 1014      455F5354 
 1015 066f 00       		.align	2
 1016              	.LC59:
 1017 0670 4C523131 		.ascii	"LR11XX_RADIO_MODE_FS\000"
 1017      58585F52 
 1017      4144494F 
 1017      5F4D4F44 
 1017      455F4653 
 1018              		.section	.text.lr11xx_radio_intermediary_mode_to_str,"ax",%progbits
 1019              		.align	1
 1020              		.global	lr11xx_radio_intermediary_mode_to_str
 1021              		.syntax unified
 1022              		.thumb
 1023              		.thumb_func
 1025              	lr11xx_radio_intermediary_mode_to_str:
 1026              	.LFB8:
 400:../../../lr11xx/common/printers/lr11xx_radio_types_str.c **** 
 401:../../../lr11xx/common/printers/lr11xx_radio_types_str.c **** const char* lr11xx_radio_intermediary_mode_to_str( const lr11xx_radio_intermediary_mode_t value )
 402:../../../lr11xx/common/printers/lr11xx_radio_types_str.c **** {
 1027              		.loc 1 402 1
 1028              		.cfi_startproc
ARM GAS  C:\msys64\tmp\ccCxxl6h.s 			page 30


 1029              		@ args = 0, pretend = 0, frame = 8
 1030              		@ frame_needed = 1, uses_anonymous_args = 0
 1031              		@ link register save eliminated.
 1032 0000 80B4     		push	{r7}
 1033              	.LCFI48:
 1034              		.cfi_def_cfa_offset 4
 1035              		.cfi_offset 7, -4
 1036 0002 83B0     		sub	sp, sp, #12
 1037              	.LCFI49:
 1038              		.cfi_def_cfa_offset 16
 1039 0004 00AF     		add	r7, sp, #0
 1040              	.LCFI50:
 1041              		.cfi_def_cfa_register 7
 1042 0006 0346     		mov	r3, r0
 1043 0008 FB71     		strb	r3, [r7, #7]
 403:../../../lr11xx/common/printers/lr11xx_radio_types_str.c ****     switch( value )
 1044              		.loc 1 403 5
 1045 000a FB79     		ldrb	r3, [r7, #7]	@ zero_extendqisi2
 1046 000c 032B     		cmp	r3, #3
 1047 000e 13D8     		bhi	.L102
 1048 0010 01A2     		adr	r2, .L104
 1049 0012 52F823F0 		ldr	pc, [r2, r3, lsl #2]
 1050 0016 00BF     		.p2align 2
 1051              	.L104:
 1052 0018 29000000 		.word	.L107+1
 1053 001c 2D000000 		.word	.L106+1
 1054 0020 31000000 		.word	.L105+1
 1055 0024 35000000 		.word	.L103+1
 1056              		.p2align 1
 1057              	.L107:
 404:../../../lr11xx/common/printers/lr11xx_radio_types_str.c ****     {
 405:../../../lr11xx/common/printers/lr11xx_radio_types_str.c ****     case LR11XX_RADIO_MODE_SLEEP:
 406:../../../lr11xx/common/printers/lr11xx_radio_types_str.c ****     {
 407:../../../lr11xx/common/printers/lr11xx_radio_types_str.c ****         return ( const char* ) "LR11XX_RADIO_MODE_SLEEP";
 1058              		.loc 1 407 16
 1059 0028 074B     		ldr	r3, .L109
 1060 002a 06E0     		b	.L108
 1061              	.L106:
 408:../../../lr11xx/common/printers/lr11xx_radio_types_str.c ****     }
 409:../../../lr11xx/common/printers/lr11xx_radio_types_str.c **** 
 410:../../../lr11xx/common/printers/lr11xx_radio_types_str.c ****     case LR11XX_RADIO_MODE_STANDBY_RC:
 411:../../../lr11xx/common/printers/lr11xx_radio_types_str.c ****     {
 412:../../../lr11xx/common/printers/lr11xx_radio_types_str.c ****         return ( const char* ) "LR11XX_RADIO_MODE_STANDBY_RC";
 1062              		.loc 1 412 16
 1063 002c 074B     		ldr	r3, .L109+4
 1064 002e 04E0     		b	.L108
 1065              	.L105:
 413:../../../lr11xx/common/printers/lr11xx_radio_types_str.c ****     }
 414:../../../lr11xx/common/printers/lr11xx_radio_types_str.c **** 
 415:../../../lr11xx/common/printers/lr11xx_radio_types_str.c ****     case LR11XX_RADIO_MODE_STANDBY_XOSC:
 416:../../../lr11xx/common/printers/lr11xx_radio_types_str.c ****     {
 417:../../../lr11xx/common/printers/lr11xx_radio_types_str.c ****         return ( const char* ) "LR11XX_RADIO_MODE_STANDBY_XOSC";
 1066              		.loc 1 417 16
 1067 0030 074B     		ldr	r3, .L109+8
 1068 0032 02E0     		b	.L108
 1069              	.L103:
 418:../../../lr11xx/common/printers/lr11xx_radio_types_str.c ****     }
ARM GAS  C:\msys64\tmp\ccCxxl6h.s 			page 31


 419:../../../lr11xx/common/printers/lr11xx_radio_types_str.c **** 
 420:../../../lr11xx/common/printers/lr11xx_radio_types_str.c ****     case LR11XX_RADIO_MODE_FS:
 421:../../../lr11xx/common/printers/lr11xx_radio_types_str.c ****     {
 422:../../../lr11xx/common/printers/lr11xx_radio_types_str.c ****         return ( const char* ) "LR11XX_RADIO_MODE_FS";
 1070              		.loc 1 422 16
 1071 0034 074B     		ldr	r3, .L109+12
 1072 0036 00E0     		b	.L108
 1073              	.L102:
 423:../../../lr11xx/common/printers/lr11xx_radio_types_str.c ****     }
 424:../../../lr11xx/common/printers/lr11xx_radio_types_str.c **** 
 425:../../../lr11xx/common/printers/lr11xx_radio_types_str.c ****     default:
 426:../../../lr11xx/common/printers/lr11xx_radio_types_str.c ****     {
 427:../../../lr11xx/common/printers/lr11xx_radio_types_str.c ****         return ( const char* ) "Unknown";
 1074              		.loc 1 427 16
 1075 0038 074B     		ldr	r3, .L109+16
 1076              	.L108:
 428:../../../lr11xx/common/printers/lr11xx_radio_types_str.c ****     }
 429:../../../lr11xx/common/printers/lr11xx_radio_types_str.c ****     }
 430:../../../lr11xx/common/printers/lr11xx_radio_types_str.c **** }
 1077              		.loc 1 430 1
 1078 003a 1846     		mov	r0, r3
 1079 003c 0C37     		adds	r7, r7, #12
 1080              	.LCFI51:
 1081              		.cfi_def_cfa_offset 4
 1082 003e BD46     		mov	sp, r7
 1083              	.LCFI52:
 1084              		.cfi_def_cfa_register 13
 1085              		@ sp needed
 1086 0040 5DF8047B 		ldr	r7, [sp], #4
 1087              	.LCFI53:
 1088              		.cfi_restore 7
 1089              		.cfi_def_cfa_offset 0
 1090 0044 7047     		bx	lr
 1091              	.L110:
 1092 0046 00BF     		.align	2
 1093              	.L109:
 1094 0048 18060000 		.word	.LC56
 1095 004c 30060000 		.word	.LC57
 1096 0050 50060000 		.word	.LC58
 1097 0054 70060000 		.word	.LC59
 1098 0058 48000000 		.word	.LC3
 1099              		.cfi_endproc
 1100              	.LFE8:
 1102              		.section	.rodata
 1103 0685 000000   		.align	2
 1104              	.LC60:
 1105 0688 4C523131 		.ascii	"LR11XX_RADIO_GFSK_CRC_OFF\000"
 1105      58585F52 
 1105      4144494F 
 1105      5F474653 
 1105      4B5F4352 
 1106 06a2 0000     		.align	2
 1107              	.LC61:
 1108 06a4 4C523131 		.ascii	"LR11XX_RADIO_GFSK_CRC_1_BYTE\000"
 1108      58585F52 
 1108      4144494F 
 1108      5F474653 
ARM GAS  C:\msys64\tmp\ccCxxl6h.s 			page 32


 1108      4B5F4352 
 1109 06c1 000000   		.align	2
 1110              	.LC62:
 1111 06c4 4C523131 		.ascii	"LR11XX_RADIO_GFSK_CRC_2_BYTES\000"
 1111      58585F52 
 1111      4144494F 
 1111      5F474653 
 1111      4B5F4352 
 1112 06e2 0000     		.align	2
 1113              	.LC63:
 1114 06e4 4C523131 		.ascii	"LR11XX_RADIO_GFSK_CRC_1_BYTE_INV\000"
 1114      58585F52 
 1114      4144494F 
 1114      5F474653 
 1114      4B5F4352 
 1115 0705 000000   		.align	2
 1116              	.LC64:
 1117 0708 4C523131 		.ascii	"LR11XX_RADIO_GFSK_CRC_2_BYTES_INV\000"
 1117      58585F52 
 1117      4144494F 
 1117      5F474653 
 1117      4B5F4352 
 1118              		.section	.text.lr11xx_radio_gfsk_crc_type_to_str,"ax",%progbits
 1119              		.align	1
 1120              		.global	lr11xx_radio_gfsk_crc_type_to_str
 1121              		.syntax unified
 1122              		.thumb
 1123              		.thumb_func
 1125              	lr11xx_radio_gfsk_crc_type_to_str:
 1126              	.LFB9:
 431:../../../lr11xx/common/printers/lr11xx_radio_types_str.c **** 
 432:../../../lr11xx/common/printers/lr11xx_radio_types_str.c **** const char* lr11xx_radio_gfsk_crc_type_to_str( const lr11xx_radio_gfsk_crc_type_t value )
 433:../../../lr11xx/common/printers/lr11xx_radio_types_str.c **** {
 1127              		.loc 1 433 1
 1128              		.cfi_startproc
 1129              		@ args = 0, pretend = 0, frame = 8
 1130              		@ frame_needed = 1, uses_anonymous_args = 0
 1131              		@ link register save eliminated.
 1132 0000 80B4     		push	{r7}
 1133              	.LCFI54:
 1134              		.cfi_def_cfa_offset 4
 1135              		.cfi_offset 7, -4
 1136 0002 83B0     		sub	sp, sp, #12
 1137              	.LCFI55:
 1138              		.cfi_def_cfa_offset 16
 1139 0004 00AF     		add	r7, sp, #0
 1140              	.LCFI56:
 1141              		.cfi_def_cfa_register 7
 1142 0006 0346     		mov	r3, r0
 1143 0008 FB71     		strb	r3, [r7, #7]
 434:../../../lr11xx/common/printers/lr11xx_radio_types_str.c ****     switch( value )
 1144              		.loc 1 434 5
 1145 000a FB79     		ldrb	r3, [r7, #7]	@ zero_extendqisi2
 1146 000c 062B     		cmp	r3, #6
 1147 000e 1BD8     		bhi	.L112
 1148 0010 01A2     		adr	r2, .L114
 1149 0012 52F823F0 		ldr	pc, [r2, r3, lsl #2]
ARM GAS  C:\msys64\tmp\ccCxxl6h.s 			page 33


 1150 0016 00BF     		.p2align 2
 1151              	.L114:
 1152 0018 39000000 		.word	.L118+1
 1153 001c 35000000 		.word	.L117+1
 1154 0020 3D000000 		.word	.L116+1
 1155 0024 49000000 		.word	.L112+1
 1156 0028 41000000 		.word	.L115+1
 1157 002c 49000000 		.word	.L112+1
 1158 0030 45000000 		.word	.L113+1
 1159              		.p2align 1
 1160              	.L117:
 435:../../../lr11xx/common/printers/lr11xx_radio_types_str.c ****     {
 436:../../../lr11xx/common/printers/lr11xx_radio_types_str.c ****     case LR11XX_RADIO_GFSK_CRC_OFF:
 437:../../../lr11xx/common/printers/lr11xx_radio_types_str.c ****     {
 438:../../../lr11xx/common/printers/lr11xx_radio_types_str.c ****         return ( const char* ) "LR11XX_RADIO_GFSK_CRC_OFF";
 1161              		.loc 1 438 16
 1162 0034 084B     		ldr	r3, .L120
 1163 0036 08E0     		b	.L119
 1164              	.L118:
 439:../../../lr11xx/common/printers/lr11xx_radio_types_str.c ****     }
 440:../../../lr11xx/common/printers/lr11xx_radio_types_str.c **** 
 441:../../../lr11xx/common/printers/lr11xx_radio_types_str.c ****     case LR11XX_RADIO_GFSK_CRC_1_BYTE:
 442:../../../lr11xx/common/printers/lr11xx_radio_types_str.c ****     {
 443:../../../lr11xx/common/printers/lr11xx_radio_types_str.c ****         return ( const char* ) "LR11XX_RADIO_GFSK_CRC_1_BYTE";
 1165              		.loc 1 443 16
 1166 0038 084B     		ldr	r3, .L120+4
 1167 003a 06E0     		b	.L119
 1168              	.L116:
 444:../../../lr11xx/common/printers/lr11xx_radio_types_str.c ****     }
 445:../../../lr11xx/common/printers/lr11xx_radio_types_str.c **** 
 446:../../../lr11xx/common/printers/lr11xx_radio_types_str.c ****     case LR11XX_RADIO_GFSK_CRC_2_BYTES:
 447:../../../lr11xx/common/printers/lr11xx_radio_types_str.c ****     {
 448:../../../lr11xx/common/printers/lr11xx_radio_types_str.c ****         return ( const char* ) "LR11XX_RADIO_GFSK_CRC_2_BYTES";
 1169              		.loc 1 448 16
 1170 003c 084B     		ldr	r3, .L120+8
 1171 003e 04E0     		b	.L119
 1172              	.L115:
 449:../../../lr11xx/common/printers/lr11xx_radio_types_str.c ****     }
 450:../../../lr11xx/common/printers/lr11xx_radio_types_str.c **** 
 451:../../../lr11xx/common/printers/lr11xx_radio_types_str.c ****     case LR11XX_RADIO_GFSK_CRC_1_BYTE_INV:
 452:../../../lr11xx/common/printers/lr11xx_radio_types_str.c ****     {
 453:../../../lr11xx/common/printers/lr11xx_radio_types_str.c ****         return ( const char* ) "LR11XX_RADIO_GFSK_CRC_1_BYTE_INV";
 1173              		.loc 1 453 16
 1174 0040 084B     		ldr	r3, .L120+12
 1175 0042 02E0     		b	.L119
 1176              	.L113:
 454:../../../lr11xx/common/printers/lr11xx_radio_types_str.c ****     }
 455:../../../lr11xx/common/printers/lr11xx_radio_types_str.c **** 
 456:../../../lr11xx/common/printers/lr11xx_radio_types_str.c ****     case LR11XX_RADIO_GFSK_CRC_2_BYTES_INV:
 457:../../../lr11xx/common/printers/lr11xx_radio_types_str.c ****     {
 458:../../../lr11xx/common/printers/lr11xx_radio_types_str.c ****         return ( const char* ) "LR11XX_RADIO_GFSK_CRC_2_BYTES_INV";
 1177              		.loc 1 458 16
 1178 0044 084B     		ldr	r3, .L120+16
 1179 0046 00E0     		b	.L119
 1180              	.L112:
 459:../../../lr11xx/common/printers/lr11xx_radio_types_str.c ****     }
 460:../../../lr11xx/common/printers/lr11xx_radio_types_str.c **** 
ARM GAS  C:\msys64\tmp\ccCxxl6h.s 			page 34


 461:../../../lr11xx/common/printers/lr11xx_radio_types_str.c ****     default:
 462:../../../lr11xx/common/printers/lr11xx_radio_types_str.c ****     {
 463:../../../lr11xx/common/printers/lr11xx_radio_types_str.c ****         return ( const char* ) "Unknown";
 1181              		.loc 1 463 16
 1182 0048 084B     		ldr	r3, .L120+20
 1183              	.L119:
 464:../../../lr11xx/common/printers/lr11xx_radio_types_str.c ****     }
 465:../../../lr11xx/common/printers/lr11xx_radio_types_str.c ****     }
 466:../../../lr11xx/common/printers/lr11xx_radio_types_str.c **** }
 1184              		.loc 1 466 1
 1185 004a 1846     		mov	r0, r3
 1186 004c 0C37     		adds	r7, r7, #12
 1187              	.LCFI57:
 1188              		.cfi_def_cfa_offset 4
 1189 004e BD46     		mov	sp, r7
 1190              	.LCFI58:
 1191              		.cfi_def_cfa_register 13
 1192              		@ sp needed
 1193 0050 5DF8047B 		ldr	r7, [sp], #4
 1194              	.LCFI59:
 1195              		.cfi_restore 7
 1196              		.cfi_def_cfa_offset 0
 1197 0054 7047     		bx	lr
 1198              	.L121:
 1199 0056 00BF     		.align	2
 1200              	.L120:
 1201 0058 88060000 		.word	.LC60
 1202 005c A4060000 		.word	.LC61
 1203 0060 C4060000 		.word	.LC62
 1204 0064 E4060000 		.word	.LC63
 1205 0068 08070000 		.word	.LC64
 1206 006c 48000000 		.word	.LC3
 1207              		.cfi_endproc
 1208              	.LFE9:
 1210              		.section	.rodata
 1211 072a 0000     		.align	2
 1212              	.LC65:
 1213 072c 4C523131 		.ascii	"LR11XX_RADIO_GFSK_DC_FREE_OFF\000"
 1213      58585F52 
 1213      4144494F 
 1213      5F474653 
 1213      4B5F4443 
 1214 074a 0000     		.align	2
 1215              	.LC66:
 1216 074c 4C523131 		.ascii	"LR11XX_RADIO_GFSK_DC_FREE_WHITENING\000"
 1216      58585F52 
 1216      4144494F 
 1216      5F474653 
 1216      4B5F4443 
 1217              		.align	2
 1218              	.LC67:
 1219 0770 4C523131 		.ascii	"LR11XX_RADIO_GFSK_DC_FREE_WHITENING_SX128X_COMP\000"
 1219      58585F52 
 1219      4144494F 
 1219      5F474653 
 1219      4B5F4443 
 1220              		.section	.text.lr11xx_radio_gfsk_dc_free_to_str,"ax",%progbits
ARM GAS  C:\msys64\tmp\ccCxxl6h.s 			page 35


 1221              		.align	1
 1222              		.global	lr11xx_radio_gfsk_dc_free_to_str
 1223              		.syntax unified
 1224              		.thumb
 1225              		.thumb_func
 1227              	lr11xx_radio_gfsk_dc_free_to_str:
 1228              	.LFB10:
 467:../../../lr11xx/common/printers/lr11xx_radio_types_str.c **** 
 468:../../../lr11xx/common/printers/lr11xx_radio_types_str.c **** const char* lr11xx_radio_gfsk_dc_free_to_str( const lr11xx_radio_gfsk_dc_free_t value )
 469:../../../lr11xx/common/printers/lr11xx_radio_types_str.c **** {
 1229              		.loc 1 469 1
 1230              		.cfi_startproc
 1231              		@ args = 0, pretend = 0, frame = 8
 1232              		@ frame_needed = 1, uses_anonymous_args = 0
 1233              		@ link register save eliminated.
 1234 0000 80B4     		push	{r7}
 1235              	.LCFI60:
 1236              		.cfi_def_cfa_offset 4
 1237              		.cfi_offset 7, -4
 1238 0002 83B0     		sub	sp, sp, #12
 1239              	.LCFI61:
 1240              		.cfi_def_cfa_offset 16
 1241 0004 00AF     		add	r7, sp, #0
 1242              	.LCFI62:
 1243              		.cfi_def_cfa_register 7
 1244 0006 0346     		mov	r3, r0
 1245 0008 FB71     		strb	r3, [r7, #7]
 470:../../../lr11xx/common/printers/lr11xx_radio_types_str.c ****     switch( value )
 1246              		.loc 1 470 5
 1247 000a FB79     		ldrb	r3, [r7, #7]	@ zero_extendqisi2
 1248 000c 032B     		cmp	r3, #3
 1249 000e 0AD0     		beq	.L123
 1250 0010 032B     		cmp	r3, #3
 1251 0012 0ADC     		bgt	.L124
 1252 0014 002B     		cmp	r3, #0
 1253 0016 02D0     		beq	.L125
 1254 0018 012B     		cmp	r3, #1
 1255 001a 02D0     		beq	.L126
 1256 001c 05E0     		b	.L124
 1257              	.L125:
 471:../../../lr11xx/common/printers/lr11xx_radio_types_str.c ****     {
 472:../../../lr11xx/common/printers/lr11xx_radio_types_str.c ****     case LR11XX_RADIO_GFSK_DC_FREE_OFF:
 473:../../../lr11xx/common/printers/lr11xx_radio_types_str.c ****     {
 474:../../../lr11xx/common/printers/lr11xx_radio_types_str.c ****         return ( const char* ) "LR11XX_RADIO_GFSK_DC_FREE_OFF";
 1258              		.loc 1 474 16
 1259 001e 064B     		ldr	r3, .L128
 1260 0020 04E0     		b	.L127
 1261              	.L126:
 475:../../../lr11xx/common/printers/lr11xx_radio_types_str.c ****     }
 476:../../../lr11xx/common/printers/lr11xx_radio_types_str.c **** 
 477:../../../lr11xx/common/printers/lr11xx_radio_types_str.c ****     case LR11XX_RADIO_GFSK_DC_FREE_WHITENING:
 478:../../../lr11xx/common/printers/lr11xx_radio_types_str.c ****     {
 479:../../../lr11xx/common/printers/lr11xx_radio_types_str.c ****         return ( const char* ) "LR11XX_RADIO_GFSK_DC_FREE_WHITENING";
 1262              		.loc 1 479 16
 1263 0022 064B     		ldr	r3, .L128+4
 1264 0024 02E0     		b	.L127
 1265              	.L123:
ARM GAS  C:\msys64\tmp\ccCxxl6h.s 			page 36


 480:../../../lr11xx/common/printers/lr11xx_radio_types_str.c ****     }
 481:../../../lr11xx/common/printers/lr11xx_radio_types_str.c **** 
 482:../../../lr11xx/common/printers/lr11xx_radio_types_str.c ****     case LR11XX_RADIO_GFSK_DC_FREE_WHITENING_SX128X_COMP:
 483:../../../lr11xx/common/printers/lr11xx_radio_types_str.c ****     {
 484:../../../lr11xx/common/printers/lr11xx_radio_types_str.c ****         return ( const char* ) "LR11XX_RADIO_GFSK_DC_FREE_WHITENING_SX128X_COMP";
 1266              		.loc 1 484 16
 1267 0026 064B     		ldr	r3, .L128+8
 1268 0028 00E0     		b	.L127
 1269              	.L124:
 485:../../../lr11xx/common/printers/lr11xx_radio_types_str.c ****     }
 486:../../../lr11xx/common/printers/lr11xx_radio_types_str.c **** 
 487:../../../lr11xx/common/printers/lr11xx_radio_types_str.c ****     default:
 488:../../../lr11xx/common/printers/lr11xx_radio_types_str.c ****     {
 489:../../../lr11xx/common/printers/lr11xx_radio_types_str.c ****         return ( const char* ) "Unknown";
 1270              		.loc 1 489 16
 1271 002a 064B     		ldr	r3, .L128+12
 1272              	.L127:
 490:../../../lr11xx/common/printers/lr11xx_radio_types_str.c ****     }
 491:../../../lr11xx/common/printers/lr11xx_radio_types_str.c ****     }
 492:../../../lr11xx/common/printers/lr11xx_radio_types_str.c **** }
 1273              		.loc 1 492 1
 1274 002c 1846     		mov	r0, r3
 1275 002e 0C37     		adds	r7, r7, #12
 1276              	.LCFI63:
 1277              		.cfi_def_cfa_offset 4
 1278 0030 BD46     		mov	sp, r7
 1279              	.LCFI64:
 1280              		.cfi_def_cfa_register 13
 1281              		@ sp needed
 1282 0032 5DF8047B 		ldr	r7, [sp], #4
 1283              	.LCFI65:
 1284              		.cfi_restore 7
 1285              		.cfi_def_cfa_offset 0
 1286 0036 7047     		bx	lr
 1287              	.L129:
 1288              		.align	2
 1289              	.L128:
 1290 0038 2C070000 		.word	.LC65
 1291 003c 4C070000 		.word	.LC66
 1292 0040 70070000 		.word	.LC67
 1293 0044 48000000 		.word	.LC3
 1294              		.cfi_endproc
 1295              	.LFE10:
 1297              		.section	.rodata
 1298              		.align	2
 1299              	.LC68:
 1300 07a0 4C523131 		.ascii	"LR11XX_RADIO_GFSK_PKT_FIX_LEN\000"
 1300      58585F52 
 1300      4144494F 
 1300      5F474653 
 1300      4B5F504B 
 1301 07be 0000     		.align	2
 1302              	.LC69:
 1303 07c0 4C523131 		.ascii	"LR11XX_RADIO_GFSK_PKT_VAR_LEN\000"
 1303      58585F52 
 1303      4144494F 
 1303      5F474653 
ARM GAS  C:\msys64\tmp\ccCxxl6h.s 			page 37


 1303      4B5F504B 
 1304 07de 0000     		.align	2
 1305              	.LC70:
 1306 07e0 4C523131 		.ascii	"LR11XX_RADIO_GFSK_PKT_VAR_LEN_SX128X_COMP\000"
 1306      58585F52 
 1306      4144494F 
 1306      5F474653 
 1306      4B5F504B 
 1307              		.section	.text.lr11xx_radio_gfsk_pkt_len_modes_to_str,"ax",%progbits
 1308              		.align	1
 1309              		.global	lr11xx_radio_gfsk_pkt_len_modes_to_str
 1310              		.syntax unified
 1311              		.thumb
 1312              		.thumb_func
 1314              	lr11xx_radio_gfsk_pkt_len_modes_to_str:
 1315              	.LFB11:
 493:../../../lr11xx/common/printers/lr11xx_radio_types_str.c **** 
 494:../../../lr11xx/common/printers/lr11xx_radio_types_str.c **** const char* lr11xx_radio_gfsk_pkt_len_modes_to_str( const lr11xx_radio_gfsk_pkt_len_modes_t value )
 495:../../../lr11xx/common/printers/lr11xx_radio_types_str.c **** {
 1316              		.loc 1 495 1
 1317              		.cfi_startproc
 1318              		@ args = 0, pretend = 0, frame = 8
 1319              		@ frame_needed = 1, uses_anonymous_args = 0
 1320              		@ link register save eliminated.
 1321 0000 80B4     		push	{r7}
 1322              	.LCFI66:
 1323              		.cfi_def_cfa_offset 4
 1324              		.cfi_offset 7, -4
 1325 0002 83B0     		sub	sp, sp, #12
 1326              	.LCFI67:
 1327              		.cfi_def_cfa_offset 16
 1328 0004 00AF     		add	r7, sp, #0
 1329              	.LCFI68:
 1330              		.cfi_def_cfa_register 7
 1331 0006 0346     		mov	r3, r0
 1332 0008 FB71     		strb	r3, [r7, #7]
 496:../../../lr11xx/common/printers/lr11xx_radio_types_str.c ****     switch( value )
 1333              		.loc 1 496 5
 1334 000a FB79     		ldrb	r3, [r7, #7]	@ zero_extendqisi2
 1335 000c 022B     		cmp	r3, #2
 1336 000e 0AD0     		beq	.L131
 1337 0010 022B     		cmp	r3, #2
 1338 0012 0ADC     		bgt	.L132
 1339 0014 002B     		cmp	r3, #0
 1340 0016 02D0     		beq	.L133
 1341 0018 012B     		cmp	r3, #1
 1342 001a 02D0     		beq	.L134
 1343 001c 05E0     		b	.L132
 1344              	.L133:
 497:../../../lr11xx/common/printers/lr11xx_radio_types_str.c ****     {
 498:../../../lr11xx/common/printers/lr11xx_radio_types_str.c ****     case LR11XX_RADIO_GFSK_PKT_FIX_LEN:
 499:../../../lr11xx/common/printers/lr11xx_radio_types_str.c ****     {
 500:../../../lr11xx/common/printers/lr11xx_radio_types_str.c ****         return ( const char* ) "LR11XX_RADIO_GFSK_PKT_FIX_LEN";
 1345              		.loc 1 500 16
 1346 001e 064B     		ldr	r3, .L136
 1347 0020 04E0     		b	.L135
 1348              	.L134:
ARM GAS  C:\msys64\tmp\ccCxxl6h.s 			page 38


 501:../../../lr11xx/common/printers/lr11xx_radio_types_str.c ****     }
 502:../../../lr11xx/common/printers/lr11xx_radio_types_str.c **** 
 503:../../../lr11xx/common/printers/lr11xx_radio_types_str.c ****     case LR11XX_RADIO_GFSK_PKT_VAR_LEN:
 504:../../../lr11xx/common/printers/lr11xx_radio_types_str.c ****     {
 505:../../../lr11xx/common/printers/lr11xx_radio_types_str.c ****         return ( const char* ) "LR11XX_RADIO_GFSK_PKT_VAR_LEN";
 1349              		.loc 1 505 16
 1350 0022 064B     		ldr	r3, .L136+4
 1351 0024 02E0     		b	.L135
 1352              	.L131:
 506:../../../lr11xx/common/printers/lr11xx_radio_types_str.c ****     }
 507:../../../lr11xx/common/printers/lr11xx_radio_types_str.c **** 
 508:../../../lr11xx/common/printers/lr11xx_radio_types_str.c ****     case LR11XX_RADIO_GFSK_PKT_VAR_LEN_SX128X_COMP:
 509:../../../lr11xx/common/printers/lr11xx_radio_types_str.c ****     {
 510:../../../lr11xx/common/printers/lr11xx_radio_types_str.c ****         return ( const char* ) "LR11XX_RADIO_GFSK_PKT_VAR_LEN_SX128X_COMP";
 1353              		.loc 1 510 16
 1354 0026 064B     		ldr	r3, .L136+8
 1355 0028 00E0     		b	.L135
 1356              	.L132:
 511:../../../lr11xx/common/printers/lr11xx_radio_types_str.c ****     }
 512:../../../lr11xx/common/printers/lr11xx_radio_types_str.c **** 
 513:../../../lr11xx/common/printers/lr11xx_radio_types_str.c ****     default:
 514:../../../lr11xx/common/printers/lr11xx_radio_types_str.c ****     {
 515:../../../lr11xx/common/printers/lr11xx_radio_types_str.c ****         return ( const char* ) "Unknown";
 1357              		.loc 1 515 16
 1358 002a 064B     		ldr	r3, .L136+12
 1359              	.L135:
 516:../../../lr11xx/common/printers/lr11xx_radio_types_str.c ****     }
 517:../../../lr11xx/common/printers/lr11xx_radio_types_str.c ****     }
 518:../../../lr11xx/common/printers/lr11xx_radio_types_str.c **** }
 1360              		.loc 1 518 1
 1361 002c 1846     		mov	r0, r3
 1362 002e 0C37     		adds	r7, r7, #12
 1363              	.LCFI69:
 1364              		.cfi_def_cfa_offset 4
 1365 0030 BD46     		mov	sp, r7
 1366              	.LCFI70:
 1367              		.cfi_def_cfa_register 13
 1368              		@ sp needed
 1369 0032 5DF8047B 		ldr	r7, [sp], #4
 1370              	.LCFI71:
 1371              		.cfi_restore 7
 1372              		.cfi_def_cfa_offset 0
 1373 0036 7047     		bx	lr
 1374              	.L137:
 1375              		.align	2
 1376              	.L136:
 1377 0038 A0070000 		.word	.LC68
 1378 003c C0070000 		.word	.LC69
 1379 0040 E0070000 		.word	.LC70
 1380 0044 48000000 		.word	.LC3
 1381              		.cfi_endproc
 1382              	.LFE11:
 1384              		.section	.rodata
 1385 080a 0000     		.align	2
 1386              	.LC71:
 1387 080c 4C523131 		.ascii	"LR11XX_RADIO_GFSK_PREAMBLE_DETECTOR_OFF\000"
 1387      58585F52 
ARM GAS  C:\msys64\tmp\ccCxxl6h.s 			page 39


 1387      4144494F 
 1387      5F474653 
 1387      4B5F5052 
 1388              		.align	2
 1389              	.LC72:
 1390 0834 4C523131 		.ascii	"LR11XX_RADIO_GFSK_PREAMBLE_DETECTOR_MIN_8BITS\000"
 1390      58585F52 
 1390      4144494F 
 1390      5F474653 
 1390      4B5F5052 
 1391 0862 0000     		.align	2
 1392              	.LC73:
 1393 0864 4C523131 		.ascii	"LR11XX_RADIO_GFSK_PREAMBLE_DETECTOR_MIN_16BITS\000"
 1393      58585F52 
 1393      4144494F 
 1393      5F474653 
 1393      4B5F5052 
 1394 0893 00       		.align	2
 1395              	.LC74:
 1396 0894 4C523131 		.ascii	"LR11XX_RADIO_GFSK_PREAMBLE_DETECTOR_MIN_24BITS\000"
 1396      58585F52 
 1396      4144494F 
 1396      5F474653 
 1396      4B5F5052 
 1397 08c3 00       		.align	2
 1398              	.LC75:
 1399 08c4 4C523131 		.ascii	"LR11XX_RADIO_GFSK_PREAMBLE_DETECTOR_MIN_32BITS\000"
 1399      58585F52 
 1399      4144494F 
 1399      5F474653 
 1399      4B5F5052 
 1400              		.section	.text.lr11xx_radio_gfsk_preamble_detector_to_str,"ax",%progbits
 1401              		.align	1
 1402              		.global	lr11xx_radio_gfsk_preamble_detector_to_str
 1403              		.syntax unified
 1404              		.thumb
 1405              		.thumb_func
 1407              	lr11xx_radio_gfsk_preamble_detector_to_str:
 1408              	.LFB12:
 519:../../../lr11xx/common/printers/lr11xx_radio_types_str.c **** 
 520:../../../lr11xx/common/printers/lr11xx_radio_types_str.c **** const char* lr11xx_radio_gfsk_preamble_detector_to_str( const lr11xx_radio_gfsk_preamble_detector_t
 521:../../../lr11xx/common/printers/lr11xx_radio_types_str.c **** {
 1409              		.loc 1 521 1
 1410              		.cfi_startproc
 1411              		@ args = 0, pretend = 0, frame = 8
 1412              		@ frame_needed = 1, uses_anonymous_args = 0
 1413              		@ link register save eliminated.
 1414 0000 80B4     		push	{r7}
 1415              	.LCFI72:
 1416              		.cfi_def_cfa_offset 4
 1417              		.cfi_offset 7, -4
 1418 0002 83B0     		sub	sp, sp, #12
 1419              	.LCFI73:
 1420              		.cfi_def_cfa_offset 16
 1421 0004 00AF     		add	r7, sp, #0
 1422              	.LCFI74:
 1423              		.cfi_def_cfa_register 7
ARM GAS  C:\msys64\tmp\ccCxxl6h.s 			page 40


 1424 0006 0346     		mov	r3, r0
 1425 0008 FB71     		strb	r3, [r7, #7]
 522:../../../lr11xx/common/printers/lr11xx_radio_types_str.c ****     switch( value )
 1426              		.loc 1 522 5
 1427 000a FB79     		ldrb	r3, [r7, #7]	@ zero_extendqisi2
 1428 000c 072B     		cmp	r3, #7
 1429 000e 1DD8     		bhi	.L139
 1430 0010 01A2     		adr	r2, .L141
 1431 0012 52F823F0 		ldr	pc, [r2, r3, lsl #2]
 1432 0016 00BF     		.p2align 2
 1433              	.L141:
 1434 0018 39000000 		.word	.L145+1
 1435 001c 4D000000 		.word	.L139+1
 1436 0020 4D000000 		.word	.L139+1
 1437 0024 4D000000 		.word	.L139+1
 1438 0028 3D000000 		.word	.L144+1
 1439 002c 41000000 		.word	.L143+1
 1440 0030 45000000 		.word	.L142+1
 1441 0034 49000000 		.word	.L140+1
 1442              		.p2align 1
 1443              	.L145:
 523:../../../lr11xx/common/printers/lr11xx_radio_types_str.c ****     {
 524:../../../lr11xx/common/printers/lr11xx_radio_types_str.c ****     case LR11XX_RADIO_GFSK_PREAMBLE_DETECTOR_OFF:
 525:../../../lr11xx/common/printers/lr11xx_radio_types_str.c ****     {
 526:../../../lr11xx/common/printers/lr11xx_radio_types_str.c ****         return ( const char* ) "LR11XX_RADIO_GFSK_PREAMBLE_DETECTOR_OFF";
 1444              		.loc 1 526 16
 1445 0038 084B     		ldr	r3, .L147
 1446 003a 08E0     		b	.L146
 1447              	.L144:
 527:../../../lr11xx/common/printers/lr11xx_radio_types_str.c ****     }
 528:../../../lr11xx/common/printers/lr11xx_radio_types_str.c **** 
 529:../../../lr11xx/common/printers/lr11xx_radio_types_str.c ****     case LR11XX_RADIO_GFSK_PREAMBLE_DETECTOR_MIN_8BITS:
 530:../../../lr11xx/common/printers/lr11xx_radio_types_str.c ****     {
 531:../../../lr11xx/common/printers/lr11xx_radio_types_str.c ****         return ( const char* ) "LR11XX_RADIO_GFSK_PREAMBLE_DETECTOR_MIN_8BITS";
 1448              		.loc 1 531 16
 1449 003c 084B     		ldr	r3, .L147+4
 1450 003e 06E0     		b	.L146
 1451              	.L143:
 532:../../../lr11xx/common/printers/lr11xx_radio_types_str.c ****     }
 533:../../../lr11xx/common/printers/lr11xx_radio_types_str.c **** 
 534:../../../lr11xx/common/printers/lr11xx_radio_types_str.c ****     case LR11XX_RADIO_GFSK_PREAMBLE_DETECTOR_MIN_16BITS:
 535:../../../lr11xx/common/printers/lr11xx_radio_types_str.c ****     {
 536:../../../lr11xx/common/printers/lr11xx_radio_types_str.c ****         return ( const char* ) "LR11XX_RADIO_GFSK_PREAMBLE_DETECTOR_MIN_16BITS";
 1452              		.loc 1 536 16
 1453 0040 084B     		ldr	r3, .L147+8
 1454 0042 04E0     		b	.L146
 1455              	.L142:
 537:../../../lr11xx/common/printers/lr11xx_radio_types_str.c ****     }
 538:../../../lr11xx/common/printers/lr11xx_radio_types_str.c **** 
 539:../../../lr11xx/common/printers/lr11xx_radio_types_str.c ****     case LR11XX_RADIO_GFSK_PREAMBLE_DETECTOR_MIN_24BITS:
 540:../../../lr11xx/common/printers/lr11xx_radio_types_str.c ****     {
 541:../../../lr11xx/common/printers/lr11xx_radio_types_str.c ****         return ( const char* ) "LR11XX_RADIO_GFSK_PREAMBLE_DETECTOR_MIN_24BITS";
 1456              		.loc 1 541 16
 1457 0044 084B     		ldr	r3, .L147+12
 1458 0046 02E0     		b	.L146
 1459              	.L140:
 542:../../../lr11xx/common/printers/lr11xx_radio_types_str.c ****     }
ARM GAS  C:\msys64\tmp\ccCxxl6h.s 			page 41


 543:../../../lr11xx/common/printers/lr11xx_radio_types_str.c **** 
 544:../../../lr11xx/common/printers/lr11xx_radio_types_str.c ****     case LR11XX_RADIO_GFSK_PREAMBLE_DETECTOR_MIN_32BITS:
 545:../../../lr11xx/common/printers/lr11xx_radio_types_str.c ****     {
 546:../../../lr11xx/common/printers/lr11xx_radio_types_str.c ****         return ( const char* ) "LR11XX_RADIO_GFSK_PREAMBLE_DETECTOR_MIN_32BITS";
 1460              		.loc 1 546 16
 1461 0048 084B     		ldr	r3, .L147+16
 1462 004a 00E0     		b	.L146
 1463              	.L139:
 547:../../../lr11xx/common/printers/lr11xx_radio_types_str.c ****     }
 548:../../../lr11xx/common/printers/lr11xx_radio_types_str.c **** 
 549:../../../lr11xx/common/printers/lr11xx_radio_types_str.c ****     default:
 550:../../../lr11xx/common/printers/lr11xx_radio_types_str.c ****     {
 551:../../../lr11xx/common/printers/lr11xx_radio_types_str.c ****         return ( const char* ) "Unknown";
 1464              		.loc 1 551 16
 1465 004c 084B     		ldr	r3, .L147+20
 1466              	.L146:
 552:../../../lr11xx/common/printers/lr11xx_radio_types_str.c ****     }
 553:../../../lr11xx/common/printers/lr11xx_radio_types_str.c ****     }
 554:../../../lr11xx/common/printers/lr11xx_radio_types_str.c **** }
 1467              		.loc 1 554 1
 1468 004e 1846     		mov	r0, r3
 1469 0050 0C37     		adds	r7, r7, #12
 1470              	.LCFI75:
 1471              		.cfi_def_cfa_offset 4
 1472 0052 BD46     		mov	sp, r7
 1473              	.LCFI76:
 1474              		.cfi_def_cfa_register 13
 1475              		@ sp needed
 1476 0054 5DF8047B 		ldr	r7, [sp], #4
 1477              	.LCFI77:
 1478              		.cfi_restore 7
 1479              		.cfi_def_cfa_offset 0
 1480 0058 7047     		bx	lr
 1481              	.L148:
 1482 005a 00BF     		.align	2
 1483              	.L147:
 1484 005c 0C080000 		.word	.LC71
 1485 0060 34080000 		.word	.LC72
 1486 0064 64080000 		.word	.LC73
 1487 0068 94080000 		.word	.LC74
 1488 006c C4080000 		.word	.LC75
 1489 0070 48000000 		.word	.LC3
 1490              		.cfi_endproc
 1491              	.LFE12:
 1493              		.section	.rodata
 1494 08f3 00       		.align	2
 1495              	.LC76:
 1496 08f4 4C523131 		.ascii	"LR11XX_RADIO_LORA_CRC_OFF\000"
 1496      58585F52 
 1496      4144494F 
 1496      5F4C4F52 
 1496      415F4352 
 1497 090e 0000     		.align	2
 1498              	.LC77:
 1499 0910 4C523131 		.ascii	"LR11XX_RADIO_LORA_CRC_ON\000"
 1499      58585F52 
 1499      4144494F 
ARM GAS  C:\msys64\tmp\ccCxxl6h.s 			page 42


 1499      5F4C4F52 
 1499      415F4352 
 1500              		.section	.text.lr11xx_radio_lora_crc_to_str,"ax",%progbits
 1501              		.align	1
 1502              		.global	lr11xx_radio_lora_crc_to_str
 1503              		.syntax unified
 1504              		.thumb
 1505              		.thumb_func
 1507              	lr11xx_radio_lora_crc_to_str:
 1508              	.LFB13:
 555:../../../lr11xx/common/printers/lr11xx_radio_types_str.c **** 
 556:../../../lr11xx/common/printers/lr11xx_radio_types_str.c **** const char* lr11xx_radio_lora_crc_to_str( const lr11xx_radio_lora_crc_t value )
 557:../../../lr11xx/common/printers/lr11xx_radio_types_str.c **** {
 1509              		.loc 1 557 1
 1510              		.cfi_startproc
 1511              		@ args = 0, pretend = 0, frame = 8
 1512              		@ frame_needed = 1, uses_anonymous_args = 0
 1513              		@ link register save eliminated.
 1514 0000 80B4     		push	{r7}
 1515              	.LCFI78:
 1516              		.cfi_def_cfa_offset 4
 1517              		.cfi_offset 7, -4
 1518 0002 83B0     		sub	sp, sp, #12
 1519              	.LCFI79:
 1520              		.cfi_def_cfa_offset 16
 1521 0004 00AF     		add	r7, sp, #0
 1522              	.LCFI80:
 1523              		.cfi_def_cfa_register 7
 1524 0006 0346     		mov	r3, r0
 1525 0008 FB71     		strb	r3, [r7, #7]
 558:../../../lr11xx/common/printers/lr11xx_radio_types_str.c ****     switch( value )
 1526              		.loc 1 558 5
 1527 000a FB79     		ldrb	r3, [r7, #7]	@ zero_extendqisi2
 1528 000c 002B     		cmp	r3, #0
 1529 000e 02D0     		beq	.L150
 1530 0010 012B     		cmp	r3, #1
 1531 0012 02D0     		beq	.L151
 1532 0014 03E0     		b	.L154
 1533              	.L150:
 559:../../../lr11xx/common/printers/lr11xx_radio_types_str.c ****     {
 560:../../../lr11xx/common/printers/lr11xx_radio_types_str.c ****     case LR11XX_RADIO_LORA_CRC_OFF:
 561:../../../lr11xx/common/printers/lr11xx_radio_types_str.c ****     {
 562:../../../lr11xx/common/printers/lr11xx_radio_types_str.c ****         return ( const char* ) "LR11XX_RADIO_LORA_CRC_OFF";
 1534              		.loc 1 562 16
 1535 0016 054B     		ldr	r3, .L155
 1536 0018 02E0     		b	.L153
 1537              	.L151:
 563:../../../lr11xx/common/printers/lr11xx_radio_types_str.c ****     }
 564:../../../lr11xx/common/printers/lr11xx_radio_types_str.c **** 
 565:../../../lr11xx/common/printers/lr11xx_radio_types_str.c ****     case LR11XX_RADIO_LORA_CRC_ON:
 566:../../../lr11xx/common/printers/lr11xx_radio_types_str.c ****     {
 567:../../../lr11xx/common/printers/lr11xx_radio_types_str.c ****         return ( const char* ) "LR11XX_RADIO_LORA_CRC_ON";
 1538              		.loc 1 567 16
 1539 001a 054B     		ldr	r3, .L155+4
 1540 001c 00E0     		b	.L153
 1541              	.L154:
 568:../../../lr11xx/common/printers/lr11xx_radio_types_str.c ****     }
ARM GAS  C:\msys64\tmp\ccCxxl6h.s 			page 43


 569:../../../lr11xx/common/printers/lr11xx_radio_types_str.c **** 
 570:../../../lr11xx/common/printers/lr11xx_radio_types_str.c ****     default:
 571:../../../lr11xx/common/printers/lr11xx_radio_types_str.c ****     {
 572:../../../lr11xx/common/printers/lr11xx_radio_types_str.c ****         return ( const char* ) "Unknown";
 1542              		.loc 1 572 16
 1543 001e 054B     		ldr	r3, .L155+8
 1544              	.L153:
 573:../../../lr11xx/common/printers/lr11xx_radio_types_str.c ****     }
 574:../../../lr11xx/common/printers/lr11xx_radio_types_str.c ****     }
 575:../../../lr11xx/common/printers/lr11xx_radio_types_str.c **** }
 1545              		.loc 1 575 1
 1546 0020 1846     		mov	r0, r3
 1547 0022 0C37     		adds	r7, r7, #12
 1548              	.LCFI81:
 1549              		.cfi_def_cfa_offset 4
 1550 0024 BD46     		mov	sp, r7
 1551              	.LCFI82:
 1552              		.cfi_def_cfa_register 13
 1553              		@ sp needed
 1554 0026 5DF8047B 		ldr	r7, [sp], #4
 1555              	.LCFI83:
 1556              		.cfi_restore 7
 1557              		.cfi_def_cfa_offset 0
 1558 002a 7047     		bx	lr
 1559              	.L156:
 1560              		.align	2
 1561              	.L155:
 1562 002c F4080000 		.word	.LC76
 1563 0030 10090000 		.word	.LC77
 1564 0034 48000000 		.word	.LC3
 1565              		.cfi_endproc
 1566              	.LFE13:
 1568              		.section	.rodata
 1569 0929 000000   		.align	2
 1570              	.LC78:
 1571 092c 4C523131 		.ascii	"LR11XX_RADIO_LORA_PKT_EXPLICIT\000"
 1571      58585F52 
 1571      4144494F 
 1571      5F4C4F52 
 1571      415F504B 
 1572 094b 00       		.align	2
 1573              	.LC79:
 1574 094c 4C523131 		.ascii	"LR11XX_RADIO_LORA_PKT_IMPLICIT\000"
 1574      58585F52 
 1574      4144494F 
 1574      5F4C4F52 
 1574      415F504B 
 1575              		.section	.text.lr11xx_radio_lora_pkt_len_modes_to_str,"ax",%progbits
 1576              		.align	1
 1577              		.global	lr11xx_radio_lora_pkt_len_modes_to_str
 1578              		.syntax unified
 1579              		.thumb
 1580              		.thumb_func
 1582              	lr11xx_radio_lora_pkt_len_modes_to_str:
 1583              	.LFB14:
 576:../../../lr11xx/common/printers/lr11xx_radio_types_str.c **** 
 577:../../../lr11xx/common/printers/lr11xx_radio_types_str.c **** const char* lr11xx_radio_lora_pkt_len_modes_to_str( const lr11xx_radio_lora_pkt_len_modes_t value )
ARM GAS  C:\msys64\tmp\ccCxxl6h.s 			page 44


 578:../../../lr11xx/common/printers/lr11xx_radio_types_str.c **** {
 1584              		.loc 1 578 1
 1585              		.cfi_startproc
 1586              		@ args = 0, pretend = 0, frame = 8
 1587              		@ frame_needed = 1, uses_anonymous_args = 0
 1588              		@ link register save eliminated.
 1589 0000 80B4     		push	{r7}
 1590              	.LCFI84:
 1591              		.cfi_def_cfa_offset 4
 1592              		.cfi_offset 7, -4
 1593 0002 83B0     		sub	sp, sp, #12
 1594              	.LCFI85:
 1595              		.cfi_def_cfa_offset 16
 1596 0004 00AF     		add	r7, sp, #0
 1597              	.LCFI86:
 1598              		.cfi_def_cfa_register 7
 1599 0006 0346     		mov	r3, r0
 1600 0008 FB71     		strb	r3, [r7, #7]
 579:../../../lr11xx/common/printers/lr11xx_radio_types_str.c ****     switch( value )
 1601              		.loc 1 579 5
 1602 000a FB79     		ldrb	r3, [r7, #7]	@ zero_extendqisi2
 1603 000c 002B     		cmp	r3, #0
 1604 000e 02D0     		beq	.L158
 1605 0010 012B     		cmp	r3, #1
 1606 0012 02D0     		beq	.L159
 1607 0014 03E0     		b	.L162
 1608              	.L158:
 580:../../../lr11xx/common/printers/lr11xx_radio_types_str.c ****     {
 581:../../../lr11xx/common/printers/lr11xx_radio_types_str.c ****     case LR11XX_RADIO_LORA_PKT_EXPLICIT:
 582:../../../lr11xx/common/printers/lr11xx_radio_types_str.c ****     {
 583:../../../lr11xx/common/printers/lr11xx_radio_types_str.c ****         return ( const char* ) "LR11XX_RADIO_LORA_PKT_EXPLICIT";
 1609              		.loc 1 583 16
 1610 0016 054B     		ldr	r3, .L163
 1611 0018 02E0     		b	.L161
 1612              	.L159:
 584:../../../lr11xx/common/printers/lr11xx_radio_types_str.c ****     }
 585:../../../lr11xx/common/printers/lr11xx_radio_types_str.c **** 
 586:../../../lr11xx/common/printers/lr11xx_radio_types_str.c ****     case LR11XX_RADIO_LORA_PKT_IMPLICIT:
 587:../../../lr11xx/common/printers/lr11xx_radio_types_str.c ****     {
 588:../../../lr11xx/common/printers/lr11xx_radio_types_str.c ****         return ( const char* ) "LR11XX_RADIO_LORA_PKT_IMPLICIT";
 1613              		.loc 1 588 16
 1614 001a 054B     		ldr	r3, .L163+4
 1615 001c 00E0     		b	.L161
 1616              	.L162:
 589:../../../lr11xx/common/printers/lr11xx_radio_types_str.c ****     }
 590:../../../lr11xx/common/printers/lr11xx_radio_types_str.c **** 
 591:../../../lr11xx/common/printers/lr11xx_radio_types_str.c ****     default:
 592:../../../lr11xx/common/printers/lr11xx_radio_types_str.c ****     {
 593:../../../lr11xx/common/printers/lr11xx_radio_types_str.c ****         return ( const char* ) "Unknown";
 1617              		.loc 1 593 16
 1618 001e 054B     		ldr	r3, .L163+8
 1619              	.L161:
 594:../../../lr11xx/common/printers/lr11xx_radio_types_str.c ****     }
 595:../../../lr11xx/common/printers/lr11xx_radio_types_str.c ****     }
 596:../../../lr11xx/common/printers/lr11xx_radio_types_str.c **** }
 1620              		.loc 1 596 1
 1621 0020 1846     		mov	r0, r3
ARM GAS  C:\msys64\tmp\ccCxxl6h.s 			page 45


 1622 0022 0C37     		adds	r7, r7, #12
 1623              	.LCFI87:
 1624              		.cfi_def_cfa_offset 4
 1625 0024 BD46     		mov	sp, r7
 1626              	.LCFI88:
 1627              		.cfi_def_cfa_register 13
 1628              		@ sp needed
 1629 0026 5DF8047B 		ldr	r7, [sp], #4
 1630              	.LCFI89:
 1631              		.cfi_restore 7
 1632              		.cfi_def_cfa_offset 0
 1633 002a 7047     		bx	lr
 1634              	.L164:
 1635              		.align	2
 1636              	.L163:
 1637 002c 2C090000 		.word	.LC78
 1638 0030 4C090000 		.word	.LC79
 1639 0034 48000000 		.word	.LC3
 1640              		.cfi_endproc
 1641              	.LFE14:
 1643              		.section	.rodata
 1644 096b 00       		.align	2
 1645              	.LC80:
 1646 096c 4C523131 		.ascii	"LR11XX_RADIO_LORA_IQ_STANDARD\000"
 1646      58585F52 
 1646      4144494F 
 1646      5F4C4F52 
 1646      415F4951 
 1647 098a 0000     		.align	2
 1648              	.LC81:
 1649 098c 4C523131 		.ascii	"LR11XX_RADIO_LORA_IQ_INVERTED\000"
 1649      58585F52 
 1649      4144494F 
 1649      5F4C4F52 
 1649      415F4951 
 1650              		.section	.text.lr11xx_radio_lora_iq_to_str,"ax",%progbits
 1651              		.align	1
 1652              		.global	lr11xx_radio_lora_iq_to_str
 1653              		.syntax unified
 1654              		.thumb
 1655              		.thumb_func
 1657              	lr11xx_radio_lora_iq_to_str:
 1658              	.LFB15:
 597:../../../lr11xx/common/printers/lr11xx_radio_types_str.c **** 
 598:../../../lr11xx/common/printers/lr11xx_radio_types_str.c **** const char* lr11xx_radio_lora_iq_to_str( const lr11xx_radio_lora_iq_t value )
 599:../../../lr11xx/common/printers/lr11xx_radio_types_str.c **** {
 1659              		.loc 1 599 1
 1660              		.cfi_startproc
 1661              		@ args = 0, pretend = 0, frame = 8
 1662              		@ frame_needed = 1, uses_anonymous_args = 0
 1663              		@ link register save eliminated.
 1664 0000 80B4     		push	{r7}
 1665              	.LCFI90:
 1666              		.cfi_def_cfa_offset 4
 1667              		.cfi_offset 7, -4
 1668 0002 83B0     		sub	sp, sp, #12
 1669              	.LCFI91:
ARM GAS  C:\msys64\tmp\ccCxxl6h.s 			page 46


 1670              		.cfi_def_cfa_offset 16
 1671 0004 00AF     		add	r7, sp, #0
 1672              	.LCFI92:
 1673              		.cfi_def_cfa_register 7
 1674 0006 0346     		mov	r3, r0
 1675 0008 FB71     		strb	r3, [r7, #7]
 600:../../../lr11xx/common/printers/lr11xx_radio_types_str.c ****     switch( value )
 1676              		.loc 1 600 5
 1677 000a FB79     		ldrb	r3, [r7, #7]	@ zero_extendqisi2
 1678 000c 002B     		cmp	r3, #0
 1679 000e 02D0     		beq	.L166
 1680 0010 012B     		cmp	r3, #1
 1681 0012 02D0     		beq	.L167
 1682 0014 03E0     		b	.L170
 1683              	.L166:
 601:../../../lr11xx/common/printers/lr11xx_radio_types_str.c ****     {
 602:../../../lr11xx/common/printers/lr11xx_radio_types_str.c ****     case LR11XX_RADIO_LORA_IQ_STANDARD:
 603:../../../lr11xx/common/printers/lr11xx_radio_types_str.c ****     {
 604:../../../lr11xx/common/printers/lr11xx_radio_types_str.c ****         return ( const char* ) "LR11XX_RADIO_LORA_IQ_STANDARD";
 1684              		.loc 1 604 16
 1685 0016 054B     		ldr	r3, .L171
 1686 0018 02E0     		b	.L169
 1687              	.L167:
 605:../../../lr11xx/common/printers/lr11xx_radio_types_str.c ****     }
 606:../../../lr11xx/common/printers/lr11xx_radio_types_str.c **** 
 607:../../../lr11xx/common/printers/lr11xx_radio_types_str.c ****     case LR11XX_RADIO_LORA_IQ_INVERTED:
 608:../../../lr11xx/common/printers/lr11xx_radio_types_str.c ****     {
 609:../../../lr11xx/common/printers/lr11xx_radio_types_str.c ****         return ( const char* ) "LR11XX_RADIO_LORA_IQ_INVERTED";
 1688              		.loc 1 609 16
 1689 001a 054B     		ldr	r3, .L171+4
 1690 001c 00E0     		b	.L169
 1691              	.L170:
 610:../../../lr11xx/common/printers/lr11xx_radio_types_str.c ****     }
 611:../../../lr11xx/common/printers/lr11xx_radio_types_str.c **** 
 612:../../../lr11xx/common/printers/lr11xx_radio_types_str.c ****     default:
 613:../../../lr11xx/common/printers/lr11xx_radio_types_str.c ****     {
 614:../../../lr11xx/common/printers/lr11xx_radio_types_str.c ****         return ( const char* ) "Unknown";
 1692              		.loc 1 614 16
 1693 001e 054B     		ldr	r3, .L171+8
 1694              	.L169:
 615:../../../lr11xx/common/printers/lr11xx_radio_types_str.c ****     }
 616:../../../lr11xx/common/printers/lr11xx_radio_types_str.c ****     }
 617:../../../lr11xx/common/printers/lr11xx_radio_types_str.c **** }
 1695              		.loc 1 617 1
 1696 0020 1846     		mov	r0, r3
 1697 0022 0C37     		adds	r7, r7, #12
 1698              	.LCFI93:
 1699              		.cfi_def_cfa_offset 4
 1700 0024 BD46     		mov	sp, r7
 1701              	.LCFI94:
 1702              		.cfi_def_cfa_register 13
 1703              		@ sp needed
 1704 0026 5DF8047B 		ldr	r7, [sp], #4
 1705              	.LCFI95:
 1706              		.cfi_restore 7
 1707              		.cfi_def_cfa_offset 0
 1708 002a 7047     		bx	lr
ARM GAS  C:\msys64\tmp\ccCxxl6h.s 			page 47


 1709              	.L172:
 1710              		.align	2
 1711              	.L171:
 1712 002c 6C090000 		.word	.LC80
 1713 0030 8C090000 		.word	.LC81
 1714 0034 48000000 		.word	.LC3
 1715              		.cfi_endproc
 1716              	.LFE15:
 1718              		.section	.rodata
 1719 09aa 0000     		.align	2
 1720              	.LC82:
 1721 09ac 4C523131 		.ascii	"LR11XX_RADIO_PKT_NONE\000"
 1721      58585F52 
 1721      4144494F 
 1721      5F504B54 
 1721      5F4E4F4E 
 1722 09c2 0000     		.align	2
 1723              	.LC83:
 1724 09c4 4C523131 		.ascii	"LR11XX_RADIO_PKT_TYPE_GFSK\000"
 1724      58585F52 
 1724      4144494F 
 1724      5F504B54 
 1724      5F545950 
 1725 09df 00       		.align	2
 1726              	.LC84:
 1727 09e0 4C523131 		.ascii	"LR11XX_RADIO_PKT_TYPE_LORA\000"
 1727      58585F52 
 1727      4144494F 
 1727      5F504B54 
 1727      5F545950 
 1728 09fb 00       		.align	2
 1729              	.LC85:
 1730 09fc 4C523131 		.ascii	"LR11XX_RADIO_PKT_TYPE_BPSK\000"
 1730      58585F52 
 1730      4144494F 
 1730      5F504B54 
 1730      5F545950 
 1731 0a17 00       		.align	2
 1732              	.LC86:
 1733 0a18 4C523131 		.ascii	"LR11XX_RADIO_PKT_TYPE_LR_FHSS\000"
 1733      58585F52 
 1733      4144494F 
 1733      5F504B54 
 1733      5F545950 
 1734 0a36 0000     		.align	2
 1735              	.LC87:
 1736 0a38 4C523131 		.ascii	"LR11XX_RADIO_PKT_TYPE_RTTOF\000"
 1736      58585F52 
 1736      4144494F 
 1736      5F504B54 
 1736      5F545950 
 1737              		.section	.text.lr11xx_radio_pkt_type_to_str,"ax",%progbits
 1738              		.align	1
 1739              		.global	lr11xx_radio_pkt_type_to_str
 1740              		.syntax unified
 1741              		.thumb
 1742              		.thumb_func
ARM GAS  C:\msys64\tmp\ccCxxl6h.s 			page 48


 1744              	lr11xx_radio_pkt_type_to_str:
 1745              	.LFB16:
 618:../../../lr11xx/common/printers/lr11xx_radio_types_str.c **** 
 619:../../../lr11xx/common/printers/lr11xx_radio_types_str.c **** const char* lr11xx_radio_pkt_type_to_str( const lr11xx_radio_pkt_type_t value )
 620:../../../lr11xx/common/printers/lr11xx_radio_types_str.c **** {
 1746              		.loc 1 620 1
 1747              		.cfi_startproc
 1748              		@ args = 0, pretend = 0, frame = 8
 1749              		@ frame_needed = 1, uses_anonymous_args = 0
 1750              		@ link register save eliminated.
 1751 0000 80B4     		push	{r7}
 1752              	.LCFI96:
 1753              		.cfi_def_cfa_offset 4
 1754              		.cfi_offset 7, -4
 1755 0002 83B0     		sub	sp, sp, #12
 1756              	.LCFI97:
 1757              		.cfi_def_cfa_offset 16
 1758 0004 00AF     		add	r7, sp, #0
 1759              	.LCFI98:
 1760              		.cfi_def_cfa_register 7
 1761 0006 0346     		mov	r3, r0
 1762 0008 FB71     		strb	r3, [r7, #7]
 621:../../../lr11xx/common/printers/lr11xx_radio_types_str.c ****     switch( value )
 1763              		.loc 1 621 5
 1764 000a FB79     		ldrb	r3, [r7, #7]	@ zero_extendqisi2
 1765 000c 052B     		cmp	r3, #5
 1766 000e 1BD8     		bhi	.L174
 1767 0010 01A2     		adr	r2, .L176
 1768 0012 52F823F0 		ldr	pc, [r2, r3, lsl #2]
 1769 0016 00BF     		.p2align 2
 1770              	.L176:
 1771 0018 31000000 		.word	.L181+1
 1772 001c 35000000 		.word	.L180+1
 1773 0020 39000000 		.word	.L179+1
 1774 0024 3D000000 		.word	.L178+1
 1775 0028 41000000 		.word	.L177+1
 1776 002c 45000000 		.word	.L175+1
 1777              		.p2align 1
 1778              	.L181:
 622:../../../lr11xx/common/printers/lr11xx_radio_types_str.c ****     {
 623:../../../lr11xx/common/printers/lr11xx_radio_types_str.c ****     case LR11XX_RADIO_PKT_NONE:
 624:../../../lr11xx/common/printers/lr11xx_radio_types_str.c ****     {
 625:../../../lr11xx/common/printers/lr11xx_radio_types_str.c ****         return ( const char* ) "LR11XX_RADIO_PKT_NONE";
 1779              		.loc 1 625 16
 1780 0030 094B     		ldr	r3, .L183
 1781 0032 0AE0     		b	.L182
 1782              	.L180:
 626:../../../lr11xx/common/printers/lr11xx_radio_types_str.c ****     }
 627:../../../lr11xx/common/printers/lr11xx_radio_types_str.c **** 
 628:../../../lr11xx/common/printers/lr11xx_radio_types_str.c ****     case LR11XX_RADIO_PKT_TYPE_GFSK:
 629:../../../lr11xx/common/printers/lr11xx_radio_types_str.c ****     {
 630:../../../lr11xx/common/printers/lr11xx_radio_types_str.c ****         return ( const char* ) "LR11XX_RADIO_PKT_TYPE_GFSK";
 1783              		.loc 1 630 16
 1784 0034 094B     		ldr	r3, .L183+4
 1785 0036 08E0     		b	.L182
 1786              	.L179:
 631:../../../lr11xx/common/printers/lr11xx_radio_types_str.c ****     }
ARM GAS  C:\msys64\tmp\ccCxxl6h.s 			page 49


 632:../../../lr11xx/common/printers/lr11xx_radio_types_str.c **** 
 633:../../../lr11xx/common/printers/lr11xx_radio_types_str.c ****     case LR11XX_RADIO_PKT_TYPE_LORA:
 634:../../../lr11xx/common/printers/lr11xx_radio_types_str.c ****     {
 635:../../../lr11xx/common/printers/lr11xx_radio_types_str.c ****         return ( const char* ) "LR11XX_RADIO_PKT_TYPE_LORA";
 1787              		.loc 1 635 16
 1788 0038 094B     		ldr	r3, .L183+8
 1789 003a 06E0     		b	.L182
 1790              	.L178:
 636:../../../lr11xx/common/printers/lr11xx_radio_types_str.c ****     }
 637:../../../lr11xx/common/printers/lr11xx_radio_types_str.c **** 
 638:../../../lr11xx/common/printers/lr11xx_radio_types_str.c ****     case LR11XX_RADIO_PKT_TYPE_BPSK:
 639:../../../lr11xx/common/printers/lr11xx_radio_types_str.c ****     {
 640:../../../lr11xx/common/printers/lr11xx_radio_types_str.c ****         return ( const char* ) "LR11XX_RADIO_PKT_TYPE_BPSK";
 1791              		.loc 1 640 16
 1792 003c 094B     		ldr	r3, .L183+12
 1793 003e 04E0     		b	.L182
 1794              	.L177:
 641:../../../lr11xx/common/printers/lr11xx_radio_types_str.c ****     }
 642:../../../lr11xx/common/printers/lr11xx_radio_types_str.c **** 
 643:../../../lr11xx/common/printers/lr11xx_radio_types_str.c ****     case LR11XX_RADIO_PKT_TYPE_LR_FHSS:
 644:../../../lr11xx/common/printers/lr11xx_radio_types_str.c ****     {
 645:../../../lr11xx/common/printers/lr11xx_radio_types_str.c ****         return ( const char* ) "LR11XX_RADIO_PKT_TYPE_LR_FHSS";
 1795              		.loc 1 645 16
 1796 0040 094B     		ldr	r3, .L183+16
 1797 0042 02E0     		b	.L182
 1798              	.L175:
 646:../../../lr11xx/common/printers/lr11xx_radio_types_str.c ****     }
 647:../../../lr11xx/common/printers/lr11xx_radio_types_str.c **** 
 648:../../../lr11xx/common/printers/lr11xx_radio_types_str.c ****     case LR11XX_RADIO_PKT_TYPE_RTTOF:
 649:../../../lr11xx/common/printers/lr11xx_radio_types_str.c ****     {
 650:../../../lr11xx/common/printers/lr11xx_radio_types_str.c ****         return ( const char* ) "LR11XX_RADIO_PKT_TYPE_RTTOF";
 1799              		.loc 1 650 16
 1800 0044 094B     		ldr	r3, .L183+20
 1801 0046 00E0     		b	.L182
 1802              	.L174:
 651:../../../lr11xx/common/printers/lr11xx_radio_types_str.c ****     }
 652:../../../lr11xx/common/printers/lr11xx_radio_types_str.c **** 
 653:../../../lr11xx/common/printers/lr11xx_radio_types_str.c ****     default:
 654:../../../lr11xx/common/printers/lr11xx_radio_types_str.c ****     {
 655:../../../lr11xx/common/printers/lr11xx_radio_types_str.c ****         return ( const char* ) "Unknown";
 1803              		.loc 1 655 16
 1804 0048 094B     		ldr	r3, .L183+24
 1805              	.L182:
 656:../../../lr11xx/common/printers/lr11xx_radio_types_str.c ****     }
 657:../../../lr11xx/common/printers/lr11xx_radio_types_str.c ****     }
 658:../../../lr11xx/common/printers/lr11xx_radio_types_str.c **** }
 1806              		.loc 1 658 1
 1807 004a 1846     		mov	r0, r3
 1808 004c 0C37     		adds	r7, r7, #12
 1809              	.LCFI99:
 1810              		.cfi_def_cfa_offset 4
 1811 004e BD46     		mov	sp, r7
 1812              	.LCFI100:
 1813              		.cfi_def_cfa_register 13
 1814              		@ sp needed
 1815 0050 5DF8047B 		ldr	r7, [sp], #4
 1816              	.LCFI101:
ARM GAS  C:\msys64\tmp\ccCxxl6h.s 			page 50


 1817              		.cfi_restore 7
 1818              		.cfi_def_cfa_offset 0
 1819 0054 7047     		bx	lr
 1820              	.L184:
 1821 0056 00BF     		.align	2
 1822              	.L183:
 1823 0058 AC090000 		.word	.LC82
 1824 005c C4090000 		.word	.LC83
 1825 0060 E0090000 		.word	.LC84
 1826 0064 FC090000 		.word	.LC85
 1827 0068 180A0000 		.word	.LC86
 1828 006c 380A0000 		.word	.LC87
 1829 0070 48000000 		.word	.LC3
 1830              		.cfi_endproc
 1831              	.LFE16:
 1833              		.section	.rodata
 1834              		.align	2
 1835              	.LC88:
 1836 0a54 4C523131 		.ascii	"LR11XX_RADIO_PA_REG_SUPPLY_VREG\000"
 1836      58585F52 
 1836      4144494F 
 1836      5F50415F 
 1836      5245475F 
 1837              		.align	2
 1838              	.LC89:
 1839 0a74 4C523131 		.ascii	"LR11XX_RADIO_PA_REG_SUPPLY_VBAT\000"
 1839      58585F52 
 1839      4144494F 
 1839      5F50415F 
 1839      5245475F 
 1840              		.section	.text.lr11xx_radio_pa_reg_supply_to_str,"ax",%progbits
 1841              		.align	1
 1842              		.global	lr11xx_radio_pa_reg_supply_to_str
 1843              		.syntax unified
 1844              		.thumb
 1845              		.thumb_func
 1847              	lr11xx_radio_pa_reg_supply_to_str:
 1848              	.LFB17:
 659:../../../lr11xx/common/printers/lr11xx_radio_types_str.c **** 
 660:../../../lr11xx/common/printers/lr11xx_radio_types_str.c **** const char* lr11xx_radio_pa_reg_supply_to_str( const lr11xx_radio_pa_reg_supply_t value )
 661:../../../lr11xx/common/printers/lr11xx_radio_types_str.c **** {
 1849              		.loc 1 661 1
 1850              		.cfi_startproc
 1851              		@ args = 0, pretend = 0, frame = 8
 1852              		@ frame_needed = 1, uses_anonymous_args = 0
 1853              		@ link register save eliminated.
 1854 0000 80B4     		push	{r7}
 1855              	.LCFI102:
 1856              		.cfi_def_cfa_offset 4
 1857              		.cfi_offset 7, -4
 1858 0002 83B0     		sub	sp, sp, #12
 1859              	.LCFI103:
 1860              		.cfi_def_cfa_offset 16
 1861 0004 00AF     		add	r7, sp, #0
 1862              	.LCFI104:
 1863              		.cfi_def_cfa_register 7
 1864 0006 0346     		mov	r3, r0
ARM GAS  C:\msys64\tmp\ccCxxl6h.s 			page 51


 1865 0008 FB71     		strb	r3, [r7, #7]
 662:../../../lr11xx/common/printers/lr11xx_radio_types_str.c ****     switch( value )
 1866              		.loc 1 662 5
 1867 000a FB79     		ldrb	r3, [r7, #7]	@ zero_extendqisi2
 1868 000c 002B     		cmp	r3, #0
 1869 000e 02D0     		beq	.L186
 1870 0010 012B     		cmp	r3, #1
 1871 0012 02D0     		beq	.L187
 1872 0014 03E0     		b	.L190
 1873              	.L186:
 663:../../../lr11xx/common/printers/lr11xx_radio_types_str.c ****     {
 664:../../../lr11xx/common/printers/lr11xx_radio_types_str.c ****     case LR11XX_RADIO_PA_REG_SUPPLY_VREG:
 665:../../../lr11xx/common/printers/lr11xx_radio_types_str.c ****     {
 666:../../../lr11xx/common/printers/lr11xx_radio_types_str.c ****         return ( const char* ) "LR11XX_RADIO_PA_REG_SUPPLY_VREG";
 1874              		.loc 1 666 16
 1875 0016 054B     		ldr	r3, .L191
 1876 0018 02E0     		b	.L189
 1877              	.L187:
 667:../../../lr11xx/common/printers/lr11xx_radio_types_str.c ****     }
 668:../../../lr11xx/common/printers/lr11xx_radio_types_str.c **** 
 669:../../../lr11xx/common/printers/lr11xx_radio_types_str.c ****     case LR11XX_RADIO_PA_REG_SUPPLY_VBAT:
 670:../../../lr11xx/common/printers/lr11xx_radio_types_str.c ****     {
 671:../../../lr11xx/common/printers/lr11xx_radio_types_str.c ****         return ( const char* ) "LR11XX_RADIO_PA_REG_SUPPLY_VBAT";
 1878              		.loc 1 671 16
 1879 001a 054B     		ldr	r3, .L191+4
 1880 001c 00E0     		b	.L189
 1881              	.L190:
 672:../../../lr11xx/common/printers/lr11xx_radio_types_str.c ****     }
 673:../../../lr11xx/common/printers/lr11xx_radio_types_str.c **** 
 674:../../../lr11xx/common/printers/lr11xx_radio_types_str.c ****     default:
 675:../../../lr11xx/common/printers/lr11xx_radio_types_str.c ****     {
 676:../../../lr11xx/common/printers/lr11xx_radio_types_str.c ****         return ( const char* ) "Unknown";
 1882              		.loc 1 676 16
 1883 001e 054B     		ldr	r3, .L191+8
 1884              	.L189:
 677:../../../lr11xx/common/printers/lr11xx_radio_types_str.c ****     }
 678:../../../lr11xx/common/printers/lr11xx_radio_types_str.c ****     }
 679:../../../lr11xx/common/printers/lr11xx_radio_types_str.c **** }
 1885              		.loc 1 679 1
 1886 0020 1846     		mov	r0, r3
 1887 0022 0C37     		adds	r7, r7, #12
 1888              	.LCFI105:
 1889              		.cfi_def_cfa_offset 4
 1890 0024 BD46     		mov	sp, r7
 1891              	.LCFI106:
 1892              		.cfi_def_cfa_register 13
 1893              		@ sp needed
 1894 0026 5DF8047B 		ldr	r7, [sp], #4
 1895              	.LCFI107:
 1896              		.cfi_restore 7
 1897              		.cfi_def_cfa_offset 0
 1898 002a 7047     		bx	lr
 1899              	.L192:
 1900              		.align	2
 1901              	.L191:
 1902 002c 540A0000 		.word	.LC88
 1903 0030 740A0000 		.word	.LC89
ARM GAS  C:\msys64\tmp\ccCxxl6h.s 			page 52


 1904 0034 48000000 		.word	.LC3
 1905              		.cfi_endproc
 1906              	.LFE17:
 1908              		.section	.rodata
 1909              		.align	2
 1910              	.LC90:
 1911 0a94 4C523131 		.ascii	"LR11XX_RADIO_RX_DUTY_CYCLE_MODE_RX\000"
 1911      58585F52 
 1911      4144494F 
 1911      5F52585F 
 1911      44555459 
 1912 0ab7 00       		.align	2
 1913              	.LC91:
 1914 0ab8 4C523131 		.ascii	"LR11XX_RADIO_RX_DUTY_CYCLE_MODE_CAD\000"
 1914      58585F52 
 1914      4144494F 
 1914      5F52585F 
 1914      44555459 
 1915              		.section	.text.lr11xx_radio_rx_duty_cycle_mode_to_str,"ax",%progbits
 1916              		.align	1
 1917              		.global	lr11xx_radio_rx_duty_cycle_mode_to_str
 1918              		.syntax unified
 1919              		.thumb
 1920              		.thumb_func
 1922              	lr11xx_radio_rx_duty_cycle_mode_to_str:
 1923              	.LFB18:
 680:../../../lr11xx/common/printers/lr11xx_radio_types_str.c **** 
 681:../../../lr11xx/common/printers/lr11xx_radio_types_str.c **** const char* lr11xx_radio_rx_duty_cycle_mode_to_str( const lr11xx_radio_rx_duty_cycle_mode_t value )
 682:../../../lr11xx/common/printers/lr11xx_radio_types_str.c **** {
 1924              		.loc 1 682 1
 1925              		.cfi_startproc
 1926              		@ args = 0, pretend = 0, frame = 8
 1927              		@ frame_needed = 1, uses_anonymous_args = 0
 1928              		@ link register save eliminated.
 1929 0000 80B4     		push	{r7}
 1930              	.LCFI108:
 1931              		.cfi_def_cfa_offset 4
 1932              		.cfi_offset 7, -4
 1933 0002 83B0     		sub	sp, sp, #12
 1934              	.LCFI109:
 1935              		.cfi_def_cfa_offset 16
 1936 0004 00AF     		add	r7, sp, #0
 1937              	.LCFI110:
 1938              		.cfi_def_cfa_register 7
 1939 0006 0346     		mov	r3, r0
 1940 0008 FB71     		strb	r3, [r7, #7]
 683:../../../lr11xx/common/printers/lr11xx_radio_types_str.c ****     switch( value )
 1941              		.loc 1 683 5
 1942 000a FB79     		ldrb	r3, [r7, #7]	@ zero_extendqisi2
 1943 000c 002B     		cmp	r3, #0
 1944 000e 02D0     		beq	.L194
 1945 0010 012B     		cmp	r3, #1
 1946 0012 02D0     		beq	.L195
 1947 0014 03E0     		b	.L198
 1948              	.L194:
 684:../../../lr11xx/common/printers/lr11xx_radio_types_str.c ****     {
 685:../../../lr11xx/common/printers/lr11xx_radio_types_str.c ****     case LR11XX_RADIO_RX_DUTY_CYCLE_MODE_RX:
ARM GAS  C:\msys64\tmp\ccCxxl6h.s 			page 53


 686:../../../lr11xx/common/printers/lr11xx_radio_types_str.c ****     {
 687:../../../lr11xx/common/printers/lr11xx_radio_types_str.c ****         return ( const char* ) "LR11XX_RADIO_RX_DUTY_CYCLE_MODE_RX";
 1949              		.loc 1 687 16
 1950 0016 054B     		ldr	r3, .L199
 1951 0018 02E0     		b	.L197
 1952              	.L195:
 688:../../../lr11xx/common/printers/lr11xx_radio_types_str.c ****     }
 689:../../../lr11xx/common/printers/lr11xx_radio_types_str.c **** 
 690:../../../lr11xx/common/printers/lr11xx_radio_types_str.c ****     case LR11XX_RADIO_RX_DUTY_CYCLE_MODE_CAD:
 691:../../../lr11xx/common/printers/lr11xx_radio_types_str.c ****     {
 692:../../../lr11xx/common/printers/lr11xx_radio_types_str.c ****         return ( const char* ) "LR11XX_RADIO_RX_DUTY_CYCLE_MODE_CAD";
 1953              		.loc 1 692 16
 1954 001a 054B     		ldr	r3, .L199+4
 1955 001c 00E0     		b	.L197
 1956              	.L198:
 693:../../../lr11xx/common/printers/lr11xx_radio_types_str.c ****     }
 694:../../../lr11xx/common/printers/lr11xx_radio_types_str.c **** 
 695:../../../lr11xx/common/printers/lr11xx_radio_types_str.c ****     default:
 696:../../../lr11xx/common/printers/lr11xx_radio_types_str.c ****     {
 697:../../../lr11xx/common/printers/lr11xx_radio_types_str.c ****         return ( const char* ) "Unknown";
 1957              		.loc 1 697 16
 1958 001e 054B     		ldr	r3, .L199+8
 1959              	.L197:
 698:../../../lr11xx/common/printers/lr11xx_radio_types_str.c ****     }
 699:../../../lr11xx/common/printers/lr11xx_radio_types_str.c ****     }
 700:../../../lr11xx/common/printers/lr11xx_radio_types_str.c **** }
 1960              		.loc 1 700 1
 1961 0020 1846     		mov	r0, r3
 1962 0022 0C37     		adds	r7, r7, #12
 1963              	.LCFI111:
 1964              		.cfi_def_cfa_offset 4
 1965 0024 BD46     		mov	sp, r7
 1966              	.LCFI112:
 1967              		.cfi_def_cfa_register 13
 1968              		@ sp needed
 1969 0026 5DF8047B 		ldr	r7, [sp], #4
 1970              	.LCFI113:
 1971              		.cfi_restore 7
 1972              		.cfi_def_cfa_offset 0
 1973 002a 7047     		bx	lr
 1974              	.L200:
 1975              		.align	2
 1976              	.L199:
 1977 002c 940A0000 		.word	.LC90
 1978 0030 B80A0000 		.word	.LC91
 1979 0034 48000000 		.word	.LC3
 1980              		.cfi_endproc
 1981              	.LFE18:
 1983              		.section	.rodata
 1984              		.align	2
 1985              	.LC92:
 1986 0adc 4C523131 		.ascii	"LR11XX_RADIO_GFSK_BW_4800\000"
 1986      58585F52 
 1986      4144494F 
 1986      5F474653 
 1986      4B5F4257 
 1987 0af6 0000     		.align	2
ARM GAS  C:\msys64\tmp\ccCxxl6h.s 			page 54


 1988              	.LC93:
 1989 0af8 4C523131 		.ascii	"LR11XX_RADIO_GFSK_BW_5800\000"
 1989      58585F52 
 1989      4144494F 
 1989      5F474653 
 1989      4B5F4257 
 1990 0b12 0000     		.align	2
 1991              	.LC94:
 1992 0b14 4C523131 		.ascii	"LR11XX_RADIO_GFSK_BW_7300\000"
 1992      58585F52 
 1992      4144494F 
 1992      5F474653 
 1992      4B5F4257 
 1993 0b2e 0000     		.align	2
 1994              	.LC95:
 1995 0b30 4C523131 		.ascii	"LR11XX_RADIO_GFSK_BW_9700\000"
 1995      58585F52 
 1995      4144494F 
 1995      5F474653 
 1995      4B5F4257 
 1996 0b4a 0000     		.align	2
 1997              	.LC96:
 1998 0b4c 4C523131 		.ascii	"LR11XX_RADIO_GFSK_BW_11700\000"
 1998      58585F52 
 1998      4144494F 
 1998      5F474653 
 1998      4B5F4257 
 1999 0b67 00       		.align	2
 2000              	.LC97:
 2001 0b68 4C523131 		.ascii	"LR11XX_RADIO_GFSK_BW_14600\000"
 2001      58585F52 
 2001      4144494F 
 2001      5F474653 
 2001      4B5F4257 
 2002 0b83 00       		.align	2
 2003              	.LC98:
 2004 0b84 4C523131 		.ascii	"LR11XX_RADIO_GFSK_BW_19500\000"
 2004      58585F52 
 2004      4144494F 
 2004      5F474653 
 2004      4B5F4257 
 2005 0b9f 00       		.align	2
 2006              	.LC99:
 2007 0ba0 4C523131 		.ascii	"LR11XX_RADIO_GFSK_BW_23400\000"
 2007      58585F52 
 2007      4144494F 
 2007      5F474653 
 2007      4B5F4257 
 2008 0bbb 00       		.align	2
 2009              	.LC100:
 2010 0bbc 4C523131 		.ascii	"LR11XX_RADIO_GFSK_BW_29300\000"
 2010      58585F52 
 2010      4144494F 
 2010      5F474653 
 2010      4B5F4257 
 2011 0bd7 00       		.align	2
 2012              	.LC101:
ARM GAS  C:\msys64\tmp\ccCxxl6h.s 			page 55


 2013 0bd8 4C523131 		.ascii	"LR11XX_RADIO_GFSK_BW_39000\000"
 2013      58585F52 
 2013      4144494F 
 2013      5F474653 
 2013      4B5F4257 
 2014 0bf3 00       		.align	2
 2015              	.LC102:
 2016 0bf4 4C523131 		.ascii	"LR11XX_RADIO_GFSK_BW_46900\000"
 2016      58585F52 
 2016      4144494F 
 2016      5F474653 
 2016      4B5F4257 
 2017 0c0f 00       		.align	2
 2018              	.LC103:
 2019 0c10 4C523131 		.ascii	"LR11XX_RADIO_GFSK_BW_58600\000"
 2019      58585F52 
 2019      4144494F 
 2019      5F474653 
 2019      4B5F4257 
 2020 0c2b 00       		.align	2
 2021              	.LC104:
 2022 0c2c 4C523131 		.ascii	"LR11XX_RADIO_GFSK_BW_78200\000"
 2022      58585F52 
 2022      4144494F 
 2022      5F474653 
 2022      4B5F4257 
 2023 0c47 00       		.align	2
 2024              	.LC105:
 2025 0c48 4C523131 		.ascii	"LR11XX_RADIO_GFSK_BW_93800\000"
 2025      58585F52 
 2025      4144494F 
 2025      5F474653 
 2025      4B5F4257 
 2026 0c63 00       		.align	2
 2027              	.LC106:
 2028 0c64 4C523131 		.ascii	"LR11XX_RADIO_GFSK_BW_117300\000"
 2028      58585F52 
 2028      4144494F 
 2028      5F474653 
 2028      4B5F4257 
 2029              		.align	2
 2030              	.LC107:
 2031 0c80 4C523131 		.ascii	"LR11XX_RADIO_GFSK_BW_156200\000"
 2031      58585F52 
 2031      4144494F 
 2031      5F474653 
 2031      4B5F4257 
 2032              		.align	2
 2033              	.LC108:
 2034 0c9c 4C523131 		.ascii	"LR11XX_RADIO_GFSK_BW_187200\000"
 2034      58585F52 
 2034      4144494F 
 2034      5F474653 
 2034      4B5F4257 
 2035              		.align	2
 2036              	.LC109:
 2037 0cb8 4C523131 		.ascii	"LR11XX_RADIO_GFSK_BW_234300\000"
ARM GAS  C:\msys64\tmp\ccCxxl6h.s 			page 56


 2037      58585F52 
 2037      4144494F 
 2037      5F474653 
 2037      4B5F4257 
 2038              		.align	2
 2039              	.LC110:
 2040 0cd4 4C523131 		.ascii	"LR11XX_RADIO_GFSK_BW_312000\000"
 2040      58585F52 
 2040      4144494F 
 2040      5F474653 
 2040      4B5F4257 
 2041              		.align	2
 2042              	.LC111:
 2043 0cf0 4C523131 		.ascii	"LR11XX_RADIO_GFSK_BW_373600\000"
 2043      58585F52 
 2043      4144494F 
 2043      5F474653 
 2043      4B5F4257 
 2044              		.align	2
 2045              	.LC112:
 2046 0d0c 4C523131 		.ascii	"LR11XX_RADIO_GFSK_BW_467000\000"
 2046      58585F52 
 2046      4144494F 
 2046      5F474653 
 2046      4B5F4257 
 2047              		.section	.text.lr11xx_radio_gfsk_bw_to_str,"ax",%progbits
 2048              		.align	1
 2049              		.global	lr11xx_radio_gfsk_bw_to_str
 2050              		.syntax unified
 2051              		.thumb
 2052              		.thumb_func
 2054              	lr11xx_radio_gfsk_bw_to_str:
 2055              	.LFB19:
 701:../../../lr11xx/common/printers/lr11xx_radio_types_str.c **** 
 702:../../../lr11xx/common/printers/lr11xx_radio_types_str.c **** const char* lr11xx_radio_gfsk_bw_to_str( const lr11xx_radio_gfsk_bw_t value )
 703:../../../lr11xx/common/printers/lr11xx_radio_types_str.c **** {
 2056              		.loc 1 703 1
 2057              		.cfi_startproc
 2058              		@ args = 0, pretend = 0, frame = 8
 2059              		@ frame_needed = 1, uses_anonymous_args = 0
 2060              		@ link register save eliminated.
 2061 0000 80B4     		push	{r7}
 2062              	.LCFI114:
 2063              		.cfi_def_cfa_offset 4
 2064              		.cfi_offset 7, -4
 2065 0002 83B0     		sub	sp, sp, #12
 2066              	.LCFI115:
 2067              		.cfi_def_cfa_offset 16
 2068 0004 00AF     		add	r7, sp, #0
 2069              	.LCFI116:
 2070              		.cfi_def_cfa_register 7
 2071 0006 0346     		mov	r3, r0
 2072 0008 FB71     		strb	r3, [r7, #7]
 704:../../../lr11xx/common/printers/lr11xx_radio_types_str.c ****     switch( value )
 2073              		.loc 1 704 5
 2074 000a FB79     		ldrb	r3, [r7, #7]	@ zero_extendqisi2
 2075 000c 093B     		subs	r3, r3, #9
ARM GAS  C:\msys64\tmp\ccCxxl6h.s 			page 57


 2076 000e 162B     		cmp	r3, #22
 2077 0010 5AD8     		bhi	.L202
 2078 0012 01A2     		adr	r2, .L204
 2079 0014 52F823F0 		ldr	pc, [r2, r3, lsl #2]
 2080              		.p2align 2
 2081              	.L204:
 2082 0018 C5000000 		.word	.L224+1
 2083 001c B9000000 		.word	.L223+1
 2084 0020 AD000000 		.word	.L222+1
 2085 0024 A1000000 		.word	.L221+1
 2086 0028 95000000 		.word	.L220+1
 2087 002c 89000000 		.word	.L219+1
 2088 0030 7D000000 		.word	.L218+1
 2089 0034 C9000000 		.word	.L202+1
 2090 0038 C1000000 		.word	.L217+1
 2091 003c B5000000 		.word	.L216+1
 2092 0040 A9000000 		.word	.L215+1
 2093 0044 9D000000 		.word	.L214+1
 2094 0048 91000000 		.word	.L213+1
 2095 004c 85000000 		.word	.L212+1
 2096 0050 79000000 		.word	.L211+1
 2097 0054 C9000000 		.word	.L202+1
 2098 0058 BD000000 		.word	.L210+1
 2099 005c B1000000 		.word	.L209+1
 2100 0060 A5000000 		.word	.L208+1
 2101 0064 99000000 		.word	.L207+1
 2102 0068 8D000000 		.word	.L206+1
 2103 006c 81000000 		.word	.L205+1
 2104 0070 75000000 		.word	.L203+1
 2105              		.p2align 1
 2106              	.L203:
 705:../../../lr11xx/common/printers/lr11xx_radio_types_str.c ****     {
 706:../../../lr11xx/common/printers/lr11xx_radio_types_str.c ****     case LR11XX_RADIO_GFSK_BW_4800:
 707:../../../lr11xx/common/printers/lr11xx_radio_types_str.c ****     {
 708:../../../lr11xx/common/printers/lr11xx_radio_types_str.c ****         return ( const char* ) "LR11XX_RADIO_GFSK_BW_4800";
 2107              		.loc 1 708 16
 2108 0074 184B     		ldr	r3, .L226
 2109 0076 28E0     		b	.L225
 2110              	.L211:
 709:../../../lr11xx/common/printers/lr11xx_radio_types_str.c ****     }
 710:../../../lr11xx/common/printers/lr11xx_radio_types_str.c **** 
 711:../../../lr11xx/common/printers/lr11xx_radio_types_str.c ****     case LR11XX_RADIO_GFSK_BW_5800:
 712:../../../lr11xx/common/printers/lr11xx_radio_types_str.c ****     {
 713:../../../lr11xx/common/printers/lr11xx_radio_types_str.c ****         return ( const char* ) "LR11XX_RADIO_GFSK_BW_5800";
 2111              		.loc 1 713 16
 2112 0078 184B     		ldr	r3, .L226+4
 2113 007a 26E0     		b	.L225
 2114              	.L218:
 714:../../../lr11xx/common/printers/lr11xx_radio_types_str.c ****     }
 715:../../../lr11xx/common/printers/lr11xx_radio_types_str.c **** 
 716:../../../lr11xx/common/printers/lr11xx_radio_types_str.c ****     case LR11XX_RADIO_GFSK_BW_7300:
 717:../../../lr11xx/common/printers/lr11xx_radio_types_str.c ****     {
 718:../../../lr11xx/common/printers/lr11xx_radio_types_str.c ****         return ( const char* ) "LR11XX_RADIO_GFSK_BW_7300";
 2115              		.loc 1 718 16
 2116 007c 184B     		ldr	r3, .L226+8
 2117 007e 24E0     		b	.L225
 2118              	.L205:
ARM GAS  C:\msys64\tmp\ccCxxl6h.s 			page 58


 719:../../../lr11xx/common/printers/lr11xx_radio_types_str.c ****     }
 720:../../../lr11xx/common/printers/lr11xx_radio_types_str.c **** 
 721:../../../lr11xx/common/printers/lr11xx_radio_types_str.c ****     case LR11XX_RADIO_GFSK_BW_9700:
 722:../../../lr11xx/common/printers/lr11xx_radio_types_str.c ****     {
 723:../../../lr11xx/common/printers/lr11xx_radio_types_str.c ****         return ( const char* ) "LR11XX_RADIO_GFSK_BW_9700";
 2119              		.loc 1 723 16
 2120 0080 184B     		ldr	r3, .L226+12
 2121 0082 22E0     		b	.L225
 2122              	.L212:
 724:../../../lr11xx/common/printers/lr11xx_radio_types_str.c ****     }
 725:../../../lr11xx/common/printers/lr11xx_radio_types_str.c **** 
 726:../../../lr11xx/common/printers/lr11xx_radio_types_str.c ****     case LR11XX_RADIO_GFSK_BW_11700:
 727:../../../lr11xx/common/printers/lr11xx_radio_types_str.c ****     {
 728:../../../lr11xx/common/printers/lr11xx_radio_types_str.c ****         return ( const char* ) "LR11XX_RADIO_GFSK_BW_11700";
 2123              		.loc 1 728 16
 2124 0084 184B     		ldr	r3, .L226+16
 2125 0086 20E0     		b	.L225
 2126              	.L219:
 729:../../../lr11xx/common/printers/lr11xx_radio_types_str.c ****     }
 730:../../../lr11xx/common/printers/lr11xx_radio_types_str.c **** 
 731:../../../lr11xx/common/printers/lr11xx_radio_types_str.c ****     case LR11XX_RADIO_GFSK_BW_14600:
 732:../../../lr11xx/common/printers/lr11xx_radio_types_str.c ****     {
 733:../../../lr11xx/common/printers/lr11xx_radio_types_str.c ****         return ( const char* ) "LR11XX_RADIO_GFSK_BW_14600";
 2127              		.loc 1 733 16
 2128 0088 184B     		ldr	r3, .L226+20
 2129 008a 1EE0     		b	.L225
 2130              	.L206:
 734:../../../lr11xx/common/printers/lr11xx_radio_types_str.c ****     }
 735:../../../lr11xx/common/printers/lr11xx_radio_types_str.c **** 
 736:../../../lr11xx/common/printers/lr11xx_radio_types_str.c ****     case LR11XX_RADIO_GFSK_BW_19500:
 737:../../../lr11xx/common/printers/lr11xx_radio_types_str.c ****     {
 738:../../../lr11xx/common/printers/lr11xx_radio_types_str.c ****         return ( const char* ) "LR11XX_RADIO_GFSK_BW_19500";
 2131              		.loc 1 738 16
 2132 008c 184B     		ldr	r3, .L226+24
 2133 008e 1CE0     		b	.L225
 2134              	.L213:
 739:../../../lr11xx/common/printers/lr11xx_radio_types_str.c ****     }
 740:../../../lr11xx/common/printers/lr11xx_radio_types_str.c **** 
 741:../../../lr11xx/common/printers/lr11xx_radio_types_str.c ****     case LR11XX_RADIO_GFSK_BW_23400:
 742:../../../lr11xx/common/printers/lr11xx_radio_types_str.c ****     {
 743:../../../lr11xx/common/printers/lr11xx_radio_types_str.c ****         return ( const char* ) "LR11XX_RADIO_GFSK_BW_23400";
 2135              		.loc 1 743 16
 2136 0090 184B     		ldr	r3, .L226+28
 2137 0092 1AE0     		b	.L225
 2138              	.L220:
 744:../../../lr11xx/common/printers/lr11xx_radio_types_str.c ****     }
 745:../../../lr11xx/common/printers/lr11xx_radio_types_str.c **** 
 746:../../../lr11xx/common/printers/lr11xx_radio_types_str.c ****     case LR11XX_RADIO_GFSK_BW_29300:
 747:../../../lr11xx/common/printers/lr11xx_radio_types_str.c ****     {
 748:../../../lr11xx/common/printers/lr11xx_radio_types_str.c ****         return ( const char* ) "LR11XX_RADIO_GFSK_BW_29300";
 2139              		.loc 1 748 16
 2140 0094 184B     		ldr	r3, .L226+32
 2141 0096 18E0     		b	.L225
 2142              	.L207:
 749:../../../lr11xx/common/printers/lr11xx_radio_types_str.c ****     }
 750:../../../lr11xx/common/printers/lr11xx_radio_types_str.c **** 
 751:../../../lr11xx/common/printers/lr11xx_radio_types_str.c ****     case LR11XX_RADIO_GFSK_BW_39000:
ARM GAS  C:\msys64\tmp\ccCxxl6h.s 			page 59


 752:../../../lr11xx/common/printers/lr11xx_radio_types_str.c ****     {
 753:../../../lr11xx/common/printers/lr11xx_radio_types_str.c ****         return ( const char* ) "LR11XX_RADIO_GFSK_BW_39000";
 2143              		.loc 1 753 16
 2144 0098 184B     		ldr	r3, .L226+36
 2145 009a 16E0     		b	.L225
 2146              	.L214:
 754:../../../lr11xx/common/printers/lr11xx_radio_types_str.c ****     }
 755:../../../lr11xx/common/printers/lr11xx_radio_types_str.c **** 
 756:../../../lr11xx/common/printers/lr11xx_radio_types_str.c ****     case LR11XX_RADIO_GFSK_BW_46900:
 757:../../../lr11xx/common/printers/lr11xx_radio_types_str.c ****     {
 758:../../../lr11xx/common/printers/lr11xx_radio_types_str.c ****         return ( const char* ) "LR11XX_RADIO_GFSK_BW_46900";
 2147              		.loc 1 758 16
 2148 009c 184B     		ldr	r3, .L226+40
 2149 009e 14E0     		b	.L225
 2150              	.L221:
 759:../../../lr11xx/common/printers/lr11xx_radio_types_str.c ****     }
 760:../../../lr11xx/common/printers/lr11xx_radio_types_str.c **** 
 761:../../../lr11xx/common/printers/lr11xx_radio_types_str.c ****     case LR11XX_RADIO_GFSK_BW_58600:
 762:../../../lr11xx/common/printers/lr11xx_radio_types_str.c ****     {
 763:../../../lr11xx/common/printers/lr11xx_radio_types_str.c ****         return ( const char* ) "LR11XX_RADIO_GFSK_BW_58600";
 2151              		.loc 1 763 16
 2152 00a0 184B     		ldr	r3, .L226+44
 2153 00a2 12E0     		b	.L225
 2154              	.L208:
 764:../../../lr11xx/common/printers/lr11xx_radio_types_str.c ****     }
 765:../../../lr11xx/common/printers/lr11xx_radio_types_str.c **** 
 766:../../../lr11xx/common/printers/lr11xx_radio_types_str.c ****     case LR11XX_RADIO_GFSK_BW_78200:
 767:../../../lr11xx/common/printers/lr11xx_radio_types_str.c ****     {
 768:../../../lr11xx/common/printers/lr11xx_radio_types_str.c ****         return ( const char* ) "LR11XX_RADIO_GFSK_BW_78200";
 2155              		.loc 1 768 16
 2156 00a4 184B     		ldr	r3, .L226+48
 2157 00a6 10E0     		b	.L225
 2158              	.L215:
 769:../../../lr11xx/common/printers/lr11xx_radio_types_str.c ****     }
 770:../../../lr11xx/common/printers/lr11xx_radio_types_str.c **** 
 771:../../../lr11xx/common/printers/lr11xx_radio_types_str.c ****     case LR11XX_RADIO_GFSK_BW_93800:
 772:../../../lr11xx/common/printers/lr11xx_radio_types_str.c ****     {
 773:../../../lr11xx/common/printers/lr11xx_radio_types_str.c ****         return ( const char* ) "LR11XX_RADIO_GFSK_BW_93800";
 2159              		.loc 1 773 16
 2160 00a8 184B     		ldr	r3, .L226+52
 2161 00aa 0EE0     		b	.L225
 2162              	.L222:
 774:../../../lr11xx/common/printers/lr11xx_radio_types_str.c ****     }
 775:../../../lr11xx/common/printers/lr11xx_radio_types_str.c **** 
 776:../../../lr11xx/common/printers/lr11xx_radio_types_str.c ****     case LR11XX_RADIO_GFSK_BW_117300:
 777:../../../lr11xx/common/printers/lr11xx_radio_types_str.c ****     {
 778:../../../lr11xx/common/printers/lr11xx_radio_types_str.c ****         return ( const char* ) "LR11XX_RADIO_GFSK_BW_117300";
 2163              		.loc 1 778 16
 2164 00ac 184B     		ldr	r3, .L226+56
 2165 00ae 0CE0     		b	.L225
 2166              	.L209:
 779:../../../lr11xx/common/printers/lr11xx_radio_types_str.c ****     }
 780:../../../lr11xx/common/printers/lr11xx_radio_types_str.c **** 
 781:../../../lr11xx/common/printers/lr11xx_radio_types_str.c ****     case LR11XX_RADIO_GFSK_BW_156200:
 782:../../../lr11xx/common/printers/lr11xx_radio_types_str.c ****     {
 783:../../../lr11xx/common/printers/lr11xx_radio_types_str.c ****         return ( const char* ) "LR11XX_RADIO_GFSK_BW_156200";
 2167              		.loc 1 783 16
ARM GAS  C:\msys64\tmp\ccCxxl6h.s 			page 60


 2168 00b0 184B     		ldr	r3, .L226+60
 2169 00b2 0AE0     		b	.L225
 2170              	.L216:
 784:../../../lr11xx/common/printers/lr11xx_radio_types_str.c ****     }
 785:../../../lr11xx/common/printers/lr11xx_radio_types_str.c **** 
 786:../../../lr11xx/common/printers/lr11xx_radio_types_str.c ****     case LR11XX_RADIO_GFSK_BW_187200:
 787:../../../lr11xx/common/printers/lr11xx_radio_types_str.c ****     {
 788:../../../lr11xx/common/printers/lr11xx_radio_types_str.c ****         return ( const char* ) "LR11XX_RADIO_GFSK_BW_187200";
 2171              		.loc 1 788 16
 2172 00b4 184B     		ldr	r3, .L226+64
 2173 00b6 08E0     		b	.L225
 2174              	.L223:
 789:../../../lr11xx/common/printers/lr11xx_radio_types_str.c ****     }
 790:../../../lr11xx/common/printers/lr11xx_radio_types_str.c **** 
 791:../../../lr11xx/common/printers/lr11xx_radio_types_str.c ****     case LR11XX_RADIO_GFSK_BW_234300:
 792:../../../lr11xx/common/printers/lr11xx_radio_types_str.c ****     {
 793:../../../lr11xx/common/printers/lr11xx_radio_types_str.c ****         return ( const char* ) "LR11XX_RADIO_GFSK_BW_234300";
 2175              		.loc 1 793 16
 2176 00b8 184B     		ldr	r3, .L226+68
 2177 00ba 06E0     		b	.L225
 2178              	.L210:
 794:../../../lr11xx/common/printers/lr11xx_radio_types_str.c ****     }
 795:../../../lr11xx/common/printers/lr11xx_radio_types_str.c **** 
 796:../../../lr11xx/common/printers/lr11xx_radio_types_str.c ****     case LR11XX_RADIO_GFSK_BW_312000:
 797:../../../lr11xx/common/printers/lr11xx_radio_types_str.c ****     {
 798:../../../lr11xx/common/printers/lr11xx_radio_types_str.c ****         return ( const char* ) "LR11XX_RADIO_GFSK_BW_312000";
 2179              		.loc 1 798 16
 2180 00bc 184B     		ldr	r3, .L226+72
 2181 00be 04E0     		b	.L225
 2182              	.L217:
 799:../../../lr11xx/common/printers/lr11xx_radio_types_str.c ****     }
 800:../../../lr11xx/common/printers/lr11xx_radio_types_str.c **** 
 801:../../../lr11xx/common/printers/lr11xx_radio_types_str.c ****     case LR11XX_RADIO_GFSK_BW_373600:
 802:../../../lr11xx/common/printers/lr11xx_radio_types_str.c ****     {
 803:../../../lr11xx/common/printers/lr11xx_radio_types_str.c ****         return ( const char* ) "LR11XX_RADIO_GFSK_BW_373600";
 2183              		.loc 1 803 16
 2184 00c0 184B     		ldr	r3, .L226+76
 2185 00c2 02E0     		b	.L225
 2186              	.L224:
 804:../../../lr11xx/common/printers/lr11xx_radio_types_str.c ****     }
 805:../../../lr11xx/common/printers/lr11xx_radio_types_str.c **** 
 806:../../../lr11xx/common/printers/lr11xx_radio_types_str.c ****     case LR11XX_RADIO_GFSK_BW_467000:
 807:../../../lr11xx/common/printers/lr11xx_radio_types_str.c ****     {
 808:../../../lr11xx/common/printers/lr11xx_radio_types_str.c ****         return ( const char* ) "LR11XX_RADIO_GFSK_BW_467000";
 2187              		.loc 1 808 16
 2188 00c4 184B     		ldr	r3, .L226+80
 2189 00c6 00E0     		b	.L225
 2190              	.L202:
 809:../../../lr11xx/common/printers/lr11xx_radio_types_str.c ****     }
 810:../../../lr11xx/common/printers/lr11xx_radio_types_str.c **** 
 811:../../../lr11xx/common/printers/lr11xx_radio_types_str.c ****     default:
 812:../../../lr11xx/common/printers/lr11xx_radio_types_str.c ****     {
 813:../../../lr11xx/common/printers/lr11xx_radio_types_str.c ****         return ( const char* ) "Unknown";
 2191              		.loc 1 813 16
 2192 00c8 184B     		ldr	r3, .L226+84
 2193              	.L225:
 814:../../../lr11xx/common/printers/lr11xx_radio_types_str.c ****     }
ARM GAS  C:\msys64\tmp\ccCxxl6h.s 			page 61


 815:../../../lr11xx/common/printers/lr11xx_radio_types_str.c ****     }
 816:../../../lr11xx/common/printers/lr11xx_radio_types_str.c **** }
 2194              		.loc 1 816 1
 2195 00ca 1846     		mov	r0, r3
 2196 00cc 0C37     		adds	r7, r7, #12
 2197              	.LCFI117:
 2198              		.cfi_def_cfa_offset 4
 2199 00ce BD46     		mov	sp, r7
 2200              	.LCFI118:
 2201              		.cfi_def_cfa_register 13
 2202              		@ sp needed
 2203 00d0 5DF8047B 		ldr	r7, [sp], #4
 2204              	.LCFI119:
 2205              		.cfi_restore 7
 2206              		.cfi_def_cfa_offset 0
 2207 00d4 7047     		bx	lr
 2208              	.L227:
 2209 00d6 00BF     		.align	2
 2210              	.L226:
 2211 00d8 DC0A0000 		.word	.LC92
 2212 00dc F80A0000 		.word	.LC93
 2213 00e0 140B0000 		.word	.LC94
 2214 00e4 300B0000 		.word	.LC95
 2215 00e8 4C0B0000 		.word	.LC96
 2216 00ec 680B0000 		.word	.LC97
 2217 00f0 840B0000 		.word	.LC98
 2218 00f4 A00B0000 		.word	.LC99
 2219 00f8 BC0B0000 		.word	.LC100
 2220 00fc D80B0000 		.word	.LC101
 2221 0100 F40B0000 		.word	.LC102
 2222 0104 100C0000 		.word	.LC103
 2223 0108 2C0C0000 		.word	.LC104
 2224 010c 480C0000 		.word	.LC105
 2225 0110 640C0000 		.word	.LC106
 2226 0114 800C0000 		.word	.LC107
 2227 0118 9C0C0000 		.word	.LC108
 2228 011c B80C0000 		.word	.LC109
 2229 0120 D40C0000 		.word	.LC110
 2230 0124 F00C0000 		.word	.LC111
 2231 0128 0C0D0000 		.word	.LC112
 2232 012c 48000000 		.word	.LC3
 2233              		.cfi_endproc
 2234              	.LFE19:
 2236              		.section	.rodata
 2237              		.align	2
 2238              	.LC113:
 2239 0d28 4C523131 		.ascii	"LR11XX_RADIO_CAD_EXIT_MODE_STANDBYRC\000"
 2239      58585F52 
 2239      4144494F 
 2239      5F434144 
 2239      5F455849 
 2240 0d4d 000000   		.align	2
 2241              	.LC114:
 2242 0d50 4C523131 		.ascii	"LR11XX_RADIO_CAD_EXIT_MODE_RX\000"
 2242      58585F52 
 2242      4144494F 
 2242      5F434144 
ARM GAS  C:\msys64\tmp\ccCxxl6h.s 			page 62


 2242      5F455849 
 2243 0d6e 0000     		.align	2
 2244              	.LC115:
 2245 0d70 4C523131 		.ascii	"LR11XX_RADIO_CAD_EXIT_MODE_TX\000"
 2245      58585F52 
 2245      4144494F 
 2245      5F434144 
 2245      5F455849 
 2246              		.section	.text.lr11xx_radio_cad_exit_mode_to_str,"ax",%progbits
 2247              		.align	1
 2248              		.global	lr11xx_radio_cad_exit_mode_to_str
 2249              		.syntax unified
 2250              		.thumb
 2251              		.thumb_func
 2253              	lr11xx_radio_cad_exit_mode_to_str:
 2254              	.LFB20:
 817:../../../lr11xx/common/printers/lr11xx_radio_types_str.c **** 
 818:../../../lr11xx/common/printers/lr11xx_radio_types_str.c **** const char* lr11xx_radio_cad_exit_mode_to_str( const lr11xx_radio_cad_exit_mode_t value )
 819:../../../lr11xx/common/printers/lr11xx_radio_types_str.c **** {
 2255              		.loc 1 819 1
 2256              		.cfi_startproc
 2257              		@ args = 0, pretend = 0, frame = 8
 2258              		@ frame_needed = 1, uses_anonymous_args = 0
 2259              		@ link register save eliminated.
 2260 0000 80B4     		push	{r7}
 2261              	.LCFI120:
 2262              		.cfi_def_cfa_offset 4
 2263              		.cfi_offset 7, -4
 2264 0002 83B0     		sub	sp, sp, #12
 2265              	.LCFI121:
 2266              		.cfi_def_cfa_offset 16
 2267 0004 00AF     		add	r7, sp, #0
 2268              	.LCFI122:
 2269              		.cfi_def_cfa_register 7
 2270 0006 0346     		mov	r3, r0
 2271 0008 FB71     		strb	r3, [r7, #7]
 820:../../../lr11xx/common/printers/lr11xx_radio_types_str.c ****     switch( value )
 2272              		.loc 1 820 5
 2273 000a FB79     		ldrb	r3, [r7, #7]	@ zero_extendqisi2
 2274 000c 102B     		cmp	r3, #16
 2275 000e 0AD0     		beq	.L229
 2276 0010 102B     		cmp	r3, #16
 2277 0012 0ADC     		bgt	.L230
 2278 0014 002B     		cmp	r3, #0
 2279 0016 02D0     		beq	.L231
 2280 0018 012B     		cmp	r3, #1
 2281 001a 02D0     		beq	.L232
 2282 001c 05E0     		b	.L230
 2283              	.L231:
 821:../../../lr11xx/common/printers/lr11xx_radio_types_str.c ****     {
 822:../../../lr11xx/common/printers/lr11xx_radio_types_str.c ****     case LR11XX_RADIO_CAD_EXIT_MODE_STANDBYRC:
 823:../../../lr11xx/common/printers/lr11xx_radio_types_str.c ****     {
 824:../../../lr11xx/common/printers/lr11xx_radio_types_str.c ****         return ( const char* ) "LR11XX_RADIO_CAD_EXIT_MODE_STANDBYRC";
 2284              		.loc 1 824 16
 2285 001e 064B     		ldr	r3, .L234
 2286 0020 04E0     		b	.L233
 2287              	.L232:
ARM GAS  C:\msys64\tmp\ccCxxl6h.s 			page 63


 825:../../../lr11xx/common/printers/lr11xx_radio_types_str.c ****     }
 826:../../../lr11xx/common/printers/lr11xx_radio_types_str.c **** 
 827:../../../lr11xx/common/printers/lr11xx_radio_types_str.c ****     case LR11XX_RADIO_CAD_EXIT_MODE_RX:
 828:../../../lr11xx/common/printers/lr11xx_radio_types_str.c ****     {
 829:../../../lr11xx/common/printers/lr11xx_radio_types_str.c ****         return ( const char* ) "LR11XX_RADIO_CAD_EXIT_MODE_RX";
 2288              		.loc 1 829 16
 2289 0022 064B     		ldr	r3, .L234+4
 2290 0024 02E0     		b	.L233
 2291              	.L229:
 830:../../../lr11xx/common/printers/lr11xx_radio_types_str.c ****     }
 831:../../../lr11xx/common/printers/lr11xx_radio_types_str.c **** 
 832:../../../lr11xx/common/printers/lr11xx_radio_types_str.c ****     case LR11XX_RADIO_CAD_EXIT_MODE_TX:
 833:../../../lr11xx/common/printers/lr11xx_radio_types_str.c ****     {
 834:../../../lr11xx/common/printers/lr11xx_radio_types_str.c ****         return ( const char* ) "LR11XX_RADIO_CAD_EXIT_MODE_TX";
 2292              		.loc 1 834 16
 2293 0026 064B     		ldr	r3, .L234+8
 2294 0028 00E0     		b	.L233
 2295              	.L230:
 835:../../../lr11xx/common/printers/lr11xx_radio_types_str.c ****     }
 836:../../../lr11xx/common/printers/lr11xx_radio_types_str.c **** 
 837:../../../lr11xx/common/printers/lr11xx_radio_types_str.c ****     default:
 838:../../../lr11xx/common/printers/lr11xx_radio_types_str.c ****     {
 839:../../../lr11xx/common/printers/lr11xx_radio_types_str.c ****         return ( const char* ) "Unknown";
 2296              		.loc 1 839 16
 2297 002a 064B     		ldr	r3, .L234+12
 2298              	.L233:
 840:../../../lr11xx/common/printers/lr11xx_radio_types_str.c ****     }
 841:../../../lr11xx/common/printers/lr11xx_radio_types_str.c ****     }
 842:../../../lr11xx/common/printers/lr11xx_radio_types_str.c **** }
 2299              		.loc 1 842 1
 2300 002c 1846     		mov	r0, r3
 2301 002e 0C37     		adds	r7, r7, #12
 2302              	.LCFI123:
 2303              		.cfi_def_cfa_offset 4
 2304 0030 BD46     		mov	sp, r7
 2305              	.LCFI124:
 2306              		.cfi_def_cfa_register 13
 2307              		@ sp needed
 2308 0032 5DF8047B 		ldr	r7, [sp], #4
 2309              	.LCFI125:
 2310              		.cfi_restore 7
 2311              		.cfi_def_cfa_offset 0
 2312 0036 7047     		bx	lr
 2313              	.L235:
 2314              		.align	2
 2315              	.L234:
 2316 0038 280D0000 		.word	.LC113
 2317 003c 500D0000 		.word	.LC114
 2318 0040 700D0000 		.word	.LC115
 2319 0044 48000000 		.word	.LC3
 2320              		.cfi_endproc
 2321              	.LFE20:
 2323              		.section	.rodata
 2324 0d8e 0000     		.align	2
 2325              	.LC116:
 2326 0d90 4C523131 		.ascii	"LR11XX_RADIO_GFSK_PULSE_SHAPE_OFF\000"
 2326      58585F52 
ARM GAS  C:\msys64\tmp\ccCxxl6h.s 			page 64


 2326      4144494F 
 2326      5F474653 
 2326      4B5F5055 
 2327 0db2 0000     		.align	2
 2328              	.LC117:
 2329 0db4 4C523131 		.ascii	"LR11XX_RADIO_GFSK_PULSE_SHAPE_BT_03\000"
 2329      58585F52 
 2329      4144494F 
 2329      5F474653 
 2329      4B5F5055 
 2330              		.align	2
 2331              	.LC118:
 2332 0dd8 4C523131 		.ascii	"LR11XX_RADIO_GFSK_PULSE_SHAPE_BT_05\000"
 2332      58585F52 
 2332      4144494F 
 2332      5F474653 
 2332      4B5F5055 
 2333              		.align	2
 2334              	.LC119:
 2335 0dfc 4C523131 		.ascii	"LR11XX_RADIO_GFSK_PULSE_SHAPE_BT_07\000"
 2335      58585F52 
 2335      4144494F 
 2335      5F474653 
 2335      4B5F5055 
 2336              		.align	2
 2337              	.LC120:
 2338 0e20 4C523131 		.ascii	"LR11XX_RADIO_GFSK_PULSE_SHAPE_BT_1\000"
 2338      58585F52 
 2338      4144494F 
 2338      5F474653 
 2338      4B5F5055 
 2339              		.section	.text.lr11xx_radio_gfsk_pulse_shape_to_str,"ax",%progbits
 2340              		.align	1
 2341              		.global	lr11xx_radio_gfsk_pulse_shape_to_str
 2342              		.syntax unified
 2343              		.thumb
 2344              		.thumb_func
 2346              	lr11xx_radio_gfsk_pulse_shape_to_str:
 2347              	.LFB21:
 843:../../../lr11xx/common/printers/lr11xx_radio_types_str.c **** 
 844:../../../lr11xx/common/printers/lr11xx_radio_types_str.c **** const char* lr11xx_radio_gfsk_pulse_shape_to_str( const lr11xx_radio_gfsk_pulse_shape_t value )
 845:../../../lr11xx/common/printers/lr11xx_radio_types_str.c **** {
 2348              		.loc 1 845 1
 2349              		.cfi_startproc
 2350              		@ args = 0, pretend = 0, frame = 8
 2351              		@ frame_needed = 1, uses_anonymous_args = 0
 2352              		@ link register save eliminated.
 2353 0000 80B4     		push	{r7}
 2354              	.LCFI126:
 2355              		.cfi_def_cfa_offset 4
 2356              		.cfi_offset 7, -4
 2357 0002 83B0     		sub	sp, sp, #12
 2358              	.LCFI127:
 2359              		.cfi_def_cfa_offset 16
 2360 0004 00AF     		add	r7, sp, #0
 2361              	.LCFI128:
 2362              		.cfi_def_cfa_register 7
ARM GAS  C:\msys64\tmp\ccCxxl6h.s 			page 65


 2363 0006 0346     		mov	r3, r0
 2364 0008 FB71     		strb	r3, [r7, #7]
 846:../../../lr11xx/common/printers/lr11xx_radio_types_str.c ****     switch( value )
 2365              		.loc 1 846 5
 2366 000a FB79     		ldrb	r3, [r7, #7]	@ zero_extendqisi2
 2367 000c 0B2B     		cmp	r3, #11
 2368 000e 25D8     		bhi	.L237
 2369 0010 01A2     		adr	r2, .L239
 2370 0012 52F823F0 		ldr	pc, [r2, r3, lsl #2]
 2371 0016 00BF     		.p2align 2
 2372              	.L239:
 2373 0018 49000000 		.word	.L243+1
 2374 001c 5D000000 		.word	.L237+1
 2375 0020 5D000000 		.word	.L237+1
 2376 0024 5D000000 		.word	.L237+1
 2377 0028 5D000000 		.word	.L237+1
 2378 002c 5D000000 		.word	.L237+1
 2379 0030 5D000000 		.word	.L237+1
 2380 0034 5D000000 		.word	.L237+1
 2381 0038 4D000000 		.word	.L242+1
 2382 003c 51000000 		.word	.L241+1
 2383 0040 55000000 		.word	.L240+1
 2384 0044 59000000 		.word	.L238+1
 2385              		.p2align 1
 2386              	.L243:
 847:../../../lr11xx/common/printers/lr11xx_radio_types_str.c ****     {
 848:../../../lr11xx/common/printers/lr11xx_radio_types_str.c ****     case LR11XX_RADIO_GFSK_PULSE_SHAPE_OFF:
 849:../../../lr11xx/common/printers/lr11xx_radio_types_str.c ****     {
 850:../../../lr11xx/common/printers/lr11xx_radio_types_str.c ****         return ( const char* ) "LR11XX_RADIO_GFSK_PULSE_SHAPE_OFF";
 2387              		.loc 1 850 16
 2388 0048 084B     		ldr	r3, .L245
 2389 004a 08E0     		b	.L244
 2390              	.L242:
 851:../../../lr11xx/common/printers/lr11xx_radio_types_str.c ****     }
 852:../../../lr11xx/common/printers/lr11xx_radio_types_str.c **** 
 853:../../../lr11xx/common/printers/lr11xx_radio_types_str.c ****     case LR11XX_RADIO_GFSK_PULSE_SHAPE_BT_03:
 854:../../../lr11xx/common/printers/lr11xx_radio_types_str.c ****     {
 855:../../../lr11xx/common/printers/lr11xx_radio_types_str.c ****         return ( const char* ) "LR11XX_RADIO_GFSK_PULSE_SHAPE_BT_03";
 2391              		.loc 1 855 16
 2392 004c 084B     		ldr	r3, .L245+4
 2393 004e 06E0     		b	.L244
 2394              	.L241:
 856:../../../lr11xx/common/printers/lr11xx_radio_types_str.c ****     }
 857:../../../lr11xx/common/printers/lr11xx_radio_types_str.c **** 
 858:../../../lr11xx/common/printers/lr11xx_radio_types_str.c ****     case LR11XX_RADIO_GFSK_PULSE_SHAPE_BT_05:
 859:../../../lr11xx/common/printers/lr11xx_radio_types_str.c ****     {
 860:../../../lr11xx/common/printers/lr11xx_radio_types_str.c ****         return ( const char* ) "LR11XX_RADIO_GFSK_PULSE_SHAPE_BT_05";
 2395              		.loc 1 860 16
 2396 0050 084B     		ldr	r3, .L245+8
 2397 0052 04E0     		b	.L244
 2398              	.L240:
 861:../../../lr11xx/common/printers/lr11xx_radio_types_str.c ****     }
 862:../../../lr11xx/common/printers/lr11xx_radio_types_str.c **** 
 863:../../../lr11xx/common/printers/lr11xx_radio_types_str.c ****     case LR11XX_RADIO_GFSK_PULSE_SHAPE_BT_07:
 864:../../../lr11xx/common/printers/lr11xx_radio_types_str.c ****     {
 865:../../../lr11xx/common/printers/lr11xx_radio_types_str.c ****         return ( const char* ) "LR11XX_RADIO_GFSK_PULSE_SHAPE_BT_07";
 2399              		.loc 1 865 16
ARM GAS  C:\msys64\tmp\ccCxxl6h.s 			page 66


 2400 0054 084B     		ldr	r3, .L245+12
 2401 0056 02E0     		b	.L244
 2402              	.L238:
 866:../../../lr11xx/common/printers/lr11xx_radio_types_str.c ****     }
 867:../../../lr11xx/common/printers/lr11xx_radio_types_str.c **** 
 868:../../../lr11xx/common/printers/lr11xx_radio_types_str.c ****     case LR11XX_RADIO_GFSK_PULSE_SHAPE_BT_1:
 869:../../../lr11xx/common/printers/lr11xx_radio_types_str.c ****     {
 870:../../../lr11xx/common/printers/lr11xx_radio_types_str.c ****         return ( const char* ) "LR11XX_RADIO_GFSK_PULSE_SHAPE_BT_1";
 2403              		.loc 1 870 16
 2404 0058 084B     		ldr	r3, .L245+16
 2405 005a 00E0     		b	.L244
 2406              	.L237:
 871:../../../lr11xx/common/printers/lr11xx_radio_types_str.c ****     }
 872:../../../lr11xx/common/printers/lr11xx_radio_types_str.c **** 
 873:../../../lr11xx/common/printers/lr11xx_radio_types_str.c ****     default:
 874:../../../lr11xx/common/printers/lr11xx_radio_types_str.c ****     {
 875:../../../lr11xx/common/printers/lr11xx_radio_types_str.c ****         return ( const char* ) "Unknown";
 2407              		.loc 1 875 16
 2408 005c 084B     		ldr	r3, .L245+20
 2409              	.L244:
 876:../../../lr11xx/common/printers/lr11xx_radio_types_str.c ****     }
 877:../../../lr11xx/common/printers/lr11xx_radio_types_str.c ****     }
 878:../../../lr11xx/common/printers/lr11xx_radio_types_str.c **** }
 2410              		.loc 1 878 1
 2411 005e 1846     		mov	r0, r3
 2412 0060 0C37     		adds	r7, r7, #12
 2413              	.LCFI129:
 2414              		.cfi_def_cfa_offset 4
 2415 0062 BD46     		mov	sp, r7
 2416              	.LCFI130:
 2417              		.cfi_def_cfa_register 13
 2418              		@ sp needed
 2419 0064 5DF8047B 		ldr	r7, [sp], #4
 2420              	.LCFI131:
 2421              		.cfi_restore 7
 2422              		.cfi_def_cfa_offset 0
 2423 0068 7047     		bx	lr
 2424              	.L246:
 2425 006a 00BF     		.align	2
 2426              	.L245:
 2427 006c 900D0000 		.word	.LC116
 2428 0070 B40D0000 		.word	.LC117
 2429 0074 D80D0000 		.word	.LC118
 2430 0078 FC0D0000 		.word	.LC119
 2431 007c 200E0000 		.word	.LC120
 2432 0080 48000000 		.word	.LC3
 2433              		.cfi_endproc
 2434              	.LFE21:
 2436              		.section	.rodata
 2437 0e43 00       		.align	2
 2438              	.LC121:
 2439 0e44 4C523131 		.ascii	"LR11XX_RADIO_DBPSK_PULSE_SHAPE\000"
 2439      58585F52 
 2439      4144494F 
 2439      5F444250 
 2439      534B5F50 
 2440              		.section	.text.lr11xx_radio_bpsk_pulse_shape_to_str,"ax",%progbits
ARM GAS  C:\msys64\tmp\ccCxxl6h.s 			page 67


 2441              		.align	1
 2442              		.global	lr11xx_radio_bpsk_pulse_shape_to_str
 2443              		.syntax unified
 2444              		.thumb
 2445              		.thumb_func
 2447              	lr11xx_radio_bpsk_pulse_shape_to_str:
 2448              	.LFB22:
 879:../../../lr11xx/common/printers/lr11xx_radio_types_str.c **** 
 880:../../../lr11xx/common/printers/lr11xx_radio_types_str.c **** const char* lr11xx_radio_bpsk_pulse_shape_to_str( const lr11xx_radio_bpsk_pulse_shape_t value )
 881:../../../lr11xx/common/printers/lr11xx_radio_types_str.c **** {
 2449              		.loc 1 881 1
 2450              		.cfi_startproc
 2451              		@ args = 0, pretend = 0, frame = 8
 2452              		@ frame_needed = 1, uses_anonymous_args = 0
 2453              		@ link register save eliminated.
 2454 0000 80B4     		push	{r7}
 2455              	.LCFI132:
 2456              		.cfi_def_cfa_offset 4
 2457              		.cfi_offset 7, -4
 2458 0002 83B0     		sub	sp, sp, #12
 2459              	.LCFI133:
 2460              		.cfi_def_cfa_offset 16
 2461 0004 00AF     		add	r7, sp, #0
 2462              	.LCFI134:
 2463              		.cfi_def_cfa_register 7
 2464 0006 0346     		mov	r3, r0
 2465 0008 FB71     		strb	r3, [r7, #7]
 882:../../../lr11xx/common/printers/lr11xx_radio_types_str.c ****     switch( value )
 2466              		.loc 1 882 5
 2467 000a FB79     		ldrb	r3, [r7, #7]	@ zero_extendqisi2
 2468 000c 162B     		cmp	r3, #22
 2469 000e 01D1     		bne	.L248
 883:../../../lr11xx/common/printers/lr11xx_radio_types_str.c ****     {
 884:../../../lr11xx/common/printers/lr11xx_radio_types_str.c ****     case LR11XX_RADIO_DBPSK_PULSE_SHAPE:
 885:../../../lr11xx/common/printers/lr11xx_radio_types_str.c ****     {
 886:../../../lr11xx/common/printers/lr11xx_radio_types_str.c ****         return ( const char* ) "LR11XX_RADIO_DBPSK_PULSE_SHAPE";
 2470              		.loc 1 886 16
 2471 0010 044B     		ldr	r3, .L250
 2472 0012 00E0     		b	.L249
 2473              	.L248:
 887:../../../lr11xx/common/printers/lr11xx_radio_types_str.c ****     }
 888:../../../lr11xx/common/printers/lr11xx_radio_types_str.c **** 
 889:../../../lr11xx/common/printers/lr11xx_radio_types_str.c ****     default:
 890:../../../lr11xx/common/printers/lr11xx_radio_types_str.c ****     {
 891:../../../lr11xx/common/printers/lr11xx_radio_types_str.c ****         return ( const char* ) "Unknown";
 2474              		.loc 1 891 16
 2475 0014 044B     		ldr	r3, .L250+4
 2476              	.L249:
 892:../../../lr11xx/common/printers/lr11xx_radio_types_str.c ****     }
 893:../../../lr11xx/common/printers/lr11xx_radio_types_str.c ****     }
 894:../../../lr11xx/common/printers/lr11xx_radio_types_str.c **** }
 2477              		.loc 1 894 1
 2478 0016 1846     		mov	r0, r3
 2479 0018 0C37     		adds	r7, r7, #12
 2480              	.LCFI135:
 2481              		.cfi_def_cfa_offset 4
 2482 001a BD46     		mov	sp, r7
ARM GAS  C:\msys64\tmp\ccCxxl6h.s 			page 68


 2483              	.LCFI136:
 2484              		.cfi_def_cfa_register 13
 2485              		@ sp needed
 2486 001c 5DF8047B 		ldr	r7, [sp], #4
 2487              	.LCFI137:
 2488              		.cfi_restore 7
 2489              		.cfi_def_cfa_offset 0
 2490 0020 7047     		bx	lr
 2491              	.L251:
 2492 0022 00BF     		.align	2
 2493              	.L250:
 2494 0024 440E0000 		.word	.LC121
 2495 0028 48000000 		.word	.LC3
 2496              		.cfi_endproc
 2497              	.LFE22:
 2499              		.section	.rodata
 2500 0e63 00       		.align	2
 2501              	.LC122:
 2502 0e64 4C523131 		.ascii	"LR11XX_RADIO_LR_FHSS_BITRATE_488_BPS\000"
 2502      58585F52 
 2502      4144494F 
 2502      5F4C525F 
 2502      46485353 
 2503              		.section	.text.lr11xx_radio_lr_fhss_bitrate_to_str,"ax",%progbits
 2504              		.align	1
 2505              		.global	lr11xx_radio_lr_fhss_bitrate_to_str
 2506              		.syntax unified
 2507              		.thumb
 2508              		.thumb_func
 2510              	lr11xx_radio_lr_fhss_bitrate_to_str:
 2511              	.LFB23:
 895:../../../lr11xx/common/printers/lr11xx_radio_types_str.c **** 
 896:../../../lr11xx/common/printers/lr11xx_radio_types_str.c **** const char* lr11xx_radio_lr_fhss_bitrate_to_str( const lr11xx_radio_lr_fhss_bitrate_t value )
 897:../../../lr11xx/common/printers/lr11xx_radio_types_str.c **** {
 2512              		.loc 1 897 1
 2513              		.cfi_startproc
 2514              		@ args = 0, pretend = 0, frame = 8
 2515              		@ frame_needed = 1, uses_anonymous_args = 0
 2516              		@ link register save eliminated.
 2517 0000 80B4     		push	{r7}
 2518              	.LCFI138:
 2519              		.cfi_def_cfa_offset 4
 2520              		.cfi_offset 7, -4
 2521 0002 83B0     		sub	sp, sp, #12
 2522              	.LCFI139:
 2523              		.cfi_def_cfa_offset 16
 2524 0004 00AF     		add	r7, sp, #0
 2525              	.LCFI140:
 2526              		.cfi_def_cfa_register 7
 2527 0006 7860     		str	r0, [r7, #4]
 898:../../../lr11xx/common/printers/lr11xx_radio_types_str.c ****     switch( value )
 2528              		.loc 1 898 5
 2529 0008 7B68     		ldr	r3, [r7, #4]
 2530 000a 064A     		ldr	r2, .L255
 2531 000c 9342     		cmp	r3, r2
 2532 000e 01D1     		bne	.L253
 899:../../../lr11xx/common/printers/lr11xx_radio_types_str.c ****     {
ARM GAS  C:\msys64\tmp\ccCxxl6h.s 			page 69


 900:../../../lr11xx/common/printers/lr11xx_radio_types_str.c ****     case LR11XX_RADIO_LR_FHSS_BITRATE_488_BPS:
 901:../../../lr11xx/common/printers/lr11xx_radio_types_str.c ****     {
 902:../../../lr11xx/common/printers/lr11xx_radio_types_str.c ****         return ( const char* ) "LR11XX_RADIO_LR_FHSS_BITRATE_488_BPS";
 2533              		.loc 1 902 16
 2534 0010 054B     		ldr	r3, .L255+4
 2535 0012 00E0     		b	.L254
 2536              	.L253:
 903:../../../lr11xx/common/printers/lr11xx_radio_types_str.c ****     }
 904:../../../lr11xx/common/printers/lr11xx_radio_types_str.c **** 
 905:../../../lr11xx/common/printers/lr11xx_radio_types_str.c ****     default:
 906:../../../lr11xx/common/printers/lr11xx_radio_types_str.c ****     {
 907:../../../lr11xx/common/printers/lr11xx_radio_types_str.c ****         return ( const char* ) "Unknown";
 2537              		.loc 1 907 16
 2538 0014 054B     		ldr	r3, .L255+8
 2539              	.L254:
 908:../../../lr11xx/common/printers/lr11xx_radio_types_str.c ****     }
 909:../../../lr11xx/common/printers/lr11xx_radio_types_str.c ****     }
 910:../../../lr11xx/common/printers/lr11xx_radio_types_str.c **** }
 2540              		.loc 1 910 1
 2541 0016 1846     		mov	r0, r3
 2542 0018 0C37     		adds	r7, r7, #12
 2543              	.LCFI141:
 2544              		.cfi_def_cfa_offset 4
 2545 001a BD46     		mov	sp, r7
 2546              	.LCFI142:
 2547              		.cfi_def_cfa_register 13
 2548              		@ sp needed
 2549 001c 5DF8047B 		ldr	r7, [sp], #4
 2550              	.LCFI143:
 2551              		.cfi_restore 7
 2552              		.cfi_def_cfa_offset 0
 2553 0020 7047     		bx	lr
 2554              	.L256:
 2555 0022 00BF     		.align	2
 2556              	.L255:
 2557 0024 48E80180 		.word	-2147358648
 2558 0028 640E0000 		.word	.LC122
 2559 002c 48000000 		.word	.LC3
 2560              		.cfi_endproc
 2561              	.LFE23:
 2563              		.section	.rodata
 2564 0e89 000000   		.align	2
 2565              	.LC123:
 2566 0e8c 4C523131 		.ascii	"LR11XX_RADIO_LR_FHSS_PULSE_SHAPE_BT_1\000"
 2566      58585F52 
 2566      4144494F 
 2566      5F4C525F 
 2566      46485353 
 2567              		.section	.text.lr11xx_radio_lr_fhss_pulse_shape_to_str,"ax",%progbits
 2568              		.align	1
 2569              		.global	lr11xx_radio_lr_fhss_pulse_shape_to_str
 2570              		.syntax unified
 2571              		.thumb
 2572              		.thumb_func
 2574              	lr11xx_radio_lr_fhss_pulse_shape_to_str:
 2575              	.LFB24:
 911:../../../lr11xx/common/printers/lr11xx_radio_types_str.c **** 
ARM GAS  C:\msys64\tmp\ccCxxl6h.s 			page 70


 912:../../../lr11xx/common/printers/lr11xx_radio_types_str.c **** const char* lr11xx_radio_lr_fhss_pulse_shape_to_str( const lr11xx_radio_lr_fhss_pulse_shape_t value
 913:../../../lr11xx/common/printers/lr11xx_radio_types_str.c **** {
 2576              		.loc 1 913 1
 2577              		.cfi_startproc
 2578              		@ args = 0, pretend = 0, frame = 8
 2579              		@ frame_needed = 1, uses_anonymous_args = 0
 2580              		@ link register save eliminated.
 2581 0000 80B4     		push	{r7}
 2582              	.LCFI144:
 2583              		.cfi_def_cfa_offset 4
 2584              		.cfi_offset 7, -4
 2585 0002 83B0     		sub	sp, sp, #12
 2586              	.LCFI145:
 2587              		.cfi_def_cfa_offset 16
 2588 0004 00AF     		add	r7, sp, #0
 2589              	.LCFI146:
 2590              		.cfi_def_cfa_register 7
 2591 0006 0346     		mov	r3, r0
 2592 0008 FB71     		strb	r3, [r7, #7]
 914:../../../lr11xx/common/printers/lr11xx_radio_types_str.c ****     switch( value )
 2593              		.loc 1 914 5
 2594 000a FB79     		ldrb	r3, [r7, #7]	@ zero_extendqisi2
 2595 000c 0B2B     		cmp	r3, #11
 2596 000e 01D1     		bne	.L258
 915:../../../lr11xx/common/printers/lr11xx_radio_types_str.c ****     {
 916:../../../lr11xx/common/printers/lr11xx_radio_types_str.c ****     case LR11XX_RADIO_LR_FHSS_PULSE_SHAPE_BT_1:
 917:../../../lr11xx/common/printers/lr11xx_radio_types_str.c ****     {
 918:../../../lr11xx/common/printers/lr11xx_radio_types_str.c ****         return ( const char* ) "LR11XX_RADIO_LR_FHSS_PULSE_SHAPE_BT_1";
 2597              		.loc 1 918 16
 2598 0010 044B     		ldr	r3, .L260
 2599 0012 00E0     		b	.L259
 2600              	.L258:
 919:../../../lr11xx/common/printers/lr11xx_radio_types_str.c ****     }
 920:../../../lr11xx/common/printers/lr11xx_radio_types_str.c **** 
 921:../../../lr11xx/common/printers/lr11xx_radio_types_str.c ****     default:
 922:../../../lr11xx/common/printers/lr11xx_radio_types_str.c ****     {
 923:../../../lr11xx/common/printers/lr11xx_radio_types_str.c ****         return ( const char* ) "Unknown";
 2601              		.loc 1 923 16
 2602 0014 044B     		ldr	r3, .L260+4
 2603              	.L259:
 924:../../../lr11xx/common/printers/lr11xx_radio_types_str.c ****     }
 925:../../../lr11xx/common/printers/lr11xx_radio_types_str.c ****     }
 926:../../../lr11xx/common/printers/lr11xx_radio_types_str.c **** }
 2604              		.loc 1 926 1
 2605 0016 1846     		mov	r0, r3
 2606 0018 0C37     		adds	r7, r7, #12
 2607              	.LCFI147:
 2608              		.cfi_def_cfa_offset 4
 2609 001a BD46     		mov	sp, r7
 2610              	.LCFI148:
 2611              		.cfi_def_cfa_register 13
 2612              		@ sp needed
 2613 001c 5DF8047B 		ldr	r7, [sp], #4
 2614              	.LCFI149:
 2615              		.cfi_restore 7
 2616              		.cfi_def_cfa_offset 0
 2617 0020 7047     		bx	lr
ARM GAS  C:\msys64\tmp\ccCxxl6h.s 			page 71


 2618              	.L261:
 2619 0022 00BF     		.align	2
 2620              	.L260:
 2621 0024 8C0E0000 		.word	.LC123
 2622 0028 48000000 		.word	.LC3
 2623              		.cfi_endproc
 2624              	.LFE24:
 2626              		.text
 2627              	.Letext0:
 2628              		.file 2 "../../../lr11xx/lr11xx_driver/src/lr11xx_radio_types.h"
ARM GAS  C:\msys64\tmp\ccCxxl6h.s 			page 72

