ARM GAS  C:\msys64\tmp\ccnxnf43.s 			page 1


   1              		.cpu cortex-m4
   2              		.arch armv7e-m
   3              		.fpu fpv4-sp-d16
   4              		.eabi_attribute 27, 1
   5              		.eabi_attribute 28, 1
   6              		.eabi_attribute 20, 1
   7              		.eabi_attribute 21, 1
   8              		.eabi_attribute 23, 3
   9              		.eabi_attribute 24, 1
  10              		.eabi_attribute 25, 1
  11              		.eabi_attribute 26, 1
  12              		.eabi_attribute 30, 6
  13              		.eabi_attribute 34, 1
  14              		.eabi_attribute 18, 4
  15              		.file	"smtc_hal_mcu_spi_stm32l4.c"
  16              		.text
  17              	.Ltext0:
  18              		.cfi_sections	.debug_frame
  19              		.file 1 "../../../libs/smtc-hal-mcu-stm32l4/src/smtc_hal_mcu_spi_stm32l4.c"
  20              		.section	.text.LL_SPI_Enable,"ax",%progbits
  21              		.align	1
  22              		.syntax unified
  23              		.thumb
  24              		.thumb_func
  26              	LL_SPI_Enable:
  27              	.LFB132:
  28              		.file 2 "../../../libs/smtc-hal-mcu-stm32l4/third_party/STM32CubeL4/Drivers/STM32L4xx_HAL_Driver/I
   1:../../../libs/smtc-hal-mcu-stm32l4/third_party/STM32CubeL4/Drivers/STM32L4xx_HAL_Driver/Inc/stm32l4xx_ll_spi.h **** /**
   2:../../../libs/smtc-hal-mcu-stm32l4/third_party/STM32CubeL4/Drivers/STM32L4xx_HAL_Driver/Inc/stm32l4xx_ll_spi.h ****   ******************************************************************************
   3:../../../libs/smtc-hal-mcu-stm32l4/third_party/STM32CubeL4/Drivers/STM32L4xx_HAL_Driver/Inc/stm32l4xx_ll_spi.h ****   * @file    stm32l4xx_ll_spi.h
   4:../../../libs/smtc-hal-mcu-stm32l4/third_party/STM32CubeL4/Drivers/STM32L4xx_HAL_Driver/Inc/stm32l4xx_ll_spi.h ****   * @author  MCD Application Team
   5:../../../libs/smtc-hal-mcu-stm32l4/third_party/STM32CubeL4/Drivers/STM32L4xx_HAL_Driver/Inc/stm32l4xx_ll_spi.h ****   * @brief   Header file of SPI LL module.
   6:../../../libs/smtc-hal-mcu-stm32l4/third_party/STM32CubeL4/Drivers/STM32L4xx_HAL_Driver/Inc/stm32l4xx_ll_spi.h ****   ******************************************************************************
   7:../../../libs/smtc-hal-mcu-stm32l4/third_party/STM32CubeL4/Drivers/STM32L4xx_HAL_Driver/Inc/stm32l4xx_ll_spi.h ****   * @attention
   8:../../../libs/smtc-hal-mcu-stm32l4/third_party/STM32CubeL4/Drivers/STM32L4xx_HAL_Driver/Inc/stm32l4xx_ll_spi.h ****   *
   9:../../../libs/smtc-hal-mcu-stm32l4/third_party/STM32CubeL4/Drivers/STM32L4xx_HAL_Driver/Inc/stm32l4xx_ll_spi.h ****   * Copyright (c) 2017 STMicroelectronics.
  10:../../../libs/smtc-hal-mcu-stm32l4/third_party/STM32CubeL4/Drivers/STM32L4xx_HAL_Driver/Inc/stm32l4xx_ll_spi.h ****   * All rights reserved.
  11:../../../libs/smtc-hal-mcu-stm32l4/third_party/STM32CubeL4/Drivers/STM32L4xx_HAL_Driver/Inc/stm32l4xx_ll_spi.h ****   *
  12:../../../libs/smtc-hal-mcu-stm32l4/third_party/STM32CubeL4/Drivers/STM32L4xx_HAL_Driver/Inc/stm32l4xx_ll_spi.h ****   * This software is licensed under terms that can be found in the LICENSE file
  13:../../../libs/smtc-hal-mcu-stm32l4/third_party/STM32CubeL4/Drivers/STM32L4xx_HAL_Driver/Inc/stm32l4xx_ll_spi.h ****   * in the root directory of this software component.
  14:../../../libs/smtc-hal-mcu-stm32l4/third_party/STM32CubeL4/Drivers/STM32L4xx_HAL_Driver/Inc/stm32l4xx_ll_spi.h ****   * If no LICENSE file comes with this software, it is provided AS-IS.
  15:../../../libs/smtc-hal-mcu-stm32l4/third_party/STM32CubeL4/Drivers/STM32L4xx_HAL_Driver/Inc/stm32l4xx_ll_spi.h ****   *
  16:../../../libs/smtc-hal-mcu-stm32l4/third_party/STM32CubeL4/Drivers/STM32L4xx_HAL_Driver/Inc/stm32l4xx_ll_spi.h ****   ******************************************************************************
  17:../../../libs/smtc-hal-mcu-stm32l4/third_party/STM32CubeL4/Drivers/STM32L4xx_HAL_Driver/Inc/stm32l4xx_ll_spi.h ****   */
  18:../../../libs/smtc-hal-mcu-stm32l4/third_party/STM32CubeL4/Drivers/STM32L4xx_HAL_Driver/Inc/stm32l4xx_ll_spi.h **** 
  19:../../../libs/smtc-hal-mcu-stm32l4/third_party/STM32CubeL4/Drivers/STM32L4xx_HAL_Driver/Inc/stm32l4xx_ll_spi.h **** /* Define to prevent recursive inclusion -------------------------------------*/
  20:../../../libs/smtc-hal-mcu-stm32l4/third_party/STM32CubeL4/Drivers/STM32L4xx_HAL_Driver/Inc/stm32l4xx_ll_spi.h **** #ifndef STM32L4xx_LL_SPI_H
  21:../../../libs/smtc-hal-mcu-stm32l4/third_party/STM32CubeL4/Drivers/STM32L4xx_HAL_Driver/Inc/stm32l4xx_ll_spi.h **** #define STM32L4xx_LL_SPI_H
  22:../../../libs/smtc-hal-mcu-stm32l4/third_party/STM32CubeL4/Drivers/STM32L4xx_HAL_Driver/Inc/stm32l4xx_ll_spi.h **** 
  23:../../../libs/smtc-hal-mcu-stm32l4/third_party/STM32CubeL4/Drivers/STM32L4xx_HAL_Driver/Inc/stm32l4xx_ll_spi.h **** #ifdef __cplusplus
  24:../../../libs/smtc-hal-mcu-stm32l4/third_party/STM32CubeL4/Drivers/STM32L4xx_HAL_Driver/Inc/stm32l4xx_ll_spi.h **** extern "C" {
  25:../../../libs/smtc-hal-mcu-stm32l4/third_party/STM32CubeL4/Drivers/STM32L4xx_HAL_Driver/Inc/stm32l4xx_ll_spi.h **** #endif
  26:../../../libs/smtc-hal-mcu-stm32l4/third_party/STM32CubeL4/Drivers/STM32L4xx_HAL_Driver/Inc/stm32l4xx_ll_spi.h **** 
  27:../../../libs/smtc-hal-mcu-stm32l4/third_party/STM32CubeL4/Drivers/STM32L4xx_HAL_Driver/Inc/stm32l4xx_ll_spi.h **** /* Includes ------------------------------------------------------------------*/
  28:../../../libs/smtc-hal-mcu-stm32l4/third_party/STM32CubeL4/Drivers/STM32L4xx_HAL_Driver/Inc/stm32l4xx_ll_spi.h **** #include "stm32l4xx.h"
  29:../../../libs/smtc-hal-mcu-stm32l4/third_party/STM32CubeL4/Drivers/STM32L4xx_HAL_Driver/Inc/stm32l4xx_ll_spi.h **** 
  30:../../../libs/smtc-hal-mcu-stm32l4/third_party/STM32CubeL4/Drivers/STM32L4xx_HAL_Driver/Inc/stm32l4xx_ll_spi.h **** /** @addtogroup STM32L4xx_LL_Driver
ARM GAS  C:\msys64\tmp\ccnxnf43.s 			page 2


  31:../../../libs/smtc-hal-mcu-stm32l4/third_party/STM32CubeL4/Drivers/STM32L4xx_HAL_Driver/Inc/stm32l4xx_ll_spi.h ****   * @{
  32:../../../libs/smtc-hal-mcu-stm32l4/third_party/STM32CubeL4/Drivers/STM32L4xx_HAL_Driver/Inc/stm32l4xx_ll_spi.h ****   */
  33:../../../libs/smtc-hal-mcu-stm32l4/third_party/STM32CubeL4/Drivers/STM32L4xx_HAL_Driver/Inc/stm32l4xx_ll_spi.h **** 
  34:../../../libs/smtc-hal-mcu-stm32l4/third_party/STM32CubeL4/Drivers/STM32L4xx_HAL_Driver/Inc/stm32l4xx_ll_spi.h **** #if defined (SPI1) || defined (SPI2) || defined (SPI3)
  35:../../../libs/smtc-hal-mcu-stm32l4/third_party/STM32CubeL4/Drivers/STM32L4xx_HAL_Driver/Inc/stm32l4xx_ll_spi.h **** 
  36:../../../libs/smtc-hal-mcu-stm32l4/third_party/STM32CubeL4/Drivers/STM32L4xx_HAL_Driver/Inc/stm32l4xx_ll_spi.h **** /** @defgroup SPI_LL SPI
  37:../../../libs/smtc-hal-mcu-stm32l4/third_party/STM32CubeL4/Drivers/STM32L4xx_HAL_Driver/Inc/stm32l4xx_ll_spi.h ****   * @{
  38:../../../libs/smtc-hal-mcu-stm32l4/third_party/STM32CubeL4/Drivers/STM32L4xx_HAL_Driver/Inc/stm32l4xx_ll_spi.h ****   */
  39:../../../libs/smtc-hal-mcu-stm32l4/third_party/STM32CubeL4/Drivers/STM32L4xx_HAL_Driver/Inc/stm32l4xx_ll_spi.h **** 
  40:../../../libs/smtc-hal-mcu-stm32l4/third_party/STM32CubeL4/Drivers/STM32L4xx_HAL_Driver/Inc/stm32l4xx_ll_spi.h **** /* Private types -------------------------------------------------------------*/
  41:../../../libs/smtc-hal-mcu-stm32l4/third_party/STM32CubeL4/Drivers/STM32L4xx_HAL_Driver/Inc/stm32l4xx_ll_spi.h **** /* Private variables ---------------------------------------------------------*/
  42:../../../libs/smtc-hal-mcu-stm32l4/third_party/STM32CubeL4/Drivers/STM32L4xx_HAL_Driver/Inc/stm32l4xx_ll_spi.h **** /* Private macros ------------------------------------------------------------*/
  43:../../../libs/smtc-hal-mcu-stm32l4/third_party/STM32CubeL4/Drivers/STM32L4xx_HAL_Driver/Inc/stm32l4xx_ll_spi.h **** 
  44:../../../libs/smtc-hal-mcu-stm32l4/third_party/STM32CubeL4/Drivers/STM32L4xx_HAL_Driver/Inc/stm32l4xx_ll_spi.h **** /* Exported types ------------------------------------------------------------*/
  45:../../../libs/smtc-hal-mcu-stm32l4/third_party/STM32CubeL4/Drivers/STM32L4xx_HAL_Driver/Inc/stm32l4xx_ll_spi.h **** #if defined(USE_FULL_LL_DRIVER)
  46:../../../libs/smtc-hal-mcu-stm32l4/third_party/STM32CubeL4/Drivers/STM32L4xx_HAL_Driver/Inc/stm32l4xx_ll_spi.h **** /** @defgroup SPI_LL_ES_INIT SPI Exported Init structure
  47:../../../libs/smtc-hal-mcu-stm32l4/third_party/STM32CubeL4/Drivers/STM32L4xx_HAL_Driver/Inc/stm32l4xx_ll_spi.h ****   * @{
  48:../../../libs/smtc-hal-mcu-stm32l4/third_party/STM32CubeL4/Drivers/STM32L4xx_HAL_Driver/Inc/stm32l4xx_ll_spi.h ****   */
  49:../../../libs/smtc-hal-mcu-stm32l4/third_party/STM32CubeL4/Drivers/STM32L4xx_HAL_Driver/Inc/stm32l4xx_ll_spi.h **** 
  50:../../../libs/smtc-hal-mcu-stm32l4/third_party/STM32CubeL4/Drivers/STM32L4xx_HAL_Driver/Inc/stm32l4xx_ll_spi.h **** /**
  51:../../../libs/smtc-hal-mcu-stm32l4/third_party/STM32CubeL4/Drivers/STM32L4xx_HAL_Driver/Inc/stm32l4xx_ll_spi.h ****   * @brief  SPI Init structures definition
  52:../../../libs/smtc-hal-mcu-stm32l4/third_party/STM32CubeL4/Drivers/STM32L4xx_HAL_Driver/Inc/stm32l4xx_ll_spi.h ****   */
  53:../../../libs/smtc-hal-mcu-stm32l4/third_party/STM32CubeL4/Drivers/STM32L4xx_HAL_Driver/Inc/stm32l4xx_ll_spi.h **** typedef struct
  54:../../../libs/smtc-hal-mcu-stm32l4/third_party/STM32CubeL4/Drivers/STM32L4xx_HAL_Driver/Inc/stm32l4xx_ll_spi.h **** {
  55:../../../libs/smtc-hal-mcu-stm32l4/third_party/STM32CubeL4/Drivers/STM32L4xx_HAL_Driver/Inc/stm32l4xx_ll_spi.h ****   uint32_t TransferDirection;       /*!< Specifies the SPI unidirectional or bidirectional data mod
  56:../../../libs/smtc-hal-mcu-stm32l4/third_party/STM32CubeL4/Drivers/STM32L4xx_HAL_Driver/Inc/stm32l4xx_ll_spi.h ****                                          This parameter can be a value of @ref SPI_LL_EC_TRANSFER_M
  57:../../../libs/smtc-hal-mcu-stm32l4/third_party/STM32CubeL4/Drivers/STM32L4xx_HAL_Driver/Inc/stm32l4xx_ll_spi.h **** 
  58:../../../libs/smtc-hal-mcu-stm32l4/third_party/STM32CubeL4/Drivers/STM32L4xx_HAL_Driver/Inc/stm32l4xx_ll_spi.h ****                                          This feature can be modified afterwards using unitary func
  59:../../../libs/smtc-hal-mcu-stm32l4/third_party/STM32CubeL4/Drivers/STM32L4xx_HAL_Driver/Inc/stm32l4xx_ll_spi.h **** 
  60:../../../libs/smtc-hal-mcu-stm32l4/third_party/STM32CubeL4/Drivers/STM32L4xx_HAL_Driver/Inc/stm32l4xx_ll_spi.h ****   uint32_t Mode;                    /*!< Specifies the SPI mode (Master/Slave).
  61:../../../libs/smtc-hal-mcu-stm32l4/third_party/STM32CubeL4/Drivers/STM32L4xx_HAL_Driver/Inc/stm32l4xx_ll_spi.h ****                                          This parameter can be a value of @ref SPI_LL_EC_MODE.
  62:../../../libs/smtc-hal-mcu-stm32l4/third_party/STM32CubeL4/Drivers/STM32L4xx_HAL_Driver/Inc/stm32l4xx_ll_spi.h **** 
  63:../../../libs/smtc-hal-mcu-stm32l4/third_party/STM32CubeL4/Drivers/STM32L4xx_HAL_Driver/Inc/stm32l4xx_ll_spi.h ****                                          This feature can be modified afterwards using unitary func
  64:../../../libs/smtc-hal-mcu-stm32l4/third_party/STM32CubeL4/Drivers/STM32L4xx_HAL_Driver/Inc/stm32l4xx_ll_spi.h **** 
  65:../../../libs/smtc-hal-mcu-stm32l4/third_party/STM32CubeL4/Drivers/STM32L4xx_HAL_Driver/Inc/stm32l4xx_ll_spi.h ****   uint32_t DataWidth;               /*!< Specifies the SPI data width.
  66:../../../libs/smtc-hal-mcu-stm32l4/third_party/STM32CubeL4/Drivers/STM32L4xx_HAL_Driver/Inc/stm32l4xx_ll_spi.h ****                                          This parameter can be a value of @ref SPI_LL_EC_DATAWIDTH.
  67:../../../libs/smtc-hal-mcu-stm32l4/third_party/STM32CubeL4/Drivers/STM32L4xx_HAL_Driver/Inc/stm32l4xx_ll_spi.h **** 
  68:../../../libs/smtc-hal-mcu-stm32l4/third_party/STM32CubeL4/Drivers/STM32L4xx_HAL_Driver/Inc/stm32l4xx_ll_spi.h ****                                          This feature can be modified afterwards using unitary func
  69:../../../libs/smtc-hal-mcu-stm32l4/third_party/STM32CubeL4/Drivers/STM32L4xx_HAL_Driver/Inc/stm32l4xx_ll_spi.h **** 
  70:../../../libs/smtc-hal-mcu-stm32l4/third_party/STM32CubeL4/Drivers/STM32L4xx_HAL_Driver/Inc/stm32l4xx_ll_spi.h ****   uint32_t ClockPolarity;           /*!< Specifies the serial clock steady state.
  71:../../../libs/smtc-hal-mcu-stm32l4/third_party/STM32CubeL4/Drivers/STM32L4xx_HAL_Driver/Inc/stm32l4xx_ll_spi.h ****                                          This parameter can be a value of @ref SPI_LL_EC_POLARITY.
  72:../../../libs/smtc-hal-mcu-stm32l4/third_party/STM32CubeL4/Drivers/STM32L4xx_HAL_Driver/Inc/stm32l4xx_ll_spi.h **** 
  73:../../../libs/smtc-hal-mcu-stm32l4/third_party/STM32CubeL4/Drivers/STM32L4xx_HAL_Driver/Inc/stm32l4xx_ll_spi.h ****                                          This feature can be modified afterwards using unitary func
  74:../../../libs/smtc-hal-mcu-stm32l4/third_party/STM32CubeL4/Drivers/STM32L4xx_HAL_Driver/Inc/stm32l4xx_ll_spi.h **** 
  75:../../../libs/smtc-hal-mcu-stm32l4/third_party/STM32CubeL4/Drivers/STM32L4xx_HAL_Driver/Inc/stm32l4xx_ll_spi.h ****   uint32_t ClockPhase;              /*!< Specifies the clock active edge for the bit capture.
  76:../../../libs/smtc-hal-mcu-stm32l4/third_party/STM32CubeL4/Drivers/STM32L4xx_HAL_Driver/Inc/stm32l4xx_ll_spi.h ****                                          This parameter can be a value of @ref SPI_LL_EC_PHASE.
  77:../../../libs/smtc-hal-mcu-stm32l4/third_party/STM32CubeL4/Drivers/STM32L4xx_HAL_Driver/Inc/stm32l4xx_ll_spi.h **** 
  78:../../../libs/smtc-hal-mcu-stm32l4/third_party/STM32CubeL4/Drivers/STM32L4xx_HAL_Driver/Inc/stm32l4xx_ll_spi.h ****                                          This feature can be modified afterwards using unitary func
  79:../../../libs/smtc-hal-mcu-stm32l4/third_party/STM32CubeL4/Drivers/STM32L4xx_HAL_Driver/Inc/stm32l4xx_ll_spi.h **** 
  80:../../../libs/smtc-hal-mcu-stm32l4/third_party/STM32CubeL4/Drivers/STM32L4xx_HAL_Driver/Inc/stm32l4xx_ll_spi.h ****   uint32_t NSS;                     /*!< Specifies whether the NSS signal is managed by hardware (N
  81:../../../libs/smtc-hal-mcu-stm32l4/third_party/STM32CubeL4/Drivers/STM32L4xx_HAL_Driver/Inc/stm32l4xx_ll_spi.h ****                                          This parameter can be a value of @ref SPI_LL_EC_NSS_MODE.
  82:../../../libs/smtc-hal-mcu-stm32l4/third_party/STM32CubeL4/Drivers/STM32L4xx_HAL_Driver/Inc/stm32l4xx_ll_spi.h **** 
  83:../../../libs/smtc-hal-mcu-stm32l4/third_party/STM32CubeL4/Drivers/STM32L4xx_HAL_Driver/Inc/stm32l4xx_ll_spi.h ****                                          This feature can be modified afterwards using unitary func
  84:../../../libs/smtc-hal-mcu-stm32l4/third_party/STM32CubeL4/Drivers/STM32L4xx_HAL_Driver/Inc/stm32l4xx_ll_spi.h **** 
  85:../../../libs/smtc-hal-mcu-stm32l4/third_party/STM32CubeL4/Drivers/STM32L4xx_HAL_Driver/Inc/stm32l4xx_ll_spi.h ****   uint32_t BaudRate;                /*!< Specifies the BaudRate prescaler value which will be used 
  86:../../../libs/smtc-hal-mcu-stm32l4/third_party/STM32CubeL4/Drivers/STM32L4xx_HAL_Driver/Inc/stm32l4xx_ll_spi.h ****                                          This parameter can be a value of @ref SPI_LL_EC_BAUDRATEPR
  87:../../../libs/smtc-hal-mcu-stm32l4/third_party/STM32CubeL4/Drivers/STM32L4xx_HAL_Driver/Inc/stm32l4xx_ll_spi.h ****                                          @note The communication clock is derived from the master c
ARM GAS  C:\msys64\tmp\ccnxnf43.s 			page 3


  88:../../../libs/smtc-hal-mcu-stm32l4/third_party/STM32CubeL4/Drivers/STM32L4xx_HAL_Driver/Inc/stm32l4xx_ll_spi.h **** 
  89:../../../libs/smtc-hal-mcu-stm32l4/third_party/STM32CubeL4/Drivers/STM32L4xx_HAL_Driver/Inc/stm32l4xx_ll_spi.h ****                                          This feature can be modified afterwards using unitary func
  90:../../../libs/smtc-hal-mcu-stm32l4/third_party/STM32CubeL4/Drivers/STM32L4xx_HAL_Driver/Inc/stm32l4xx_ll_spi.h **** 
  91:../../../libs/smtc-hal-mcu-stm32l4/third_party/STM32CubeL4/Drivers/STM32L4xx_HAL_Driver/Inc/stm32l4xx_ll_spi.h ****   uint32_t BitOrder;                /*!< Specifies whether data transfers start from MSB or LSB bit
  92:../../../libs/smtc-hal-mcu-stm32l4/third_party/STM32CubeL4/Drivers/STM32L4xx_HAL_Driver/Inc/stm32l4xx_ll_spi.h ****                                          This parameter can be a value of @ref SPI_LL_EC_BIT_ORDER.
  93:../../../libs/smtc-hal-mcu-stm32l4/third_party/STM32CubeL4/Drivers/STM32L4xx_HAL_Driver/Inc/stm32l4xx_ll_spi.h **** 
  94:../../../libs/smtc-hal-mcu-stm32l4/third_party/STM32CubeL4/Drivers/STM32L4xx_HAL_Driver/Inc/stm32l4xx_ll_spi.h ****                                          This feature can be modified afterwards using unitary func
  95:../../../libs/smtc-hal-mcu-stm32l4/third_party/STM32CubeL4/Drivers/STM32L4xx_HAL_Driver/Inc/stm32l4xx_ll_spi.h **** 
  96:../../../libs/smtc-hal-mcu-stm32l4/third_party/STM32CubeL4/Drivers/STM32L4xx_HAL_Driver/Inc/stm32l4xx_ll_spi.h ****   uint32_t CRCCalculation;          /*!< Specifies if the CRC calculation is enabled or not.
  97:../../../libs/smtc-hal-mcu-stm32l4/third_party/STM32CubeL4/Drivers/STM32L4xx_HAL_Driver/Inc/stm32l4xx_ll_spi.h ****                                          This parameter can be a value of @ref SPI_LL_EC_CRC_CALCUL
  98:../../../libs/smtc-hal-mcu-stm32l4/third_party/STM32CubeL4/Drivers/STM32L4xx_HAL_Driver/Inc/stm32l4xx_ll_spi.h **** 
  99:../../../libs/smtc-hal-mcu-stm32l4/third_party/STM32CubeL4/Drivers/STM32L4xx_HAL_Driver/Inc/stm32l4xx_ll_spi.h ****                                          This feature can be modified afterwards using unitary func
 100:../../../libs/smtc-hal-mcu-stm32l4/third_party/STM32CubeL4/Drivers/STM32L4xx_HAL_Driver/Inc/stm32l4xx_ll_spi.h **** 
 101:../../../libs/smtc-hal-mcu-stm32l4/third_party/STM32CubeL4/Drivers/STM32L4xx_HAL_Driver/Inc/stm32l4xx_ll_spi.h ****   uint32_t CRCPoly;                 /*!< Specifies the polynomial used for the CRC calculation.
 102:../../../libs/smtc-hal-mcu-stm32l4/third_party/STM32CubeL4/Drivers/STM32L4xx_HAL_Driver/Inc/stm32l4xx_ll_spi.h ****                                          This parameter must be a number between Min_Data = 0x00 an
 103:../../../libs/smtc-hal-mcu-stm32l4/third_party/STM32CubeL4/Drivers/STM32L4xx_HAL_Driver/Inc/stm32l4xx_ll_spi.h **** 
 104:../../../libs/smtc-hal-mcu-stm32l4/third_party/STM32CubeL4/Drivers/STM32L4xx_HAL_Driver/Inc/stm32l4xx_ll_spi.h ****                                          This feature can be modified afterwards using unitary func
 105:../../../libs/smtc-hal-mcu-stm32l4/third_party/STM32CubeL4/Drivers/STM32L4xx_HAL_Driver/Inc/stm32l4xx_ll_spi.h **** 
 106:../../../libs/smtc-hal-mcu-stm32l4/third_party/STM32CubeL4/Drivers/STM32L4xx_HAL_Driver/Inc/stm32l4xx_ll_spi.h **** } LL_SPI_InitTypeDef;
 107:../../../libs/smtc-hal-mcu-stm32l4/third_party/STM32CubeL4/Drivers/STM32L4xx_HAL_Driver/Inc/stm32l4xx_ll_spi.h **** 
 108:../../../libs/smtc-hal-mcu-stm32l4/third_party/STM32CubeL4/Drivers/STM32L4xx_HAL_Driver/Inc/stm32l4xx_ll_spi.h **** /**
 109:../../../libs/smtc-hal-mcu-stm32l4/third_party/STM32CubeL4/Drivers/STM32L4xx_HAL_Driver/Inc/stm32l4xx_ll_spi.h ****   * @}
 110:../../../libs/smtc-hal-mcu-stm32l4/third_party/STM32CubeL4/Drivers/STM32L4xx_HAL_Driver/Inc/stm32l4xx_ll_spi.h ****   */
 111:../../../libs/smtc-hal-mcu-stm32l4/third_party/STM32CubeL4/Drivers/STM32L4xx_HAL_Driver/Inc/stm32l4xx_ll_spi.h **** #endif /* USE_FULL_LL_DRIVER */
 112:../../../libs/smtc-hal-mcu-stm32l4/third_party/STM32CubeL4/Drivers/STM32L4xx_HAL_Driver/Inc/stm32l4xx_ll_spi.h **** 
 113:../../../libs/smtc-hal-mcu-stm32l4/third_party/STM32CubeL4/Drivers/STM32L4xx_HAL_Driver/Inc/stm32l4xx_ll_spi.h **** /* Exported constants --------------------------------------------------------*/
 114:../../../libs/smtc-hal-mcu-stm32l4/third_party/STM32CubeL4/Drivers/STM32L4xx_HAL_Driver/Inc/stm32l4xx_ll_spi.h **** /** @defgroup SPI_LL_Exported_Constants SPI Exported Constants
 115:../../../libs/smtc-hal-mcu-stm32l4/third_party/STM32CubeL4/Drivers/STM32L4xx_HAL_Driver/Inc/stm32l4xx_ll_spi.h ****   * @{
 116:../../../libs/smtc-hal-mcu-stm32l4/third_party/STM32CubeL4/Drivers/STM32L4xx_HAL_Driver/Inc/stm32l4xx_ll_spi.h ****   */
 117:../../../libs/smtc-hal-mcu-stm32l4/third_party/STM32CubeL4/Drivers/STM32L4xx_HAL_Driver/Inc/stm32l4xx_ll_spi.h **** 
 118:../../../libs/smtc-hal-mcu-stm32l4/third_party/STM32CubeL4/Drivers/STM32L4xx_HAL_Driver/Inc/stm32l4xx_ll_spi.h **** /** @defgroup SPI_LL_EC_GET_FLAG Get Flags Defines
 119:../../../libs/smtc-hal-mcu-stm32l4/third_party/STM32CubeL4/Drivers/STM32L4xx_HAL_Driver/Inc/stm32l4xx_ll_spi.h ****   * @brief    Flags defines which can be used with LL_SPI_ReadReg function
 120:../../../libs/smtc-hal-mcu-stm32l4/third_party/STM32CubeL4/Drivers/STM32L4xx_HAL_Driver/Inc/stm32l4xx_ll_spi.h ****   * @{
 121:../../../libs/smtc-hal-mcu-stm32l4/third_party/STM32CubeL4/Drivers/STM32L4xx_HAL_Driver/Inc/stm32l4xx_ll_spi.h ****   */
 122:../../../libs/smtc-hal-mcu-stm32l4/third_party/STM32CubeL4/Drivers/STM32L4xx_HAL_Driver/Inc/stm32l4xx_ll_spi.h **** #define LL_SPI_SR_RXNE                     SPI_SR_RXNE               /*!< Rx buffer not empty flag 
 123:../../../libs/smtc-hal-mcu-stm32l4/third_party/STM32CubeL4/Drivers/STM32L4xx_HAL_Driver/Inc/stm32l4xx_ll_spi.h **** #define LL_SPI_SR_TXE                      SPI_SR_TXE                /*!< Tx buffer empty flag     
 124:../../../libs/smtc-hal-mcu-stm32l4/third_party/STM32CubeL4/Drivers/STM32L4xx_HAL_Driver/Inc/stm32l4xx_ll_spi.h **** #define LL_SPI_SR_BSY                      SPI_SR_BSY                /*!< Busy flag                
 125:../../../libs/smtc-hal-mcu-stm32l4/third_party/STM32CubeL4/Drivers/STM32L4xx_HAL_Driver/Inc/stm32l4xx_ll_spi.h **** #define LL_SPI_SR_CRCERR                   SPI_SR_CRCERR             /*!< CRC error flag           
 126:../../../libs/smtc-hal-mcu-stm32l4/third_party/STM32CubeL4/Drivers/STM32L4xx_HAL_Driver/Inc/stm32l4xx_ll_spi.h **** #define LL_SPI_SR_MODF                     SPI_SR_MODF               /*!< Mode fault flag          
 127:../../../libs/smtc-hal-mcu-stm32l4/third_party/STM32CubeL4/Drivers/STM32L4xx_HAL_Driver/Inc/stm32l4xx_ll_spi.h **** #define LL_SPI_SR_OVR                      SPI_SR_OVR                /*!< Overrun flag             
 128:../../../libs/smtc-hal-mcu-stm32l4/third_party/STM32CubeL4/Drivers/STM32L4xx_HAL_Driver/Inc/stm32l4xx_ll_spi.h **** #define LL_SPI_SR_FRE                      SPI_SR_FRE                /*!< TI mode frame format erro
 129:../../../libs/smtc-hal-mcu-stm32l4/third_party/STM32CubeL4/Drivers/STM32L4xx_HAL_Driver/Inc/stm32l4xx_ll_spi.h **** /**
 130:../../../libs/smtc-hal-mcu-stm32l4/third_party/STM32CubeL4/Drivers/STM32L4xx_HAL_Driver/Inc/stm32l4xx_ll_spi.h ****   * @}
 131:../../../libs/smtc-hal-mcu-stm32l4/third_party/STM32CubeL4/Drivers/STM32L4xx_HAL_Driver/Inc/stm32l4xx_ll_spi.h ****   */
 132:../../../libs/smtc-hal-mcu-stm32l4/third_party/STM32CubeL4/Drivers/STM32L4xx_HAL_Driver/Inc/stm32l4xx_ll_spi.h **** 
 133:../../../libs/smtc-hal-mcu-stm32l4/third_party/STM32CubeL4/Drivers/STM32L4xx_HAL_Driver/Inc/stm32l4xx_ll_spi.h **** /** @defgroup SPI_LL_EC_IT IT Defines
 134:../../../libs/smtc-hal-mcu-stm32l4/third_party/STM32CubeL4/Drivers/STM32L4xx_HAL_Driver/Inc/stm32l4xx_ll_spi.h ****   * @brief    IT defines which can be used with LL_SPI_ReadReg and  LL_SPI_WriteReg functions
 135:../../../libs/smtc-hal-mcu-stm32l4/third_party/STM32CubeL4/Drivers/STM32L4xx_HAL_Driver/Inc/stm32l4xx_ll_spi.h ****   * @{
 136:../../../libs/smtc-hal-mcu-stm32l4/third_party/STM32CubeL4/Drivers/STM32L4xx_HAL_Driver/Inc/stm32l4xx_ll_spi.h ****   */
 137:../../../libs/smtc-hal-mcu-stm32l4/third_party/STM32CubeL4/Drivers/STM32L4xx_HAL_Driver/Inc/stm32l4xx_ll_spi.h **** #define LL_SPI_CR2_RXNEIE                  SPI_CR2_RXNEIE            /*!< Rx buffer not empty inter
 138:../../../libs/smtc-hal-mcu-stm32l4/third_party/STM32CubeL4/Drivers/STM32L4xx_HAL_Driver/Inc/stm32l4xx_ll_spi.h **** #define LL_SPI_CR2_TXEIE                   SPI_CR2_TXEIE             /*!< Tx buffer empty interrupt
 139:../../../libs/smtc-hal-mcu-stm32l4/third_party/STM32CubeL4/Drivers/STM32L4xx_HAL_Driver/Inc/stm32l4xx_ll_spi.h **** #define LL_SPI_CR2_ERRIE                   SPI_CR2_ERRIE             /*!< Error interrupt enable   
 140:../../../libs/smtc-hal-mcu-stm32l4/third_party/STM32CubeL4/Drivers/STM32L4xx_HAL_Driver/Inc/stm32l4xx_ll_spi.h **** /**
 141:../../../libs/smtc-hal-mcu-stm32l4/third_party/STM32CubeL4/Drivers/STM32L4xx_HAL_Driver/Inc/stm32l4xx_ll_spi.h ****   * @}
 142:../../../libs/smtc-hal-mcu-stm32l4/third_party/STM32CubeL4/Drivers/STM32L4xx_HAL_Driver/Inc/stm32l4xx_ll_spi.h ****   */
 143:../../../libs/smtc-hal-mcu-stm32l4/third_party/STM32CubeL4/Drivers/STM32L4xx_HAL_Driver/Inc/stm32l4xx_ll_spi.h **** 
 144:../../../libs/smtc-hal-mcu-stm32l4/third_party/STM32CubeL4/Drivers/STM32L4xx_HAL_Driver/Inc/stm32l4xx_ll_spi.h **** /** @defgroup SPI_LL_EC_MODE Operation Mode
ARM GAS  C:\msys64\tmp\ccnxnf43.s 			page 4


 145:../../../libs/smtc-hal-mcu-stm32l4/third_party/STM32CubeL4/Drivers/STM32L4xx_HAL_Driver/Inc/stm32l4xx_ll_spi.h ****   * @{
 146:../../../libs/smtc-hal-mcu-stm32l4/third_party/STM32CubeL4/Drivers/STM32L4xx_HAL_Driver/Inc/stm32l4xx_ll_spi.h ****   */
 147:../../../libs/smtc-hal-mcu-stm32l4/third_party/STM32CubeL4/Drivers/STM32L4xx_HAL_Driver/Inc/stm32l4xx_ll_spi.h **** #define LL_SPI_MODE_MASTER                 (SPI_CR1_MSTR | SPI_CR1_SSI)    /*!< Master configuratio
 148:../../../libs/smtc-hal-mcu-stm32l4/third_party/STM32CubeL4/Drivers/STM32L4xx_HAL_Driver/Inc/stm32l4xx_ll_spi.h **** #define LL_SPI_MODE_SLAVE                  0x00000000U                     /*!< Slave configuration
 149:../../../libs/smtc-hal-mcu-stm32l4/third_party/STM32CubeL4/Drivers/STM32L4xx_HAL_Driver/Inc/stm32l4xx_ll_spi.h **** /**
 150:../../../libs/smtc-hal-mcu-stm32l4/third_party/STM32CubeL4/Drivers/STM32L4xx_HAL_Driver/Inc/stm32l4xx_ll_spi.h ****   * @}
 151:../../../libs/smtc-hal-mcu-stm32l4/third_party/STM32CubeL4/Drivers/STM32L4xx_HAL_Driver/Inc/stm32l4xx_ll_spi.h ****   */
 152:../../../libs/smtc-hal-mcu-stm32l4/third_party/STM32CubeL4/Drivers/STM32L4xx_HAL_Driver/Inc/stm32l4xx_ll_spi.h **** 
 153:../../../libs/smtc-hal-mcu-stm32l4/third_party/STM32CubeL4/Drivers/STM32L4xx_HAL_Driver/Inc/stm32l4xx_ll_spi.h **** /** @defgroup SPI_LL_EC_PROTOCOL Serial Protocol
 154:../../../libs/smtc-hal-mcu-stm32l4/third_party/STM32CubeL4/Drivers/STM32L4xx_HAL_Driver/Inc/stm32l4xx_ll_spi.h ****   * @{
 155:../../../libs/smtc-hal-mcu-stm32l4/third_party/STM32CubeL4/Drivers/STM32L4xx_HAL_Driver/Inc/stm32l4xx_ll_spi.h ****   */
 156:../../../libs/smtc-hal-mcu-stm32l4/third_party/STM32CubeL4/Drivers/STM32L4xx_HAL_Driver/Inc/stm32l4xx_ll_spi.h **** #define LL_SPI_PROTOCOL_MOTOROLA           0x00000000U               /*!< Motorola mode. Used as de
 157:../../../libs/smtc-hal-mcu-stm32l4/third_party/STM32CubeL4/Drivers/STM32L4xx_HAL_Driver/Inc/stm32l4xx_ll_spi.h **** #define LL_SPI_PROTOCOL_TI                 (SPI_CR2_FRF)             /*!< TI mode                  
 158:../../../libs/smtc-hal-mcu-stm32l4/third_party/STM32CubeL4/Drivers/STM32L4xx_HAL_Driver/Inc/stm32l4xx_ll_spi.h **** /**
 159:../../../libs/smtc-hal-mcu-stm32l4/third_party/STM32CubeL4/Drivers/STM32L4xx_HAL_Driver/Inc/stm32l4xx_ll_spi.h ****   * @}
 160:../../../libs/smtc-hal-mcu-stm32l4/third_party/STM32CubeL4/Drivers/STM32L4xx_HAL_Driver/Inc/stm32l4xx_ll_spi.h ****   */
 161:../../../libs/smtc-hal-mcu-stm32l4/third_party/STM32CubeL4/Drivers/STM32L4xx_HAL_Driver/Inc/stm32l4xx_ll_spi.h **** 
 162:../../../libs/smtc-hal-mcu-stm32l4/third_party/STM32CubeL4/Drivers/STM32L4xx_HAL_Driver/Inc/stm32l4xx_ll_spi.h **** /** @defgroup SPI_LL_EC_PHASE Clock Phase
 163:../../../libs/smtc-hal-mcu-stm32l4/third_party/STM32CubeL4/Drivers/STM32L4xx_HAL_Driver/Inc/stm32l4xx_ll_spi.h ****   * @{
 164:../../../libs/smtc-hal-mcu-stm32l4/third_party/STM32CubeL4/Drivers/STM32L4xx_HAL_Driver/Inc/stm32l4xx_ll_spi.h ****   */
 165:../../../libs/smtc-hal-mcu-stm32l4/third_party/STM32CubeL4/Drivers/STM32L4xx_HAL_Driver/Inc/stm32l4xx_ll_spi.h **** #define LL_SPI_PHASE_1EDGE                 0x00000000U               /*!< First clock transition is
 166:../../../libs/smtc-hal-mcu-stm32l4/third_party/STM32CubeL4/Drivers/STM32L4xx_HAL_Driver/Inc/stm32l4xx_ll_spi.h **** #define LL_SPI_PHASE_2EDGE                 (SPI_CR1_CPHA)            /*!< Second clock transition i
 167:../../../libs/smtc-hal-mcu-stm32l4/third_party/STM32CubeL4/Drivers/STM32L4xx_HAL_Driver/Inc/stm32l4xx_ll_spi.h **** /**
 168:../../../libs/smtc-hal-mcu-stm32l4/third_party/STM32CubeL4/Drivers/STM32L4xx_HAL_Driver/Inc/stm32l4xx_ll_spi.h ****   * @}
 169:../../../libs/smtc-hal-mcu-stm32l4/third_party/STM32CubeL4/Drivers/STM32L4xx_HAL_Driver/Inc/stm32l4xx_ll_spi.h ****   */
 170:../../../libs/smtc-hal-mcu-stm32l4/third_party/STM32CubeL4/Drivers/STM32L4xx_HAL_Driver/Inc/stm32l4xx_ll_spi.h **** 
 171:../../../libs/smtc-hal-mcu-stm32l4/third_party/STM32CubeL4/Drivers/STM32L4xx_HAL_Driver/Inc/stm32l4xx_ll_spi.h **** /** @defgroup SPI_LL_EC_POLARITY Clock Polarity
 172:../../../libs/smtc-hal-mcu-stm32l4/third_party/STM32CubeL4/Drivers/STM32L4xx_HAL_Driver/Inc/stm32l4xx_ll_spi.h ****   * @{
 173:../../../libs/smtc-hal-mcu-stm32l4/third_party/STM32CubeL4/Drivers/STM32L4xx_HAL_Driver/Inc/stm32l4xx_ll_spi.h ****   */
 174:../../../libs/smtc-hal-mcu-stm32l4/third_party/STM32CubeL4/Drivers/STM32L4xx_HAL_Driver/Inc/stm32l4xx_ll_spi.h **** #define LL_SPI_POLARITY_LOW                0x00000000U               /*!< Clock to 0 when idle */
 175:../../../libs/smtc-hal-mcu-stm32l4/third_party/STM32CubeL4/Drivers/STM32L4xx_HAL_Driver/Inc/stm32l4xx_ll_spi.h **** #define LL_SPI_POLARITY_HIGH               (SPI_CR1_CPOL)            /*!< Clock to 1 when idle */
 176:../../../libs/smtc-hal-mcu-stm32l4/third_party/STM32CubeL4/Drivers/STM32L4xx_HAL_Driver/Inc/stm32l4xx_ll_spi.h **** /**
 177:../../../libs/smtc-hal-mcu-stm32l4/third_party/STM32CubeL4/Drivers/STM32L4xx_HAL_Driver/Inc/stm32l4xx_ll_spi.h ****   * @}
 178:../../../libs/smtc-hal-mcu-stm32l4/third_party/STM32CubeL4/Drivers/STM32L4xx_HAL_Driver/Inc/stm32l4xx_ll_spi.h ****   */
 179:../../../libs/smtc-hal-mcu-stm32l4/third_party/STM32CubeL4/Drivers/STM32L4xx_HAL_Driver/Inc/stm32l4xx_ll_spi.h **** 
 180:../../../libs/smtc-hal-mcu-stm32l4/third_party/STM32CubeL4/Drivers/STM32L4xx_HAL_Driver/Inc/stm32l4xx_ll_spi.h **** /** @defgroup SPI_LL_EC_BAUDRATEPRESCALER Baud Rate Prescaler
 181:../../../libs/smtc-hal-mcu-stm32l4/third_party/STM32CubeL4/Drivers/STM32L4xx_HAL_Driver/Inc/stm32l4xx_ll_spi.h ****   * @{
 182:../../../libs/smtc-hal-mcu-stm32l4/third_party/STM32CubeL4/Drivers/STM32L4xx_HAL_Driver/Inc/stm32l4xx_ll_spi.h ****   */
 183:../../../libs/smtc-hal-mcu-stm32l4/third_party/STM32CubeL4/Drivers/STM32L4xx_HAL_Driver/Inc/stm32l4xx_ll_spi.h **** #define LL_SPI_BAUDRATEPRESCALER_DIV2      0x00000000U                                    /*!< Baud
 184:../../../libs/smtc-hal-mcu-stm32l4/third_party/STM32CubeL4/Drivers/STM32L4xx_HAL_Driver/Inc/stm32l4xx_ll_spi.h **** #define LL_SPI_BAUDRATEPRESCALER_DIV4      (SPI_CR1_BR_0)                                 /*!< Baud
 185:../../../libs/smtc-hal-mcu-stm32l4/third_party/STM32CubeL4/Drivers/STM32L4xx_HAL_Driver/Inc/stm32l4xx_ll_spi.h **** #define LL_SPI_BAUDRATEPRESCALER_DIV8      (SPI_CR1_BR_1)                                 /*!< Baud
 186:../../../libs/smtc-hal-mcu-stm32l4/third_party/STM32CubeL4/Drivers/STM32L4xx_HAL_Driver/Inc/stm32l4xx_ll_spi.h **** #define LL_SPI_BAUDRATEPRESCALER_DIV16     (SPI_CR1_BR_1 | SPI_CR1_BR_0)                  /*!< Baud
 187:../../../libs/smtc-hal-mcu-stm32l4/third_party/STM32CubeL4/Drivers/STM32L4xx_HAL_Driver/Inc/stm32l4xx_ll_spi.h **** #define LL_SPI_BAUDRATEPRESCALER_DIV32     (SPI_CR1_BR_2)                                 /*!< Baud
 188:../../../libs/smtc-hal-mcu-stm32l4/third_party/STM32CubeL4/Drivers/STM32L4xx_HAL_Driver/Inc/stm32l4xx_ll_spi.h **** #define LL_SPI_BAUDRATEPRESCALER_DIV64     (SPI_CR1_BR_2 | SPI_CR1_BR_0)                  /*!< Baud
 189:../../../libs/smtc-hal-mcu-stm32l4/third_party/STM32CubeL4/Drivers/STM32L4xx_HAL_Driver/Inc/stm32l4xx_ll_spi.h **** #define LL_SPI_BAUDRATEPRESCALER_DIV128    (SPI_CR1_BR_2 | SPI_CR1_BR_1)                  /*!< Baud
 190:../../../libs/smtc-hal-mcu-stm32l4/third_party/STM32CubeL4/Drivers/STM32L4xx_HAL_Driver/Inc/stm32l4xx_ll_spi.h **** #define LL_SPI_BAUDRATEPRESCALER_DIV256    (SPI_CR1_BR_2 | SPI_CR1_BR_1 | SPI_CR1_BR_0)   /*!< Baud
 191:../../../libs/smtc-hal-mcu-stm32l4/third_party/STM32CubeL4/Drivers/STM32L4xx_HAL_Driver/Inc/stm32l4xx_ll_spi.h **** /**
 192:../../../libs/smtc-hal-mcu-stm32l4/third_party/STM32CubeL4/Drivers/STM32L4xx_HAL_Driver/Inc/stm32l4xx_ll_spi.h ****   * @}
 193:../../../libs/smtc-hal-mcu-stm32l4/third_party/STM32CubeL4/Drivers/STM32L4xx_HAL_Driver/Inc/stm32l4xx_ll_spi.h ****   */
 194:../../../libs/smtc-hal-mcu-stm32l4/third_party/STM32CubeL4/Drivers/STM32L4xx_HAL_Driver/Inc/stm32l4xx_ll_spi.h **** 
 195:../../../libs/smtc-hal-mcu-stm32l4/third_party/STM32CubeL4/Drivers/STM32L4xx_HAL_Driver/Inc/stm32l4xx_ll_spi.h **** /** @defgroup SPI_LL_EC_BIT_ORDER Transmission Bit Order
 196:../../../libs/smtc-hal-mcu-stm32l4/third_party/STM32CubeL4/Drivers/STM32L4xx_HAL_Driver/Inc/stm32l4xx_ll_spi.h ****   * @{
 197:../../../libs/smtc-hal-mcu-stm32l4/third_party/STM32CubeL4/Drivers/STM32L4xx_HAL_Driver/Inc/stm32l4xx_ll_spi.h ****   */
 198:../../../libs/smtc-hal-mcu-stm32l4/third_party/STM32CubeL4/Drivers/STM32L4xx_HAL_Driver/Inc/stm32l4xx_ll_spi.h **** #define LL_SPI_LSB_FIRST                   (SPI_CR1_LSBFIRST)        /*!< Data is transmitted/recei
 199:../../../libs/smtc-hal-mcu-stm32l4/third_party/STM32CubeL4/Drivers/STM32L4xx_HAL_Driver/Inc/stm32l4xx_ll_spi.h **** #define LL_SPI_MSB_FIRST                   0x00000000U               /*!< Data is transmitted/recei
 200:../../../libs/smtc-hal-mcu-stm32l4/third_party/STM32CubeL4/Drivers/STM32L4xx_HAL_Driver/Inc/stm32l4xx_ll_spi.h **** /**
 201:../../../libs/smtc-hal-mcu-stm32l4/third_party/STM32CubeL4/Drivers/STM32L4xx_HAL_Driver/Inc/stm32l4xx_ll_spi.h ****   * @}
ARM GAS  C:\msys64\tmp\ccnxnf43.s 			page 5


 202:../../../libs/smtc-hal-mcu-stm32l4/third_party/STM32CubeL4/Drivers/STM32L4xx_HAL_Driver/Inc/stm32l4xx_ll_spi.h ****   */
 203:../../../libs/smtc-hal-mcu-stm32l4/third_party/STM32CubeL4/Drivers/STM32L4xx_HAL_Driver/Inc/stm32l4xx_ll_spi.h **** 
 204:../../../libs/smtc-hal-mcu-stm32l4/third_party/STM32CubeL4/Drivers/STM32L4xx_HAL_Driver/Inc/stm32l4xx_ll_spi.h **** /** @defgroup SPI_LL_EC_TRANSFER_MODE Transfer Mode
 205:../../../libs/smtc-hal-mcu-stm32l4/third_party/STM32CubeL4/Drivers/STM32L4xx_HAL_Driver/Inc/stm32l4xx_ll_spi.h ****   * @{
 206:../../../libs/smtc-hal-mcu-stm32l4/third_party/STM32CubeL4/Drivers/STM32L4xx_HAL_Driver/Inc/stm32l4xx_ll_spi.h ****   */
 207:../../../libs/smtc-hal-mcu-stm32l4/third_party/STM32CubeL4/Drivers/STM32L4xx_HAL_Driver/Inc/stm32l4xx_ll_spi.h **** #define LL_SPI_FULL_DUPLEX                 0x00000000U                          /*!< Full-Duplex mo
 208:../../../libs/smtc-hal-mcu-stm32l4/third_party/STM32CubeL4/Drivers/STM32L4xx_HAL_Driver/Inc/stm32l4xx_ll_spi.h **** #define LL_SPI_SIMPLEX_RX                  (SPI_CR1_RXONLY)                     /*!< Simplex Rx mod
 209:../../../libs/smtc-hal-mcu-stm32l4/third_party/STM32CubeL4/Drivers/STM32L4xx_HAL_Driver/Inc/stm32l4xx_ll_spi.h **** #define LL_SPI_HALF_DUPLEX_RX              (SPI_CR1_BIDIMODE)                   /*!< Half-Duplex Rx
 210:../../../libs/smtc-hal-mcu-stm32l4/third_party/STM32CubeL4/Drivers/STM32L4xx_HAL_Driver/Inc/stm32l4xx_ll_spi.h **** #define LL_SPI_HALF_DUPLEX_TX              (SPI_CR1_BIDIMODE | SPI_CR1_BIDIOE)  /*!< Half-Duplex Tx
 211:../../../libs/smtc-hal-mcu-stm32l4/third_party/STM32CubeL4/Drivers/STM32L4xx_HAL_Driver/Inc/stm32l4xx_ll_spi.h **** /**
 212:../../../libs/smtc-hal-mcu-stm32l4/third_party/STM32CubeL4/Drivers/STM32L4xx_HAL_Driver/Inc/stm32l4xx_ll_spi.h ****   * @}
 213:../../../libs/smtc-hal-mcu-stm32l4/third_party/STM32CubeL4/Drivers/STM32L4xx_HAL_Driver/Inc/stm32l4xx_ll_spi.h ****   */
 214:../../../libs/smtc-hal-mcu-stm32l4/third_party/STM32CubeL4/Drivers/STM32L4xx_HAL_Driver/Inc/stm32l4xx_ll_spi.h **** 
 215:../../../libs/smtc-hal-mcu-stm32l4/third_party/STM32CubeL4/Drivers/STM32L4xx_HAL_Driver/Inc/stm32l4xx_ll_spi.h **** /** @defgroup SPI_LL_EC_NSS_MODE Slave Select Pin Mode
 216:../../../libs/smtc-hal-mcu-stm32l4/third_party/STM32CubeL4/Drivers/STM32L4xx_HAL_Driver/Inc/stm32l4xx_ll_spi.h ****   * @{
 217:../../../libs/smtc-hal-mcu-stm32l4/third_party/STM32CubeL4/Drivers/STM32L4xx_HAL_Driver/Inc/stm32l4xx_ll_spi.h ****   */
 218:../../../libs/smtc-hal-mcu-stm32l4/third_party/STM32CubeL4/Drivers/STM32L4xx_HAL_Driver/Inc/stm32l4xx_ll_spi.h **** #define LL_SPI_NSS_SOFT                    (SPI_CR1_SSM)                     /*!< NSS managed inter
 219:../../../libs/smtc-hal-mcu-stm32l4/third_party/STM32CubeL4/Drivers/STM32L4xx_HAL_Driver/Inc/stm32l4xx_ll_spi.h **** #define LL_SPI_NSS_HARD_INPUT              0x00000000U                       /*!< NSS pin used in I
 220:../../../libs/smtc-hal-mcu-stm32l4/third_party/STM32CubeL4/Drivers/STM32L4xx_HAL_Driver/Inc/stm32l4xx_ll_spi.h **** #define LL_SPI_NSS_HARD_OUTPUT             (((uint32_t)SPI_CR2_SSOE << 16U)) /*!< NSS pin used in O
 221:../../../libs/smtc-hal-mcu-stm32l4/third_party/STM32CubeL4/Drivers/STM32L4xx_HAL_Driver/Inc/stm32l4xx_ll_spi.h **** /**
 222:../../../libs/smtc-hal-mcu-stm32l4/third_party/STM32CubeL4/Drivers/STM32L4xx_HAL_Driver/Inc/stm32l4xx_ll_spi.h ****   * @}
 223:../../../libs/smtc-hal-mcu-stm32l4/third_party/STM32CubeL4/Drivers/STM32L4xx_HAL_Driver/Inc/stm32l4xx_ll_spi.h ****   */
 224:../../../libs/smtc-hal-mcu-stm32l4/third_party/STM32CubeL4/Drivers/STM32L4xx_HAL_Driver/Inc/stm32l4xx_ll_spi.h **** 
 225:../../../libs/smtc-hal-mcu-stm32l4/third_party/STM32CubeL4/Drivers/STM32L4xx_HAL_Driver/Inc/stm32l4xx_ll_spi.h **** /** @defgroup SPI_LL_EC_DATAWIDTH Datawidth
 226:../../../libs/smtc-hal-mcu-stm32l4/third_party/STM32CubeL4/Drivers/STM32L4xx_HAL_Driver/Inc/stm32l4xx_ll_spi.h ****   * @{
 227:../../../libs/smtc-hal-mcu-stm32l4/third_party/STM32CubeL4/Drivers/STM32L4xx_HAL_Driver/Inc/stm32l4xx_ll_spi.h ****   */
 228:../../../libs/smtc-hal-mcu-stm32l4/third_party/STM32CubeL4/Drivers/STM32L4xx_HAL_Driver/Inc/stm32l4xx_ll_spi.h **** #define LL_SPI_DATAWIDTH_4BIT              (SPI_CR2_DS_0 | SPI_CR2_DS_1)                           
 229:../../../libs/smtc-hal-mcu-stm32l4/third_party/STM32CubeL4/Drivers/STM32L4xx_HAL_Driver/Inc/stm32l4xx_ll_spi.h **** #define LL_SPI_DATAWIDTH_5BIT              (SPI_CR2_DS_2)                                          
 230:../../../libs/smtc-hal-mcu-stm32l4/third_party/STM32CubeL4/Drivers/STM32L4xx_HAL_Driver/Inc/stm32l4xx_ll_spi.h **** #define LL_SPI_DATAWIDTH_6BIT              (SPI_CR2_DS_2 | SPI_CR2_DS_0)                           
 231:../../../libs/smtc-hal-mcu-stm32l4/third_party/STM32CubeL4/Drivers/STM32L4xx_HAL_Driver/Inc/stm32l4xx_ll_spi.h **** #define LL_SPI_DATAWIDTH_7BIT              (SPI_CR2_DS_2 | SPI_CR2_DS_1)                           
 232:../../../libs/smtc-hal-mcu-stm32l4/third_party/STM32CubeL4/Drivers/STM32L4xx_HAL_Driver/Inc/stm32l4xx_ll_spi.h **** #define LL_SPI_DATAWIDTH_8BIT              (SPI_CR2_DS_2 | SPI_CR2_DS_1 | SPI_CR2_DS_0)            
 233:../../../libs/smtc-hal-mcu-stm32l4/third_party/STM32CubeL4/Drivers/STM32L4xx_HAL_Driver/Inc/stm32l4xx_ll_spi.h **** #define LL_SPI_DATAWIDTH_9BIT              (SPI_CR2_DS_3)                                          
 234:../../../libs/smtc-hal-mcu-stm32l4/third_party/STM32CubeL4/Drivers/STM32L4xx_HAL_Driver/Inc/stm32l4xx_ll_spi.h **** #define LL_SPI_DATAWIDTH_10BIT             (SPI_CR2_DS_3 | SPI_CR2_DS_0)                           
 235:../../../libs/smtc-hal-mcu-stm32l4/third_party/STM32CubeL4/Drivers/STM32L4xx_HAL_Driver/Inc/stm32l4xx_ll_spi.h **** #define LL_SPI_DATAWIDTH_11BIT             (SPI_CR2_DS_3 | SPI_CR2_DS_1)                           
 236:../../../libs/smtc-hal-mcu-stm32l4/third_party/STM32CubeL4/Drivers/STM32L4xx_HAL_Driver/Inc/stm32l4xx_ll_spi.h **** #define LL_SPI_DATAWIDTH_12BIT             (SPI_CR2_DS_3 | SPI_CR2_DS_1 | SPI_CR2_DS_0)            
 237:../../../libs/smtc-hal-mcu-stm32l4/third_party/STM32CubeL4/Drivers/STM32L4xx_HAL_Driver/Inc/stm32l4xx_ll_spi.h **** #define LL_SPI_DATAWIDTH_13BIT             (SPI_CR2_DS_3 | SPI_CR2_DS_2)                           
 238:../../../libs/smtc-hal-mcu-stm32l4/third_party/STM32CubeL4/Drivers/STM32L4xx_HAL_Driver/Inc/stm32l4xx_ll_spi.h **** #define LL_SPI_DATAWIDTH_14BIT             (SPI_CR2_DS_3 | SPI_CR2_DS_2 | SPI_CR2_DS_0)            
 239:../../../libs/smtc-hal-mcu-stm32l4/third_party/STM32CubeL4/Drivers/STM32L4xx_HAL_Driver/Inc/stm32l4xx_ll_spi.h **** #define LL_SPI_DATAWIDTH_15BIT             (SPI_CR2_DS_3 | SPI_CR2_DS_2 | SPI_CR2_DS_1)            
 240:../../../libs/smtc-hal-mcu-stm32l4/third_party/STM32CubeL4/Drivers/STM32L4xx_HAL_Driver/Inc/stm32l4xx_ll_spi.h **** #define LL_SPI_DATAWIDTH_16BIT             (SPI_CR2_DS_3 | SPI_CR2_DS_2 | SPI_CR2_DS_1 | SPI_CR2_DS
 241:../../../libs/smtc-hal-mcu-stm32l4/third_party/STM32CubeL4/Drivers/STM32L4xx_HAL_Driver/Inc/stm32l4xx_ll_spi.h **** /**
 242:../../../libs/smtc-hal-mcu-stm32l4/third_party/STM32CubeL4/Drivers/STM32L4xx_HAL_Driver/Inc/stm32l4xx_ll_spi.h ****   * @}
 243:../../../libs/smtc-hal-mcu-stm32l4/third_party/STM32CubeL4/Drivers/STM32L4xx_HAL_Driver/Inc/stm32l4xx_ll_spi.h ****   */
 244:../../../libs/smtc-hal-mcu-stm32l4/third_party/STM32CubeL4/Drivers/STM32L4xx_HAL_Driver/Inc/stm32l4xx_ll_spi.h **** #if defined(USE_FULL_LL_DRIVER)
 245:../../../libs/smtc-hal-mcu-stm32l4/third_party/STM32CubeL4/Drivers/STM32L4xx_HAL_Driver/Inc/stm32l4xx_ll_spi.h **** 
 246:../../../libs/smtc-hal-mcu-stm32l4/third_party/STM32CubeL4/Drivers/STM32L4xx_HAL_Driver/Inc/stm32l4xx_ll_spi.h **** /** @defgroup SPI_LL_EC_CRC_CALCULATION CRC Calculation
 247:../../../libs/smtc-hal-mcu-stm32l4/third_party/STM32CubeL4/Drivers/STM32L4xx_HAL_Driver/Inc/stm32l4xx_ll_spi.h ****   * @{
 248:../../../libs/smtc-hal-mcu-stm32l4/third_party/STM32CubeL4/Drivers/STM32L4xx_HAL_Driver/Inc/stm32l4xx_ll_spi.h ****   */
 249:../../../libs/smtc-hal-mcu-stm32l4/third_party/STM32CubeL4/Drivers/STM32L4xx_HAL_Driver/Inc/stm32l4xx_ll_spi.h **** #define LL_SPI_CRCCALCULATION_DISABLE      0x00000000U               /*!< CRC calculation disabled 
 250:../../../libs/smtc-hal-mcu-stm32l4/third_party/STM32CubeL4/Drivers/STM32L4xx_HAL_Driver/Inc/stm32l4xx_ll_spi.h **** #define LL_SPI_CRCCALCULATION_ENABLE       (SPI_CR1_CRCEN)           /*!< CRC calculation enabled  
 251:../../../libs/smtc-hal-mcu-stm32l4/third_party/STM32CubeL4/Drivers/STM32L4xx_HAL_Driver/Inc/stm32l4xx_ll_spi.h **** /**
 252:../../../libs/smtc-hal-mcu-stm32l4/third_party/STM32CubeL4/Drivers/STM32L4xx_HAL_Driver/Inc/stm32l4xx_ll_spi.h ****   * @}
 253:../../../libs/smtc-hal-mcu-stm32l4/third_party/STM32CubeL4/Drivers/STM32L4xx_HAL_Driver/Inc/stm32l4xx_ll_spi.h ****   */
 254:../../../libs/smtc-hal-mcu-stm32l4/third_party/STM32CubeL4/Drivers/STM32L4xx_HAL_Driver/Inc/stm32l4xx_ll_spi.h **** #endif /* USE_FULL_LL_DRIVER */
 255:../../../libs/smtc-hal-mcu-stm32l4/third_party/STM32CubeL4/Drivers/STM32L4xx_HAL_Driver/Inc/stm32l4xx_ll_spi.h **** 
 256:../../../libs/smtc-hal-mcu-stm32l4/third_party/STM32CubeL4/Drivers/STM32L4xx_HAL_Driver/Inc/stm32l4xx_ll_spi.h **** /** @defgroup SPI_LL_EC_CRC_LENGTH CRC Length
 257:../../../libs/smtc-hal-mcu-stm32l4/third_party/STM32CubeL4/Drivers/STM32L4xx_HAL_Driver/Inc/stm32l4xx_ll_spi.h ****   * @{
 258:../../../libs/smtc-hal-mcu-stm32l4/third_party/STM32CubeL4/Drivers/STM32L4xx_HAL_Driver/Inc/stm32l4xx_ll_spi.h ****   */
ARM GAS  C:\msys64\tmp\ccnxnf43.s 			page 6


 259:../../../libs/smtc-hal-mcu-stm32l4/third_party/STM32CubeL4/Drivers/STM32L4xx_HAL_Driver/Inc/stm32l4xx_ll_spi.h **** #define LL_SPI_CRC_8BIT                    0x00000000U               /*!<  8-bit CRC length */
 260:../../../libs/smtc-hal-mcu-stm32l4/third_party/STM32CubeL4/Drivers/STM32L4xx_HAL_Driver/Inc/stm32l4xx_ll_spi.h **** #define LL_SPI_CRC_16BIT                   (SPI_CR1_CRCL)            /*!< 16-bit CRC length */
 261:../../../libs/smtc-hal-mcu-stm32l4/third_party/STM32CubeL4/Drivers/STM32L4xx_HAL_Driver/Inc/stm32l4xx_ll_spi.h **** /**
 262:../../../libs/smtc-hal-mcu-stm32l4/third_party/STM32CubeL4/Drivers/STM32L4xx_HAL_Driver/Inc/stm32l4xx_ll_spi.h ****   * @}
 263:../../../libs/smtc-hal-mcu-stm32l4/third_party/STM32CubeL4/Drivers/STM32L4xx_HAL_Driver/Inc/stm32l4xx_ll_spi.h ****   */
 264:../../../libs/smtc-hal-mcu-stm32l4/third_party/STM32CubeL4/Drivers/STM32L4xx_HAL_Driver/Inc/stm32l4xx_ll_spi.h **** 
 265:../../../libs/smtc-hal-mcu-stm32l4/third_party/STM32CubeL4/Drivers/STM32L4xx_HAL_Driver/Inc/stm32l4xx_ll_spi.h **** /** @defgroup SPI_LL_EC_RX_FIFO_TH RX FIFO Threshold
 266:../../../libs/smtc-hal-mcu-stm32l4/third_party/STM32CubeL4/Drivers/STM32L4xx_HAL_Driver/Inc/stm32l4xx_ll_spi.h ****   * @{
 267:../../../libs/smtc-hal-mcu-stm32l4/third_party/STM32CubeL4/Drivers/STM32L4xx_HAL_Driver/Inc/stm32l4xx_ll_spi.h ****   */
 268:../../../libs/smtc-hal-mcu-stm32l4/third_party/STM32CubeL4/Drivers/STM32L4xx_HAL_Driver/Inc/stm32l4xx_ll_spi.h **** #define LL_SPI_RX_FIFO_TH_HALF             0x00000000U               /*!< RXNE event is generated i
 269:../../../libs/smtc-hal-mcu-stm32l4/third_party/STM32CubeL4/Drivers/STM32L4xx_HAL_Driver/Inc/stm32l4xx_ll_spi.h **** #define LL_SPI_RX_FIFO_TH_QUARTER          (SPI_CR2_FRXTH)           /*!< RXNE event is generated i
 270:../../../libs/smtc-hal-mcu-stm32l4/third_party/STM32CubeL4/Drivers/STM32L4xx_HAL_Driver/Inc/stm32l4xx_ll_spi.h **** /**
 271:../../../libs/smtc-hal-mcu-stm32l4/third_party/STM32CubeL4/Drivers/STM32L4xx_HAL_Driver/Inc/stm32l4xx_ll_spi.h ****   * @}
 272:../../../libs/smtc-hal-mcu-stm32l4/third_party/STM32CubeL4/Drivers/STM32L4xx_HAL_Driver/Inc/stm32l4xx_ll_spi.h ****   */
 273:../../../libs/smtc-hal-mcu-stm32l4/third_party/STM32CubeL4/Drivers/STM32L4xx_HAL_Driver/Inc/stm32l4xx_ll_spi.h **** 
 274:../../../libs/smtc-hal-mcu-stm32l4/third_party/STM32CubeL4/Drivers/STM32L4xx_HAL_Driver/Inc/stm32l4xx_ll_spi.h **** /** @defgroup SPI_LL_EC_RX_FIFO RX FIFO Level
 275:../../../libs/smtc-hal-mcu-stm32l4/third_party/STM32CubeL4/Drivers/STM32L4xx_HAL_Driver/Inc/stm32l4xx_ll_spi.h ****   * @{
 276:../../../libs/smtc-hal-mcu-stm32l4/third_party/STM32CubeL4/Drivers/STM32L4xx_HAL_Driver/Inc/stm32l4xx_ll_spi.h ****   */
 277:../../../libs/smtc-hal-mcu-stm32l4/third_party/STM32CubeL4/Drivers/STM32L4xx_HAL_Driver/Inc/stm32l4xx_ll_spi.h **** #define LL_SPI_RX_FIFO_EMPTY               0x00000000U                       /*!< FIFO reception em
 278:../../../libs/smtc-hal-mcu-stm32l4/third_party/STM32CubeL4/Drivers/STM32L4xx_HAL_Driver/Inc/stm32l4xx_ll_spi.h **** #define LL_SPI_RX_FIFO_QUARTER_FULL        (SPI_SR_FRLVL_0)                  /*!< FIFO reception 1/
 279:../../../libs/smtc-hal-mcu-stm32l4/third_party/STM32CubeL4/Drivers/STM32L4xx_HAL_Driver/Inc/stm32l4xx_ll_spi.h **** #define LL_SPI_RX_FIFO_HALF_FULL           (SPI_SR_FRLVL_1)                  /*!< FIFO reception 1/
 280:../../../libs/smtc-hal-mcu-stm32l4/third_party/STM32CubeL4/Drivers/STM32L4xx_HAL_Driver/Inc/stm32l4xx_ll_spi.h **** #define LL_SPI_RX_FIFO_FULL                (SPI_SR_FRLVL_1 | SPI_SR_FRLVL_0) /*!< FIFO reception fu
 281:../../../libs/smtc-hal-mcu-stm32l4/third_party/STM32CubeL4/Drivers/STM32L4xx_HAL_Driver/Inc/stm32l4xx_ll_spi.h **** /**
 282:../../../libs/smtc-hal-mcu-stm32l4/third_party/STM32CubeL4/Drivers/STM32L4xx_HAL_Driver/Inc/stm32l4xx_ll_spi.h ****   * @}
 283:../../../libs/smtc-hal-mcu-stm32l4/third_party/STM32CubeL4/Drivers/STM32L4xx_HAL_Driver/Inc/stm32l4xx_ll_spi.h ****   */
 284:../../../libs/smtc-hal-mcu-stm32l4/third_party/STM32CubeL4/Drivers/STM32L4xx_HAL_Driver/Inc/stm32l4xx_ll_spi.h **** 
 285:../../../libs/smtc-hal-mcu-stm32l4/third_party/STM32CubeL4/Drivers/STM32L4xx_HAL_Driver/Inc/stm32l4xx_ll_spi.h **** /** @defgroup SPI_LL_EC_TX_FIFO TX FIFO Level
 286:../../../libs/smtc-hal-mcu-stm32l4/third_party/STM32CubeL4/Drivers/STM32L4xx_HAL_Driver/Inc/stm32l4xx_ll_spi.h ****   * @{
 287:../../../libs/smtc-hal-mcu-stm32l4/third_party/STM32CubeL4/Drivers/STM32L4xx_HAL_Driver/Inc/stm32l4xx_ll_spi.h ****   */
 288:../../../libs/smtc-hal-mcu-stm32l4/third_party/STM32CubeL4/Drivers/STM32L4xx_HAL_Driver/Inc/stm32l4xx_ll_spi.h **** #define LL_SPI_TX_FIFO_EMPTY               0x00000000U                       /*!< FIFO transmission
 289:../../../libs/smtc-hal-mcu-stm32l4/third_party/STM32CubeL4/Drivers/STM32L4xx_HAL_Driver/Inc/stm32l4xx_ll_spi.h **** #define LL_SPI_TX_FIFO_QUARTER_FULL        (SPI_SR_FTLVL_0)                  /*!< FIFO transmission
 290:../../../libs/smtc-hal-mcu-stm32l4/third_party/STM32CubeL4/Drivers/STM32L4xx_HAL_Driver/Inc/stm32l4xx_ll_spi.h **** #define LL_SPI_TX_FIFO_HALF_FULL           (SPI_SR_FTLVL_1)                  /*!< FIFO transmission
 291:../../../libs/smtc-hal-mcu-stm32l4/third_party/STM32CubeL4/Drivers/STM32L4xx_HAL_Driver/Inc/stm32l4xx_ll_spi.h **** #define LL_SPI_TX_FIFO_FULL                (SPI_SR_FTLVL_1 | SPI_SR_FTLVL_0) /*!< FIFO transmission
 292:../../../libs/smtc-hal-mcu-stm32l4/third_party/STM32CubeL4/Drivers/STM32L4xx_HAL_Driver/Inc/stm32l4xx_ll_spi.h **** /**
 293:../../../libs/smtc-hal-mcu-stm32l4/third_party/STM32CubeL4/Drivers/STM32L4xx_HAL_Driver/Inc/stm32l4xx_ll_spi.h ****   * @}
 294:../../../libs/smtc-hal-mcu-stm32l4/third_party/STM32CubeL4/Drivers/STM32L4xx_HAL_Driver/Inc/stm32l4xx_ll_spi.h ****   */
 295:../../../libs/smtc-hal-mcu-stm32l4/third_party/STM32CubeL4/Drivers/STM32L4xx_HAL_Driver/Inc/stm32l4xx_ll_spi.h **** 
 296:../../../libs/smtc-hal-mcu-stm32l4/third_party/STM32CubeL4/Drivers/STM32L4xx_HAL_Driver/Inc/stm32l4xx_ll_spi.h **** /** @defgroup SPI_LL_EC_DMA_PARITY DMA Parity
 297:../../../libs/smtc-hal-mcu-stm32l4/third_party/STM32CubeL4/Drivers/STM32L4xx_HAL_Driver/Inc/stm32l4xx_ll_spi.h ****   * @{
 298:../../../libs/smtc-hal-mcu-stm32l4/third_party/STM32CubeL4/Drivers/STM32L4xx_HAL_Driver/Inc/stm32l4xx_ll_spi.h ****   */
 299:../../../libs/smtc-hal-mcu-stm32l4/third_party/STM32CubeL4/Drivers/STM32L4xx_HAL_Driver/Inc/stm32l4xx_ll_spi.h **** #define LL_SPI_DMA_PARITY_EVEN             0x00000000U   /*!< Select DMA parity Even */
 300:../../../libs/smtc-hal-mcu-stm32l4/third_party/STM32CubeL4/Drivers/STM32L4xx_HAL_Driver/Inc/stm32l4xx_ll_spi.h **** #define LL_SPI_DMA_PARITY_ODD              0x00000001U   /*!< Select DMA parity Odd  */
 301:../../../libs/smtc-hal-mcu-stm32l4/third_party/STM32CubeL4/Drivers/STM32L4xx_HAL_Driver/Inc/stm32l4xx_ll_spi.h **** 
 302:../../../libs/smtc-hal-mcu-stm32l4/third_party/STM32CubeL4/Drivers/STM32L4xx_HAL_Driver/Inc/stm32l4xx_ll_spi.h **** /**
 303:../../../libs/smtc-hal-mcu-stm32l4/third_party/STM32CubeL4/Drivers/STM32L4xx_HAL_Driver/Inc/stm32l4xx_ll_spi.h ****   * @}
 304:../../../libs/smtc-hal-mcu-stm32l4/third_party/STM32CubeL4/Drivers/STM32L4xx_HAL_Driver/Inc/stm32l4xx_ll_spi.h ****   */
 305:../../../libs/smtc-hal-mcu-stm32l4/third_party/STM32CubeL4/Drivers/STM32L4xx_HAL_Driver/Inc/stm32l4xx_ll_spi.h **** 
 306:../../../libs/smtc-hal-mcu-stm32l4/third_party/STM32CubeL4/Drivers/STM32L4xx_HAL_Driver/Inc/stm32l4xx_ll_spi.h **** /**
 307:../../../libs/smtc-hal-mcu-stm32l4/third_party/STM32CubeL4/Drivers/STM32L4xx_HAL_Driver/Inc/stm32l4xx_ll_spi.h ****   * @}
 308:../../../libs/smtc-hal-mcu-stm32l4/third_party/STM32CubeL4/Drivers/STM32L4xx_HAL_Driver/Inc/stm32l4xx_ll_spi.h ****   */
 309:../../../libs/smtc-hal-mcu-stm32l4/third_party/STM32CubeL4/Drivers/STM32L4xx_HAL_Driver/Inc/stm32l4xx_ll_spi.h **** 
 310:../../../libs/smtc-hal-mcu-stm32l4/third_party/STM32CubeL4/Drivers/STM32L4xx_HAL_Driver/Inc/stm32l4xx_ll_spi.h **** /* Exported macro ------------------------------------------------------------*/
 311:../../../libs/smtc-hal-mcu-stm32l4/third_party/STM32CubeL4/Drivers/STM32L4xx_HAL_Driver/Inc/stm32l4xx_ll_spi.h **** /** @defgroup SPI_LL_Exported_Macros SPI Exported Macros
 312:../../../libs/smtc-hal-mcu-stm32l4/third_party/STM32CubeL4/Drivers/STM32L4xx_HAL_Driver/Inc/stm32l4xx_ll_spi.h ****   * @{
 313:../../../libs/smtc-hal-mcu-stm32l4/third_party/STM32CubeL4/Drivers/STM32L4xx_HAL_Driver/Inc/stm32l4xx_ll_spi.h ****   */
 314:../../../libs/smtc-hal-mcu-stm32l4/third_party/STM32CubeL4/Drivers/STM32L4xx_HAL_Driver/Inc/stm32l4xx_ll_spi.h **** 
 315:../../../libs/smtc-hal-mcu-stm32l4/third_party/STM32CubeL4/Drivers/STM32L4xx_HAL_Driver/Inc/stm32l4xx_ll_spi.h **** /** @defgroup SPI_LL_EM_WRITE_READ Common Write and read registers Macros
ARM GAS  C:\msys64\tmp\ccnxnf43.s 			page 7


 316:../../../libs/smtc-hal-mcu-stm32l4/third_party/STM32CubeL4/Drivers/STM32L4xx_HAL_Driver/Inc/stm32l4xx_ll_spi.h ****   * @{
 317:../../../libs/smtc-hal-mcu-stm32l4/third_party/STM32CubeL4/Drivers/STM32L4xx_HAL_Driver/Inc/stm32l4xx_ll_spi.h ****   */
 318:../../../libs/smtc-hal-mcu-stm32l4/third_party/STM32CubeL4/Drivers/STM32L4xx_HAL_Driver/Inc/stm32l4xx_ll_spi.h **** 
 319:../../../libs/smtc-hal-mcu-stm32l4/third_party/STM32CubeL4/Drivers/STM32L4xx_HAL_Driver/Inc/stm32l4xx_ll_spi.h **** /**
 320:../../../libs/smtc-hal-mcu-stm32l4/third_party/STM32CubeL4/Drivers/STM32L4xx_HAL_Driver/Inc/stm32l4xx_ll_spi.h ****   * @brief  Write a value in SPI register
 321:../../../libs/smtc-hal-mcu-stm32l4/third_party/STM32CubeL4/Drivers/STM32L4xx_HAL_Driver/Inc/stm32l4xx_ll_spi.h ****   * @param  __INSTANCE__ SPI Instance
 322:../../../libs/smtc-hal-mcu-stm32l4/third_party/STM32CubeL4/Drivers/STM32L4xx_HAL_Driver/Inc/stm32l4xx_ll_spi.h ****   * @param  __REG__ Register to be written
 323:../../../libs/smtc-hal-mcu-stm32l4/third_party/STM32CubeL4/Drivers/STM32L4xx_HAL_Driver/Inc/stm32l4xx_ll_spi.h ****   * @param  __VALUE__ Value to be written in the register
 324:../../../libs/smtc-hal-mcu-stm32l4/third_party/STM32CubeL4/Drivers/STM32L4xx_HAL_Driver/Inc/stm32l4xx_ll_spi.h ****   * @retval None
 325:../../../libs/smtc-hal-mcu-stm32l4/third_party/STM32CubeL4/Drivers/STM32L4xx_HAL_Driver/Inc/stm32l4xx_ll_spi.h ****   */
 326:../../../libs/smtc-hal-mcu-stm32l4/third_party/STM32CubeL4/Drivers/STM32L4xx_HAL_Driver/Inc/stm32l4xx_ll_spi.h **** #define LL_SPI_WriteReg(__INSTANCE__, __REG__, __VALUE__) WRITE_REG(__INSTANCE__->__REG__, (__VALUE
 327:../../../libs/smtc-hal-mcu-stm32l4/third_party/STM32CubeL4/Drivers/STM32L4xx_HAL_Driver/Inc/stm32l4xx_ll_spi.h **** 
 328:../../../libs/smtc-hal-mcu-stm32l4/third_party/STM32CubeL4/Drivers/STM32L4xx_HAL_Driver/Inc/stm32l4xx_ll_spi.h **** /**
 329:../../../libs/smtc-hal-mcu-stm32l4/third_party/STM32CubeL4/Drivers/STM32L4xx_HAL_Driver/Inc/stm32l4xx_ll_spi.h ****   * @brief  Read a value in SPI register
 330:../../../libs/smtc-hal-mcu-stm32l4/third_party/STM32CubeL4/Drivers/STM32L4xx_HAL_Driver/Inc/stm32l4xx_ll_spi.h ****   * @param  __INSTANCE__ SPI Instance
 331:../../../libs/smtc-hal-mcu-stm32l4/third_party/STM32CubeL4/Drivers/STM32L4xx_HAL_Driver/Inc/stm32l4xx_ll_spi.h ****   * @param  __REG__ Register to be read
 332:../../../libs/smtc-hal-mcu-stm32l4/third_party/STM32CubeL4/Drivers/STM32L4xx_HAL_Driver/Inc/stm32l4xx_ll_spi.h ****   * @retval Register value
 333:../../../libs/smtc-hal-mcu-stm32l4/third_party/STM32CubeL4/Drivers/STM32L4xx_HAL_Driver/Inc/stm32l4xx_ll_spi.h ****   */
 334:../../../libs/smtc-hal-mcu-stm32l4/third_party/STM32CubeL4/Drivers/STM32L4xx_HAL_Driver/Inc/stm32l4xx_ll_spi.h **** #define LL_SPI_ReadReg(__INSTANCE__, __REG__) READ_REG(__INSTANCE__->__REG__)
 335:../../../libs/smtc-hal-mcu-stm32l4/third_party/STM32CubeL4/Drivers/STM32L4xx_HAL_Driver/Inc/stm32l4xx_ll_spi.h **** /**
 336:../../../libs/smtc-hal-mcu-stm32l4/third_party/STM32CubeL4/Drivers/STM32L4xx_HAL_Driver/Inc/stm32l4xx_ll_spi.h ****   * @}
 337:../../../libs/smtc-hal-mcu-stm32l4/third_party/STM32CubeL4/Drivers/STM32L4xx_HAL_Driver/Inc/stm32l4xx_ll_spi.h ****   */
 338:../../../libs/smtc-hal-mcu-stm32l4/third_party/STM32CubeL4/Drivers/STM32L4xx_HAL_Driver/Inc/stm32l4xx_ll_spi.h **** 
 339:../../../libs/smtc-hal-mcu-stm32l4/third_party/STM32CubeL4/Drivers/STM32L4xx_HAL_Driver/Inc/stm32l4xx_ll_spi.h **** /**
 340:../../../libs/smtc-hal-mcu-stm32l4/third_party/STM32CubeL4/Drivers/STM32L4xx_HAL_Driver/Inc/stm32l4xx_ll_spi.h ****   * @}
 341:../../../libs/smtc-hal-mcu-stm32l4/third_party/STM32CubeL4/Drivers/STM32L4xx_HAL_Driver/Inc/stm32l4xx_ll_spi.h ****   */
 342:../../../libs/smtc-hal-mcu-stm32l4/third_party/STM32CubeL4/Drivers/STM32L4xx_HAL_Driver/Inc/stm32l4xx_ll_spi.h **** 
 343:../../../libs/smtc-hal-mcu-stm32l4/third_party/STM32CubeL4/Drivers/STM32L4xx_HAL_Driver/Inc/stm32l4xx_ll_spi.h **** /* Exported functions --------------------------------------------------------*/
 344:../../../libs/smtc-hal-mcu-stm32l4/third_party/STM32CubeL4/Drivers/STM32L4xx_HAL_Driver/Inc/stm32l4xx_ll_spi.h **** /** @defgroup SPI_LL_Exported_Functions SPI Exported Functions
 345:../../../libs/smtc-hal-mcu-stm32l4/third_party/STM32CubeL4/Drivers/STM32L4xx_HAL_Driver/Inc/stm32l4xx_ll_spi.h ****   * @{
 346:../../../libs/smtc-hal-mcu-stm32l4/third_party/STM32CubeL4/Drivers/STM32L4xx_HAL_Driver/Inc/stm32l4xx_ll_spi.h ****   */
 347:../../../libs/smtc-hal-mcu-stm32l4/third_party/STM32CubeL4/Drivers/STM32L4xx_HAL_Driver/Inc/stm32l4xx_ll_spi.h **** 
 348:../../../libs/smtc-hal-mcu-stm32l4/third_party/STM32CubeL4/Drivers/STM32L4xx_HAL_Driver/Inc/stm32l4xx_ll_spi.h **** /** @defgroup SPI_LL_EF_Configuration Configuration
 349:../../../libs/smtc-hal-mcu-stm32l4/third_party/STM32CubeL4/Drivers/STM32L4xx_HAL_Driver/Inc/stm32l4xx_ll_spi.h ****   * @{
 350:../../../libs/smtc-hal-mcu-stm32l4/third_party/STM32CubeL4/Drivers/STM32L4xx_HAL_Driver/Inc/stm32l4xx_ll_spi.h ****   */
 351:../../../libs/smtc-hal-mcu-stm32l4/third_party/STM32CubeL4/Drivers/STM32L4xx_HAL_Driver/Inc/stm32l4xx_ll_spi.h **** 
 352:../../../libs/smtc-hal-mcu-stm32l4/third_party/STM32CubeL4/Drivers/STM32L4xx_HAL_Driver/Inc/stm32l4xx_ll_spi.h **** /**
 353:../../../libs/smtc-hal-mcu-stm32l4/third_party/STM32CubeL4/Drivers/STM32L4xx_HAL_Driver/Inc/stm32l4xx_ll_spi.h ****   * @brief  Enable SPI peripheral
 354:../../../libs/smtc-hal-mcu-stm32l4/third_party/STM32CubeL4/Drivers/STM32L4xx_HAL_Driver/Inc/stm32l4xx_ll_spi.h ****   * @rmtoll CR1          SPE           LL_SPI_Enable
 355:../../../libs/smtc-hal-mcu-stm32l4/third_party/STM32CubeL4/Drivers/STM32L4xx_HAL_Driver/Inc/stm32l4xx_ll_spi.h ****   * @param  SPIx SPI Instance
 356:../../../libs/smtc-hal-mcu-stm32l4/third_party/STM32CubeL4/Drivers/STM32L4xx_HAL_Driver/Inc/stm32l4xx_ll_spi.h ****   * @retval None
 357:../../../libs/smtc-hal-mcu-stm32l4/third_party/STM32CubeL4/Drivers/STM32L4xx_HAL_Driver/Inc/stm32l4xx_ll_spi.h ****   */
 358:../../../libs/smtc-hal-mcu-stm32l4/third_party/STM32CubeL4/Drivers/STM32L4xx_HAL_Driver/Inc/stm32l4xx_ll_spi.h **** __STATIC_INLINE void LL_SPI_Enable(SPI_TypeDef *SPIx)
 359:../../../libs/smtc-hal-mcu-stm32l4/third_party/STM32CubeL4/Drivers/STM32L4xx_HAL_Driver/Inc/stm32l4xx_ll_spi.h **** {
  29              		.loc 2 359 1
  30              		.cfi_startproc
  31              		@ args = 0, pretend = 0, frame = 8
  32              		@ frame_needed = 1, uses_anonymous_args = 0
  33              		@ link register save eliminated.
  34 0000 80B4     		push	{r7}
  35              	.LCFI0:
  36              		.cfi_def_cfa_offset 4
  37              		.cfi_offset 7, -4
  38 0002 83B0     		sub	sp, sp, #12
  39              	.LCFI1:
  40              		.cfi_def_cfa_offset 16
  41 0004 00AF     		add	r7, sp, #0
ARM GAS  C:\msys64\tmp\ccnxnf43.s 			page 8


  42              	.LCFI2:
  43              		.cfi_def_cfa_register 7
  44 0006 7860     		str	r0, [r7, #4]
 360:../../../libs/smtc-hal-mcu-stm32l4/third_party/STM32CubeL4/Drivers/STM32L4xx_HAL_Driver/Inc/stm32l4xx_ll_spi.h ****   SET_BIT(SPIx->CR1, SPI_CR1_SPE);
  45              		.loc 2 360 3
  46 0008 7B68     		ldr	r3, [r7, #4]
  47 000a 1B68     		ldr	r3, [r3]
  48 000c 43F04002 		orr	r2, r3, #64
  49 0010 7B68     		ldr	r3, [r7, #4]
  50 0012 1A60     		str	r2, [r3]
 361:../../../libs/smtc-hal-mcu-stm32l4/third_party/STM32CubeL4/Drivers/STM32L4xx_HAL_Driver/Inc/stm32l4xx_ll_spi.h **** }
  51              		.loc 2 361 1
  52 0014 00BF     		nop
  53 0016 0C37     		adds	r7, r7, #12
  54              	.LCFI3:
  55              		.cfi_def_cfa_offset 4
  56 0018 BD46     		mov	sp, r7
  57              	.LCFI4:
  58              		.cfi_def_cfa_register 13
  59              		@ sp needed
  60 001a 5DF8047B 		ldr	r7, [sp], #4
  61              	.LCFI5:
  62              		.cfi_restore 7
  63              		.cfi_def_cfa_offset 0
  64 001e 7047     		bx	lr
  65              		.cfi_endproc
  66              	.LFE132:
  68              		.section	.text.LL_SPI_IsEnabled,"ax",%progbits
  69              		.align	1
  70              		.syntax unified
  71              		.thumb
  72              		.thumb_func
  74              	LL_SPI_IsEnabled:
  75              	.LFB134:
 362:../../../libs/smtc-hal-mcu-stm32l4/third_party/STM32CubeL4/Drivers/STM32L4xx_HAL_Driver/Inc/stm32l4xx_ll_spi.h **** 
 363:../../../libs/smtc-hal-mcu-stm32l4/third_party/STM32CubeL4/Drivers/STM32L4xx_HAL_Driver/Inc/stm32l4xx_ll_spi.h **** /**
 364:../../../libs/smtc-hal-mcu-stm32l4/third_party/STM32CubeL4/Drivers/STM32L4xx_HAL_Driver/Inc/stm32l4xx_ll_spi.h ****   * @brief  Disable SPI peripheral
 365:../../../libs/smtc-hal-mcu-stm32l4/third_party/STM32CubeL4/Drivers/STM32L4xx_HAL_Driver/Inc/stm32l4xx_ll_spi.h ****   * @note   When disabling the SPI, follow the procedure described in the Reference Manual.
 366:../../../libs/smtc-hal-mcu-stm32l4/third_party/STM32CubeL4/Drivers/STM32L4xx_HAL_Driver/Inc/stm32l4xx_ll_spi.h ****   * @rmtoll CR1          SPE           LL_SPI_Disable
 367:../../../libs/smtc-hal-mcu-stm32l4/third_party/STM32CubeL4/Drivers/STM32L4xx_HAL_Driver/Inc/stm32l4xx_ll_spi.h ****   * @param  SPIx SPI Instance
 368:../../../libs/smtc-hal-mcu-stm32l4/third_party/STM32CubeL4/Drivers/STM32L4xx_HAL_Driver/Inc/stm32l4xx_ll_spi.h ****   * @retval None
 369:../../../libs/smtc-hal-mcu-stm32l4/third_party/STM32CubeL4/Drivers/STM32L4xx_HAL_Driver/Inc/stm32l4xx_ll_spi.h ****   */
 370:../../../libs/smtc-hal-mcu-stm32l4/third_party/STM32CubeL4/Drivers/STM32L4xx_HAL_Driver/Inc/stm32l4xx_ll_spi.h **** __STATIC_INLINE void LL_SPI_Disable(SPI_TypeDef *SPIx)
 371:../../../libs/smtc-hal-mcu-stm32l4/third_party/STM32CubeL4/Drivers/STM32L4xx_HAL_Driver/Inc/stm32l4xx_ll_spi.h **** {
 372:../../../libs/smtc-hal-mcu-stm32l4/third_party/STM32CubeL4/Drivers/STM32L4xx_HAL_Driver/Inc/stm32l4xx_ll_spi.h ****   CLEAR_BIT(SPIx->CR1, SPI_CR1_SPE);
 373:../../../libs/smtc-hal-mcu-stm32l4/third_party/STM32CubeL4/Drivers/STM32L4xx_HAL_Driver/Inc/stm32l4xx_ll_spi.h **** }
 374:../../../libs/smtc-hal-mcu-stm32l4/third_party/STM32CubeL4/Drivers/STM32L4xx_HAL_Driver/Inc/stm32l4xx_ll_spi.h **** 
 375:../../../libs/smtc-hal-mcu-stm32l4/third_party/STM32CubeL4/Drivers/STM32L4xx_HAL_Driver/Inc/stm32l4xx_ll_spi.h **** /**
 376:../../../libs/smtc-hal-mcu-stm32l4/third_party/STM32CubeL4/Drivers/STM32L4xx_HAL_Driver/Inc/stm32l4xx_ll_spi.h ****   * @brief  Check if SPI peripheral is enabled
 377:../../../libs/smtc-hal-mcu-stm32l4/third_party/STM32CubeL4/Drivers/STM32L4xx_HAL_Driver/Inc/stm32l4xx_ll_spi.h ****   * @rmtoll CR1          SPE           LL_SPI_IsEnabled
 378:../../../libs/smtc-hal-mcu-stm32l4/third_party/STM32CubeL4/Drivers/STM32L4xx_HAL_Driver/Inc/stm32l4xx_ll_spi.h ****   * @param  SPIx SPI Instance
 379:../../../libs/smtc-hal-mcu-stm32l4/third_party/STM32CubeL4/Drivers/STM32L4xx_HAL_Driver/Inc/stm32l4xx_ll_spi.h ****   * @retval State of bit (1 or 0).
 380:../../../libs/smtc-hal-mcu-stm32l4/third_party/STM32CubeL4/Drivers/STM32L4xx_HAL_Driver/Inc/stm32l4xx_ll_spi.h ****   */
 381:../../../libs/smtc-hal-mcu-stm32l4/third_party/STM32CubeL4/Drivers/STM32L4xx_HAL_Driver/Inc/stm32l4xx_ll_spi.h **** __STATIC_INLINE uint32_t LL_SPI_IsEnabled(SPI_TypeDef *SPIx)
 382:../../../libs/smtc-hal-mcu-stm32l4/third_party/STM32CubeL4/Drivers/STM32L4xx_HAL_Driver/Inc/stm32l4xx_ll_spi.h **** {
  76              		.loc 2 382 1
  77              		.cfi_startproc
ARM GAS  C:\msys64\tmp\ccnxnf43.s 			page 9


  78              		@ args = 0, pretend = 0, frame = 8
  79              		@ frame_needed = 1, uses_anonymous_args = 0
  80              		@ link register save eliminated.
  81 0000 80B4     		push	{r7}
  82              	.LCFI6:
  83              		.cfi_def_cfa_offset 4
  84              		.cfi_offset 7, -4
  85 0002 83B0     		sub	sp, sp, #12
  86              	.LCFI7:
  87              		.cfi_def_cfa_offset 16
  88 0004 00AF     		add	r7, sp, #0
  89              	.LCFI8:
  90              		.cfi_def_cfa_register 7
  91 0006 7860     		str	r0, [r7, #4]
 383:../../../libs/smtc-hal-mcu-stm32l4/third_party/STM32CubeL4/Drivers/STM32L4xx_HAL_Driver/Inc/stm32l4xx_ll_spi.h ****   return ((READ_BIT(SPIx->CR1, SPI_CR1_SPE) == (SPI_CR1_SPE)) ? 1UL : 0UL);
  92              		.loc 2 383 12
  93 0008 7B68     		ldr	r3, [r7, #4]
  94 000a 1B68     		ldr	r3, [r3]
  95 000c 03F04003 		and	r3, r3, #64
  96              		.loc 2 383 69
  97 0010 402B     		cmp	r3, #64
  98 0012 01D1     		bne	.L3
  99              		.loc 2 383 69 is_stmt 0 discriminator 1
 100 0014 0123     		movs	r3, #1
 101              		.loc 2 383 69
 102 0016 00E0     		b	.L5
 103              	.L3:
 104              		.loc 2 383 69 discriminator 2
 105 0018 0023     		movs	r3, #0
 106              	.L5:
 384:../../../libs/smtc-hal-mcu-stm32l4/third_party/STM32CubeL4/Drivers/STM32L4xx_HAL_Driver/Inc/stm32l4xx_ll_spi.h **** }
 107              		.loc 2 384 1 is_stmt 1
 108 001a 1846     		mov	r0, r3
 109 001c 0C37     		adds	r7, r7, #12
 110              	.LCFI9:
 111              		.cfi_def_cfa_offset 4
 112 001e BD46     		mov	sp, r7
 113              	.LCFI10:
 114              		.cfi_def_cfa_register 13
 115              		@ sp needed
 116 0020 5DF8047B 		ldr	r7, [sp], #4
 117              	.LCFI11:
 118              		.cfi_restore 7
 119              		.cfi_def_cfa_offset 0
 120 0024 7047     		bx	lr
 121              		.cfi_endproc
 122              	.LFE134:
 124              		.section	.text.LL_SPI_SetStandard,"ax",%progbits
 125              		.align	1
 126              		.syntax unified
 127              		.thumb
 128              		.thumb_func
 130              	LL_SPI_SetStandard:
 131              	.LFB137:
 385:../../../libs/smtc-hal-mcu-stm32l4/third_party/STM32CubeL4/Drivers/STM32L4xx_HAL_Driver/Inc/stm32l4xx_ll_spi.h **** 
 386:../../../libs/smtc-hal-mcu-stm32l4/third_party/STM32CubeL4/Drivers/STM32L4xx_HAL_Driver/Inc/stm32l4xx_ll_spi.h **** /**
 387:../../../libs/smtc-hal-mcu-stm32l4/third_party/STM32CubeL4/Drivers/STM32L4xx_HAL_Driver/Inc/stm32l4xx_ll_spi.h ****   * @brief  Set SPI operation mode to Master or Slave
ARM GAS  C:\msys64\tmp\ccnxnf43.s 			page 10


 388:../../../libs/smtc-hal-mcu-stm32l4/third_party/STM32CubeL4/Drivers/STM32L4xx_HAL_Driver/Inc/stm32l4xx_ll_spi.h ****   * @note   This bit should not be changed when communication is ongoing.
 389:../../../libs/smtc-hal-mcu-stm32l4/third_party/STM32CubeL4/Drivers/STM32L4xx_HAL_Driver/Inc/stm32l4xx_ll_spi.h ****   * @rmtoll CR1          MSTR          LL_SPI_SetMode\n
 390:../../../libs/smtc-hal-mcu-stm32l4/third_party/STM32CubeL4/Drivers/STM32L4xx_HAL_Driver/Inc/stm32l4xx_ll_spi.h ****   *         CR1          SSI           LL_SPI_SetMode
 391:../../../libs/smtc-hal-mcu-stm32l4/third_party/STM32CubeL4/Drivers/STM32L4xx_HAL_Driver/Inc/stm32l4xx_ll_spi.h ****   * @param  SPIx SPI Instance
 392:../../../libs/smtc-hal-mcu-stm32l4/third_party/STM32CubeL4/Drivers/STM32L4xx_HAL_Driver/Inc/stm32l4xx_ll_spi.h ****   * @param  Mode This parameter can be one of the following values:
 393:../../../libs/smtc-hal-mcu-stm32l4/third_party/STM32CubeL4/Drivers/STM32L4xx_HAL_Driver/Inc/stm32l4xx_ll_spi.h ****   *         @arg @ref LL_SPI_MODE_MASTER
 394:../../../libs/smtc-hal-mcu-stm32l4/third_party/STM32CubeL4/Drivers/STM32L4xx_HAL_Driver/Inc/stm32l4xx_ll_spi.h ****   *         @arg @ref LL_SPI_MODE_SLAVE
 395:../../../libs/smtc-hal-mcu-stm32l4/third_party/STM32CubeL4/Drivers/STM32L4xx_HAL_Driver/Inc/stm32l4xx_ll_spi.h ****   * @retval None
 396:../../../libs/smtc-hal-mcu-stm32l4/third_party/STM32CubeL4/Drivers/STM32L4xx_HAL_Driver/Inc/stm32l4xx_ll_spi.h ****   */
 397:../../../libs/smtc-hal-mcu-stm32l4/third_party/STM32CubeL4/Drivers/STM32L4xx_HAL_Driver/Inc/stm32l4xx_ll_spi.h **** __STATIC_INLINE void LL_SPI_SetMode(SPI_TypeDef *SPIx, uint32_t Mode)
 398:../../../libs/smtc-hal-mcu-stm32l4/third_party/STM32CubeL4/Drivers/STM32L4xx_HAL_Driver/Inc/stm32l4xx_ll_spi.h **** {
 399:../../../libs/smtc-hal-mcu-stm32l4/third_party/STM32CubeL4/Drivers/STM32L4xx_HAL_Driver/Inc/stm32l4xx_ll_spi.h ****   MODIFY_REG(SPIx->CR1, SPI_CR1_MSTR | SPI_CR1_SSI, Mode);
 400:../../../libs/smtc-hal-mcu-stm32l4/third_party/STM32CubeL4/Drivers/STM32L4xx_HAL_Driver/Inc/stm32l4xx_ll_spi.h **** }
 401:../../../libs/smtc-hal-mcu-stm32l4/third_party/STM32CubeL4/Drivers/STM32L4xx_HAL_Driver/Inc/stm32l4xx_ll_spi.h **** 
 402:../../../libs/smtc-hal-mcu-stm32l4/third_party/STM32CubeL4/Drivers/STM32L4xx_HAL_Driver/Inc/stm32l4xx_ll_spi.h **** /**
 403:../../../libs/smtc-hal-mcu-stm32l4/third_party/STM32CubeL4/Drivers/STM32L4xx_HAL_Driver/Inc/stm32l4xx_ll_spi.h ****   * @brief  Get SPI operation mode (Master or Slave)
 404:../../../libs/smtc-hal-mcu-stm32l4/third_party/STM32CubeL4/Drivers/STM32L4xx_HAL_Driver/Inc/stm32l4xx_ll_spi.h ****   * @rmtoll CR1          MSTR          LL_SPI_GetMode\n
 405:../../../libs/smtc-hal-mcu-stm32l4/third_party/STM32CubeL4/Drivers/STM32L4xx_HAL_Driver/Inc/stm32l4xx_ll_spi.h ****   *         CR1          SSI           LL_SPI_GetMode
 406:../../../libs/smtc-hal-mcu-stm32l4/third_party/STM32CubeL4/Drivers/STM32L4xx_HAL_Driver/Inc/stm32l4xx_ll_spi.h ****   * @param  SPIx SPI Instance
 407:../../../libs/smtc-hal-mcu-stm32l4/third_party/STM32CubeL4/Drivers/STM32L4xx_HAL_Driver/Inc/stm32l4xx_ll_spi.h ****   * @retval Returned value can be one of the following values:
 408:../../../libs/smtc-hal-mcu-stm32l4/third_party/STM32CubeL4/Drivers/STM32L4xx_HAL_Driver/Inc/stm32l4xx_ll_spi.h ****   *         @arg @ref LL_SPI_MODE_MASTER
 409:../../../libs/smtc-hal-mcu-stm32l4/third_party/STM32CubeL4/Drivers/STM32L4xx_HAL_Driver/Inc/stm32l4xx_ll_spi.h ****   *         @arg @ref LL_SPI_MODE_SLAVE
 410:../../../libs/smtc-hal-mcu-stm32l4/third_party/STM32CubeL4/Drivers/STM32L4xx_HAL_Driver/Inc/stm32l4xx_ll_spi.h ****   */
 411:../../../libs/smtc-hal-mcu-stm32l4/third_party/STM32CubeL4/Drivers/STM32L4xx_HAL_Driver/Inc/stm32l4xx_ll_spi.h **** __STATIC_INLINE uint32_t LL_SPI_GetMode(SPI_TypeDef *SPIx)
 412:../../../libs/smtc-hal-mcu-stm32l4/third_party/STM32CubeL4/Drivers/STM32L4xx_HAL_Driver/Inc/stm32l4xx_ll_spi.h **** {
 413:../../../libs/smtc-hal-mcu-stm32l4/third_party/STM32CubeL4/Drivers/STM32L4xx_HAL_Driver/Inc/stm32l4xx_ll_spi.h ****   return (uint32_t)(READ_BIT(SPIx->CR1, SPI_CR1_MSTR | SPI_CR1_SSI));
 414:../../../libs/smtc-hal-mcu-stm32l4/third_party/STM32CubeL4/Drivers/STM32L4xx_HAL_Driver/Inc/stm32l4xx_ll_spi.h **** }
 415:../../../libs/smtc-hal-mcu-stm32l4/third_party/STM32CubeL4/Drivers/STM32L4xx_HAL_Driver/Inc/stm32l4xx_ll_spi.h **** 
 416:../../../libs/smtc-hal-mcu-stm32l4/third_party/STM32CubeL4/Drivers/STM32L4xx_HAL_Driver/Inc/stm32l4xx_ll_spi.h **** /**
 417:../../../libs/smtc-hal-mcu-stm32l4/third_party/STM32CubeL4/Drivers/STM32L4xx_HAL_Driver/Inc/stm32l4xx_ll_spi.h ****   * @brief  Set serial protocol used
 418:../../../libs/smtc-hal-mcu-stm32l4/third_party/STM32CubeL4/Drivers/STM32L4xx_HAL_Driver/Inc/stm32l4xx_ll_spi.h ****   * @note   This bit should be written only when SPI is disabled (SPE = 0) for correct operation.
 419:../../../libs/smtc-hal-mcu-stm32l4/third_party/STM32CubeL4/Drivers/STM32L4xx_HAL_Driver/Inc/stm32l4xx_ll_spi.h ****   * @rmtoll CR2          FRF           LL_SPI_SetStandard
 420:../../../libs/smtc-hal-mcu-stm32l4/third_party/STM32CubeL4/Drivers/STM32L4xx_HAL_Driver/Inc/stm32l4xx_ll_spi.h ****   * @param  SPIx SPI Instance
 421:../../../libs/smtc-hal-mcu-stm32l4/third_party/STM32CubeL4/Drivers/STM32L4xx_HAL_Driver/Inc/stm32l4xx_ll_spi.h ****   * @param  Standard This parameter can be one of the following values:
 422:../../../libs/smtc-hal-mcu-stm32l4/third_party/STM32CubeL4/Drivers/STM32L4xx_HAL_Driver/Inc/stm32l4xx_ll_spi.h ****   *         @arg @ref LL_SPI_PROTOCOL_MOTOROLA
 423:../../../libs/smtc-hal-mcu-stm32l4/third_party/STM32CubeL4/Drivers/STM32L4xx_HAL_Driver/Inc/stm32l4xx_ll_spi.h ****   *         @arg @ref LL_SPI_PROTOCOL_TI
 424:../../../libs/smtc-hal-mcu-stm32l4/third_party/STM32CubeL4/Drivers/STM32L4xx_HAL_Driver/Inc/stm32l4xx_ll_spi.h ****   * @retval None
 425:../../../libs/smtc-hal-mcu-stm32l4/third_party/STM32CubeL4/Drivers/STM32L4xx_HAL_Driver/Inc/stm32l4xx_ll_spi.h ****   */
 426:../../../libs/smtc-hal-mcu-stm32l4/third_party/STM32CubeL4/Drivers/STM32L4xx_HAL_Driver/Inc/stm32l4xx_ll_spi.h **** __STATIC_INLINE void LL_SPI_SetStandard(SPI_TypeDef *SPIx, uint32_t Standard)
 427:../../../libs/smtc-hal-mcu-stm32l4/third_party/STM32CubeL4/Drivers/STM32L4xx_HAL_Driver/Inc/stm32l4xx_ll_spi.h **** {
 132              		.loc 2 427 1
 133              		.cfi_startproc
 134              		@ args = 0, pretend = 0, frame = 8
 135              		@ frame_needed = 1, uses_anonymous_args = 0
 136              		@ link register save eliminated.
 137 0000 80B4     		push	{r7}
 138              	.LCFI12:
 139              		.cfi_def_cfa_offset 4
 140              		.cfi_offset 7, -4
 141 0002 83B0     		sub	sp, sp, #12
 142              	.LCFI13:
 143              		.cfi_def_cfa_offset 16
 144 0004 00AF     		add	r7, sp, #0
 145              	.LCFI14:
 146              		.cfi_def_cfa_register 7
 147 0006 7860     		str	r0, [r7, #4]
 148 0008 3960     		str	r1, [r7]
ARM GAS  C:\msys64\tmp\ccnxnf43.s 			page 11


 428:../../../libs/smtc-hal-mcu-stm32l4/third_party/STM32CubeL4/Drivers/STM32L4xx_HAL_Driver/Inc/stm32l4xx_ll_spi.h ****   MODIFY_REG(SPIx->CR2, SPI_CR2_FRF, Standard);
 149              		.loc 2 428 3
 150 000a 7B68     		ldr	r3, [r7, #4]
 151 000c 5B68     		ldr	r3, [r3, #4]
 152 000e 23F01002 		bic	r2, r3, #16
 153 0012 3B68     		ldr	r3, [r7]
 154 0014 1A43     		orrs	r2, r2, r3
 155 0016 7B68     		ldr	r3, [r7, #4]
 156 0018 5A60     		str	r2, [r3, #4]
 429:../../../libs/smtc-hal-mcu-stm32l4/third_party/STM32CubeL4/Drivers/STM32L4xx_HAL_Driver/Inc/stm32l4xx_ll_spi.h **** }
 157              		.loc 2 429 1
 158 001a 00BF     		nop
 159 001c 0C37     		adds	r7, r7, #12
 160              	.LCFI15:
 161              		.cfi_def_cfa_offset 4
 162 001e BD46     		mov	sp, r7
 163              	.LCFI16:
 164              		.cfi_def_cfa_register 13
 165              		@ sp needed
 166 0020 5DF8047B 		ldr	r7, [sp], #4
 167              	.LCFI17:
 168              		.cfi_restore 7
 169              		.cfi_def_cfa_offset 0
 170 0024 7047     		bx	lr
 171              		.cfi_endproc
 172              	.LFE137:
 174              		.section	.text.LL_SPI_SetRxFIFOThreshold,"ax",%progbits
 175              		.align	1
 176              		.syntax unified
 177              		.thumb
 178              		.thumb_func
 180              	LL_SPI_SetRxFIFOThreshold:
 181              	.LFB151:
 430:../../../libs/smtc-hal-mcu-stm32l4/third_party/STM32CubeL4/Drivers/STM32L4xx_HAL_Driver/Inc/stm32l4xx_ll_spi.h **** 
 431:../../../libs/smtc-hal-mcu-stm32l4/third_party/STM32CubeL4/Drivers/STM32L4xx_HAL_Driver/Inc/stm32l4xx_ll_spi.h **** /**
 432:../../../libs/smtc-hal-mcu-stm32l4/third_party/STM32CubeL4/Drivers/STM32L4xx_HAL_Driver/Inc/stm32l4xx_ll_spi.h ****   * @brief  Get serial protocol used
 433:../../../libs/smtc-hal-mcu-stm32l4/third_party/STM32CubeL4/Drivers/STM32L4xx_HAL_Driver/Inc/stm32l4xx_ll_spi.h ****   * @rmtoll CR2          FRF           LL_SPI_GetStandard
 434:../../../libs/smtc-hal-mcu-stm32l4/third_party/STM32CubeL4/Drivers/STM32L4xx_HAL_Driver/Inc/stm32l4xx_ll_spi.h ****   * @param  SPIx SPI Instance
 435:../../../libs/smtc-hal-mcu-stm32l4/third_party/STM32CubeL4/Drivers/STM32L4xx_HAL_Driver/Inc/stm32l4xx_ll_spi.h ****   * @retval Returned value can be one of the following values:
 436:../../../libs/smtc-hal-mcu-stm32l4/third_party/STM32CubeL4/Drivers/STM32L4xx_HAL_Driver/Inc/stm32l4xx_ll_spi.h ****   *         @arg @ref LL_SPI_PROTOCOL_MOTOROLA
 437:../../../libs/smtc-hal-mcu-stm32l4/third_party/STM32CubeL4/Drivers/STM32L4xx_HAL_Driver/Inc/stm32l4xx_ll_spi.h ****   *         @arg @ref LL_SPI_PROTOCOL_TI
 438:../../../libs/smtc-hal-mcu-stm32l4/third_party/STM32CubeL4/Drivers/STM32L4xx_HAL_Driver/Inc/stm32l4xx_ll_spi.h ****   */
 439:../../../libs/smtc-hal-mcu-stm32l4/third_party/STM32CubeL4/Drivers/STM32L4xx_HAL_Driver/Inc/stm32l4xx_ll_spi.h **** __STATIC_INLINE uint32_t LL_SPI_GetStandard(SPI_TypeDef *SPIx)
 440:../../../libs/smtc-hal-mcu-stm32l4/third_party/STM32CubeL4/Drivers/STM32L4xx_HAL_Driver/Inc/stm32l4xx_ll_spi.h **** {
 441:../../../libs/smtc-hal-mcu-stm32l4/third_party/STM32CubeL4/Drivers/STM32L4xx_HAL_Driver/Inc/stm32l4xx_ll_spi.h ****   return (uint32_t)(READ_BIT(SPIx->CR2, SPI_CR2_FRF));
 442:../../../libs/smtc-hal-mcu-stm32l4/third_party/STM32CubeL4/Drivers/STM32L4xx_HAL_Driver/Inc/stm32l4xx_ll_spi.h **** }
 443:../../../libs/smtc-hal-mcu-stm32l4/third_party/STM32CubeL4/Drivers/STM32L4xx_HAL_Driver/Inc/stm32l4xx_ll_spi.h **** 
 444:../../../libs/smtc-hal-mcu-stm32l4/third_party/STM32CubeL4/Drivers/STM32L4xx_HAL_Driver/Inc/stm32l4xx_ll_spi.h **** /**
 445:../../../libs/smtc-hal-mcu-stm32l4/third_party/STM32CubeL4/Drivers/STM32L4xx_HAL_Driver/Inc/stm32l4xx_ll_spi.h ****   * @brief  Set clock phase
 446:../../../libs/smtc-hal-mcu-stm32l4/third_party/STM32CubeL4/Drivers/STM32L4xx_HAL_Driver/Inc/stm32l4xx_ll_spi.h ****   * @note   This bit should not be changed when communication is ongoing.
 447:../../../libs/smtc-hal-mcu-stm32l4/third_party/STM32CubeL4/Drivers/STM32L4xx_HAL_Driver/Inc/stm32l4xx_ll_spi.h ****   *         This bit is not used in SPI TI mode.
 448:../../../libs/smtc-hal-mcu-stm32l4/third_party/STM32CubeL4/Drivers/STM32L4xx_HAL_Driver/Inc/stm32l4xx_ll_spi.h ****   * @rmtoll CR1          CPHA          LL_SPI_SetClockPhase
 449:../../../libs/smtc-hal-mcu-stm32l4/third_party/STM32CubeL4/Drivers/STM32L4xx_HAL_Driver/Inc/stm32l4xx_ll_spi.h ****   * @param  SPIx SPI Instance
 450:../../../libs/smtc-hal-mcu-stm32l4/third_party/STM32CubeL4/Drivers/STM32L4xx_HAL_Driver/Inc/stm32l4xx_ll_spi.h ****   * @param  ClockPhase This parameter can be one of the following values:
 451:../../../libs/smtc-hal-mcu-stm32l4/third_party/STM32CubeL4/Drivers/STM32L4xx_HAL_Driver/Inc/stm32l4xx_ll_spi.h ****   *         @arg @ref LL_SPI_PHASE_1EDGE
 452:../../../libs/smtc-hal-mcu-stm32l4/third_party/STM32CubeL4/Drivers/STM32L4xx_HAL_Driver/Inc/stm32l4xx_ll_spi.h ****   *         @arg @ref LL_SPI_PHASE_2EDGE
 453:../../../libs/smtc-hal-mcu-stm32l4/third_party/STM32CubeL4/Drivers/STM32L4xx_HAL_Driver/Inc/stm32l4xx_ll_spi.h ****   * @retval None
ARM GAS  C:\msys64\tmp\ccnxnf43.s 			page 12


 454:../../../libs/smtc-hal-mcu-stm32l4/third_party/STM32CubeL4/Drivers/STM32L4xx_HAL_Driver/Inc/stm32l4xx_ll_spi.h ****   */
 455:../../../libs/smtc-hal-mcu-stm32l4/third_party/STM32CubeL4/Drivers/STM32L4xx_HAL_Driver/Inc/stm32l4xx_ll_spi.h **** __STATIC_INLINE void LL_SPI_SetClockPhase(SPI_TypeDef *SPIx, uint32_t ClockPhase)
 456:../../../libs/smtc-hal-mcu-stm32l4/third_party/STM32CubeL4/Drivers/STM32L4xx_HAL_Driver/Inc/stm32l4xx_ll_spi.h **** {
 457:../../../libs/smtc-hal-mcu-stm32l4/third_party/STM32CubeL4/Drivers/STM32L4xx_HAL_Driver/Inc/stm32l4xx_ll_spi.h ****   MODIFY_REG(SPIx->CR1, SPI_CR1_CPHA, ClockPhase);
 458:../../../libs/smtc-hal-mcu-stm32l4/third_party/STM32CubeL4/Drivers/STM32L4xx_HAL_Driver/Inc/stm32l4xx_ll_spi.h **** }
 459:../../../libs/smtc-hal-mcu-stm32l4/third_party/STM32CubeL4/Drivers/STM32L4xx_HAL_Driver/Inc/stm32l4xx_ll_spi.h **** 
 460:../../../libs/smtc-hal-mcu-stm32l4/third_party/STM32CubeL4/Drivers/STM32L4xx_HAL_Driver/Inc/stm32l4xx_ll_spi.h **** /**
 461:../../../libs/smtc-hal-mcu-stm32l4/third_party/STM32CubeL4/Drivers/STM32L4xx_HAL_Driver/Inc/stm32l4xx_ll_spi.h ****   * @brief  Get clock phase
 462:../../../libs/smtc-hal-mcu-stm32l4/third_party/STM32CubeL4/Drivers/STM32L4xx_HAL_Driver/Inc/stm32l4xx_ll_spi.h ****   * @rmtoll CR1          CPHA          LL_SPI_GetClockPhase
 463:../../../libs/smtc-hal-mcu-stm32l4/third_party/STM32CubeL4/Drivers/STM32L4xx_HAL_Driver/Inc/stm32l4xx_ll_spi.h ****   * @param  SPIx SPI Instance
 464:../../../libs/smtc-hal-mcu-stm32l4/third_party/STM32CubeL4/Drivers/STM32L4xx_HAL_Driver/Inc/stm32l4xx_ll_spi.h ****   * @retval Returned value can be one of the following values:
 465:../../../libs/smtc-hal-mcu-stm32l4/third_party/STM32CubeL4/Drivers/STM32L4xx_HAL_Driver/Inc/stm32l4xx_ll_spi.h ****   *         @arg @ref LL_SPI_PHASE_1EDGE
 466:../../../libs/smtc-hal-mcu-stm32l4/third_party/STM32CubeL4/Drivers/STM32L4xx_HAL_Driver/Inc/stm32l4xx_ll_spi.h ****   *         @arg @ref LL_SPI_PHASE_2EDGE
 467:../../../libs/smtc-hal-mcu-stm32l4/third_party/STM32CubeL4/Drivers/STM32L4xx_HAL_Driver/Inc/stm32l4xx_ll_spi.h ****   */
 468:../../../libs/smtc-hal-mcu-stm32l4/third_party/STM32CubeL4/Drivers/STM32L4xx_HAL_Driver/Inc/stm32l4xx_ll_spi.h **** __STATIC_INLINE uint32_t LL_SPI_GetClockPhase(SPI_TypeDef *SPIx)
 469:../../../libs/smtc-hal-mcu-stm32l4/third_party/STM32CubeL4/Drivers/STM32L4xx_HAL_Driver/Inc/stm32l4xx_ll_spi.h **** {
 470:../../../libs/smtc-hal-mcu-stm32l4/third_party/STM32CubeL4/Drivers/STM32L4xx_HAL_Driver/Inc/stm32l4xx_ll_spi.h ****   return (uint32_t)(READ_BIT(SPIx->CR1, SPI_CR1_CPHA));
 471:../../../libs/smtc-hal-mcu-stm32l4/third_party/STM32CubeL4/Drivers/STM32L4xx_HAL_Driver/Inc/stm32l4xx_ll_spi.h **** }
 472:../../../libs/smtc-hal-mcu-stm32l4/third_party/STM32CubeL4/Drivers/STM32L4xx_HAL_Driver/Inc/stm32l4xx_ll_spi.h **** 
 473:../../../libs/smtc-hal-mcu-stm32l4/third_party/STM32CubeL4/Drivers/STM32L4xx_HAL_Driver/Inc/stm32l4xx_ll_spi.h **** /**
 474:../../../libs/smtc-hal-mcu-stm32l4/third_party/STM32CubeL4/Drivers/STM32L4xx_HAL_Driver/Inc/stm32l4xx_ll_spi.h ****   * @brief  Set clock polarity
 475:../../../libs/smtc-hal-mcu-stm32l4/third_party/STM32CubeL4/Drivers/STM32L4xx_HAL_Driver/Inc/stm32l4xx_ll_spi.h ****   * @note   This bit should not be changed when communication is ongoing.
 476:../../../libs/smtc-hal-mcu-stm32l4/third_party/STM32CubeL4/Drivers/STM32L4xx_HAL_Driver/Inc/stm32l4xx_ll_spi.h ****   *         This bit is not used in SPI TI mode.
 477:../../../libs/smtc-hal-mcu-stm32l4/third_party/STM32CubeL4/Drivers/STM32L4xx_HAL_Driver/Inc/stm32l4xx_ll_spi.h ****   * @rmtoll CR1          CPOL          LL_SPI_SetClockPolarity
 478:../../../libs/smtc-hal-mcu-stm32l4/third_party/STM32CubeL4/Drivers/STM32L4xx_HAL_Driver/Inc/stm32l4xx_ll_spi.h ****   * @param  SPIx SPI Instance
 479:../../../libs/smtc-hal-mcu-stm32l4/third_party/STM32CubeL4/Drivers/STM32L4xx_HAL_Driver/Inc/stm32l4xx_ll_spi.h ****   * @param  ClockPolarity This parameter can be one of the following values:
 480:../../../libs/smtc-hal-mcu-stm32l4/third_party/STM32CubeL4/Drivers/STM32L4xx_HAL_Driver/Inc/stm32l4xx_ll_spi.h ****   *         @arg @ref LL_SPI_POLARITY_LOW
 481:../../../libs/smtc-hal-mcu-stm32l4/third_party/STM32CubeL4/Drivers/STM32L4xx_HAL_Driver/Inc/stm32l4xx_ll_spi.h ****   *         @arg @ref LL_SPI_POLARITY_HIGH
 482:../../../libs/smtc-hal-mcu-stm32l4/third_party/STM32CubeL4/Drivers/STM32L4xx_HAL_Driver/Inc/stm32l4xx_ll_spi.h ****   * @retval None
 483:../../../libs/smtc-hal-mcu-stm32l4/third_party/STM32CubeL4/Drivers/STM32L4xx_HAL_Driver/Inc/stm32l4xx_ll_spi.h ****   */
 484:../../../libs/smtc-hal-mcu-stm32l4/third_party/STM32CubeL4/Drivers/STM32L4xx_HAL_Driver/Inc/stm32l4xx_ll_spi.h **** __STATIC_INLINE void LL_SPI_SetClockPolarity(SPI_TypeDef *SPIx, uint32_t ClockPolarity)
 485:../../../libs/smtc-hal-mcu-stm32l4/third_party/STM32CubeL4/Drivers/STM32L4xx_HAL_Driver/Inc/stm32l4xx_ll_spi.h **** {
 486:../../../libs/smtc-hal-mcu-stm32l4/third_party/STM32CubeL4/Drivers/STM32L4xx_HAL_Driver/Inc/stm32l4xx_ll_spi.h ****   MODIFY_REG(SPIx->CR1, SPI_CR1_CPOL, ClockPolarity);
 487:../../../libs/smtc-hal-mcu-stm32l4/third_party/STM32CubeL4/Drivers/STM32L4xx_HAL_Driver/Inc/stm32l4xx_ll_spi.h **** }
 488:../../../libs/smtc-hal-mcu-stm32l4/third_party/STM32CubeL4/Drivers/STM32L4xx_HAL_Driver/Inc/stm32l4xx_ll_spi.h **** 
 489:../../../libs/smtc-hal-mcu-stm32l4/third_party/STM32CubeL4/Drivers/STM32L4xx_HAL_Driver/Inc/stm32l4xx_ll_spi.h **** /**
 490:../../../libs/smtc-hal-mcu-stm32l4/third_party/STM32CubeL4/Drivers/STM32L4xx_HAL_Driver/Inc/stm32l4xx_ll_spi.h ****   * @brief  Get clock polarity
 491:../../../libs/smtc-hal-mcu-stm32l4/third_party/STM32CubeL4/Drivers/STM32L4xx_HAL_Driver/Inc/stm32l4xx_ll_spi.h ****   * @rmtoll CR1          CPOL          LL_SPI_GetClockPolarity
 492:../../../libs/smtc-hal-mcu-stm32l4/third_party/STM32CubeL4/Drivers/STM32L4xx_HAL_Driver/Inc/stm32l4xx_ll_spi.h ****   * @param  SPIx SPI Instance
 493:../../../libs/smtc-hal-mcu-stm32l4/third_party/STM32CubeL4/Drivers/STM32L4xx_HAL_Driver/Inc/stm32l4xx_ll_spi.h ****   * @retval Returned value can be one of the following values:
 494:../../../libs/smtc-hal-mcu-stm32l4/third_party/STM32CubeL4/Drivers/STM32L4xx_HAL_Driver/Inc/stm32l4xx_ll_spi.h ****   *         @arg @ref LL_SPI_POLARITY_LOW
 495:../../../libs/smtc-hal-mcu-stm32l4/third_party/STM32CubeL4/Drivers/STM32L4xx_HAL_Driver/Inc/stm32l4xx_ll_spi.h ****   *         @arg @ref LL_SPI_POLARITY_HIGH
 496:../../../libs/smtc-hal-mcu-stm32l4/third_party/STM32CubeL4/Drivers/STM32L4xx_HAL_Driver/Inc/stm32l4xx_ll_spi.h ****   */
 497:../../../libs/smtc-hal-mcu-stm32l4/third_party/STM32CubeL4/Drivers/STM32L4xx_HAL_Driver/Inc/stm32l4xx_ll_spi.h **** __STATIC_INLINE uint32_t LL_SPI_GetClockPolarity(SPI_TypeDef *SPIx)
 498:../../../libs/smtc-hal-mcu-stm32l4/third_party/STM32CubeL4/Drivers/STM32L4xx_HAL_Driver/Inc/stm32l4xx_ll_spi.h **** {
 499:../../../libs/smtc-hal-mcu-stm32l4/third_party/STM32CubeL4/Drivers/STM32L4xx_HAL_Driver/Inc/stm32l4xx_ll_spi.h ****   return (uint32_t)(READ_BIT(SPIx->CR1, SPI_CR1_CPOL));
 500:../../../libs/smtc-hal-mcu-stm32l4/third_party/STM32CubeL4/Drivers/STM32L4xx_HAL_Driver/Inc/stm32l4xx_ll_spi.h **** }
 501:../../../libs/smtc-hal-mcu-stm32l4/third_party/STM32CubeL4/Drivers/STM32L4xx_HAL_Driver/Inc/stm32l4xx_ll_spi.h **** 
 502:../../../libs/smtc-hal-mcu-stm32l4/third_party/STM32CubeL4/Drivers/STM32L4xx_HAL_Driver/Inc/stm32l4xx_ll_spi.h **** /**
 503:../../../libs/smtc-hal-mcu-stm32l4/third_party/STM32CubeL4/Drivers/STM32L4xx_HAL_Driver/Inc/stm32l4xx_ll_spi.h ****   * @brief  Set baud rate prescaler
 504:../../../libs/smtc-hal-mcu-stm32l4/third_party/STM32CubeL4/Drivers/STM32L4xx_HAL_Driver/Inc/stm32l4xx_ll_spi.h ****   * @note   These bits should not be changed when communication is ongoing. SPI BaudRate = fPCLK/Pr
 505:../../../libs/smtc-hal-mcu-stm32l4/third_party/STM32CubeL4/Drivers/STM32L4xx_HAL_Driver/Inc/stm32l4xx_ll_spi.h ****   * @rmtoll CR1          BR            LL_SPI_SetBaudRatePrescaler
 506:../../../libs/smtc-hal-mcu-stm32l4/third_party/STM32CubeL4/Drivers/STM32L4xx_HAL_Driver/Inc/stm32l4xx_ll_spi.h ****   * @param  SPIx SPI Instance
 507:../../../libs/smtc-hal-mcu-stm32l4/third_party/STM32CubeL4/Drivers/STM32L4xx_HAL_Driver/Inc/stm32l4xx_ll_spi.h ****   * @param  BaudRate This parameter can be one of the following values:
 508:../../../libs/smtc-hal-mcu-stm32l4/third_party/STM32CubeL4/Drivers/STM32L4xx_HAL_Driver/Inc/stm32l4xx_ll_spi.h ****   *         @arg @ref LL_SPI_BAUDRATEPRESCALER_DIV2
 509:../../../libs/smtc-hal-mcu-stm32l4/third_party/STM32CubeL4/Drivers/STM32L4xx_HAL_Driver/Inc/stm32l4xx_ll_spi.h ****   *         @arg @ref LL_SPI_BAUDRATEPRESCALER_DIV4
 510:../../../libs/smtc-hal-mcu-stm32l4/third_party/STM32CubeL4/Drivers/STM32L4xx_HAL_Driver/Inc/stm32l4xx_ll_spi.h ****   *         @arg @ref LL_SPI_BAUDRATEPRESCALER_DIV8
ARM GAS  C:\msys64\tmp\ccnxnf43.s 			page 13


 511:../../../libs/smtc-hal-mcu-stm32l4/third_party/STM32CubeL4/Drivers/STM32L4xx_HAL_Driver/Inc/stm32l4xx_ll_spi.h ****   *         @arg @ref LL_SPI_BAUDRATEPRESCALER_DIV16
 512:../../../libs/smtc-hal-mcu-stm32l4/third_party/STM32CubeL4/Drivers/STM32L4xx_HAL_Driver/Inc/stm32l4xx_ll_spi.h ****   *         @arg @ref LL_SPI_BAUDRATEPRESCALER_DIV32
 513:../../../libs/smtc-hal-mcu-stm32l4/third_party/STM32CubeL4/Drivers/STM32L4xx_HAL_Driver/Inc/stm32l4xx_ll_spi.h ****   *         @arg @ref LL_SPI_BAUDRATEPRESCALER_DIV64
 514:../../../libs/smtc-hal-mcu-stm32l4/third_party/STM32CubeL4/Drivers/STM32L4xx_HAL_Driver/Inc/stm32l4xx_ll_spi.h ****   *         @arg @ref LL_SPI_BAUDRATEPRESCALER_DIV128
 515:../../../libs/smtc-hal-mcu-stm32l4/third_party/STM32CubeL4/Drivers/STM32L4xx_HAL_Driver/Inc/stm32l4xx_ll_spi.h ****   *         @arg @ref LL_SPI_BAUDRATEPRESCALER_DIV256
 516:../../../libs/smtc-hal-mcu-stm32l4/third_party/STM32CubeL4/Drivers/STM32L4xx_HAL_Driver/Inc/stm32l4xx_ll_spi.h ****   * @retval None
 517:../../../libs/smtc-hal-mcu-stm32l4/third_party/STM32CubeL4/Drivers/STM32L4xx_HAL_Driver/Inc/stm32l4xx_ll_spi.h ****   */
 518:../../../libs/smtc-hal-mcu-stm32l4/third_party/STM32CubeL4/Drivers/STM32L4xx_HAL_Driver/Inc/stm32l4xx_ll_spi.h **** __STATIC_INLINE void LL_SPI_SetBaudRatePrescaler(SPI_TypeDef *SPIx, uint32_t BaudRate)
 519:../../../libs/smtc-hal-mcu-stm32l4/third_party/STM32CubeL4/Drivers/STM32L4xx_HAL_Driver/Inc/stm32l4xx_ll_spi.h **** {
 520:../../../libs/smtc-hal-mcu-stm32l4/third_party/STM32CubeL4/Drivers/STM32L4xx_HAL_Driver/Inc/stm32l4xx_ll_spi.h ****   MODIFY_REG(SPIx->CR1, SPI_CR1_BR, BaudRate);
 521:../../../libs/smtc-hal-mcu-stm32l4/third_party/STM32CubeL4/Drivers/STM32L4xx_HAL_Driver/Inc/stm32l4xx_ll_spi.h **** }
 522:../../../libs/smtc-hal-mcu-stm32l4/third_party/STM32CubeL4/Drivers/STM32L4xx_HAL_Driver/Inc/stm32l4xx_ll_spi.h **** 
 523:../../../libs/smtc-hal-mcu-stm32l4/third_party/STM32CubeL4/Drivers/STM32L4xx_HAL_Driver/Inc/stm32l4xx_ll_spi.h **** /**
 524:../../../libs/smtc-hal-mcu-stm32l4/third_party/STM32CubeL4/Drivers/STM32L4xx_HAL_Driver/Inc/stm32l4xx_ll_spi.h ****   * @brief  Get baud rate prescaler
 525:../../../libs/smtc-hal-mcu-stm32l4/third_party/STM32CubeL4/Drivers/STM32L4xx_HAL_Driver/Inc/stm32l4xx_ll_spi.h ****   * @rmtoll CR1          BR            LL_SPI_GetBaudRatePrescaler
 526:../../../libs/smtc-hal-mcu-stm32l4/third_party/STM32CubeL4/Drivers/STM32L4xx_HAL_Driver/Inc/stm32l4xx_ll_spi.h ****   * @param  SPIx SPI Instance
 527:../../../libs/smtc-hal-mcu-stm32l4/third_party/STM32CubeL4/Drivers/STM32L4xx_HAL_Driver/Inc/stm32l4xx_ll_spi.h ****   * @retval Returned value can be one of the following values:
 528:../../../libs/smtc-hal-mcu-stm32l4/third_party/STM32CubeL4/Drivers/STM32L4xx_HAL_Driver/Inc/stm32l4xx_ll_spi.h ****   *         @arg @ref LL_SPI_BAUDRATEPRESCALER_DIV2
 529:../../../libs/smtc-hal-mcu-stm32l4/third_party/STM32CubeL4/Drivers/STM32L4xx_HAL_Driver/Inc/stm32l4xx_ll_spi.h ****   *         @arg @ref LL_SPI_BAUDRATEPRESCALER_DIV4
 530:../../../libs/smtc-hal-mcu-stm32l4/third_party/STM32CubeL4/Drivers/STM32L4xx_HAL_Driver/Inc/stm32l4xx_ll_spi.h ****   *         @arg @ref LL_SPI_BAUDRATEPRESCALER_DIV8
 531:../../../libs/smtc-hal-mcu-stm32l4/third_party/STM32CubeL4/Drivers/STM32L4xx_HAL_Driver/Inc/stm32l4xx_ll_spi.h ****   *         @arg @ref LL_SPI_BAUDRATEPRESCALER_DIV16
 532:../../../libs/smtc-hal-mcu-stm32l4/third_party/STM32CubeL4/Drivers/STM32L4xx_HAL_Driver/Inc/stm32l4xx_ll_spi.h ****   *         @arg @ref LL_SPI_BAUDRATEPRESCALER_DIV32
 533:../../../libs/smtc-hal-mcu-stm32l4/third_party/STM32CubeL4/Drivers/STM32L4xx_HAL_Driver/Inc/stm32l4xx_ll_spi.h ****   *         @arg @ref LL_SPI_BAUDRATEPRESCALER_DIV64
 534:../../../libs/smtc-hal-mcu-stm32l4/third_party/STM32CubeL4/Drivers/STM32L4xx_HAL_Driver/Inc/stm32l4xx_ll_spi.h ****   *         @arg @ref LL_SPI_BAUDRATEPRESCALER_DIV128
 535:../../../libs/smtc-hal-mcu-stm32l4/third_party/STM32CubeL4/Drivers/STM32L4xx_HAL_Driver/Inc/stm32l4xx_ll_spi.h ****   *         @arg @ref LL_SPI_BAUDRATEPRESCALER_DIV256
 536:../../../libs/smtc-hal-mcu-stm32l4/third_party/STM32CubeL4/Drivers/STM32L4xx_HAL_Driver/Inc/stm32l4xx_ll_spi.h ****   */
 537:../../../libs/smtc-hal-mcu-stm32l4/third_party/STM32CubeL4/Drivers/STM32L4xx_HAL_Driver/Inc/stm32l4xx_ll_spi.h **** __STATIC_INLINE uint32_t LL_SPI_GetBaudRatePrescaler(SPI_TypeDef *SPIx)
 538:../../../libs/smtc-hal-mcu-stm32l4/third_party/STM32CubeL4/Drivers/STM32L4xx_HAL_Driver/Inc/stm32l4xx_ll_spi.h **** {
 539:../../../libs/smtc-hal-mcu-stm32l4/third_party/STM32CubeL4/Drivers/STM32L4xx_HAL_Driver/Inc/stm32l4xx_ll_spi.h ****   return (uint32_t)(READ_BIT(SPIx->CR1, SPI_CR1_BR));
 540:../../../libs/smtc-hal-mcu-stm32l4/third_party/STM32CubeL4/Drivers/STM32L4xx_HAL_Driver/Inc/stm32l4xx_ll_spi.h **** }
 541:../../../libs/smtc-hal-mcu-stm32l4/third_party/STM32CubeL4/Drivers/STM32L4xx_HAL_Driver/Inc/stm32l4xx_ll_spi.h **** 
 542:../../../libs/smtc-hal-mcu-stm32l4/third_party/STM32CubeL4/Drivers/STM32L4xx_HAL_Driver/Inc/stm32l4xx_ll_spi.h **** /**
 543:../../../libs/smtc-hal-mcu-stm32l4/third_party/STM32CubeL4/Drivers/STM32L4xx_HAL_Driver/Inc/stm32l4xx_ll_spi.h ****   * @brief  Set transfer bit order
 544:../../../libs/smtc-hal-mcu-stm32l4/third_party/STM32CubeL4/Drivers/STM32L4xx_HAL_Driver/Inc/stm32l4xx_ll_spi.h ****   * @note   This bit should not be changed when communication is ongoing. This bit is not used in S
 545:../../../libs/smtc-hal-mcu-stm32l4/third_party/STM32CubeL4/Drivers/STM32L4xx_HAL_Driver/Inc/stm32l4xx_ll_spi.h ****   * @rmtoll CR1          LSBFIRST      LL_SPI_SetTransferBitOrder
 546:../../../libs/smtc-hal-mcu-stm32l4/third_party/STM32CubeL4/Drivers/STM32L4xx_HAL_Driver/Inc/stm32l4xx_ll_spi.h ****   * @param  SPIx SPI Instance
 547:../../../libs/smtc-hal-mcu-stm32l4/third_party/STM32CubeL4/Drivers/STM32L4xx_HAL_Driver/Inc/stm32l4xx_ll_spi.h ****   * @param  BitOrder This parameter can be one of the following values:
 548:../../../libs/smtc-hal-mcu-stm32l4/third_party/STM32CubeL4/Drivers/STM32L4xx_HAL_Driver/Inc/stm32l4xx_ll_spi.h ****   *         @arg @ref LL_SPI_LSB_FIRST
 549:../../../libs/smtc-hal-mcu-stm32l4/third_party/STM32CubeL4/Drivers/STM32L4xx_HAL_Driver/Inc/stm32l4xx_ll_spi.h ****   *         @arg @ref LL_SPI_MSB_FIRST
 550:../../../libs/smtc-hal-mcu-stm32l4/third_party/STM32CubeL4/Drivers/STM32L4xx_HAL_Driver/Inc/stm32l4xx_ll_spi.h ****   * @retval None
 551:../../../libs/smtc-hal-mcu-stm32l4/third_party/STM32CubeL4/Drivers/STM32L4xx_HAL_Driver/Inc/stm32l4xx_ll_spi.h ****   */
 552:../../../libs/smtc-hal-mcu-stm32l4/third_party/STM32CubeL4/Drivers/STM32L4xx_HAL_Driver/Inc/stm32l4xx_ll_spi.h **** __STATIC_INLINE void LL_SPI_SetTransferBitOrder(SPI_TypeDef *SPIx, uint32_t BitOrder)
 553:../../../libs/smtc-hal-mcu-stm32l4/third_party/STM32CubeL4/Drivers/STM32L4xx_HAL_Driver/Inc/stm32l4xx_ll_spi.h **** {
 554:../../../libs/smtc-hal-mcu-stm32l4/third_party/STM32CubeL4/Drivers/STM32L4xx_HAL_Driver/Inc/stm32l4xx_ll_spi.h ****   MODIFY_REG(SPIx->CR1, SPI_CR1_LSBFIRST, BitOrder);
 555:../../../libs/smtc-hal-mcu-stm32l4/third_party/STM32CubeL4/Drivers/STM32L4xx_HAL_Driver/Inc/stm32l4xx_ll_spi.h **** }
 556:../../../libs/smtc-hal-mcu-stm32l4/third_party/STM32CubeL4/Drivers/STM32L4xx_HAL_Driver/Inc/stm32l4xx_ll_spi.h **** 
 557:../../../libs/smtc-hal-mcu-stm32l4/third_party/STM32CubeL4/Drivers/STM32L4xx_HAL_Driver/Inc/stm32l4xx_ll_spi.h **** /**
 558:../../../libs/smtc-hal-mcu-stm32l4/third_party/STM32CubeL4/Drivers/STM32L4xx_HAL_Driver/Inc/stm32l4xx_ll_spi.h ****   * @brief  Get transfer bit order
 559:../../../libs/smtc-hal-mcu-stm32l4/third_party/STM32CubeL4/Drivers/STM32L4xx_HAL_Driver/Inc/stm32l4xx_ll_spi.h ****   * @rmtoll CR1          LSBFIRST      LL_SPI_GetTransferBitOrder
 560:../../../libs/smtc-hal-mcu-stm32l4/third_party/STM32CubeL4/Drivers/STM32L4xx_HAL_Driver/Inc/stm32l4xx_ll_spi.h ****   * @param  SPIx SPI Instance
 561:../../../libs/smtc-hal-mcu-stm32l4/third_party/STM32CubeL4/Drivers/STM32L4xx_HAL_Driver/Inc/stm32l4xx_ll_spi.h ****   * @retval Returned value can be one of the following values:
 562:../../../libs/smtc-hal-mcu-stm32l4/third_party/STM32CubeL4/Drivers/STM32L4xx_HAL_Driver/Inc/stm32l4xx_ll_spi.h ****   *         @arg @ref LL_SPI_LSB_FIRST
 563:../../../libs/smtc-hal-mcu-stm32l4/third_party/STM32CubeL4/Drivers/STM32L4xx_HAL_Driver/Inc/stm32l4xx_ll_spi.h ****   *         @arg @ref LL_SPI_MSB_FIRST
 564:../../../libs/smtc-hal-mcu-stm32l4/third_party/STM32CubeL4/Drivers/STM32L4xx_HAL_Driver/Inc/stm32l4xx_ll_spi.h ****   */
 565:../../../libs/smtc-hal-mcu-stm32l4/third_party/STM32CubeL4/Drivers/STM32L4xx_HAL_Driver/Inc/stm32l4xx_ll_spi.h **** __STATIC_INLINE uint32_t LL_SPI_GetTransferBitOrder(SPI_TypeDef *SPIx)
 566:../../../libs/smtc-hal-mcu-stm32l4/third_party/STM32CubeL4/Drivers/STM32L4xx_HAL_Driver/Inc/stm32l4xx_ll_spi.h **** {
 567:../../../libs/smtc-hal-mcu-stm32l4/third_party/STM32CubeL4/Drivers/STM32L4xx_HAL_Driver/Inc/stm32l4xx_ll_spi.h ****   return (uint32_t)(READ_BIT(SPIx->CR1, SPI_CR1_LSBFIRST));
ARM GAS  C:\msys64\tmp\ccnxnf43.s 			page 14


 568:../../../libs/smtc-hal-mcu-stm32l4/third_party/STM32CubeL4/Drivers/STM32L4xx_HAL_Driver/Inc/stm32l4xx_ll_spi.h **** }
 569:../../../libs/smtc-hal-mcu-stm32l4/third_party/STM32CubeL4/Drivers/STM32L4xx_HAL_Driver/Inc/stm32l4xx_ll_spi.h **** 
 570:../../../libs/smtc-hal-mcu-stm32l4/third_party/STM32CubeL4/Drivers/STM32L4xx_HAL_Driver/Inc/stm32l4xx_ll_spi.h **** /**
 571:../../../libs/smtc-hal-mcu-stm32l4/third_party/STM32CubeL4/Drivers/STM32L4xx_HAL_Driver/Inc/stm32l4xx_ll_spi.h ****   * @brief  Set transfer direction mode
 572:../../../libs/smtc-hal-mcu-stm32l4/third_party/STM32CubeL4/Drivers/STM32L4xx_HAL_Driver/Inc/stm32l4xx_ll_spi.h ****   * @note   For Half-Duplex mode, Rx Direction is set by default.
 573:../../../libs/smtc-hal-mcu-stm32l4/third_party/STM32CubeL4/Drivers/STM32L4xx_HAL_Driver/Inc/stm32l4xx_ll_spi.h ****   *         In master mode, the MOSI pin is used and in slave mode, the MISO pin is used for Half-D
 574:../../../libs/smtc-hal-mcu-stm32l4/third_party/STM32CubeL4/Drivers/STM32L4xx_HAL_Driver/Inc/stm32l4xx_ll_spi.h ****   * @rmtoll CR1          RXONLY        LL_SPI_SetTransferDirection\n
 575:../../../libs/smtc-hal-mcu-stm32l4/third_party/STM32CubeL4/Drivers/STM32L4xx_HAL_Driver/Inc/stm32l4xx_ll_spi.h ****   *         CR1          BIDIMODE      LL_SPI_SetTransferDirection\n
 576:../../../libs/smtc-hal-mcu-stm32l4/third_party/STM32CubeL4/Drivers/STM32L4xx_HAL_Driver/Inc/stm32l4xx_ll_spi.h ****   *         CR1          BIDIOE        LL_SPI_SetTransferDirection
 577:../../../libs/smtc-hal-mcu-stm32l4/third_party/STM32CubeL4/Drivers/STM32L4xx_HAL_Driver/Inc/stm32l4xx_ll_spi.h ****   * @param  SPIx SPI Instance
 578:../../../libs/smtc-hal-mcu-stm32l4/third_party/STM32CubeL4/Drivers/STM32L4xx_HAL_Driver/Inc/stm32l4xx_ll_spi.h ****   * @param  TransferDirection This parameter can be one of the following values:
 579:../../../libs/smtc-hal-mcu-stm32l4/third_party/STM32CubeL4/Drivers/STM32L4xx_HAL_Driver/Inc/stm32l4xx_ll_spi.h ****   *         @arg @ref LL_SPI_FULL_DUPLEX
 580:../../../libs/smtc-hal-mcu-stm32l4/third_party/STM32CubeL4/Drivers/STM32L4xx_HAL_Driver/Inc/stm32l4xx_ll_spi.h ****   *         @arg @ref LL_SPI_SIMPLEX_RX
 581:../../../libs/smtc-hal-mcu-stm32l4/third_party/STM32CubeL4/Drivers/STM32L4xx_HAL_Driver/Inc/stm32l4xx_ll_spi.h ****   *         @arg @ref LL_SPI_HALF_DUPLEX_RX
 582:../../../libs/smtc-hal-mcu-stm32l4/third_party/STM32CubeL4/Drivers/STM32L4xx_HAL_Driver/Inc/stm32l4xx_ll_spi.h ****   *         @arg @ref LL_SPI_HALF_DUPLEX_TX
 583:../../../libs/smtc-hal-mcu-stm32l4/third_party/STM32CubeL4/Drivers/STM32L4xx_HAL_Driver/Inc/stm32l4xx_ll_spi.h ****   * @retval None
 584:../../../libs/smtc-hal-mcu-stm32l4/third_party/STM32CubeL4/Drivers/STM32L4xx_HAL_Driver/Inc/stm32l4xx_ll_spi.h ****   */
 585:../../../libs/smtc-hal-mcu-stm32l4/third_party/STM32CubeL4/Drivers/STM32L4xx_HAL_Driver/Inc/stm32l4xx_ll_spi.h **** __STATIC_INLINE void LL_SPI_SetTransferDirection(SPI_TypeDef *SPIx, uint32_t TransferDirection)
 586:../../../libs/smtc-hal-mcu-stm32l4/third_party/STM32CubeL4/Drivers/STM32L4xx_HAL_Driver/Inc/stm32l4xx_ll_spi.h **** {
 587:../../../libs/smtc-hal-mcu-stm32l4/third_party/STM32CubeL4/Drivers/STM32L4xx_HAL_Driver/Inc/stm32l4xx_ll_spi.h ****   MODIFY_REG(SPIx->CR1, SPI_CR1_RXONLY | SPI_CR1_BIDIMODE | SPI_CR1_BIDIOE, TransferDirection);
 588:../../../libs/smtc-hal-mcu-stm32l4/third_party/STM32CubeL4/Drivers/STM32L4xx_HAL_Driver/Inc/stm32l4xx_ll_spi.h **** }
 589:../../../libs/smtc-hal-mcu-stm32l4/third_party/STM32CubeL4/Drivers/STM32L4xx_HAL_Driver/Inc/stm32l4xx_ll_spi.h **** 
 590:../../../libs/smtc-hal-mcu-stm32l4/third_party/STM32CubeL4/Drivers/STM32L4xx_HAL_Driver/Inc/stm32l4xx_ll_spi.h **** /**
 591:../../../libs/smtc-hal-mcu-stm32l4/third_party/STM32CubeL4/Drivers/STM32L4xx_HAL_Driver/Inc/stm32l4xx_ll_spi.h ****   * @brief  Get transfer direction mode
 592:../../../libs/smtc-hal-mcu-stm32l4/third_party/STM32CubeL4/Drivers/STM32L4xx_HAL_Driver/Inc/stm32l4xx_ll_spi.h ****   * @rmtoll CR1          RXONLY        LL_SPI_GetTransferDirection\n
 593:../../../libs/smtc-hal-mcu-stm32l4/third_party/STM32CubeL4/Drivers/STM32L4xx_HAL_Driver/Inc/stm32l4xx_ll_spi.h ****   *         CR1          BIDIMODE      LL_SPI_GetTransferDirection\n
 594:../../../libs/smtc-hal-mcu-stm32l4/third_party/STM32CubeL4/Drivers/STM32L4xx_HAL_Driver/Inc/stm32l4xx_ll_spi.h ****   *         CR1          BIDIOE        LL_SPI_GetTransferDirection
 595:../../../libs/smtc-hal-mcu-stm32l4/third_party/STM32CubeL4/Drivers/STM32L4xx_HAL_Driver/Inc/stm32l4xx_ll_spi.h ****   * @param  SPIx SPI Instance
 596:../../../libs/smtc-hal-mcu-stm32l4/third_party/STM32CubeL4/Drivers/STM32L4xx_HAL_Driver/Inc/stm32l4xx_ll_spi.h ****   * @retval Returned value can be one of the following values:
 597:../../../libs/smtc-hal-mcu-stm32l4/third_party/STM32CubeL4/Drivers/STM32L4xx_HAL_Driver/Inc/stm32l4xx_ll_spi.h ****   *         @arg @ref LL_SPI_FULL_DUPLEX
 598:../../../libs/smtc-hal-mcu-stm32l4/third_party/STM32CubeL4/Drivers/STM32L4xx_HAL_Driver/Inc/stm32l4xx_ll_spi.h ****   *         @arg @ref LL_SPI_SIMPLEX_RX
 599:../../../libs/smtc-hal-mcu-stm32l4/third_party/STM32CubeL4/Drivers/STM32L4xx_HAL_Driver/Inc/stm32l4xx_ll_spi.h ****   *         @arg @ref LL_SPI_HALF_DUPLEX_RX
 600:../../../libs/smtc-hal-mcu-stm32l4/third_party/STM32CubeL4/Drivers/STM32L4xx_HAL_Driver/Inc/stm32l4xx_ll_spi.h ****   *         @arg @ref LL_SPI_HALF_DUPLEX_TX
 601:../../../libs/smtc-hal-mcu-stm32l4/third_party/STM32CubeL4/Drivers/STM32L4xx_HAL_Driver/Inc/stm32l4xx_ll_spi.h ****   */
 602:../../../libs/smtc-hal-mcu-stm32l4/third_party/STM32CubeL4/Drivers/STM32L4xx_HAL_Driver/Inc/stm32l4xx_ll_spi.h **** __STATIC_INLINE uint32_t LL_SPI_GetTransferDirection(SPI_TypeDef *SPIx)
 603:../../../libs/smtc-hal-mcu-stm32l4/third_party/STM32CubeL4/Drivers/STM32L4xx_HAL_Driver/Inc/stm32l4xx_ll_spi.h **** {
 604:../../../libs/smtc-hal-mcu-stm32l4/third_party/STM32CubeL4/Drivers/STM32L4xx_HAL_Driver/Inc/stm32l4xx_ll_spi.h ****   return (uint32_t)(READ_BIT(SPIx->CR1, SPI_CR1_RXONLY | SPI_CR1_BIDIMODE | SPI_CR1_BIDIOE));
 605:../../../libs/smtc-hal-mcu-stm32l4/third_party/STM32CubeL4/Drivers/STM32L4xx_HAL_Driver/Inc/stm32l4xx_ll_spi.h **** }
 606:../../../libs/smtc-hal-mcu-stm32l4/third_party/STM32CubeL4/Drivers/STM32L4xx_HAL_Driver/Inc/stm32l4xx_ll_spi.h **** 
 607:../../../libs/smtc-hal-mcu-stm32l4/third_party/STM32CubeL4/Drivers/STM32L4xx_HAL_Driver/Inc/stm32l4xx_ll_spi.h **** /**
 608:../../../libs/smtc-hal-mcu-stm32l4/third_party/STM32CubeL4/Drivers/STM32L4xx_HAL_Driver/Inc/stm32l4xx_ll_spi.h ****   * @brief  Set frame data width
 609:../../../libs/smtc-hal-mcu-stm32l4/third_party/STM32CubeL4/Drivers/STM32L4xx_HAL_Driver/Inc/stm32l4xx_ll_spi.h ****   * @rmtoll CR2          DS            LL_SPI_SetDataWidth
 610:../../../libs/smtc-hal-mcu-stm32l4/third_party/STM32CubeL4/Drivers/STM32L4xx_HAL_Driver/Inc/stm32l4xx_ll_spi.h ****   * @param  SPIx SPI Instance
 611:../../../libs/smtc-hal-mcu-stm32l4/third_party/STM32CubeL4/Drivers/STM32L4xx_HAL_Driver/Inc/stm32l4xx_ll_spi.h ****   * @param  DataWidth This parameter can be one of the following values:
 612:../../../libs/smtc-hal-mcu-stm32l4/third_party/STM32CubeL4/Drivers/STM32L4xx_HAL_Driver/Inc/stm32l4xx_ll_spi.h ****   *         @arg @ref LL_SPI_DATAWIDTH_4BIT
 613:../../../libs/smtc-hal-mcu-stm32l4/third_party/STM32CubeL4/Drivers/STM32L4xx_HAL_Driver/Inc/stm32l4xx_ll_spi.h ****   *         @arg @ref LL_SPI_DATAWIDTH_5BIT
 614:../../../libs/smtc-hal-mcu-stm32l4/third_party/STM32CubeL4/Drivers/STM32L4xx_HAL_Driver/Inc/stm32l4xx_ll_spi.h ****   *         @arg @ref LL_SPI_DATAWIDTH_6BIT
 615:../../../libs/smtc-hal-mcu-stm32l4/third_party/STM32CubeL4/Drivers/STM32L4xx_HAL_Driver/Inc/stm32l4xx_ll_spi.h ****   *         @arg @ref LL_SPI_DATAWIDTH_7BIT
 616:../../../libs/smtc-hal-mcu-stm32l4/third_party/STM32CubeL4/Drivers/STM32L4xx_HAL_Driver/Inc/stm32l4xx_ll_spi.h ****   *         @arg @ref LL_SPI_DATAWIDTH_8BIT
 617:../../../libs/smtc-hal-mcu-stm32l4/third_party/STM32CubeL4/Drivers/STM32L4xx_HAL_Driver/Inc/stm32l4xx_ll_spi.h ****   *         @arg @ref LL_SPI_DATAWIDTH_9BIT
 618:../../../libs/smtc-hal-mcu-stm32l4/third_party/STM32CubeL4/Drivers/STM32L4xx_HAL_Driver/Inc/stm32l4xx_ll_spi.h ****   *         @arg @ref LL_SPI_DATAWIDTH_10BIT
 619:../../../libs/smtc-hal-mcu-stm32l4/third_party/STM32CubeL4/Drivers/STM32L4xx_HAL_Driver/Inc/stm32l4xx_ll_spi.h ****   *         @arg @ref LL_SPI_DATAWIDTH_11BIT
 620:../../../libs/smtc-hal-mcu-stm32l4/third_party/STM32CubeL4/Drivers/STM32L4xx_HAL_Driver/Inc/stm32l4xx_ll_spi.h ****   *         @arg @ref LL_SPI_DATAWIDTH_12BIT
 621:../../../libs/smtc-hal-mcu-stm32l4/third_party/STM32CubeL4/Drivers/STM32L4xx_HAL_Driver/Inc/stm32l4xx_ll_spi.h ****   *         @arg @ref LL_SPI_DATAWIDTH_13BIT
 622:../../../libs/smtc-hal-mcu-stm32l4/third_party/STM32CubeL4/Drivers/STM32L4xx_HAL_Driver/Inc/stm32l4xx_ll_spi.h ****   *         @arg @ref LL_SPI_DATAWIDTH_14BIT
 623:../../../libs/smtc-hal-mcu-stm32l4/third_party/STM32CubeL4/Drivers/STM32L4xx_HAL_Driver/Inc/stm32l4xx_ll_spi.h ****   *         @arg @ref LL_SPI_DATAWIDTH_15BIT
 624:../../../libs/smtc-hal-mcu-stm32l4/third_party/STM32CubeL4/Drivers/STM32L4xx_HAL_Driver/Inc/stm32l4xx_ll_spi.h ****   *         @arg @ref LL_SPI_DATAWIDTH_16BIT
ARM GAS  C:\msys64\tmp\ccnxnf43.s 			page 15


 625:../../../libs/smtc-hal-mcu-stm32l4/third_party/STM32CubeL4/Drivers/STM32L4xx_HAL_Driver/Inc/stm32l4xx_ll_spi.h ****   * @retval None
 626:../../../libs/smtc-hal-mcu-stm32l4/third_party/STM32CubeL4/Drivers/STM32L4xx_HAL_Driver/Inc/stm32l4xx_ll_spi.h ****   */
 627:../../../libs/smtc-hal-mcu-stm32l4/third_party/STM32CubeL4/Drivers/STM32L4xx_HAL_Driver/Inc/stm32l4xx_ll_spi.h **** __STATIC_INLINE void LL_SPI_SetDataWidth(SPI_TypeDef *SPIx, uint32_t DataWidth)
 628:../../../libs/smtc-hal-mcu-stm32l4/third_party/STM32CubeL4/Drivers/STM32L4xx_HAL_Driver/Inc/stm32l4xx_ll_spi.h **** {
 629:../../../libs/smtc-hal-mcu-stm32l4/third_party/STM32CubeL4/Drivers/STM32L4xx_HAL_Driver/Inc/stm32l4xx_ll_spi.h ****   MODIFY_REG(SPIx->CR2, SPI_CR2_DS, DataWidth);
 630:../../../libs/smtc-hal-mcu-stm32l4/third_party/STM32CubeL4/Drivers/STM32L4xx_HAL_Driver/Inc/stm32l4xx_ll_spi.h **** }
 631:../../../libs/smtc-hal-mcu-stm32l4/third_party/STM32CubeL4/Drivers/STM32L4xx_HAL_Driver/Inc/stm32l4xx_ll_spi.h **** 
 632:../../../libs/smtc-hal-mcu-stm32l4/third_party/STM32CubeL4/Drivers/STM32L4xx_HAL_Driver/Inc/stm32l4xx_ll_spi.h **** /**
 633:../../../libs/smtc-hal-mcu-stm32l4/third_party/STM32CubeL4/Drivers/STM32L4xx_HAL_Driver/Inc/stm32l4xx_ll_spi.h ****   * @brief  Get frame data width
 634:../../../libs/smtc-hal-mcu-stm32l4/third_party/STM32CubeL4/Drivers/STM32L4xx_HAL_Driver/Inc/stm32l4xx_ll_spi.h ****   * @rmtoll CR2          DS            LL_SPI_GetDataWidth
 635:../../../libs/smtc-hal-mcu-stm32l4/third_party/STM32CubeL4/Drivers/STM32L4xx_HAL_Driver/Inc/stm32l4xx_ll_spi.h ****   * @param  SPIx SPI Instance
 636:../../../libs/smtc-hal-mcu-stm32l4/third_party/STM32CubeL4/Drivers/STM32L4xx_HAL_Driver/Inc/stm32l4xx_ll_spi.h ****   * @retval Returned value can be one of the following values:
 637:../../../libs/smtc-hal-mcu-stm32l4/third_party/STM32CubeL4/Drivers/STM32L4xx_HAL_Driver/Inc/stm32l4xx_ll_spi.h ****   *         @arg @ref LL_SPI_DATAWIDTH_4BIT
 638:../../../libs/smtc-hal-mcu-stm32l4/third_party/STM32CubeL4/Drivers/STM32L4xx_HAL_Driver/Inc/stm32l4xx_ll_spi.h ****   *         @arg @ref LL_SPI_DATAWIDTH_5BIT
 639:../../../libs/smtc-hal-mcu-stm32l4/third_party/STM32CubeL4/Drivers/STM32L4xx_HAL_Driver/Inc/stm32l4xx_ll_spi.h ****   *         @arg @ref LL_SPI_DATAWIDTH_6BIT
 640:../../../libs/smtc-hal-mcu-stm32l4/third_party/STM32CubeL4/Drivers/STM32L4xx_HAL_Driver/Inc/stm32l4xx_ll_spi.h ****   *         @arg @ref LL_SPI_DATAWIDTH_7BIT
 641:../../../libs/smtc-hal-mcu-stm32l4/third_party/STM32CubeL4/Drivers/STM32L4xx_HAL_Driver/Inc/stm32l4xx_ll_spi.h ****   *         @arg @ref LL_SPI_DATAWIDTH_8BIT
 642:../../../libs/smtc-hal-mcu-stm32l4/third_party/STM32CubeL4/Drivers/STM32L4xx_HAL_Driver/Inc/stm32l4xx_ll_spi.h ****   *         @arg @ref LL_SPI_DATAWIDTH_9BIT
 643:../../../libs/smtc-hal-mcu-stm32l4/third_party/STM32CubeL4/Drivers/STM32L4xx_HAL_Driver/Inc/stm32l4xx_ll_spi.h ****   *         @arg @ref LL_SPI_DATAWIDTH_10BIT
 644:../../../libs/smtc-hal-mcu-stm32l4/third_party/STM32CubeL4/Drivers/STM32L4xx_HAL_Driver/Inc/stm32l4xx_ll_spi.h ****   *         @arg @ref LL_SPI_DATAWIDTH_11BIT
 645:../../../libs/smtc-hal-mcu-stm32l4/third_party/STM32CubeL4/Drivers/STM32L4xx_HAL_Driver/Inc/stm32l4xx_ll_spi.h ****   *         @arg @ref LL_SPI_DATAWIDTH_12BIT
 646:../../../libs/smtc-hal-mcu-stm32l4/third_party/STM32CubeL4/Drivers/STM32L4xx_HAL_Driver/Inc/stm32l4xx_ll_spi.h ****   *         @arg @ref LL_SPI_DATAWIDTH_13BIT
 647:../../../libs/smtc-hal-mcu-stm32l4/third_party/STM32CubeL4/Drivers/STM32L4xx_HAL_Driver/Inc/stm32l4xx_ll_spi.h ****   *         @arg @ref LL_SPI_DATAWIDTH_14BIT
 648:../../../libs/smtc-hal-mcu-stm32l4/third_party/STM32CubeL4/Drivers/STM32L4xx_HAL_Driver/Inc/stm32l4xx_ll_spi.h ****   *         @arg @ref LL_SPI_DATAWIDTH_15BIT
 649:../../../libs/smtc-hal-mcu-stm32l4/third_party/STM32CubeL4/Drivers/STM32L4xx_HAL_Driver/Inc/stm32l4xx_ll_spi.h ****   *         @arg @ref LL_SPI_DATAWIDTH_16BIT
 650:../../../libs/smtc-hal-mcu-stm32l4/third_party/STM32CubeL4/Drivers/STM32L4xx_HAL_Driver/Inc/stm32l4xx_ll_spi.h ****   */
 651:../../../libs/smtc-hal-mcu-stm32l4/third_party/STM32CubeL4/Drivers/STM32L4xx_HAL_Driver/Inc/stm32l4xx_ll_spi.h **** __STATIC_INLINE uint32_t LL_SPI_GetDataWidth(SPI_TypeDef *SPIx)
 652:../../../libs/smtc-hal-mcu-stm32l4/third_party/STM32CubeL4/Drivers/STM32L4xx_HAL_Driver/Inc/stm32l4xx_ll_spi.h **** {
 653:../../../libs/smtc-hal-mcu-stm32l4/third_party/STM32CubeL4/Drivers/STM32L4xx_HAL_Driver/Inc/stm32l4xx_ll_spi.h ****   return (uint32_t)(READ_BIT(SPIx->CR2, SPI_CR2_DS));
 654:../../../libs/smtc-hal-mcu-stm32l4/third_party/STM32CubeL4/Drivers/STM32L4xx_HAL_Driver/Inc/stm32l4xx_ll_spi.h **** }
 655:../../../libs/smtc-hal-mcu-stm32l4/third_party/STM32CubeL4/Drivers/STM32L4xx_HAL_Driver/Inc/stm32l4xx_ll_spi.h **** 
 656:../../../libs/smtc-hal-mcu-stm32l4/third_party/STM32CubeL4/Drivers/STM32L4xx_HAL_Driver/Inc/stm32l4xx_ll_spi.h **** /**
 657:../../../libs/smtc-hal-mcu-stm32l4/third_party/STM32CubeL4/Drivers/STM32L4xx_HAL_Driver/Inc/stm32l4xx_ll_spi.h ****   * @brief  Set threshold of RXFIFO that triggers an RXNE event
 658:../../../libs/smtc-hal-mcu-stm32l4/third_party/STM32CubeL4/Drivers/STM32L4xx_HAL_Driver/Inc/stm32l4xx_ll_spi.h ****   * @rmtoll CR2          FRXTH         LL_SPI_SetRxFIFOThreshold
 659:../../../libs/smtc-hal-mcu-stm32l4/third_party/STM32CubeL4/Drivers/STM32L4xx_HAL_Driver/Inc/stm32l4xx_ll_spi.h ****   * @param  SPIx SPI Instance
 660:../../../libs/smtc-hal-mcu-stm32l4/third_party/STM32CubeL4/Drivers/STM32L4xx_HAL_Driver/Inc/stm32l4xx_ll_spi.h ****   * @param  Threshold This parameter can be one of the following values:
 661:../../../libs/smtc-hal-mcu-stm32l4/third_party/STM32CubeL4/Drivers/STM32L4xx_HAL_Driver/Inc/stm32l4xx_ll_spi.h ****   *         @arg @ref LL_SPI_RX_FIFO_TH_HALF
 662:../../../libs/smtc-hal-mcu-stm32l4/third_party/STM32CubeL4/Drivers/STM32L4xx_HAL_Driver/Inc/stm32l4xx_ll_spi.h ****   *         @arg @ref LL_SPI_RX_FIFO_TH_QUARTER
 663:../../../libs/smtc-hal-mcu-stm32l4/third_party/STM32CubeL4/Drivers/STM32L4xx_HAL_Driver/Inc/stm32l4xx_ll_spi.h ****   * @retval None
 664:../../../libs/smtc-hal-mcu-stm32l4/third_party/STM32CubeL4/Drivers/STM32L4xx_HAL_Driver/Inc/stm32l4xx_ll_spi.h ****   */
 665:../../../libs/smtc-hal-mcu-stm32l4/third_party/STM32CubeL4/Drivers/STM32L4xx_HAL_Driver/Inc/stm32l4xx_ll_spi.h **** __STATIC_INLINE void LL_SPI_SetRxFIFOThreshold(SPI_TypeDef *SPIx, uint32_t Threshold)
 666:../../../libs/smtc-hal-mcu-stm32l4/third_party/STM32CubeL4/Drivers/STM32L4xx_HAL_Driver/Inc/stm32l4xx_ll_spi.h **** {
 182              		.loc 2 666 1
 183              		.cfi_startproc
 184              		@ args = 0, pretend = 0, frame = 8
 185              		@ frame_needed = 1, uses_anonymous_args = 0
 186              		@ link register save eliminated.
 187 0000 80B4     		push	{r7}
 188              	.LCFI18:
 189              		.cfi_def_cfa_offset 4
 190              		.cfi_offset 7, -4
 191 0002 83B0     		sub	sp, sp, #12
 192              	.LCFI19:
 193              		.cfi_def_cfa_offset 16
 194 0004 00AF     		add	r7, sp, #0
 195              	.LCFI20:
 196              		.cfi_def_cfa_register 7
ARM GAS  C:\msys64\tmp\ccnxnf43.s 			page 16


 197 0006 7860     		str	r0, [r7, #4]
 198 0008 3960     		str	r1, [r7]
 667:../../../libs/smtc-hal-mcu-stm32l4/third_party/STM32CubeL4/Drivers/STM32L4xx_HAL_Driver/Inc/stm32l4xx_ll_spi.h ****   MODIFY_REG(SPIx->CR2, SPI_CR2_FRXTH, Threshold);
 199              		.loc 2 667 3
 200 000a 7B68     		ldr	r3, [r7, #4]
 201 000c 5B68     		ldr	r3, [r3, #4]
 202 000e 23F48052 		bic	r2, r3, #4096
 203 0012 3B68     		ldr	r3, [r7]
 204 0014 1A43     		orrs	r2, r2, r3
 205 0016 7B68     		ldr	r3, [r7, #4]
 206 0018 5A60     		str	r2, [r3, #4]
 668:../../../libs/smtc-hal-mcu-stm32l4/third_party/STM32CubeL4/Drivers/STM32L4xx_HAL_Driver/Inc/stm32l4xx_ll_spi.h **** }
 207              		.loc 2 668 1
 208 001a 00BF     		nop
 209 001c 0C37     		adds	r7, r7, #12
 210              	.LCFI21:
 211              		.cfi_def_cfa_offset 4
 212 001e BD46     		mov	sp, r7
 213              	.LCFI22:
 214              		.cfi_def_cfa_register 13
 215              		@ sp needed
 216 0020 5DF8047B 		ldr	r7, [sp], #4
 217              	.LCFI23:
 218              		.cfi_restore 7
 219              		.cfi_def_cfa_offset 0
 220 0024 7047     		bx	lr
 221              		.cfi_endproc
 222              	.LFE151:
 224              		.section	.text.LL_SPI_DisableNSSPulseMgt,"ax",%progbits
 225              		.align	1
 226              		.syntax unified
 227              		.thumb
 228              		.thumb_func
 230              	LL_SPI_DisableNSSPulseMgt:
 231              	.LFB166:
 669:../../../libs/smtc-hal-mcu-stm32l4/third_party/STM32CubeL4/Drivers/STM32L4xx_HAL_Driver/Inc/stm32l4xx_ll_spi.h **** 
 670:../../../libs/smtc-hal-mcu-stm32l4/third_party/STM32CubeL4/Drivers/STM32L4xx_HAL_Driver/Inc/stm32l4xx_ll_spi.h **** /**
 671:../../../libs/smtc-hal-mcu-stm32l4/third_party/STM32CubeL4/Drivers/STM32L4xx_HAL_Driver/Inc/stm32l4xx_ll_spi.h ****   * @brief  Get threshold of RXFIFO that triggers an RXNE event
 672:../../../libs/smtc-hal-mcu-stm32l4/third_party/STM32CubeL4/Drivers/STM32L4xx_HAL_Driver/Inc/stm32l4xx_ll_spi.h ****   * @rmtoll CR2          FRXTH         LL_SPI_GetRxFIFOThreshold
 673:../../../libs/smtc-hal-mcu-stm32l4/third_party/STM32CubeL4/Drivers/STM32L4xx_HAL_Driver/Inc/stm32l4xx_ll_spi.h ****   * @param  SPIx SPI Instance
 674:../../../libs/smtc-hal-mcu-stm32l4/third_party/STM32CubeL4/Drivers/STM32L4xx_HAL_Driver/Inc/stm32l4xx_ll_spi.h ****   * @retval Returned value can be one of the following values:
 675:../../../libs/smtc-hal-mcu-stm32l4/third_party/STM32CubeL4/Drivers/STM32L4xx_HAL_Driver/Inc/stm32l4xx_ll_spi.h ****   *         @arg @ref LL_SPI_RX_FIFO_TH_HALF
 676:../../../libs/smtc-hal-mcu-stm32l4/third_party/STM32CubeL4/Drivers/STM32L4xx_HAL_Driver/Inc/stm32l4xx_ll_spi.h ****   *         @arg @ref LL_SPI_RX_FIFO_TH_QUARTER
 677:../../../libs/smtc-hal-mcu-stm32l4/third_party/STM32CubeL4/Drivers/STM32L4xx_HAL_Driver/Inc/stm32l4xx_ll_spi.h ****   */
 678:../../../libs/smtc-hal-mcu-stm32l4/third_party/STM32CubeL4/Drivers/STM32L4xx_HAL_Driver/Inc/stm32l4xx_ll_spi.h **** __STATIC_INLINE uint32_t LL_SPI_GetRxFIFOThreshold(SPI_TypeDef *SPIx)
 679:../../../libs/smtc-hal-mcu-stm32l4/third_party/STM32CubeL4/Drivers/STM32L4xx_HAL_Driver/Inc/stm32l4xx_ll_spi.h **** {
 680:../../../libs/smtc-hal-mcu-stm32l4/third_party/STM32CubeL4/Drivers/STM32L4xx_HAL_Driver/Inc/stm32l4xx_ll_spi.h ****   return (uint32_t)(READ_BIT(SPIx->CR2, SPI_CR2_FRXTH));
 681:../../../libs/smtc-hal-mcu-stm32l4/third_party/STM32CubeL4/Drivers/STM32L4xx_HAL_Driver/Inc/stm32l4xx_ll_spi.h **** }
 682:../../../libs/smtc-hal-mcu-stm32l4/third_party/STM32CubeL4/Drivers/STM32L4xx_HAL_Driver/Inc/stm32l4xx_ll_spi.h **** 
 683:../../../libs/smtc-hal-mcu-stm32l4/third_party/STM32CubeL4/Drivers/STM32L4xx_HAL_Driver/Inc/stm32l4xx_ll_spi.h **** /**
 684:../../../libs/smtc-hal-mcu-stm32l4/third_party/STM32CubeL4/Drivers/STM32L4xx_HAL_Driver/Inc/stm32l4xx_ll_spi.h ****   * @}
 685:../../../libs/smtc-hal-mcu-stm32l4/third_party/STM32CubeL4/Drivers/STM32L4xx_HAL_Driver/Inc/stm32l4xx_ll_spi.h ****   */
 686:../../../libs/smtc-hal-mcu-stm32l4/third_party/STM32CubeL4/Drivers/STM32L4xx_HAL_Driver/Inc/stm32l4xx_ll_spi.h **** 
 687:../../../libs/smtc-hal-mcu-stm32l4/third_party/STM32CubeL4/Drivers/STM32L4xx_HAL_Driver/Inc/stm32l4xx_ll_spi.h **** /** @defgroup SPI_LL_EF_CRC_Management CRC Management
 688:../../../libs/smtc-hal-mcu-stm32l4/third_party/STM32CubeL4/Drivers/STM32L4xx_HAL_Driver/Inc/stm32l4xx_ll_spi.h ****   * @{
 689:../../../libs/smtc-hal-mcu-stm32l4/third_party/STM32CubeL4/Drivers/STM32L4xx_HAL_Driver/Inc/stm32l4xx_ll_spi.h ****   */
 690:../../../libs/smtc-hal-mcu-stm32l4/third_party/STM32CubeL4/Drivers/STM32L4xx_HAL_Driver/Inc/stm32l4xx_ll_spi.h **** 
ARM GAS  C:\msys64\tmp\ccnxnf43.s 			page 17


 691:../../../libs/smtc-hal-mcu-stm32l4/third_party/STM32CubeL4/Drivers/STM32L4xx_HAL_Driver/Inc/stm32l4xx_ll_spi.h **** /**
 692:../../../libs/smtc-hal-mcu-stm32l4/third_party/STM32CubeL4/Drivers/STM32L4xx_HAL_Driver/Inc/stm32l4xx_ll_spi.h ****   * @brief  Enable CRC
 693:../../../libs/smtc-hal-mcu-stm32l4/third_party/STM32CubeL4/Drivers/STM32L4xx_HAL_Driver/Inc/stm32l4xx_ll_spi.h ****   * @note   This bit should be written only when SPI is disabled (SPE = 0) for correct operation.
 694:../../../libs/smtc-hal-mcu-stm32l4/third_party/STM32CubeL4/Drivers/STM32L4xx_HAL_Driver/Inc/stm32l4xx_ll_spi.h ****   * @rmtoll CR1          CRCEN         LL_SPI_EnableCRC
 695:../../../libs/smtc-hal-mcu-stm32l4/third_party/STM32CubeL4/Drivers/STM32L4xx_HAL_Driver/Inc/stm32l4xx_ll_spi.h ****   * @param  SPIx SPI Instance
 696:../../../libs/smtc-hal-mcu-stm32l4/third_party/STM32CubeL4/Drivers/STM32L4xx_HAL_Driver/Inc/stm32l4xx_ll_spi.h ****   * @retval None
 697:../../../libs/smtc-hal-mcu-stm32l4/third_party/STM32CubeL4/Drivers/STM32L4xx_HAL_Driver/Inc/stm32l4xx_ll_spi.h ****   */
 698:../../../libs/smtc-hal-mcu-stm32l4/third_party/STM32CubeL4/Drivers/STM32L4xx_HAL_Driver/Inc/stm32l4xx_ll_spi.h **** __STATIC_INLINE void LL_SPI_EnableCRC(SPI_TypeDef *SPIx)
 699:../../../libs/smtc-hal-mcu-stm32l4/third_party/STM32CubeL4/Drivers/STM32L4xx_HAL_Driver/Inc/stm32l4xx_ll_spi.h **** {
 700:../../../libs/smtc-hal-mcu-stm32l4/third_party/STM32CubeL4/Drivers/STM32L4xx_HAL_Driver/Inc/stm32l4xx_ll_spi.h ****   SET_BIT(SPIx->CR1, SPI_CR1_CRCEN);
 701:../../../libs/smtc-hal-mcu-stm32l4/third_party/STM32CubeL4/Drivers/STM32L4xx_HAL_Driver/Inc/stm32l4xx_ll_spi.h **** }
 702:../../../libs/smtc-hal-mcu-stm32l4/third_party/STM32CubeL4/Drivers/STM32L4xx_HAL_Driver/Inc/stm32l4xx_ll_spi.h **** 
 703:../../../libs/smtc-hal-mcu-stm32l4/third_party/STM32CubeL4/Drivers/STM32L4xx_HAL_Driver/Inc/stm32l4xx_ll_spi.h **** /**
 704:../../../libs/smtc-hal-mcu-stm32l4/third_party/STM32CubeL4/Drivers/STM32L4xx_HAL_Driver/Inc/stm32l4xx_ll_spi.h ****   * @brief  Disable CRC
 705:../../../libs/smtc-hal-mcu-stm32l4/third_party/STM32CubeL4/Drivers/STM32L4xx_HAL_Driver/Inc/stm32l4xx_ll_spi.h ****   * @note   This bit should be written only when SPI is disabled (SPE = 0) for correct operation.
 706:../../../libs/smtc-hal-mcu-stm32l4/third_party/STM32CubeL4/Drivers/STM32L4xx_HAL_Driver/Inc/stm32l4xx_ll_spi.h ****   * @rmtoll CR1          CRCEN         LL_SPI_DisableCRC
 707:../../../libs/smtc-hal-mcu-stm32l4/third_party/STM32CubeL4/Drivers/STM32L4xx_HAL_Driver/Inc/stm32l4xx_ll_spi.h ****   * @param  SPIx SPI Instance
 708:../../../libs/smtc-hal-mcu-stm32l4/third_party/STM32CubeL4/Drivers/STM32L4xx_HAL_Driver/Inc/stm32l4xx_ll_spi.h ****   * @retval None
 709:../../../libs/smtc-hal-mcu-stm32l4/third_party/STM32CubeL4/Drivers/STM32L4xx_HAL_Driver/Inc/stm32l4xx_ll_spi.h ****   */
 710:../../../libs/smtc-hal-mcu-stm32l4/third_party/STM32CubeL4/Drivers/STM32L4xx_HAL_Driver/Inc/stm32l4xx_ll_spi.h **** __STATIC_INLINE void LL_SPI_DisableCRC(SPI_TypeDef *SPIx)
 711:../../../libs/smtc-hal-mcu-stm32l4/third_party/STM32CubeL4/Drivers/STM32L4xx_HAL_Driver/Inc/stm32l4xx_ll_spi.h **** {
 712:../../../libs/smtc-hal-mcu-stm32l4/third_party/STM32CubeL4/Drivers/STM32L4xx_HAL_Driver/Inc/stm32l4xx_ll_spi.h ****   CLEAR_BIT(SPIx->CR1, SPI_CR1_CRCEN);
 713:../../../libs/smtc-hal-mcu-stm32l4/third_party/STM32CubeL4/Drivers/STM32L4xx_HAL_Driver/Inc/stm32l4xx_ll_spi.h **** }
 714:../../../libs/smtc-hal-mcu-stm32l4/third_party/STM32CubeL4/Drivers/STM32L4xx_HAL_Driver/Inc/stm32l4xx_ll_spi.h **** 
 715:../../../libs/smtc-hal-mcu-stm32l4/third_party/STM32CubeL4/Drivers/STM32L4xx_HAL_Driver/Inc/stm32l4xx_ll_spi.h **** /**
 716:../../../libs/smtc-hal-mcu-stm32l4/third_party/STM32CubeL4/Drivers/STM32L4xx_HAL_Driver/Inc/stm32l4xx_ll_spi.h ****   * @brief  Check if CRC is enabled
 717:../../../libs/smtc-hal-mcu-stm32l4/third_party/STM32CubeL4/Drivers/STM32L4xx_HAL_Driver/Inc/stm32l4xx_ll_spi.h ****   * @note   This bit should be written only when SPI is disabled (SPE = 0) for correct operation.
 718:../../../libs/smtc-hal-mcu-stm32l4/third_party/STM32CubeL4/Drivers/STM32L4xx_HAL_Driver/Inc/stm32l4xx_ll_spi.h ****   * @rmtoll CR1          CRCEN         LL_SPI_IsEnabledCRC
 719:../../../libs/smtc-hal-mcu-stm32l4/third_party/STM32CubeL4/Drivers/STM32L4xx_HAL_Driver/Inc/stm32l4xx_ll_spi.h ****   * @param  SPIx SPI Instance
 720:../../../libs/smtc-hal-mcu-stm32l4/third_party/STM32CubeL4/Drivers/STM32L4xx_HAL_Driver/Inc/stm32l4xx_ll_spi.h ****   * @retval State of bit (1 or 0).
 721:../../../libs/smtc-hal-mcu-stm32l4/third_party/STM32CubeL4/Drivers/STM32L4xx_HAL_Driver/Inc/stm32l4xx_ll_spi.h ****   */
 722:../../../libs/smtc-hal-mcu-stm32l4/third_party/STM32CubeL4/Drivers/STM32L4xx_HAL_Driver/Inc/stm32l4xx_ll_spi.h **** __STATIC_INLINE uint32_t LL_SPI_IsEnabledCRC(SPI_TypeDef *SPIx)
 723:../../../libs/smtc-hal-mcu-stm32l4/third_party/STM32CubeL4/Drivers/STM32L4xx_HAL_Driver/Inc/stm32l4xx_ll_spi.h **** {
 724:../../../libs/smtc-hal-mcu-stm32l4/third_party/STM32CubeL4/Drivers/STM32L4xx_HAL_Driver/Inc/stm32l4xx_ll_spi.h ****   return ((READ_BIT(SPIx->CR1, SPI_CR1_CRCEN) == (SPI_CR1_CRCEN)) ? 1UL : 0UL);
 725:../../../libs/smtc-hal-mcu-stm32l4/third_party/STM32CubeL4/Drivers/STM32L4xx_HAL_Driver/Inc/stm32l4xx_ll_spi.h **** }
 726:../../../libs/smtc-hal-mcu-stm32l4/third_party/STM32CubeL4/Drivers/STM32L4xx_HAL_Driver/Inc/stm32l4xx_ll_spi.h **** 
 727:../../../libs/smtc-hal-mcu-stm32l4/third_party/STM32CubeL4/Drivers/STM32L4xx_HAL_Driver/Inc/stm32l4xx_ll_spi.h **** /**
 728:../../../libs/smtc-hal-mcu-stm32l4/third_party/STM32CubeL4/Drivers/STM32L4xx_HAL_Driver/Inc/stm32l4xx_ll_spi.h ****   * @brief  Set CRC Length
 729:../../../libs/smtc-hal-mcu-stm32l4/third_party/STM32CubeL4/Drivers/STM32L4xx_HAL_Driver/Inc/stm32l4xx_ll_spi.h ****   * @note   This bit should be written only when SPI is disabled (SPE = 0) for correct operation.
 730:../../../libs/smtc-hal-mcu-stm32l4/third_party/STM32CubeL4/Drivers/STM32L4xx_HAL_Driver/Inc/stm32l4xx_ll_spi.h ****   * @rmtoll CR1          CRCL          LL_SPI_SetCRCWidth
 731:../../../libs/smtc-hal-mcu-stm32l4/third_party/STM32CubeL4/Drivers/STM32L4xx_HAL_Driver/Inc/stm32l4xx_ll_spi.h ****   * @param  SPIx SPI Instance
 732:../../../libs/smtc-hal-mcu-stm32l4/third_party/STM32CubeL4/Drivers/STM32L4xx_HAL_Driver/Inc/stm32l4xx_ll_spi.h ****   * @param  CRCLength This parameter can be one of the following values:
 733:../../../libs/smtc-hal-mcu-stm32l4/third_party/STM32CubeL4/Drivers/STM32L4xx_HAL_Driver/Inc/stm32l4xx_ll_spi.h ****   *         @arg @ref LL_SPI_CRC_8BIT
 734:../../../libs/smtc-hal-mcu-stm32l4/third_party/STM32CubeL4/Drivers/STM32L4xx_HAL_Driver/Inc/stm32l4xx_ll_spi.h ****   *         @arg @ref LL_SPI_CRC_16BIT
 735:../../../libs/smtc-hal-mcu-stm32l4/third_party/STM32CubeL4/Drivers/STM32L4xx_HAL_Driver/Inc/stm32l4xx_ll_spi.h ****   * @retval None
 736:../../../libs/smtc-hal-mcu-stm32l4/third_party/STM32CubeL4/Drivers/STM32L4xx_HAL_Driver/Inc/stm32l4xx_ll_spi.h ****   */
 737:../../../libs/smtc-hal-mcu-stm32l4/third_party/STM32CubeL4/Drivers/STM32L4xx_HAL_Driver/Inc/stm32l4xx_ll_spi.h **** __STATIC_INLINE void LL_SPI_SetCRCWidth(SPI_TypeDef *SPIx, uint32_t CRCLength)
 738:../../../libs/smtc-hal-mcu-stm32l4/third_party/STM32CubeL4/Drivers/STM32L4xx_HAL_Driver/Inc/stm32l4xx_ll_spi.h **** {
 739:../../../libs/smtc-hal-mcu-stm32l4/third_party/STM32CubeL4/Drivers/STM32L4xx_HAL_Driver/Inc/stm32l4xx_ll_spi.h ****   MODIFY_REG(SPIx->CR1, SPI_CR1_CRCL, CRCLength);
 740:../../../libs/smtc-hal-mcu-stm32l4/third_party/STM32CubeL4/Drivers/STM32L4xx_HAL_Driver/Inc/stm32l4xx_ll_spi.h **** }
 741:../../../libs/smtc-hal-mcu-stm32l4/third_party/STM32CubeL4/Drivers/STM32L4xx_HAL_Driver/Inc/stm32l4xx_ll_spi.h **** 
 742:../../../libs/smtc-hal-mcu-stm32l4/third_party/STM32CubeL4/Drivers/STM32L4xx_HAL_Driver/Inc/stm32l4xx_ll_spi.h **** /**
 743:../../../libs/smtc-hal-mcu-stm32l4/third_party/STM32CubeL4/Drivers/STM32L4xx_HAL_Driver/Inc/stm32l4xx_ll_spi.h ****   * @brief  Get CRC Length
 744:../../../libs/smtc-hal-mcu-stm32l4/third_party/STM32CubeL4/Drivers/STM32L4xx_HAL_Driver/Inc/stm32l4xx_ll_spi.h ****   * @rmtoll CR1          CRCL          LL_SPI_GetCRCWidth
 745:../../../libs/smtc-hal-mcu-stm32l4/third_party/STM32CubeL4/Drivers/STM32L4xx_HAL_Driver/Inc/stm32l4xx_ll_spi.h ****   * @param  SPIx SPI Instance
 746:../../../libs/smtc-hal-mcu-stm32l4/third_party/STM32CubeL4/Drivers/STM32L4xx_HAL_Driver/Inc/stm32l4xx_ll_spi.h ****   * @retval Returned value can be one of the following values:
 747:../../../libs/smtc-hal-mcu-stm32l4/third_party/STM32CubeL4/Drivers/STM32L4xx_HAL_Driver/Inc/stm32l4xx_ll_spi.h ****   *         @arg @ref LL_SPI_CRC_8BIT
ARM GAS  C:\msys64\tmp\ccnxnf43.s 			page 18


 748:../../../libs/smtc-hal-mcu-stm32l4/third_party/STM32CubeL4/Drivers/STM32L4xx_HAL_Driver/Inc/stm32l4xx_ll_spi.h ****   *         @arg @ref LL_SPI_CRC_16BIT
 749:../../../libs/smtc-hal-mcu-stm32l4/third_party/STM32CubeL4/Drivers/STM32L4xx_HAL_Driver/Inc/stm32l4xx_ll_spi.h ****   */
 750:../../../libs/smtc-hal-mcu-stm32l4/third_party/STM32CubeL4/Drivers/STM32L4xx_HAL_Driver/Inc/stm32l4xx_ll_spi.h **** __STATIC_INLINE uint32_t LL_SPI_GetCRCWidth(SPI_TypeDef *SPIx)
 751:../../../libs/smtc-hal-mcu-stm32l4/third_party/STM32CubeL4/Drivers/STM32L4xx_HAL_Driver/Inc/stm32l4xx_ll_spi.h **** {
 752:../../../libs/smtc-hal-mcu-stm32l4/third_party/STM32CubeL4/Drivers/STM32L4xx_HAL_Driver/Inc/stm32l4xx_ll_spi.h ****   return (uint32_t)(READ_BIT(SPIx->CR1, SPI_CR1_CRCL));
 753:../../../libs/smtc-hal-mcu-stm32l4/third_party/STM32CubeL4/Drivers/STM32L4xx_HAL_Driver/Inc/stm32l4xx_ll_spi.h **** }
 754:../../../libs/smtc-hal-mcu-stm32l4/third_party/STM32CubeL4/Drivers/STM32L4xx_HAL_Driver/Inc/stm32l4xx_ll_spi.h **** 
 755:../../../libs/smtc-hal-mcu-stm32l4/third_party/STM32CubeL4/Drivers/STM32L4xx_HAL_Driver/Inc/stm32l4xx_ll_spi.h **** /**
 756:../../../libs/smtc-hal-mcu-stm32l4/third_party/STM32CubeL4/Drivers/STM32L4xx_HAL_Driver/Inc/stm32l4xx_ll_spi.h ****   * @brief  Set CRCNext to transfer CRC on the line
 757:../../../libs/smtc-hal-mcu-stm32l4/third_party/STM32CubeL4/Drivers/STM32L4xx_HAL_Driver/Inc/stm32l4xx_ll_spi.h ****   * @note   This bit has to be written as soon as the last data is written in the SPIx_DR register.
 758:../../../libs/smtc-hal-mcu-stm32l4/third_party/STM32CubeL4/Drivers/STM32L4xx_HAL_Driver/Inc/stm32l4xx_ll_spi.h ****   * @rmtoll CR1          CRCNEXT       LL_SPI_SetCRCNext
 759:../../../libs/smtc-hal-mcu-stm32l4/third_party/STM32CubeL4/Drivers/STM32L4xx_HAL_Driver/Inc/stm32l4xx_ll_spi.h ****   * @param  SPIx SPI Instance
 760:../../../libs/smtc-hal-mcu-stm32l4/third_party/STM32CubeL4/Drivers/STM32L4xx_HAL_Driver/Inc/stm32l4xx_ll_spi.h ****   * @retval None
 761:../../../libs/smtc-hal-mcu-stm32l4/third_party/STM32CubeL4/Drivers/STM32L4xx_HAL_Driver/Inc/stm32l4xx_ll_spi.h ****   */
 762:../../../libs/smtc-hal-mcu-stm32l4/third_party/STM32CubeL4/Drivers/STM32L4xx_HAL_Driver/Inc/stm32l4xx_ll_spi.h **** __STATIC_INLINE void LL_SPI_SetCRCNext(SPI_TypeDef *SPIx)
 763:../../../libs/smtc-hal-mcu-stm32l4/third_party/STM32CubeL4/Drivers/STM32L4xx_HAL_Driver/Inc/stm32l4xx_ll_spi.h **** {
 764:../../../libs/smtc-hal-mcu-stm32l4/third_party/STM32CubeL4/Drivers/STM32L4xx_HAL_Driver/Inc/stm32l4xx_ll_spi.h ****   SET_BIT(SPIx->CR1, SPI_CR1_CRCNEXT);
 765:../../../libs/smtc-hal-mcu-stm32l4/third_party/STM32CubeL4/Drivers/STM32L4xx_HAL_Driver/Inc/stm32l4xx_ll_spi.h **** }
 766:../../../libs/smtc-hal-mcu-stm32l4/third_party/STM32CubeL4/Drivers/STM32L4xx_HAL_Driver/Inc/stm32l4xx_ll_spi.h **** 
 767:../../../libs/smtc-hal-mcu-stm32l4/third_party/STM32CubeL4/Drivers/STM32L4xx_HAL_Driver/Inc/stm32l4xx_ll_spi.h **** /**
 768:../../../libs/smtc-hal-mcu-stm32l4/third_party/STM32CubeL4/Drivers/STM32L4xx_HAL_Driver/Inc/stm32l4xx_ll_spi.h ****   * @brief  Set polynomial for CRC calculation
 769:../../../libs/smtc-hal-mcu-stm32l4/third_party/STM32CubeL4/Drivers/STM32L4xx_HAL_Driver/Inc/stm32l4xx_ll_spi.h ****   * @rmtoll CRCPR        CRCPOLY       LL_SPI_SetCRCPolynomial
 770:../../../libs/smtc-hal-mcu-stm32l4/third_party/STM32CubeL4/Drivers/STM32L4xx_HAL_Driver/Inc/stm32l4xx_ll_spi.h ****   * @param  SPIx SPI Instance
 771:../../../libs/smtc-hal-mcu-stm32l4/third_party/STM32CubeL4/Drivers/STM32L4xx_HAL_Driver/Inc/stm32l4xx_ll_spi.h ****   * @param  CRCPoly This parameter must be a number between Min_Data = 0x00 and Max_Data = 0xFFFF
 772:../../../libs/smtc-hal-mcu-stm32l4/third_party/STM32CubeL4/Drivers/STM32L4xx_HAL_Driver/Inc/stm32l4xx_ll_spi.h ****   * @retval None
 773:../../../libs/smtc-hal-mcu-stm32l4/third_party/STM32CubeL4/Drivers/STM32L4xx_HAL_Driver/Inc/stm32l4xx_ll_spi.h ****   */
 774:../../../libs/smtc-hal-mcu-stm32l4/third_party/STM32CubeL4/Drivers/STM32L4xx_HAL_Driver/Inc/stm32l4xx_ll_spi.h **** __STATIC_INLINE void LL_SPI_SetCRCPolynomial(SPI_TypeDef *SPIx, uint32_t CRCPoly)
 775:../../../libs/smtc-hal-mcu-stm32l4/third_party/STM32CubeL4/Drivers/STM32L4xx_HAL_Driver/Inc/stm32l4xx_ll_spi.h **** {
 776:../../../libs/smtc-hal-mcu-stm32l4/third_party/STM32CubeL4/Drivers/STM32L4xx_HAL_Driver/Inc/stm32l4xx_ll_spi.h ****   WRITE_REG(SPIx->CRCPR, (uint16_t)CRCPoly);
 777:../../../libs/smtc-hal-mcu-stm32l4/third_party/STM32CubeL4/Drivers/STM32L4xx_HAL_Driver/Inc/stm32l4xx_ll_spi.h **** }
 778:../../../libs/smtc-hal-mcu-stm32l4/third_party/STM32CubeL4/Drivers/STM32L4xx_HAL_Driver/Inc/stm32l4xx_ll_spi.h **** 
 779:../../../libs/smtc-hal-mcu-stm32l4/third_party/STM32CubeL4/Drivers/STM32L4xx_HAL_Driver/Inc/stm32l4xx_ll_spi.h **** /**
 780:../../../libs/smtc-hal-mcu-stm32l4/third_party/STM32CubeL4/Drivers/STM32L4xx_HAL_Driver/Inc/stm32l4xx_ll_spi.h ****   * @brief  Get polynomial for CRC calculation
 781:../../../libs/smtc-hal-mcu-stm32l4/third_party/STM32CubeL4/Drivers/STM32L4xx_HAL_Driver/Inc/stm32l4xx_ll_spi.h ****   * @rmtoll CRCPR        CRCPOLY       LL_SPI_GetCRCPolynomial
 782:../../../libs/smtc-hal-mcu-stm32l4/third_party/STM32CubeL4/Drivers/STM32L4xx_HAL_Driver/Inc/stm32l4xx_ll_spi.h ****   * @param  SPIx SPI Instance
 783:../../../libs/smtc-hal-mcu-stm32l4/third_party/STM32CubeL4/Drivers/STM32L4xx_HAL_Driver/Inc/stm32l4xx_ll_spi.h ****   * @retval Returned value is a number between Min_Data = 0x00 and Max_Data = 0xFFFF
 784:../../../libs/smtc-hal-mcu-stm32l4/third_party/STM32CubeL4/Drivers/STM32L4xx_HAL_Driver/Inc/stm32l4xx_ll_spi.h ****   */
 785:../../../libs/smtc-hal-mcu-stm32l4/third_party/STM32CubeL4/Drivers/STM32L4xx_HAL_Driver/Inc/stm32l4xx_ll_spi.h **** __STATIC_INLINE uint32_t LL_SPI_GetCRCPolynomial(SPI_TypeDef *SPIx)
 786:../../../libs/smtc-hal-mcu-stm32l4/third_party/STM32CubeL4/Drivers/STM32L4xx_HAL_Driver/Inc/stm32l4xx_ll_spi.h **** {
 787:../../../libs/smtc-hal-mcu-stm32l4/third_party/STM32CubeL4/Drivers/STM32L4xx_HAL_Driver/Inc/stm32l4xx_ll_spi.h ****   return (uint32_t)(READ_REG(SPIx->CRCPR));
 788:../../../libs/smtc-hal-mcu-stm32l4/third_party/STM32CubeL4/Drivers/STM32L4xx_HAL_Driver/Inc/stm32l4xx_ll_spi.h **** }
 789:../../../libs/smtc-hal-mcu-stm32l4/third_party/STM32CubeL4/Drivers/STM32L4xx_HAL_Driver/Inc/stm32l4xx_ll_spi.h **** 
 790:../../../libs/smtc-hal-mcu-stm32l4/third_party/STM32CubeL4/Drivers/STM32L4xx_HAL_Driver/Inc/stm32l4xx_ll_spi.h **** /**
 791:../../../libs/smtc-hal-mcu-stm32l4/third_party/STM32CubeL4/Drivers/STM32L4xx_HAL_Driver/Inc/stm32l4xx_ll_spi.h ****   * @brief  Get Rx CRC
 792:../../../libs/smtc-hal-mcu-stm32l4/third_party/STM32CubeL4/Drivers/STM32L4xx_HAL_Driver/Inc/stm32l4xx_ll_spi.h ****   * @rmtoll RXCRCR       RXCRC         LL_SPI_GetRxCRC
 793:../../../libs/smtc-hal-mcu-stm32l4/third_party/STM32CubeL4/Drivers/STM32L4xx_HAL_Driver/Inc/stm32l4xx_ll_spi.h ****   * @param  SPIx SPI Instance
 794:../../../libs/smtc-hal-mcu-stm32l4/third_party/STM32CubeL4/Drivers/STM32L4xx_HAL_Driver/Inc/stm32l4xx_ll_spi.h ****   * @retval Returned value is a number between Min_Data = 0x00 and Max_Data = 0xFFFF
 795:../../../libs/smtc-hal-mcu-stm32l4/third_party/STM32CubeL4/Drivers/STM32L4xx_HAL_Driver/Inc/stm32l4xx_ll_spi.h ****   */
 796:../../../libs/smtc-hal-mcu-stm32l4/third_party/STM32CubeL4/Drivers/STM32L4xx_HAL_Driver/Inc/stm32l4xx_ll_spi.h **** __STATIC_INLINE uint32_t LL_SPI_GetRxCRC(SPI_TypeDef *SPIx)
 797:../../../libs/smtc-hal-mcu-stm32l4/third_party/STM32CubeL4/Drivers/STM32L4xx_HAL_Driver/Inc/stm32l4xx_ll_spi.h **** {
 798:../../../libs/smtc-hal-mcu-stm32l4/third_party/STM32CubeL4/Drivers/STM32L4xx_HAL_Driver/Inc/stm32l4xx_ll_spi.h ****   return (uint32_t)(READ_REG(SPIx->RXCRCR));
 799:../../../libs/smtc-hal-mcu-stm32l4/third_party/STM32CubeL4/Drivers/STM32L4xx_HAL_Driver/Inc/stm32l4xx_ll_spi.h **** }
 800:../../../libs/smtc-hal-mcu-stm32l4/third_party/STM32CubeL4/Drivers/STM32L4xx_HAL_Driver/Inc/stm32l4xx_ll_spi.h **** 
 801:../../../libs/smtc-hal-mcu-stm32l4/third_party/STM32CubeL4/Drivers/STM32L4xx_HAL_Driver/Inc/stm32l4xx_ll_spi.h **** /**
 802:../../../libs/smtc-hal-mcu-stm32l4/third_party/STM32CubeL4/Drivers/STM32L4xx_HAL_Driver/Inc/stm32l4xx_ll_spi.h ****   * @brief  Get Tx CRC
 803:../../../libs/smtc-hal-mcu-stm32l4/third_party/STM32CubeL4/Drivers/STM32L4xx_HAL_Driver/Inc/stm32l4xx_ll_spi.h ****   * @rmtoll TXCRCR       TXCRC         LL_SPI_GetTxCRC
 804:../../../libs/smtc-hal-mcu-stm32l4/third_party/STM32CubeL4/Drivers/STM32L4xx_HAL_Driver/Inc/stm32l4xx_ll_spi.h ****   * @param  SPIx SPI Instance
ARM GAS  C:\msys64\tmp\ccnxnf43.s 			page 19


 805:../../../libs/smtc-hal-mcu-stm32l4/third_party/STM32CubeL4/Drivers/STM32L4xx_HAL_Driver/Inc/stm32l4xx_ll_spi.h ****   * @retval Returned value is a number between Min_Data = 0x00 and Max_Data = 0xFFFF
 806:../../../libs/smtc-hal-mcu-stm32l4/third_party/STM32CubeL4/Drivers/STM32L4xx_HAL_Driver/Inc/stm32l4xx_ll_spi.h ****   */
 807:../../../libs/smtc-hal-mcu-stm32l4/third_party/STM32CubeL4/Drivers/STM32L4xx_HAL_Driver/Inc/stm32l4xx_ll_spi.h **** __STATIC_INLINE uint32_t LL_SPI_GetTxCRC(SPI_TypeDef *SPIx)
 808:../../../libs/smtc-hal-mcu-stm32l4/third_party/STM32CubeL4/Drivers/STM32L4xx_HAL_Driver/Inc/stm32l4xx_ll_spi.h **** {
 809:../../../libs/smtc-hal-mcu-stm32l4/third_party/STM32CubeL4/Drivers/STM32L4xx_HAL_Driver/Inc/stm32l4xx_ll_spi.h ****   return (uint32_t)(READ_REG(SPIx->TXCRCR));
 810:../../../libs/smtc-hal-mcu-stm32l4/third_party/STM32CubeL4/Drivers/STM32L4xx_HAL_Driver/Inc/stm32l4xx_ll_spi.h **** }
 811:../../../libs/smtc-hal-mcu-stm32l4/third_party/STM32CubeL4/Drivers/STM32L4xx_HAL_Driver/Inc/stm32l4xx_ll_spi.h **** 
 812:../../../libs/smtc-hal-mcu-stm32l4/third_party/STM32CubeL4/Drivers/STM32L4xx_HAL_Driver/Inc/stm32l4xx_ll_spi.h **** /**
 813:../../../libs/smtc-hal-mcu-stm32l4/third_party/STM32CubeL4/Drivers/STM32L4xx_HAL_Driver/Inc/stm32l4xx_ll_spi.h ****   * @}
 814:../../../libs/smtc-hal-mcu-stm32l4/third_party/STM32CubeL4/Drivers/STM32L4xx_HAL_Driver/Inc/stm32l4xx_ll_spi.h ****   */
 815:../../../libs/smtc-hal-mcu-stm32l4/third_party/STM32CubeL4/Drivers/STM32L4xx_HAL_Driver/Inc/stm32l4xx_ll_spi.h **** 
 816:../../../libs/smtc-hal-mcu-stm32l4/third_party/STM32CubeL4/Drivers/STM32L4xx_HAL_Driver/Inc/stm32l4xx_ll_spi.h **** /** @defgroup SPI_LL_EF_NSS_Management Slave Select Pin Management
 817:../../../libs/smtc-hal-mcu-stm32l4/third_party/STM32CubeL4/Drivers/STM32L4xx_HAL_Driver/Inc/stm32l4xx_ll_spi.h ****   * @{
 818:../../../libs/smtc-hal-mcu-stm32l4/third_party/STM32CubeL4/Drivers/STM32L4xx_HAL_Driver/Inc/stm32l4xx_ll_spi.h ****   */
 819:../../../libs/smtc-hal-mcu-stm32l4/third_party/STM32CubeL4/Drivers/STM32L4xx_HAL_Driver/Inc/stm32l4xx_ll_spi.h **** 
 820:../../../libs/smtc-hal-mcu-stm32l4/third_party/STM32CubeL4/Drivers/STM32L4xx_HAL_Driver/Inc/stm32l4xx_ll_spi.h **** /**
 821:../../../libs/smtc-hal-mcu-stm32l4/third_party/STM32CubeL4/Drivers/STM32L4xx_HAL_Driver/Inc/stm32l4xx_ll_spi.h ****   * @brief  Set NSS mode
 822:../../../libs/smtc-hal-mcu-stm32l4/third_party/STM32CubeL4/Drivers/STM32L4xx_HAL_Driver/Inc/stm32l4xx_ll_spi.h ****   * @note   LL_SPI_NSS_SOFT Mode is not used in SPI TI mode.
 823:../../../libs/smtc-hal-mcu-stm32l4/third_party/STM32CubeL4/Drivers/STM32L4xx_HAL_Driver/Inc/stm32l4xx_ll_spi.h ****   * @rmtoll CR1          SSM           LL_SPI_SetNSSMode\n
 824:../../../libs/smtc-hal-mcu-stm32l4/third_party/STM32CubeL4/Drivers/STM32L4xx_HAL_Driver/Inc/stm32l4xx_ll_spi.h ****   * @rmtoll CR2          SSOE          LL_SPI_SetNSSMode
 825:../../../libs/smtc-hal-mcu-stm32l4/third_party/STM32CubeL4/Drivers/STM32L4xx_HAL_Driver/Inc/stm32l4xx_ll_spi.h ****   * @param  SPIx SPI Instance
 826:../../../libs/smtc-hal-mcu-stm32l4/third_party/STM32CubeL4/Drivers/STM32L4xx_HAL_Driver/Inc/stm32l4xx_ll_spi.h ****   * @param  NSS This parameter can be one of the following values:
 827:../../../libs/smtc-hal-mcu-stm32l4/third_party/STM32CubeL4/Drivers/STM32L4xx_HAL_Driver/Inc/stm32l4xx_ll_spi.h ****   *         @arg @ref LL_SPI_NSS_SOFT
 828:../../../libs/smtc-hal-mcu-stm32l4/third_party/STM32CubeL4/Drivers/STM32L4xx_HAL_Driver/Inc/stm32l4xx_ll_spi.h ****   *         @arg @ref LL_SPI_NSS_HARD_INPUT
 829:../../../libs/smtc-hal-mcu-stm32l4/third_party/STM32CubeL4/Drivers/STM32L4xx_HAL_Driver/Inc/stm32l4xx_ll_spi.h ****   *         @arg @ref LL_SPI_NSS_HARD_OUTPUT
 830:../../../libs/smtc-hal-mcu-stm32l4/third_party/STM32CubeL4/Drivers/STM32L4xx_HAL_Driver/Inc/stm32l4xx_ll_spi.h ****   * @retval None
 831:../../../libs/smtc-hal-mcu-stm32l4/third_party/STM32CubeL4/Drivers/STM32L4xx_HAL_Driver/Inc/stm32l4xx_ll_spi.h ****   */
 832:../../../libs/smtc-hal-mcu-stm32l4/third_party/STM32CubeL4/Drivers/STM32L4xx_HAL_Driver/Inc/stm32l4xx_ll_spi.h **** __STATIC_INLINE void LL_SPI_SetNSSMode(SPI_TypeDef *SPIx, uint32_t NSS)
 833:../../../libs/smtc-hal-mcu-stm32l4/third_party/STM32CubeL4/Drivers/STM32L4xx_HAL_Driver/Inc/stm32l4xx_ll_spi.h **** {
 834:../../../libs/smtc-hal-mcu-stm32l4/third_party/STM32CubeL4/Drivers/STM32L4xx_HAL_Driver/Inc/stm32l4xx_ll_spi.h ****   MODIFY_REG(SPIx->CR1, SPI_CR1_SSM,  NSS);
 835:../../../libs/smtc-hal-mcu-stm32l4/third_party/STM32CubeL4/Drivers/STM32L4xx_HAL_Driver/Inc/stm32l4xx_ll_spi.h ****   MODIFY_REG(SPIx->CR2, SPI_CR2_SSOE, ((uint32_t)(NSS >> 16U)));
 836:../../../libs/smtc-hal-mcu-stm32l4/third_party/STM32CubeL4/Drivers/STM32L4xx_HAL_Driver/Inc/stm32l4xx_ll_spi.h **** }
 837:../../../libs/smtc-hal-mcu-stm32l4/third_party/STM32CubeL4/Drivers/STM32L4xx_HAL_Driver/Inc/stm32l4xx_ll_spi.h **** 
 838:../../../libs/smtc-hal-mcu-stm32l4/third_party/STM32CubeL4/Drivers/STM32L4xx_HAL_Driver/Inc/stm32l4xx_ll_spi.h **** /**
 839:../../../libs/smtc-hal-mcu-stm32l4/third_party/STM32CubeL4/Drivers/STM32L4xx_HAL_Driver/Inc/stm32l4xx_ll_spi.h ****   * @brief  Get NSS mode
 840:../../../libs/smtc-hal-mcu-stm32l4/third_party/STM32CubeL4/Drivers/STM32L4xx_HAL_Driver/Inc/stm32l4xx_ll_spi.h ****   * @rmtoll CR1          SSM           LL_SPI_GetNSSMode\n
 841:../../../libs/smtc-hal-mcu-stm32l4/third_party/STM32CubeL4/Drivers/STM32L4xx_HAL_Driver/Inc/stm32l4xx_ll_spi.h ****   * @rmtoll CR2          SSOE          LL_SPI_GetNSSMode
 842:../../../libs/smtc-hal-mcu-stm32l4/third_party/STM32CubeL4/Drivers/STM32L4xx_HAL_Driver/Inc/stm32l4xx_ll_spi.h ****   * @param  SPIx SPI Instance
 843:../../../libs/smtc-hal-mcu-stm32l4/third_party/STM32CubeL4/Drivers/STM32L4xx_HAL_Driver/Inc/stm32l4xx_ll_spi.h ****   * @retval Returned value can be one of the following values:
 844:../../../libs/smtc-hal-mcu-stm32l4/third_party/STM32CubeL4/Drivers/STM32L4xx_HAL_Driver/Inc/stm32l4xx_ll_spi.h ****   *         @arg @ref LL_SPI_NSS_SOFT
 845:../../../libs/smtc-hal-mcu-stm32l4/third_party/STM32CubeL4/Drivers/STM32L4xx_HAL_Driver/Inc/stm32l4xx_ll_spi.h ****   *         @arg @ref LL_SPI_NSS_HARD_INPUT
 846:../../../libs/smtc-hal-mcu-stm32l4/third_party/STM32CubeL4/Drivers/STM32L4xx_HAL_Driver/Inc/stm32l4xx_ll_spi.h ****   *         @arg @ref LL_SPI_NSS_HARD_OUTPUT
 847:../../../libs/smtc-hal-mcu-stm32l4/third_party/STM32CubeL4/Drivers/STM32L4xx_HAL_Driver/Inc/stm32l4xx_ll_spi.h ****   */
 848:../../../libs/smtc-hal-mcu-stm32l4/third_party/STM32CubeL4/Drivers/STM32L4xx_HAL_Driver/Inc/stm32l4xx_ll_spi.h **** __STATIC_INLINE uint32_t LL_SPI_GetNSSMode(SPI_TypeDef *SPIx)
 849:../../../libs/smtc-hal-mcu-stm32l4/third_party/STM32CubeL4/Drivers/STM32L4xx_HAL_Driver/Inc/stm32l4xx_ll_spi.h **** {
 850:../../../libs/smtc-hal-mcu-stm32l4/third_party/STM32CubeL4/Drivers/STM32L4xx_HAL_Driver/Inc/stm32l4xx_ll_spi.h ****   uint32_t Ssm  = (READ_BIT(SPIx->CR1, SPI_CR1_SSM));
 851:../../../libs/smtc-hal-mcu-stm32l4/third_party/STM32CubeL4/Drivers/STM32L4xx_HAL_Driver/Inc/stm32l4xx_ll_spi.h ****   uint32_t Ssoe = (READ_BIT(SPIx->CR2,  SPI_CR2_SSOE) << 16U);
 852:../../../libs/smtc-hal-mcu-stm32l4/third_party/STM32CubeL4/Drivers/STM32L4xx_HAL_Driver/Inc/stm32l4xx_ll_spi.h ****   return (Ssm | Ssoe);
 853:../../../libs/smtc-hal-mcu-stm32l4/third_party/STM32CubeL4/Drivers/STM32L4xx_HAL_Driver/Inc/stm32l4xx_ll_spi.h **** }
 854:../../../libs/smtc-hal-mcu-stm32l4/third_party/STM32CubeL4/Drivers/STM32L4xx_HAL_Driver/Inc/stm32l4xx_ll_spi.h **** 
 855:../../../libs/smtc-hal-mcu-stm32l4/third_party/STM32CubeL4/Drivers/STM32L4xx_HAL_Driver/Inc/stm32l4xx_ll_spi.h **** /**
 856:../../../libs/smtc-hal-mcu-stm32l4/third_party/STM32CubeL4/Drivers/STM32L4xx_HAL_Driver/Inc/stm32l4xx_ll_spi.h ****   * @brief  Enable NSS pulse management
 857:../../../libs/smtc-hal-mcu-stm32l4/third_party/STM32CubeL4/Drivers/STM32L4xx_HAL_Driver/Inc/stm32l4xx_ll_spi.h ****   * @note   This bit should not be changed when communication is ongoing. This bit is not used in S
 858:../../../libs/smtc-hal-mcu-stm32l4/third_party/STM32CubeL4/Drivers/STM32L4xx_HAL_Driver/Inc/stm32l4xx_ll_spi.h ****   * @rmtoll CR2          NSSP          LL_SPI_EnableNSSPulseMgt
 859:../../../libs/smtc-hal-mcu-stm32l4/third_party/STM32CubeL4/Drivers/STM32L4xx_HAL_Driver/Inc/stm32l4xx_ll_spi.h ****   * @param  SPIx SPI Instance
 860:../../../libs/smtc-hal-mcu-stm32l4/third_party/STM32CubeL4/Drivers/STM32L4xx_HAL_Driver/Inc/stm32l4xx_ll_spi.h ****   * @retval None
 861:../../../libs/smtc-hal-mcu-stm32l4/third_party/STM32CubeL4/Drivers/STM32L4xx_HAL_Driver/Inc/stm32l4xx_ll_spi.h ****   */
ARM GAS  C:\msys64\tmp\ccnxnf43.s 			page 20


 862:../../../libs/smtc-hal-mcu-stm32l4/third_party/STM32CubeL4/Drivers/STM32L4xx_HAL_Driver/Inc/stm32l4xx_ll_spi.h **** __STATIC_INLINE void LL_SPI_EnableNSSPulseMgt(SPI_TypeDef *SPIx)
 863:../../../libs/smtc-hal-mcu-stm32l4/third_party/STM32CubeL4/Drivers/STM32L4xx_HAL_Driver/Inc/stm32l4xx_ll_spi.h **** {
 864:../../../libs/smtc-hal-mcu-stm32l4/third_party/STM32CubeL4/Drivers/STM32L4xx_HAL_Driver/Inc/stm32l4xx_ll_spi.h ****   SET_BIT(SPIx->CR2, SPI_CR2_NSSP);
 865:../../../libs/smtc-hal-mcu-stm32l4/third_party/STM32CubeL4/Drivers/STM32L4xx_HAL_Driver/Inc/stm32l4xx_ll_spi.h **** }
 866:../../../libs/smtc-hal-mcu-stm32l4/third_party/STM32CubeL4/Drivers/STM32L4xx_HAL_Driver/Inc/stm32l4xx_ll_spi.h **** 
 867:../../../libs/smtc-hal-mcu-stm32l4/third_party/STM32CubeL4/Drivers/STM32L4xx_HAL_Driver/Inc/stm32l4xx_ll_spi.h **** /**
 868:../../../libs/smtc-hal-mcu-stm32l4/third_party/STM32CubeL4/Drivers/STM32L4xx_HAL_Driver/Inc/stm32l4xx_ll_spi.h ****   * @brief  Disable NSS pulse management
 869:../../../libs/smtc-hal-mcu-stm32l4/third_party/STM32CubeL4/Drivers/STM32L4xx_HAL_Driver/Inc/stm32l4xx_ll_spi.h ****   * @note   This bit should not be changed when communication is ongoing. This bit is not used in S
 870:../../../libs/smtc-hal-mcu-stm32l4/third_party/STM32CubeL4/Drivers/STM32L4xx_HAL_Driver/Inc/stm32l4xx_ll_spi.h ****   * @rmtoll CR2          NSSP          LL_SPI_DisableNSSPulseMgt
 871:../../../libs/smtc-hal-mcu-stm32l4/third_party/STM32CubeL4/Drivers/STM32L4xx_HAL_Driver/Inc/stm32l4xx_ll_spi.h ****   * @param  SPIx SPI Instance
 872:../../../libs/smtc-hal-mcu-stm32l4/third_party/STM32CubeL4/Drivers/STM32L4xx_HAL_Driver/Inc/stm32l4xx_ll_spi.h ****   * @retval None
 873:../../../libs/smtc-hal-mcu-stm32l4/third_party/STM32CubeL4/Drivers/STM32L4xx_HAL_Driver/Inc/stm32l4xx_ll_spi.h ****   */
 874:../../../libs/smtc-hal-mcu-stm32l4/third_party/STM32CubeL4/Drivers/STM32L4xx_HAL_Driver/Inc/stm32l4xx_ll_spi.h **** __STATIC_INLINE void LL_SPI_DisableNSSPulseMgt(SPI_TypeDef *SPIx)
 875:../../../libs/smtc-hal-mcu-stm32l4/third_party/STM32CubeL4/Drivers/STM32L4xx_HAL_Driver/Inc/stm32l4xx_ll_spi.h **** {
 232              		.loc 2 875 1
 233              		.cfi_startproc
 234              		@ args = 0, pretend = 0, frame = 8
 235              		@ frame_needed = 1, uses_anonymous_args = 0
 236              		@ link register save eliminated.
 237 0000 80B4     		push	{r7}
 238              	.LCFI24:
 239              		.cfi_def_cfa_offset 4
 240              		.cfi_offset 7, -4
 241 0002 83B0     		sub	sp, sp, #12
 242              	.LCFI25:
 243              		.cfi_def_cfa_offset 16
 244 0004 00AF     		add	r7, sp, #0
 245              	.LCFI26:
 246              		.cfi_def_cfa_register 7
 247 0006 7860     		str	r0, [r7, #4]
 876:../../../libs/smtc-hal-mcu-stm32l4/third_party/STM32CubeL4/Drivers/STM32L4xx_HAL_Driver/Inc/stm32l4xx_ll_spi.h ****   CLEAR_BIT(SPIx->CR2, SPI_CR2_NSSP);
 248              		.loc 2 876 3
 249 0008 7B68     		ldr	r3, [r7, #4]
 250 000a 5B68     		ldr	r3, [r3, #4]
 251 000c 23F00802 		bic	r2, r3, #8
 252 0010 7B68     		ldr	r3, [r7, #4]
 253 0012 5A60     		str	r2, [r3, #4]
 877:../../../libs/smtc-hal-mcu-stm32l4/third_party/STM32CubeL4/Drivers/STM32L4xx_HAL_Driver/Inc/stm32l4xx_ll_spi.h **** }
 254              		.loc 2 877 1
 255 0014 00BF     		nop
 256 0016 0C37     		adds	r7, r7, #12
 257              	.LCFI27:
 258              		.cfi_def_cfa_offset 4
 259 0018 BD46     		mov	sp, r7
 260              	.LCFI28:
 261              		.cfi_def_cfa_register 13
 262              		@ sp needed
 263 001a 5DF8047B 		ldr	r7, [sp], #4
 264              	.LCFI29:
 265              		.cfi_restore 7
 266              		.cfi_def_cfa_offset 0
 267 001e 7047     		bx	lr
 268              		.cfi_endproc
 269              	.LFE166:
 271              		.section	.text.LL_SPI_GetRxFIFOLevel,"ax",%progbits
 272              		.align	1
 273              		.syntax unified
ARM GAS  C:\msys64\tmp\ccnxnf43.s 			page 21


 274              		.thumb
 275              		.thumb_func
 277              	LL_SPI_GetRxFIFOLevel:
 278              	.LFB175:
 878:../../../libs/smtc-hal-mcu-stm32l4/third_party/STM32CubeL4/Drivers/STM32L4xx_HAL_Driver/Inc/stm32l4xx_ll_spi.h **** 
 879:../../../libs/smtc-hal-mcu-stm32l4/third_party/STM32CubeL4/Drivers/STM32L4xx_HAL_Driver/Inc/stm32l4xx_ll_spi.h **** /**
 880:../../../libs/smtc-hal-mcu-stm32l4/third_party/STM32CubeL4/Drivers/STM32L4xx_HAL_Driver/Inc/stm32l4xx_ll_spi.h ****   * @brief  Check if NSS pulse is enabled
 881:../../../libs/smtc-hal-mcu-stm32l4/third_party/STM32CubeL4/Drivers/STM32L4xx_HAL_Driver/Inc/stm32l4xx_ll_spi.h ****   * @note   This bit should not be changed when communication is ongoing. This bit is not used in S
 882:../../../libs/smtc-hal-mcu-stm32l4/third_party/STM32CubeL4/Drivers/STM32L4xx_HAL_Driver/Inc/stm32l4xx_ll_spi.h ****   * @rmtoll CR2          NSSP          LL_SPI_IsEnabledNSSPulse
 883:../../../libs/smtc-hal-mcu-stm32l4/third_party/STM32CubeL4/Drivers/STM32L4xx_HAL_Driver/Inc/stm32l4xx_ll_spi.h ****   * @param  SPIx SPI Instance
 884:../../../libs/smtc-hal-mcu-stm32l4/third_party/STM32CubeL4/Drivers/STM32L4xx_HAL_Driver/Inc/stm32l4xx_ll_spi.h ****   * @retval State of bit (1 or 0).
 885:../../../libs/smtc-hal-mcu-stm32l4/third_party/STM32CubeL4/Drivers/STM32L4xx_HAL_Driver/Inc/stm32l4xx_ll_spi.h ****   */
 886:../../../libs/smtc-hal-mcu-stm32l4/third_party/STM32CubeL4/Drivers/STM32L4xx_HAL_Driver/Inc/stm32l4xx_ll_spi.h **** __STATIC_INLINE uint32_t LL_SPI_IsEnabledNSSPulse(SPI_TypeDef *SPIx)
 887:../../../libs/smtc-hal-mcu-stm32l4/third_party/STM32CubeL4/Drivers/STM32L4xx_HAL_Driver/Inc/stm32l4xx_ll_spi.h **** {
 888:../../../libs/smtc-hal-mcu-stm32l4/third_party/STM32CubeL4/Drivers/STM32L4xx_HAL_Driver/Inc/stm32l4xx_ll_spi.h ****   return ((READ_BIT(SPIx->CR2, SPI_CR2_NSSP) == (SPI_CR2_NSSP)) ? 1UL : 0UL);
 889:../../../libs/smtc-hal-mcu-stm32l4/third_party/STM32CubeL4/Drivers/STM32L4xx_HAL_Driver/Inc/stm32l4xx_ll_spi.h **** }
 890:../../../libs/smtc-hal-mcu-stm32l4/third_party/STM32CubeL4/Drivers/STM32L4xx_HAL_Driver/Inc/stm32l4xx_ll_spi.h **** 
 891:../../../libs/smtc-hal-mcu-stm32l4/third_party/STM32CubeL4/Drivers/STM32L4xx_HAL_Driver/Inc/stm32l4xx_ll_spi.h **** /**
 892:../../../libs/smtc-hal-mcu-stm32l4/third_party/STM32CubeL4/Drivers/STM32L4xx_HAL_Driver/Inc/stm32l4xx_ll_spi.h ****   * @}
 893:../../../libs/smtc-hal-mcu-stm32l4/third_party/STM32CubeL4/Drivers/STM32L4xx_HAL_Driver/Inc/stm32l4xx_ll_spi.h ****   */
 894:../../../libs/smtc-hal-mcu-stm32l4/third_party/STM32CubeL4/Drivers/STM32L4xx_HAL_Driver/Inc/stm32l4xx_ll_spi.h **** 
 895:../../../libs/smtc-hal-mcu-stm32l4/third_party/STM32CubeL4/Drivers/STM32L4xx_HAL_Driver/Inc/stm32l4xx_ll_spi.h **** /** @defgroup SPI_LL_EF_FLAG_Management FLAG Management
 896:../../../libs/smtc-hal-mcu-stm32l4/third_party/STM32CubeL4/Drivers/STM32L4xx_HAL_Driver/Inc/stm32l4xx_ll_spi.h ****   * @{
 897:../../../libs/smtc-hal-mcu-stm32l4/third_party/STM32CubeL4/Drivers/STM32L4xx_HAL_Driver/Inc/stm32l4xx_ll_spi.h ****   */
 898:../../../libs/smtc-hal-mcu-stm32l4/third_party/STM32CubeL4/Drivers/STM32L4xx_HAL_Driver/Inc/stm32l4xx_ll_spi.h **** 
 899:../../../libs/smtc-hal-mcu-stm32l4/third_party/STM32CubeL4/Drivers/STM32L4xx_HAL_Driver/Inc/stm32l4xx_ll_spi.h **** /**
 900:../../../libs/smtc-hal-mcu-stm32l4/third_party/STM32CubeL4/Drivers/STM32L4xx_HAL_Driver/Inc/stm32l4xx_ll_spi.h ****   * @brief  Check if Rx buffer is not empty
 901:../../../libs/smtc-hal-mcu-stm32l4/third_party/STM32CubeL4/Drivers/STM32L4xx_HAL_Driver/Inc/stm32l4xx_ll_spi.h ****   * @rmtoll SR           RXNE          LL_SPI_IsActiveFlag_RXNE
 902:../../../libs/smtc-hal-mcu-stm32l4/third_party/STM32CubeL4/Drivers/STM32L4xx_HAL_Driver/Inc/stm32l4xx_ll_spi.h ****   * @param  SPIx SPI Instance
 903:../../../libs/smtc-hal-mcu-stm32l4/third_party/STM32CubeL4/Drivers/STM32L4xx_HAL_Driver/Inc/stm32l4xx_ll_spi.h ****   * @retval State of bit (1 or 0).
 904:../../../libs/smtc-hal-mcu-stm32l4/third_party/STM32CubeL4/Drivers/STM32L4xx_HAL_Driver/Inc/stm32l4xx_ll_spi.h ****   */
 905:../../../libs/smtc-hal-mcu-stm32l4/third_party/STM32CubeL4/Drivers/STM32L4xx_HAL_Driver/Inc/stm32l4xx_ll_spi.h **** __STATIC_INLINE uint32_t LL_SPI_IsActiveFlag_RXNE(SPI_TypeDef *SPIx)
 906:../../../libs/smtc-hal-mcu-stm32l4/third_party/STM32CubeL4/Drivers/STM32L4xx_HAL_Driver/Inc/stm32l4xx_ll_spi.h **** {
 907:../../../libs/smtc-hal-mcu-stm32l4/third_party/STM32CubeL4/Drivers/STM32L4xx_HAL_Driver/Inc/stm32l4xx_ll_spi.h ****   return ((READ_BIT(SPIx->SR, SPI_SR_RXNE) == (SPI_SR_RXNE)) ? 1UL : 0UL);
 908:../../../libs/smtc-hal-mcu-stm32l4/third_party/STM32CubeL4/Drivers/STM32L4xx_HAL_Driver/Inc/stm32l4xx_ll_spi.h **** }
 909:../../../libs/smtc-hal-mcu-stm32l4/third_party/STM32CubeL4/Drivers/STM32L4xx_HAL_Driver/Inc/stm32l4xx_ll_spi.h **** 
 910:../../../libs/smtc-hal-mcu-stm32l4/third_party/STM32CubeL4/Drivers/STM32L4xx_HAL_Driver/Inc/stm32l4xx_ll_spi.h **** /**
 911:../../../libs/smtc-hal-mcu-stm32l4/third_party/STM32CubeL4/Drivers/STM32L4xx_HAL_Driver/Inc/stm32l4xx_ll_spi.h ****   * @brief  Check if Tx buffer is empty
 912:../../../libs/smtc-hal-mcu-stm32l4/third_party/STM32CubeL4/Drivers/STM32L4xx_HAL_Driver/Inc/stm32l4xx_ll_spi.h ****   * @rmtoll SR           TXE           LL_SPI_IsActiveFlag_TXE
 913:../../../libs/smtc-hal-mcu-stm32l4/third_party/STM32CubeL4/Drivers/STM32L4xx_HAL_Driver/Inc/stm32l4xx_ll_spi.h ****   * @param  SPIx SPI Instance
 914:../../../libs/smtc-hal-mcu-stm32l4/third_party/STM32CubeL4/Drivers/STM32L4xx_HAL_Driver/Inc/stm32l4xx_ll_spi.h ****   * @retval State of bit (1 or 0).
 915:../../../libs/smtc-hal-mcu-stm32l4/third_party/STM32CubeL4/Drivers/STM32L4xx_HAL_Driver/Inc/stm32l4xx_ll_spi.h ****   */
 916:../../../libs/smtc-hal-mcu-stm32l4/third_party/STM32CubeL4/Drivers/STM32L4xx_HAL_Driver/Inc/stm32l4xx_ll_spi.h **** __STATIC_INLINE uint32_t LL_SPI_IsActiveFlag_TXE(SPI_TypeDef *SPIx)
 917:../../../libs/smtc-hal-mcu-stm32l4/third_party/STM32CubeL4/Drivers/STM32L4xx_HAL_Driver/Inc/stm32l4xx_ll_spi.h **** {
 918:../../../libs/smtc-hal-mcu-stm32l4/third_party/STM32CubeL4/Drivers/STM32L4xx_HAL_Driver/Inc/stm32l4xx_ll_spi.h ****   return ((READ_BIT(SPIx->SR, SPI_SR_TXE) == (SPI_SR_TXE)) ? 1UL : 0UL);
 919:../../../libs/smtc-hal-mcu-stm32l4/third_party/STM32CubeL4/Drivers/STM32L4xx_HAL_Driver/Inc/stm32l4xx_ll_spi.h **** }
 920:../../../libs/smtc-hal-mcu-stm32l4/third_party/STM32CubeL4/Drivers/STM32L4xx_HAL_Driver/Inc/stm32l4xx_ll_spi.h **** 
 921:../../../libs/smtc-hal-mcu-stm32l4/third_party/STM32CubeL4/Drivers/STM32L4xx_HAL_Driver/Inc/stm32l4xx_ll_spi.h **** /**
 922:../../../libs/smtc-hal-mcu-stm32l4/third_party/STM32CubeL4/Drivers/STM32L4xx_HAL_Driver/Inc/stm32l4xx_ll_spi.h ****   * @brief  Get CRC error flag
 923:../../../libs/smtc-hal-mcu-stm32l4/third_party/STM32CubeL4/Drivers/STM32L4xx_HAL_Driver/Inc/stm32l4xx_ll_spi.h ****   * @rmtoll SR           CRCERR        LL_SPI_IsActiveFlag_CRCERR
 924:../../../libs/smtc-hal-mcu-stm32l4/third_party/STM32CubeL4/Drivers/STM32L4xx_HAL_Driver/Inc/stm32l4xx_ll_spi.h ****   * @param  SPIx SPI Instance
 925:../../../libs/smtc-hal-mcu-stm32l4/third_party/STM32CubeL4/Drivers/STM32L4xx_HAL_Driver/Inc/stm32l4xx_ll_spi.h ****   * @retval State of bit (1 or 0).
 926:../../../libs/smtc-hal-mcu-stm32l4/third_party/STM32CubeL4/Drivers/STM32L4xx_HAL_Driver/Inc/stm32l4xx_ll_spi.h ****   */
 927:../../../libs/smtc-hal-mcu-stm32l4/third_party/STM32CubeL4/Drivers/STM32L4xx_HAL_Driver/Inc/stm32l4xx_ll_spi.h **** __STATIC_INLINE uint32_t LL_SPI_IsActiveFlag_CRCERR(SPI_TypeDef *SPIx)
 928:../../../libs/smtc-hal-mcu-stm32l4/third_party/STM32CubeL4/Drivers/STM32L4xx_HAL_Driver/Inc/stm32l4xx_ll_spi.h **** {
 929:../../../libs/smtc-hal-mcu-stm32l4/third_party/STM32CubeL4/Drivers/STM32L4xx_HAL_Driver/Inc/stm32l4xx_ll_spi.h ****   return ((READ_BIT(SPIx->SR, SPI_SR_CRCERR) == (SPI_SR_CRCERR)) ? 1UL : 0UL);
 930:../../../libs/smtc-hal-mcu-stm32l4/third_party/STM32CubeL4/Drivers/STM32L4xx_HAL_Driver/Inc/stm32l4xx_ll_spi.h **** }
ARM GAS  C:\msys64\tmp\ccnxnf43.s 			page 22


 931:../../../libs/smtc-hal-mcu-stm32l4/third_party/STM32CubeL4/Drivers/STM32L4xx_HAL_Driver/Inc/stm32l4xx_ll_spi.h **** 
 932:../../../libs/smtc-hal-mcu-stm32l4/third_party/STM32CubeL4/Drivers/STM32L4xx_HAL_Driver/Inc/stm32l4xx_ll_spi.h **** /**
 933:../../../libs/smtc-hal-mcu-stm32l4/third_party/STM32CubeL4/Drivers/STM32L4xx_HAL_Driver/Inc/stm32l4xx_ll_spi.h ****   * @brief  Get mode fault error flag
 934:../../../libs/smtc-hal-mcu-stm32l4/third_party/STM32CubeL4/Drivers/STM32L4xx_HAL_Driver/Inc/stm32l4xx_ll_spi.h ****   * @rmtoll SR           MODF          LL_SPI_IsActiveFlag_MODF
 935:../../../libs/smtc-hal-mcu-stm32l4/third_party/STM32CubeL4/Drivers/STM32L4xx_HAL_Driver/Inc/stm32l4xx_ll_spi.h ****   * @param  SPIx SPI Instance
 936:../../../libs/smtc-hal-mcu-stm32l4/third_party/STM32CubeL4/Drivers/STM32L4xx_HAL_Driver/Inc/stm32l4xx_ll_spi.h ****   * @retval State of bit (1 or 0).
 937:../../../libs/smtc-hal-mcu-stm32l4/third_party/STM32CubeL4/Drivers/STM32L4xx_HAL_Driver/Inc/stm32l4xx_ll_spi.h ****   */
 938:../../../libs/smtc-hal-mcu-stm32l4/third_party/STM32CubeL4/Drivers/STM32L4xx_HAL_Driver/Inc/stm32l4xx_ll_spi.h **** __STATIC_INLINE uint32_t LL_SPI_IsActiveFlag_MODF(SPI_TypeDef *SPIx)
 939:../../../libs/smtc-hal-mcu-stm32l4/third_party/STM32CubeL4/Drivers/STM32L4xx_HAL_Driver/Inc/stm32l4xx_ll_spi.h **** {
 940:../../../libs/smtc-hal-mcu-stm32l4/third_party/STM32CubeL4/Drivers/STM32L4xx_HAL_Driver/Inc/stm32l4xx_ll_spi.h ****   return ((READ_BIT(SPIx->SR, SPI_SR_MODF) == (SPI_SR_MODF)) ? 1UL : 0UL);
 941:../../../libs/smtc-hal-mcu-stm32l4/third_party/STM32CubeL4/Drivers/STM32L4xx_HAL_Driver/Inc/stm32l4xx_ll_spi.h **** }
 942:../../../libs/smtc-hal-mcu-stm32l4/third_party/STM32CubeL4/Drivers/STM32L4xx_HAL_Driver/Inc/stm32l4xx_ll_spi.h **** 
 943:../../../libs/smtc-hal-mcu-stm32l4/third_party/STM32CubeL4/Drivers/STM32L4xx_HAL_Driver/Inc/stm32l4xx_ll_spi.h **** /**
 944:../../../libs/smtc-hal-mcu-stm32l4/third_party/STM32CubeL4/Drivers/STM32L4xx_HAL_Driver/Inc/stm32l4xx_ll_spi.h ****   * @brief  Get overrun error flag
 945:../../../libs/smtc-hal-mcu-stm32l4/third_party/STM32CubeL4/Drivers/STM32L4xx_HAL_Driver/Inc/stm32l4xx_ll_spi.h ****   * @rmtoll SR           OVR           LL_SPI_IsActiveFlag_OVR
 946:../../../libs/smtc-hal-mcu-stm32l4/third_party/STM32CubeL4/Drivers/STM32L4xx_HAL_Driver/Inc/stm32l4xx_ll_spi.h ****   * @param  SPIx SPI Instance
 947:../../../libs/smtc-hal-mcu-stm32l4/third_party/STM32CubeL4/Drivers/STM32L4xx_HAL_Driver/Inc/stm32l4xx_ll_spi.h ****   * @retval State of bit (1 or 0).
 948:../../../libs/smtc-hal-mcu-stm32l4/third_party/STM32CubeL4/Drivers/STM32L4xx_HAL_Driver/Inc/stm32l4xx_ll_spi.h ****   */
 949:../../../libs/smtc-hal-mcu-stm32l4/third_party/STM32CubeL4/Drivers/STM32L4xx_HAL_Driver/Inc/stm32l4xx_ll_spi.h **** __STATIC_INLINE uint32_t LL_SPI_IsActiveFlag_OVR(SPI_TypeDef *SPIx)
 950:../../../libs/smtc-hal-mcu-stm32l4/third_party/STM32CubeL4/Drivers/STM32L4xx_HAL_Driver/Inc/stm32l4xx_ll_spi.h **** {
 951:../../../libs/smtc-hal-mcu-stm32l4/third_party/STM32CubeL4/Drivers/STM32L4xx_HAL_Driver/Inc/stm32l4xx_ll_spi.h ****   return ((READ_BIT(SPIx->SR, SPI_SR_OVR) == (SPI_SR_OVR)) ? 1UL : 0UL);
 952:../../../libs/smtc-hal-mcu-stm32l4/third_party/STM32CubeL4/Drivers/STM32L4xx_HAL_Driver/Inc/stm32l4xx_ll_spi.h **** }
 953:../../../libs/smtc-hal-mcu-stm32l4/third_party/STM32CubeL4/Drivers/STM32L4xx_HAL_Driver/Inc/stm32l4xx_ll_spi.h **** 
 954:../../../libs/smtc-hal-mcu-stm32l4/third_party/STM32CubeL4/Drivers/STM32L4xx_HAL_Driver/Inc/stm32l4xx_ll_spi.h **** /**
 955:../../../libs/smtc-hal-mcu-stm32l4/third_party/STM32CubeL4/Drivers/STM32L4xx_HAL_Driver/Inc/stm32l4xx_ll_spi.h ****   * @brief  Get busy flag
 956:../../../libs/smtc-hal-mcu-stm32l4/third_party/STM32CubeL4/Drivers/STM32L4xx_HAL_Driver/Inc/stm32l4xx_ll_spi.h ****   * @note   The BSY flag is cleared under any one of the following conditions:
 957:../../../libs/smtc-hal-mcu-stm32l4/third_party/STM32CubeL4/Drivers/STM32L4xx_HAL_Driver/Inc/stm32l4xx_ll_spi.h ****   * -When the SPI is correctly disabled
 958:../../../libs/smtc-hal-mcu-stm32l4/third_party/STM32CubeL4/Drivers/STM32L4xx_HAL_Driver/Inc/stm32l4xx_ll_spi.h ****   * -When a fault is detected in Master mode (MODF bit set to 1)
 959:../../../libs/smtc-hal-mcu-stm32l4/third_party/STM32CubeL4/Drivers/STM32L4xx_HAL_Driver/Inc/stm32l4xx_ll_spi.h ****   * -In Master mode, when it finishes a data transmission and no new data is ready to be
 960:../../../libs/smtc-hal-mcu-stm32l4/third_party/STM32CubeL4/Drivers/STM32L4xx_HAL_Driver/Inc/stm32l4xx_ll_spi.h ****   * sent
 961:../../../libs/smtc-hal-mcu-stm32l4/third_party/STM32CubeL4/Drivers/STM32L4xx_HAL_Driver/Inc/stm32l4xx_ll_spi.h ****   * -In Slave mode, when the BSY flag is set to '0' for at least one SPI clock cycle between
 962:../../../libs/smtc-hal-mcu-stm32l4/third_party/STM32CubeL4/Drivers/STM32L4xx_HAL_Driver/Inc/stm32l4xx_ll_spi.h ****   * each data transfer.
 963:../../../libs/smtc-hal-mcu-stm32l4/third_party/STM32CubeL4/Drivers/STM32L4xx_HAL_Driver/Inc/stm32l4xx_ll_spi.h ****   * @rmtoll SR           BSY           LL_SPI_IsActiveFlag_BSY
 964:../../../libs/smtc-hal-mcu-stm32l4/third_party/STM32CubeL4/Drivers/STM32L4xx_HAL_Driver/Inc/stm32l4xx_ll_spi.h ****   * @param  SPIx SPI Instance
 965:../../../libs/smtc-hal-mcu-stm32l4/third_party/STM32CubeL4/Drivers/STM32L4xx_HAL_Driver/Inc/stm32l4xx_ll_spi.h ****   * @retval State of bit (1 or 0).
 966:../../../libs/smtc-hal-mcu-stm32l4/third_party/STM32CubeL4/Drivers/STM32L4xx_HAL_Driver/Inc/stm32l4xx_ll_spi.h ****   */
 967:../../../libs/smtc-hal-mcu-stm32l4/third_party/STM32CubeL4/Drivers/STM32L4xx_HAL_Driver/Inc/stm32l4xx_ll_spi.h **** __STATIC_INLINE uint32_t LL_SPI_IsActiveFlag_BSY(SPI_TypeDef *SPIx)
 968:../../../libs/smtc-hal-mcu-stm32l4/third_party/STM32CubeL4/Drivers/STM32L4xx_HAL_Driver/Inc/stm32l4xx_ll_spi.h **** {
 969:../../../libs/smtc-hal-mcu-stm32l4/third_party/STM32CubeL4/Drivers/STM32L4xx_HAL_Driver/Inc/stm32l4xx_ll_spi.h ****   return ((READ_BIT(SPIx->SR, SPI_SR_BSY) == (SPI_SR_BSY)) ? 1UL : 0UL);
 970:../../../libs/smtc-hal-mcu-stm32l4/third_party/STM32CubeL4/Drivers/STM32L4xx_HAL_Driver/Inc/stm32l4xx_ll_spi.h **** }
 971:../../../libs/smtc-hal-mcu-stm32l4/third_party/STM32CubeL4/Drivers/STM32L4xx_HAL_Driver/Inc/stm32l4xx_ll_spi.h **** 
 972:../../../libs/smtc-hal-mcu-stm32l4/third_party/STM32CubeL4/Drivers/STM32L4xx_HAL_Driver/Inc/stm32l4xx_ll_spi.h **** /**
 973:../../../libs/smtc-hal-mcu-stm32l4/third_party/STM32CubeL4/Drivers/STM32L4xx_HAL_Driver/Inc/stm32l4xx_ll_spi.h ****   * @brief  Get frame format error flag
 974:../../../libs/smtc-hal-mcu-stm32l4/third_party/STM32CubeL4/Drivers/STM32L4xx_HAL_Driver/Inc/stm32l4xx_ll_spi.h ****   * @rmtoll SR           FRE           LL_SPI_IsActiveFlag_FRE
 975:../../../libs/smtc-hal-mcu-stm32l4/third_party/STM32CubeL4/Drivers/STM32L4xx_HAL_Driver/Inc/stm32l4xx_ll_spi.h ****   * @param  SPIx SPI Instance
 976:../../../libs/smtc-hal-mcu-stm32l4/third_party/STM32CubeL4/Drivers/STM32L4xx_HAL_Driver/Inc/stm32l4xx_ll_spi.h ****   * @retval State of bit (1 or 0).
 977:../../../libs/smtc-hal-mcu-stm32l4/third_party/STM32CubeL4/Drivers/STM32L4xx_HAL_Driver/Inc/stm32l4xx_ll_spi.h ****   */
 978:../../../libs/smtc-hal-mcu-stm32l4/third_party/STM32CubeL4/Drivers/STM32L4xx_HAL_Driver/Inc/stm32l4xx_ll_spi.h **** __STATIC_INLINE uint32_t LL_SPI_IsActiveFlag_FRE(SPI_TypeDef *SPIx)
 979:../../../libs/smtc-hal-mcu-stm32l4/third_party/STM32CubeL4/Drivers/STM32L4xx_HAL_Driver/Inc/stm32l4xx_ll_spi.h **** {
 980:../../../libs/smtc-hal-mcu-stm32l4/third_party/STM32CubeL4/Drivers/STM32L4xx_HAL_Driver/Inc/stm32l4xx_ll_spi.h ****   return ((READ_BIT(SPIx->SR, SPI_SR_FRE) == (SPI_SR_FRE)) ? 1UL : 0UL);
 981:../../../libs/smtc-hal-mcu-stm32l4/third_party/STM32CubeL4/Drivers/STM32L4xx_HAL_Driver/Inc/stm32l4xx_ll_spi.h **** }
 982:../../../libs/smtc-hal-mcu-stm32l4/third_party/STM32CubeL4/Drivers/STM32L4xx_HAL_Driver/Inc/stm32l4xx_ll_spi.h **** 
 983:../../../libs/smtc-hal-mcu-stm32l4/third_party/STM32CubeL4/Drivers/STM32L4xx_HAL_Driver/Inc/stm32l4xx_ll_spi.h **** /**
 984:../../../libs/smtc-hal-mcu-stm32l4/third_party/STM32CubeL4/Drivers/STM32L4xx_HAL_Driver/Inc/stm32l4xx_ll_spi.h ****   * @brief  Get FIFO reception Level
 985:../../../libs/smtc-hal-mcu-stm32l4/third_party/STM32CubeL4/Drivers/STM32L4xx_HAL_Driver/Inc/stm32l4xx_ll_spi.h ****   * @rmtoll SR           FRLVL         LL_SPI_GetRxFIFOLevel
 986:../../../libs/smtc-hal-mcu-stm32l4/third_party/STM32CubeL4/Drivers/STM32L4xx_HAL_Driver/Inc/stm32l4xx_ll_spi.h ****   * @param  SPIx SPI Instance
 987:../../../libs/smtc-hal-mcu-stm32l4/third_party/STM32CubeL4/Drivers/STM32L4xx_HAL_Driver/Inc/stm32l4xx_ll_spi.h ****   * @retval Returned value can be one of the following values:
ARM GAS  C:\msys64\tmp\ccnxnf43.s 			page 23


 988:../../../libs/smtc-hal-mcu-stm32l4/third_party/STM32CubeL4/Drivers/STM32L4xx_HAL_Driver/Inc/stm32l4xx_ll_spi.h ****   *         @arg @ref LL_SPI_RX_FIFO_EMPTY
 989:../../../libs/smtc-hal-mcu-stm32l4/third_party/STM32CubeL4/Drivers/STM32L4xx_HAL_Driver/Inc/stm32l4xx_ll_spi.h ****   *         @arg @ref LL_SPI_RX_FIFO_QUARTER_FULL
 990:../../../libs/smtc-hal-mcu-stm32l4/third_party/STM32CubeL4/Drivers/STM32L4xx_HAL_Driver/Inc/stm32l4xx_ll_spi.h ****   *         @arg @ref LL_SPI_RX_FIFO_HALF_FULL
 991:../../../libs/smtc-hal-mcu-stm32l4/third_party/STM32CubeL4/Drivers/STM32L4xx_HAL_Driver/Inc/stm32l4xx_ll_spi.h ****   *         @arg @ref LL_SPI_RX_FIFO_FULL
 992:../../../libs/smtc-hal-mcu-stm32l4/third_party/STM32CubeL4/Drivers/STM32L4xx_HAL_Driver/Inc/stm32l4xx_ll_spi.h ****   */
 993:../../../libs/smtc-hal-mcu-stm32l4/third_party/STM32CubeL4/Drivers/STM32L4xx_HAL_Driver/Inc/stm32l4xx_ll_spi.h **** __STATIC_INLINE uint32_t LL_SPI_GetRxFIFOLevel(SPI_TypeDef *SPIx)
 994:../../../libs/smtc-hal-mcu-stm32l4/third_party/STM32CubeL4/Drivers/STM32L4xx_HAL_Driver/Inc/stm32l4xx_ll_spi.h **** {
 279              		.loc 2 994 1
 280              		.cfi_startproc
 281              		@ args = 0, pretend = 0, frame = 8
 282              		@ frame_needed = 1, uses_anonymous_args = 0
 283              		@ link register save eliminated.
 284 0000 80B4     		push	{r7}
 285              	.LCFI30:
 286              		.cfi_def_cfa_offset 4
 287              		.cfi_offset 7, -4
 288 0002 83B0     		sub	sp, sp, #12
 289              	.LCFI31:
 290              		.cfi_def_cfa_offset 16
 291 0004 00AF     		add	r7, sp, #0
 292              	.LCFI32:
 293              		.cfi_def_cfa_register 7
 294 0006 7860     		str	r0, [r7, #4]
 995:../../../libs/smtc-hal-mcu-stm32l4/third_party/STM32CubeL4/Drivers/STM32L4xx_HAL_Driver/Inc/stm32l4xx_ll_spi.h ****   return (uint32_t)(READ_BIT(SPIx->SR, SPI_SR_FRLVL));
 295              		.loc 2 995 21
 296 0008 7B68     		ldr	r3, [r7, #4]
 297 000a 9B68     		ldr	r3, [r3, #8]
 298              		.loc 2 995 10
 299 000c 03F4C063 		and	r3, r3, #1536
 996:../../../libs/smtc-hal-mcu-stm32l4/third_party/STM32CubeL4/Drivers/STM32L4xx_HAL_Driver/Inc/stm32l4xx_ll_spi.h **** }
 300              		.loc 2 996 1
 301 0010 1846     		mov	r0, r3
 302 0012 0C37     		adds	r7, r7, #12
 303              	.LCFI33:
 304              		.cfi_def_cfa_offset 4
 305 0014 BD46     		mov	sp, r7
 306              	.LCFI34:
 307              		.cfi_def_cfa_register 13
 308              		@ sp needed
 309 0016 5DF8047B 		ldr	r7, [sp], #4
 310              	.LCFI35:
 311              		.cfi_restore 7
 312              		.cfi_def_cfa_offset 0
 313 001a 7047     		bx	lr
 314              		.cfi_endproc
 315              	.LFE175:
 317              		.section	.text.LL_SPI_GetTxFIFOLevel,"ax",%progbits
 318              		.align	1
 319              		.syntax unified
 320              		.thumb
 321              		.thumb_func
 323              	LL_SPI_GetTxFIFOLevel:
 324              	.LFB176:
 997:../../../libs/smtc-hal-mcu-stm32l4/third_party/STM32CubeL4/Drivers/STM32L4xx_HAL_Driver/Inc/stm32l4xx_ll_spi.h **** 
 998:../../../libs/smtc-hal-mcu-stm32l4/third_party/STM32CubeL4/Drivers/STM32L4xx_HAL_Driver/Inc/stm32l4xx_ll_spi.h **** /**
 999:../../../libs/smtc-hal-mcu-stm32l4/third_party/STM32CubeL4/Drivers/STM32L4xx_HAL_Driver/Inc/stm32l4xx_ll_spi.h ****   * @brief  Get FIFO Transmission Level
1000:../../../libs/smtc-hal-mcu-stm32l4/third_party/STM32CubeL4/Drivers/STM32L4xx_HAL_Driver/Inc/stm32l4xx_ll_spi.h ****   * @rmtoll SR           FTLVL         LL_SPI_GetTxFIFOLevel
ARM GAS  C:\msys64\tmp\ccnxnf43.s 			page 24


1001:../../../libs/smtc-hal-mcu-stm32l4/third_party/STM32CubeL4/Drivers/STM32L4xx_HAL_Driver/Inc/stm32l4xx_ll_spi.h ****   * @param  SPIx SPI Instance
1002:../../../libs/smtc-hal-mcu-stm32l4/third_party/STM32CubeL4/Drivers/STM32L4xx_HAL_Driver/Inc/stm32l4xx_ll_spi.h ****   * @retval Returned value can be one of the following values:
1003:../../../libs/smtc-hal-mcu-stm32l4/third_party/STM32CubeL4/Drivers/STM32L4xx_HAL_Driver/Inc/stm32l4xx_ll_spi.h ****   *         @arg @ref LL_SPI_TX_FIFO_EMPTY
1004:../../../libs/smtc-hal-mcu-stm32l4/third_party/STM32CubeL4/Drivers/STM32L4xx_HAL_Driver/Inc/stm32l4xx_ll_spi.h ****   *         @arg @ref LL_SPI_TX_FIFO_QUARTER_FULL
1005:../../../libs/smtc-hal-mcu-stm32l4/third_party/STM32CubeL4/Drivers/STM32L4xx_HAL_Driver/Inc/stm32l4xx_ll_spi.h ****   *         @arg @ref LL_SPI_TX_FIFO_HALF_FULL
1006:../../../libs/smtc-hal-mcu-stm32l4/third_party/STM32CubeL4/Drivers/STM32L4xx_HAL_Driver/Inc/stm32l4xx_ll_spi.h ****   *         @arg @ref LL_SPI_TX_FIFO_FULL
1007:../../../libs/smtc-hal-mcu-stm32l4/third_party/STM32CubeL4/Drivers/STM32L4xx_HAL_Driver/Inc/stm32l4xx_ll_spi.h ****   */
1008:../../../libs/smtc-hal-mcu-stm32l4/third_party/STM32CubeL4/Drivers/STM32L4xx_HAL_Driver/Inc/stm32l4xx_ll_spi.h **** __STATIC_INLINE uint32_t LL_SPI_GetTxFIFOLevel(SPI_TypeDef *SPIx)
1009:../../../libs/smtc-hal-mcu-stm32l4/third_party/STM32CubeL4/Drivers/STM32L4xx_HAL_Driver/Inc/stm32l4xx_ll_spi.h **** {
 325              		.loc 2 1009 1
 326              		.cfi_startproc
 327              		@ args = 0, pretend = 0, frame = 8
 328              		@ frame_needed = 1, uses_anonymous_args = 0
 329              		@ link register save eliminated.
 330 0000 80B4     		push	{r7}
 331              	.LCFI36:
 332              		.cfi_def_cfa_offset 4
 333              		.cfi_offset 7, -4
 334 0002 83B0     		sub	sp, sp, #12
 335              	.LCFI37:
 336              		.cfi_def_cfa_offset 16
 337 0004 00AF     		add	r7, sp, #0
 338              	.LCFI38:
 339              		.cfi_def_cfa_register 7
 340 0006 7860     		str	r0, [r7, #4]
1010:../../../libs/smtc-hal-mcu-stm32l4/third_party/STM32CubeL4/Drivers/STM32L4xx_HAL_Driver/Inc/stm32l4xx_ll_spi.h ****   return (uint32_t)(READ_BIT(SPIx->SR, SPI_SR_FTLVL));
 341              		.loc 2 1010 21
 342 0008 7B68     		ldr	r3, [r7, #4]
 343 000a 9B68     		ldr	r3, [r3, #8]
 344              		.loc 2 1010 10
 345 000c 03F4C053 		and	r3, r3, #6144
1011:../../../libs/smtc-hal-mcu-stm32l4/third_party/STM32CubeL4/Drivers/STM32L4xx_HAL_Driver/Inc/stm32l4xx_ll_spi.h **** }
 346              		.loc 2 1011 1
 347 0010 1846     		mov	r0, r3
 348 0012 0C37     		adds	r7, r7, #12
 349              	.LCFI39:
 350              		.cfi_def_cfa_offset 4
 351 0014 BD46     		mov	sp, r7
 352              	.LCFI40:
 353              		.cfi_def_cfa_register 13
 354              		@ sp needed
 355 0016 5DF8047B 		ldr	r7, [sp], #4
 356              	.LCFI41:
 357              		.cfi_restore 7
 358              		.cfi_def_cfa_offset 0
 359 001a 7047     		bx	lr
 360              		.cfi_endproc
 361              	.LFE176:
 363              		.section	.text.LL_SPI_ReceiveData8,"ax",%progbits
 364              		.align	1
 365              		.syntax unified
 366              		.thumb
 367              		.thumb_func
 369              	LL_SPI_ReceiveData8:
 370              	.LFB201:
1012:../../../libs/smtc-hal-mcu-stm32l4/third_party/STM32CubeL4/Drivers/STM32L4xx_HAL_Driver/Inc/stm32l4xx_ll_spi.h **** 
1013:../../../libs/smtc-hal-mcu-stm32l4/third_party/STM32CubeL4/Drivers/STM32L4xx_HAL_Driver/Inc/stm32l4xx_ll_spi.h **** /**
ARM GAS  C:\msys64\tmp\ccnxnf43.s 			page 25


1014:../../../libs/smtc-hal-mcu-stm32l4/third_party/STM32CubeL4/Drivers/STM32L4xx_HAL_Driver/Inc/stm32l4xx_ll_spi.h ****   * @brief  Clear CRC error flag
1015:../../../libs/smtc-hal-mcu-stm32l4/third_party/STM32CubeL4/Drivers/STM32L4xx_HAL_Driver/Inc/stm32l4xx_ll_spi.h ****   * @rmtoll SR           CRCERR        LL_SPI_ClearFlag_CRCERR
1016:../../../libs/smtc-hal-mcu-stm32l4/third_party/STM32CubeL4/Drivers/STM32L4xx_HAL_Driver/Inc/stm32l4xx_ll_spi.h ****   * @param  SPIx SPI Instance
1017:../../../libs/smtc-hal-mcu-stm32l4/third_party/STM32CubeL4/Drivers/STM32L4xx_HAL_Driver/Inc/stm32l4xx_ll_spi.h ****   * @retval None
1018:../../../libs/smtc-hal-mcu-stm32l4/third_party/STM32CubeL4/Drivers/STM32L4xx_HAL_Driver/Inc/stm32l4xx_ll_spi.h ****   */
1019:../../../libs/smtc-hal-mcu-stm32l4/third_party/STM32CubeL4/Drivers/STM32L4xx_HAL_Driver/Inc/stm32l4xx_ll_spi.h **** __STATIC_INLINE void LL_SPI_ClearFlag_CRCERR(SPI_TypeDef *SPIx)
1020:../../../libs/smtc-hal-mcu-stm32l4/third_party/STM32CubeL4/Drivers/STM32L4xx_HAL_Driver/Inc/stm32l4xx_ll_spi.h **** {
1021:../../../libs/smtc-hal-mcu-stm32l4/third_party/STM32CubeL4/Drivers/STM32L4xx_HAL_Driver/Inc/stm32l4xx_ll_spi.h ****   CLEAR_BIT(SPIx->SR, SPI_SR_CRCERR);
1022:../../../libs/smtc-hal-mcu-stm32l4/third_party/STM32CubeL4/Drivers/STM32L4xx_HAL_Driver/Inc/stm32l4xx_ll_spi.h **** }
1023:../../../libs/smtc-hal-mcu-stm32l4/third_party/STM32CubeL4/Drivers/STM32L4xx_HAL_Driver/Inc/stm32l4xx_ll_spi.h **** 
1024:../../../libs/smtc-hal-mcu-stm32l4/third_party/STM32CubeL4/Drivers/STM32L4xx_HAL_Driver/Inc/stm32l4xx_ll_spi.h **** /**
1025:../../../libs/smtc-hal-mcu-stm32l4/third_party/STM32CubeL4/Drivers/STM32L4xx_HAL_Driver/Inc/stm32l4xx_ll_spi.h ****   * @brief  Clear mode fault error flag
1026:../../../libs/smtc-hal-mcu-stm32l4/third_party/STM32CubeL4/Drivers/STM32L4xx_HAL_Driver/Inc/stm32l4xx_ll_spi.h ****   * @note   Clearing this flag is done by a read access to the SPIx_SR
1027:../../../libs/smtc-hal-mcu-stm32l4/third_party/STM32CubeL4/Drivers/STM32L4xx_HAL_Driver/Inc/stm32l4xx_ll_spi.h ****   *         register followed by a write access to the SPIx_CR1 register
1028:../../../libs/smtc-hal-mcu-stm32l4/third_party/STM32CubeL4/Drivers/STM32L4xx_HAL_Driver/Inc/stm32l4xx_ll_spi.h ****   * @rmtoll SR           MODF          LL_SPI_ClearFlag_MODF
1029:../../../libs/smtc-hal-mcu-stm32l4/third_party/STM32CubeL4/Drivers/STM32L4xx_HAL_Driver/Inc/stm32l4xx_ll_spi.h ****   * @param  SPIx SPI Instance
1030:../../../libs/smtc-hal-mcu-stm32l4/third_party/STM32CubeL4/Drivers/STM32L4xx_HAL_Driver/Inc/stm32l4xx_ll_spi.h ****   * @retval None
1031:../../../libs/smtc-hal-mcu-stm32l4/third_party/STM32CubeL4/Drivers/STM32L4xx_HAL_Driver/Inc/stm32l4xx_ll_spi.h ****   */
1032:../../../libs/smtc-hal-mcu-stm32l4/third_party/STM32CubeL4/Drivers/STM32L4xx_HAL_Driver/Inc/stm32l4xx_ll_spi.h **** __STATIC_INLINE void LL_SPI_ClearFlag_MODF(SPI_TypeDef *SPIx)
1033:../../../libs/smtc-hal-mcu-stm32l4/third_party/STM32CubeL4/Drivers/STM32L4xx_HAL_Driver/Inc/stm32l4xx_ll_spi.h **** {
1034:../../../libs/smtc-hal-mcu-stm32l4/third_party/STM32CubeL4/Drivers/STM32L4xx_HAL_Driver/Inc/stm32l4xx_ll_spi.h ****   __IO uint32_t tmpreg_sr;
1035:../../../libs/smtc-hal-mcu-stm32l4/third_party/STM32CubeL4/Drivers/STM32L4xx_HAL_Driver/Inc/stm32l4xx_ll_spi.h ****   tmpreg_sr = SPIx->SR;
1036:../../../libs/smtc-hal-mcu-stm32l4/third_party/STM32CubeL4/Drivers/STM32L4xx_HAL_Driver/Inc/stm32l4xx_ll_spi.h ****   (void) tmpreg_sr;
1037:../../../libs/smtc-hal-mcu-stm32l4/third_party/STM32CubeL4/Drivers/STM32L4xx_HAL_Driver/Inc/stm32l4xx_ll_spi.h ****   CLEAR_BIT(SPIx->CR1, SPI_CR1_SPE);
1038:../../../libs/smtc-hal-mcu-stm32l4/third_party/STM32CubeL4/Drivers/STM32L4xx_HAL_Driver/Inc/stm32l4xx_ll_spi.h **** }
1039:../../../libs/smtc-hal-mcu-stm32l4/third_party/STM32CubeL4/Drivers/STM32L4xx_HAL_Driver/Inc/stm32l4xx_ll_spi.h **** 
1040:../../../libs/smtc-hal-mcu-stm32l4/third_party/STM32CubeL4/Drivers/STM32L4xx_HAL_Driver/Inc/stm32l4xx_ll_spi.h **** /**
1041:../../../libs/smtc-hal-mcu-stm32l4/third_party/STM32CubeL4/Drivers/STM32L4xx_HAL_Driver/Inc/stm32l4xx_ll_spi.h ****   * @brief  Clear overrun error flag
1042:../../../libs/smtc-hal-mcu-stm32l4/third_party/STM32CubeL4/Drivers/STM32L4xx_HAL_Driver/Inc/stm32l4xx_ll_spi.h ****   * @note   Clearing this flag is done by a read access to the SPIx_DR
1043:../../../libs/smtc-hal-mcu-stm32l4/third_party/STM32CubeL4/Drivers/STM32L4xx_HAL_Driver/Inc/stm32l4xx_ll_spi.h ****   *         register followed by a read access to the SPIx_SR register
1044:../../../libs/smtc-hal-mcu-stm32l4/third_party/STM32CubeL4/Drivers/STM32L4xx_HAL_Driver/Inc/stm32l4xx_ll_spi.h ****   * @rmtoll SR           OVR           LL_SPI_ClearFlag_OVR
1045:../../../libs/smtc-hal-mcu-stm32l4/third_party/STM32CubeL4/Drivers/STM32L4xx_HAL_Driver/Inc/stm32l4xx_ll_spi.h ****   * @param  SPIx SPI Instance
1046:../../../libs/smtc-hal-mcu-stm32l4/third_party/STM32CubeL4/Drivers/STM32L4xx_HAL_Driver/Inc/stm32l4xx_ll_spi.h ****   * @retval None
1047:../../../libs/smtc-hal-mcu-stm32l4/third_party/STM32CubeL4/Drivers/STM32L4xx_HAL_Driver/Inc/stm32l4xx_ll_spi.h ****   */
1048:../../../libs/smtc-hal-mcu-stm32l4/third_party/STM32CubeL4/Drivers/STM32L4xx_HAL_Driver/Inc/stm32l4xx_ll_spi.h **** __STATIC_INLINE void LL_SPI_ClearFlag_OVR(SPI_TypeDef *SPIx)
1049:../../../libs/smtc-hal-mcu-stm32l4/third_party/STM32CubeL4/Drivers/STM32L4xx_HAL_Driver/Inc/stm32l4xx_ll_spi.h **** {
1050:../../../libs/smtc-hal-mcu-stm32l4/third_party/STM32CubeL4/Drivers/STM32L4xx_HAL_Driver/Inc/stm32l4xx_ll_spi.h ****   __IO uint32_t tmpreg;
1051:../../../libs/smtc-hal-mcu-stm32l4/third_party/STM32CubeL4/Drivers/STM32L4xx_HAL_Driver/Inc/stm32l4xx_ll_spi.h ****   tmpreg = SPIx->DR;
1052:../../../libs/smtc-hal-mcu-stm32l4/third_party/STM32CubeL4/Drivers/STM32L4xx_HAL_Driver/Inc/stm32l4xx_ll_spi.h ****   (void) tmpreg;
1053:../../../libs/smtc-hal-mcu-stm32l4/third_party/STM32CubeL4/Drivers/STM32L4xx_HAL_Driver/Inc/stm32l4xx_ll_spi.h ****   tmpreg = SPIx->SR;
1054:../../../libs/smtc-hal-mcu-stm32l4/third_party/STM32CubeL4/Drivers/STM32L4xx_HAL_Driver/Inc/stm32l4xx_ll_spi.h ****   (void) tmpreg;
1055:../../../libs/smtc-hal-mcu-stm32l4/third_party/STM32CubeL4/Drivers/STM32L4xx_HAL_Driver/Inc/stm32l4xx_ll_spi.h **** }
1056:../../../libs/smtc-hal-mcu-stm32l4/third_party/STM32CubeL4/Drivers/STM32L4xx_HAL_Driver/Inc/stm32l4xx_ll_spi.h **** 
1057:../../../libs/smtc-hal-mcu-stm32l4/third_party/STM32CubeL4/Drivers/STM32L4xx_HAL_Driver/Inc/stm32l4xx_ll_spi.h **** /**
1058:../../../libs/smtc-hal-mcu-stm32l4/third_party/STM32CubeL4/Drivers/STM32L4xx_HAL_Driver/Inc/stm32l4xx_ll_spi.h ****   * @brief  Clear frame format error flag
1059:../../../libs/smtc-hal-mcu-stm32l4/third_party/STM32CubeL4/Drivers/STM32L4xx_HAL_Driver/Inc/stm32l4xx_ll_spi.h ****   * @note   Clearing this flag is done by reading SPIx_SR register
1060:../../../libs/smtc-hal-mcu-stm32l4/third_party/STM32CubeL4/Drivers/STM32L4xx_HAL_Driver/Inc/stm32l4xx_ll_spi.h ****   * @rmtoll SR           FRE           LL_SPI_ClearFlag_FRE
1061:../../../libs/smtc-hal-mcu-stm32l4/third_party/STM32CubeL4/Drivers/STM32L4xx_HAL_Driver/Inc/stm32l4xx_ll_spi.h ****   * @param  SPIx SPI Instance
1062:../../../libs/smtc-hal-mcu-stm32l4/third_party/STM32CubeL4/Drivers/STM32L4xx_HAL_Driver/Inc/stm32l4xx_ll_spi.h ****   * @retval None
1063:../../../libs/smtc-hal-mcu-stm32l4/third_party/STM32CubeL4/Drivers/STM32L4xx_HAL_Driver/Inc/stm32l4xx_ll_spi.h ****   */
1064:../../../libs/smtc-hal-mcu-stm32l4/third_party/STM32CubeL4/Drivers/STM32L4xx_HAL_Driver/Inc/stm32l4xx_ll_spi.h **** __STATIC_INLINE void LL_SPI_ClearFlag_FRE(SPI_TypeDef *SPIx)
1065:../../../libs/smtc-hal-mcu-stm32l4/third_party/STM32CubeL4/Drivers/STM32L4xx_HAL_Driver/Inc/stm32l4xx_ll_spi.h **** {
1066:../../../libs/smtc-hal-mcu-stm32l4/third_party/STM32CubeL4/Drivers/STM32L4xx_HAL_Driver/Inc/stm32l4xx_ll_spi.h ****   __IO uint32_t tmpreg;
1067:../../../libs/smtc-hal-mcu-stm32l4/third_party/STM32CubeL4/Drivers/STM32L4xx_HAL_Driver/Inc/stm32l4xx_ll_spi.h ****   tmpreg = SPIx->SR;
1068:../../../libs/smtc-hal-mcu-stm32l4/third_party/STM32CubeL4/Drivers/STM32L4xx_HAL_Driver/Inc/stm32l4xx_ll_spi.h ****   (void) tmpreg;
1069:../../../libs/smtc-hal-mcu-stm32l4/third_party/STM32CubeL4/Drivers/STM32L4xx_HAL_Driver/Inc/stm32l4xx_ll_spi.h **** }
1070:../../../libs/smtc-hal-mcu-stm32l4/third_party/STM32CubeL4/Drivers/STM32L4xx_HAL_Driver/Inc/stm32l4xx_ll_spi.h **** 
ARM GAS  C:\msys64\tmp\ccnxnf43.s 			page 26


1071:../../../libs/smtc-hal-mcu-stm32l4/third_party/STM32CubeL4/Drivers/STM32L4xx_HAL_Driver/Inc/stm32l4xx_ll_spi.h **** /**
1072:../../../libs/smtc-hal-mcu-stm32l4/third_party/STM32CubeL4/Drivers/STM32L4xx_HAL_Driver/Inc/stm32l4xx_ll_spi.h ****   * @}
1073:../../../libs/smtc-hal-mcu-stm32l4/third_party/STM32CubeL4/Drivers/STM32L4xx_HAL_Driver/Inc/stm32l4xx_ll_spi.h ****   */
1074:../../../libs/smtc-hal-mcu-stm32l4/third_party/STM32CubeL4/Drivers/STM32L4xx_HAL_Driver/Inc/stm32l4xx_ll_spi.h **** 
1075:../../../libs/smtc-hal-mcu-stm32l4/third_party/STM32CubeL4/Drivers/STM32L4xx_HAL_Driver/Inc/stm32l4xx_ll_spi.h **** /** @defgroup SPI_LL_EF_IT_Management Interrupt Management
1076:../../../libs/smtc-hal-mcu-stm32l4/third_party/STM32CubeL4/Drivers/STM32L4xx_HAL_Driver/Inc/stm32l4xx_ll_spi.h ****   * @{
1077:../../../libs/smtc-hal-mcu-stm32l4/third_party/STM32CubeL4/Drivers/STM32L4xx_HAL_Driver/Inc/stm32l4xx_ll_spi.h ****   */
1078:../../../libs/smtc-hal-mcu-stm32l4/third_party/STM32CubeL4/Drivers/STM32L4xx_HAL_Driver/Inc/stm32l4xx_ll_spi.h **** 
1079:../../../libs/smtc-hal-mcu-stm32l4/third_party/STM32CubeL4/Drivers/STM32L4xx_HAL_Driver/Inc/stm32l4xx_ll_spi.h **** /**
1080:../../../libs/smtc-hal-mcu-stm32l4/third_party/STM32CubeL4/Drivers/STM32L4xx_HAL_Driver/Inc/stm32l4xx_ll_spi.h ****   * @brief  Enable error interrupt
1081:../../../libs/smtc-hal-mcu-stm32l4/third_party/STM32CubeL4/Drivers/STM32L4xx_HAL_Driver/Inc/stm32l4xx_ll_spi.h ****   * @note   This bit controls the generation of an interrupt when an error condition occurs (CRCERR
1082:../../../libs/smtc-hal-mcu-stm32l4/third_party/STM32CubeL4/Drivers/STM32L4xx_HAL_Driver/Inc/stm32l4xx_ll_spi.h ****   * @rmtoll CR2          ERRIE         LL_SPI_EnableIT_ERR
1083:../../../libs/smtc-hal-mcu-stm32l4/third_party/STM32CubeL4/Drivers/STM32L4xx_HAL_Driver/Inc/stm32l4xx_ll_spi.h ****   * @param  SPIx SPI Instance
1084:../../../libs/smtc-hal-mcu-stm32l4/third_party/STM32CubeL4/Drivers/STM32L4xx_HAL_Driver/Inc/stm32l4xx_ll_spi.h ****   * @retval None
1085:../../../libs/smtc-hal-mcu-stm32l4/third_party/STM32CubeL4/Drivers/STM32L4xx_HAL_Driver/Inc/stm32l4xx_ll_spi.h ****   */
1086:../../../libs/smtc-hal-mcu-stm32l4/third_party/STM32CubeL4/Drivers/STM32L4xx_HAL_Driver/Inc/stm32l4xx_ll_spi.h **** __STATIC_INLINE void LL_SPI_EnableIT_ERR(SPI_TypeDef *SPIx)
1087:../../../libs/smtc-hal-mcu-stm32l4/third_party/STM32CubeL4/Drivers/STM32L4xx_HAL_Driver/Inc/stm32l4xx_ll_spi.h **** {
1088:../../../libs/smtc-hal-mcu-stm32l4/third_party/STM32CubeL4/Drivers/STM32L4xx_HAL_Driver/Inc/stm32l4xx_ll_spi.h ****   SET_BIT(SPIx->CR2, SPI_CR2_ERRIE);
1089:../../../libs/smtc-hal-mcu-stm32l4/third_party/STM32CubeL4/Drivers/STM32L4xx_HAL_Driver/Inc/stm32l4xx_ll_spi.h **** }
1090:../../../libs/smtc-hal-mcu-stm32l4/third_party/STM32CubeL4/Drivers/STM32L4xx_HAL_Driver/Inc/stm32l4xx_ll_spi.h **** 
1091:../../../libs/smtc-hal-mcu-stm32l4/third_party/STM32CubeL4/Drivers/STM32L4xx_HAL_Driver/Inc/stm32l4xx_ll_spi.h **** /**
1092:../../../libs/smtc-hal-mcu-stm32l4/third_party/STM32CubeL4/Drivers/STM32L4xx_HAL_Driver/Inc/stm32l4xx_ll_spi.h ****   * @brief  Enable Rx buffer not empty interrupt
1093:../../../libs/smtc-hal-mcu-stm32l4/third_party/STM32CubeL4/Drivers/STM32L4xx_HAL_Driver/Inc/stm32l4xx_ll_spi.h ****   * @rmtoll CR2          RXNEIE        LL_SPI_EnableIT_RXNE
1094:../../../libs/smtc-hal-mcu-stm32l4/third_party/STM32CubeL4/Drivers/STM32L4xx_HAL_Driver/Inc/stm32l4xx_ll_spi.h ****   * @param  SPIx SPI Instance
1095:../../../libs/smtc-hal-mcu-stm32l4/third_party/STM32CubeL4/Drivers/STM32L4xx_HAL_Driver/Inc/stm32l4xx_ll_spi.h ****   * @retval None
1096:../../../libs/smtc-hal-mcu-stm32l4/third_party/STM32CubeL4/Drivers/STM32L4xx_HAL_Driver/Inc/stm32l4xx_ll_spi.h ****   */
1097:../../../libs/smtc-hal-mcu-stm32l4/third_party/STM32CubeL4/Drivers/STM32L4xx_HAL_Driver/Inc/stm32l4xx_ll_spi.h **** __STATIC_INLINE void LL_SPI_EnableIT_RXNE(SPI_TypeDef *SPIx)
1098:../../../libs/smtc-hal-mcu-stm32l4/third_party/STM32CubeL4/Drivers/STM32L4xx_HAL_Driver/Inc/stm32l4xx_ll_spi.h **** {
1099:../../../libs/smtc-hal-mcu-stm32l4/third_party/STM32CubeL4/Drivers/STM32L4xx_HAL_Driver/Inc/stm32l4xx_ll_spi.h ****   SET_BIT(SPIx->CR2, SPI_CR2_RXNEIE);
1100:../../../libs/smtc-hal-mcu-stm32l4/third_party/STM32CubeL4/Drivers/STM32L4xx_HAL_Driver/Inc/stm32l4xx_ll_spi.h **** }
1101:../../../libs/smtc-hal-mcu-stm32l4/third_party/STM32CubeL4/Drivers/STM32L4xx_HAL_Driver/Inc/stm32l4xx_ll_spi.h **** 
1102:../../../libs/smtc-hal-mcu-stm32l4/third_party/STM32CubeL4/Drivers/STM32L4xx_HAL_Driver/Inc/stm32l4xx_ll_spi.h **** /**
1103:../../../libs/smtc-hal-mcu-stm32l4/third_party/STM32CubeL4/Drivers/STM32L4xx_HAL_Driver/Inc/stm32l4xx_ll_spi.h ****   * @brief  Enable Tx buffer empty interrupt
1104:../../../libs/smtc-hal-mcu-stm32l4/third_party/STM32CubeL4/Drivers/STM32L4xx_HAL_Driver/Inc/stm32l4xx_ll_spi.h ****   * @rmtoll CR2          TXEIE         LL_SPI_EnableIT_TXE
1105:../../../libs/smtc-hal-mcu-stm32l4/third_party/STM32CubeL4/Drivers/STM32L4xx_HAL_Driver/Inc/stm32l4xx_ll_spi.h ****   * @param  SPIx SPI Instance
1106:../../../libs/smtc-hal-mcu-stm32l4/third_party/STM32CubeL4/Drivers/STM32L4xx_HAL_Driver/Inc/stm32l4xx_ll_spi.h ****   * @retval None
1107:../../../libs/smtc-hal-mcu-stm32l4/third_party/STM32CubeL4/Drivers/STM32L4xx_HAL_Driver/Inc/stm32l4xx_ll_spi.h ****   */
1108:../../../libs/smtc-hal-mcu-stm32l4/third_party/STM32CubeL4/Drivers/STM32L4xx_HAL_Driver/Inc/stm32l4xx_ll_spi.h **** __STATIC_INLINE void LL_SPI_EnableIT_TXE(SPI_TypeDef *SPIx)
1109:../../../libs/smtc-hal-mcu-stm32l4/third_party/STM32CubeL4/Drivers/STM32L4xx_HAL_Driver/Inc/stm32l4xx_ll_spi.h **** {
1110:../../../libs/smtc-hal-mcu-stm32l4/third_party/STM32CubeL4/Drivers/STM32L4xx_HAL_Driver/Inc/stm32l4xx_ll_spi.h ****   SET_BIT(SPIx->CR2, SPI_CR2_TXEIE);
1111:../../../libs/smtc-hal-mcu-stm32l4/third_party/STM32CubeL4/Drivers/STM32L4xx_HAL_Driver/Inc/stm32l4xx_ll_spi.h **** }
1112:../../../libs/smtc-hal-mcu-stm32l4/third_party/STM32CubeL4/Drivers/STM32L4xx_HAL_Driver/Inc/stm32l4xx_ll_spi.h **** 
1113:../../../libs/smtc-hal-mcu-stm32l4/third_party/STM32CubeL4/Drivers/STM32L4xx_HAL_Driver/Inc/stm32l4xx_ll_spi.h **** /**
1114:../../../libs/smtc-hal-mcu-stm32l4/third_party/STM32CubeL4/Drivers/STM32L4xx_HAL_Driver/Inc/stm32l4xx_ll_spi.h ****   * @brief  Disable error interrupt
1115:../../../libs/smtc-hal-mcu-stm32l4/third_party/STM32CubeL4/Drivers/STM32L4xx_HAL_Driver/Inc/stm32l4xx_ll_spi.h ****   * @note   This bit controls the generation of an interrupt when an error condition occurs (CRCERR
1116:../../../libs/smtc-hal-mcu-stm32l4/third_party/STM32CubeL4/Drivers/STM32L4xx_HAL_Driver/Inc/stm32l4xx_ll_spi.h ****   * @rmtoll CR2          ERRIE         LL_SPI_DisableIT_ERR
1117:../../../libs/smtc-hal-mcu-stm32l4/third_party/STM32CubeL4/Drivers/STM32L4xx_HAL_Driver/Inc/stm32l4xx_ll_spi.h ****   * @param  SPIx SPI Instance
1118:../../../libs/smtc-hal-mcu-stm32l4/third_party/STM32CubeL4/Drivers/STM32L4xx_HAL_Driver/Inc/stm32l4xx_ll_spi.h ****   * @retval None
1119:../../../libs/smtc-hal-mcu-stm32l4/third_party/STM32CubeL4/Drivers/STM32L4xx_HAL_Driver/Inc/stm32l4xx_ll_spi.h ****   */
1120:../../../libs/smtc-hal-mcu-stm32l4/third_party/STM32CubeL4/Drivers/STM32L4xx_HAL_Driver/Inc/stm32l4xx_ll_spi.h **** __STATIC_INLINE void LL_SPI_DisableIT_ERR(SPI_TypeDef *SPIx)
1121:../../../libs/smtc-hal-mcu-stm32l4/third_party/STM32CubeL4/Drivers/STM32L4xx_HAL_Driver/Inc/stm32l4xx_ll_spi.h **** {
1122:../../../libs/smtc-hal-mcu-stm32l4/third_party/STM32CubeL4/Drivers/STM32L4xx_HAL_Driver/Inc/stm32l4xx_ll_spi.h ****   CLEAR_BIT(SPIx->CR2, SPI_CR2_ERRIE);
1123:../../../libs/smtc-hal-mcu-stm32l4/third_party/STM32CubeL4/Drivers/STM32L4xx_HAL_Driver/Inc/stm32l4xx_ll_spi.h **** }
1124:../../../libs/smtc-hal-mcu-stm32l4/third_party/STM32CubeL4/Drivers/STM32L4xx_HAL_Driver/Inc/stm32l4xx_ll_spi.h **** 
1125:../../../libs/smtc-hal-mcu-stm32l4/third_party/STM32CubeL4/Drivers/STM32L4xx_HAL_Driver/Inc/stm32l4xx_ll_spi.h **** /**
1126:../../../libs/smtc-hal-mcu-stm32l4/third_party/STM32CubeL4/Drivers/STM32L4xx_HAL_Driver/Inc/stm32l4xx_ll_spi.h ****   * @brief  Disable Rx buffer not empty interrupt
1127:../../../libs/smtc-hal-mcu-stm32l4/third_party/STM32CubeL4/Drivers/STM32L4xx_HAL_Driver/Inc/stm32l4xx_ll_spi.h ****   * @rmtoll CR2          RXNEIE        LL_SPI_DisableIT_RXNE
ARM GAS  C:\msys64\tmp\ccnxnf43.s 			page 27


1128:../../../libs/smtc-hal-mcu-stm32l4/third_party/STM32CubeL4/Drivers/STM32L4xx_HAL_Driver/Inc/stm32l4xx_ll_spi.h ****   * @param  SPIx SPI Instance
1129:../../../libs/smtc-hal-mcu-stm32l4/third_party/STM32CubeL4/Drivers/STM32L4xx_HAL_Driver/Inc/stm32l4xx_ll_spi.h ****   * @retval None
1130:../../../libs/smtc-hal-mcu-stm32l4/third_party/STM32CubeL4/Drivers/STM32L4xx_HAL_Driver/Inc/stm32l4xx_ll_spi.h ****   */
1131:../../../libs/smtc-hal-mcu-stm32l4/third_party/STM32CubeL4/Drivers/STM32L4xx_HAL_Driver/Inc/stm32l4xx_ll_spi.h **** __STATIC_INLINE void LL_SPI_DisableIT_RXNE(SPI_TypeDef *SPIx)
1132:../../../libs/smtc-hal-mcu-stm32l4/third_party/STM32CubeL4/Drivers/STM32L4xx_HAL_Driver/Inc/stm32l4xx_ll_spi.h **** {
1133:../../../libs/smtc-hal-mcu-stm32l4/third_party/STM32CubeL4/Drivers/STM32L4xx_HAL_Driver/Inc/stm32l4xx_ll_spi.h ****   CLEAR_BIT(SPIx->CR2, SPI_CR2_RXNEIE);
1134:../../../libs/smtc-hal-mcu-stm32l4/third_party/STM32CubeL4/Drivers/STM32L4xx_HAL_Driver/Inc/stm32l4xx_ll_spi.h **** }
1135:../../../libs/smtc-hal-mcu-stm32l4/third_party/STM32CubeL4/Drivers/STM32L4xx_HAL_Driver/Inc/stm32l4xx_ll_spi.h **** 
1136:../../../libs/smtc-hal-mcu-stm32l4/third_party/STM32CubeL4/Drivers/STM32L4xx_HAL_Driver/Inc/stm32l4xx_ll_spi.h **** /**
1137:../../../libs/smtc-hal-mcu-stm32l4/third_party/STM32CubeL4/Drivers/STM32L4xx_HAL_Driver/Inc/stm32l4xx_ll_spi.h ****   * @brief  Disable Tx buffer empty interrupt
1138:../../../libs/smtc-hal-mcu-stm32l4/third_party/STM32CubeL4/Drivers/STM32L4xx_HAL_Driver/Inc/stm32l4xx_ll_spi.h ****   * @rmtoll CR2          TXEIE         LL_SPI_DisableIT_TXE
1139:../../../libs/smtc-hal-mcu-stm32l4/third_party/STM32CubeL4/Drivers/STM32L4xx_HAL_Driver/Inc/stm32l4xx_ll_spi.h ****   * @param  SPIx SPI Instance
1140:../../../libs/smtc-hal-mcu-stm32l4/third_party/STM32CubeL4/Drivers/STM32L4xx_HAL_Driver/Inc/stm32l4xx_ll_spi.h ****   * @retval None
1141:../../../libs/smtc-hal-mcu-stm32l4/third_party/STM32CubeL4/Drivers/STM32L4xx_HAL_Driver/Inc/stm32l4xx_ll_spi.h ****   */
1142:../../../libs/smtc-hal-mcu-stm32l4/third_party/STM32CubeL4/Drivers/STM32L4xx_HAL_Driver/Inc/stm32l4xx_ll_spi.h **** __STATIC_INLINE void LL_SPI_DisableIT_TXE(SPI_TypeDef *SPIx)
1143:../../../libs/smtc-hal-mcu-stm32l4/third_party/STM32CubeL4/Drivers/STM32L4xx_HAL_Driver/Inc/stm32l4xx_ll_spi.h **** {
1144:../../../libs/smtc-hal-mcu-stm32l4/third_party/STM32CubeL4/Drivers/STM32L4xx_HAL_Driver/Inc/stm32l4xx_ll_spi.h ****   CLEAR_BIT(SPIx->CR2, SPI_CR2_TXEIE);
1145:../../../libs/smtc-hal-mcu-stm32l4/third_party/STM32CubeL4/Drivers/STM32L4xx_HAL_Driver/Inc/stm32l4xx_ll_spi.h **** }
1146:../../../libs/smtc-hal-mcu-stm32l4/third_party/STM32CubeL4/Drivers/STM32L4xx_HAL_Driver/Inc/stm32l4xx_ll_spi.h **** 
1147:../../../libs/smtc-hal-mcu-stm32l4/third_party/STM32CubeL4/Drivers/STM32L4xx_HAL_Driver/Inc/stm32l4xx_ll_spi.h **** /**
1148:../../../libs/smtc-hal-mcu-stm32l4/third_party/STM32CubeL4/Drivers/STM32L4xx_HAL_Driver/Inc/stm32l4xx_ll_spi.h ****   * @brief  Check if error interrupt is enabled
1149:../../../libs/smtc-hal-mcu-stm32l4/third_party/STM32CubeL4/Drivers/STM32L4xx_HAL_Driver/Inc/stm32l4xx_ll_spi.h ****   * @rmtoll CR2          ERRIE         LL_SPI_IsEnabledIT_ERR
1150:../../../libs/smtc-hal-mcu-stm32l4/third_party/STM32CubeL4/Drivers/STM32L4xx_HAL_Driver/Inc/stm32l4xx_ll_spi.h ****   * @param  SPIx SPI Instance
1151:../../../libs/smtc-hal-mcu-stm32l4/third_party/STM32CubeL4/Drivers/STM32L4xx_HAL_Driver/Inc/stm32l4xx_ll_spi.h ****   * @retval State of bit (1 or 0).
1152:../../../libs/smtc-hal-mcu-stm32l4/third_party/STM32CubeL4/Drivers/STM32L4xx_HAL_Driver/Inc/stm32l4xx_ll_spi.h ****   */
1153:../../../libs/smtc-hal-mcu-stm32l4/third_party/STM32CubeL4/Drivers/STM32L4xx_HAL_Driver/Inc/stm32l4xx_ll_spi.h **** __STATIC_INLINE uint32_t LL_SPI_IsEnabledIT_ERR(SPI_TypeDef *SPIx)
1154:../../../libs/smtc-hal-mcu-stm32l4/third_party/STM32CubeL4/Drivers/STM32L4xx_HAL_Driver/Inc/stm32l4xx_ll_spi.h **** {
1155:../../../libs/smtc-hal-mcu-stm32l4/third_party/STM32CubeL4/Drivers/STM32L4xx_HAL_Driver/Inc/stm32l4xx_ll_spi.h ****   return ((READ_BIT(SPIx->CR2, SPI_CR2_ERRIE) == (SPI_CR2_ERRIE)) ? 1UL : 0UL);
1156:../../../libs/smtc-hal-mcu-stm32l4/third_party/STM32CubeL4/Drivers/STM32L4xx_HAL_Driver/Inc/stm32l4xx_ll_spi.h **** }
1157:../../../libs/smtc-hal-mcu-stm32l4/third_party/STM32CubeL4/Drivers/STM32L4xx_HAL_Driver/Inc/stm32l4xx_ll_spi.h **** 
1158:../../../libs/smtc-hal-mcu-stm32l4/third_party/STM32CubeL4/Drivers/STM32L4xx_HAL_Driver/Inc/stm32l4xx_ll_spi.h **** /**
1159:../../../libs/smtc-hal-mcu-stm32l4/third_party/STM32CubeL4/Drivers/STM32L4xx_HAL_Driver/Inc/stm32l4xx_ll_spi.h ****   * @brief  Check if Rx buffer not empty interrupt is enabled
1160:../../../libs/smtc-hal-mcu-stm32l4/third_party/STM32CubeL4/Drivers/STM32L4xx_HAL_Driver/Inc/stm32l4xx_ll_spi.h ****   * @rmtoll CR2          RXNEIE        LL_SPI_IsEnabledIT_RXNE
1161:../../../libs/smtc-hal-mcu-stm32l4/third_party/STM32CubeL4/Drivers/STM32L4xx_HAL_Driver/Inc/stm32l4xx_ll_spi.h ****   * @param  SPIx SPI Instance
1162:../../../libs/smtc-hal-mcu-stm32l4/third_party/STM32CubeL4/Drivers/STM32L4xx_HAL_Driver/Inc/stm32l4xx_ll_spi.h ****   * @retval State of bit (1 or 0).
1163:../../../libs/smtc-hal-mcu-stm32l4/third_party/STM32CubeL4/Drivers/STM32L4xx_HAL_Driver/Inc/stm32l4xx_ll_spi.h ****   */
1164:../../../libs/smtc-hal-mcu-stm32l4/third_party/STM32CubeL4/Drivers/STM32L4xx_HAL_Driver/Inc/stm32l4xx_ll_spi.h **** __STATIC_INLINE uint32_t LL_SPI_IsEnabledIT_RXNE(SPI_TypeDef *SPIx)
1165:../../../libs/smtc-hal-mcu-stm32l4/third_party/STM32CubeL4/Drivers/STM32L4xx_HAL_Driver/Inc/stm32l4xx_ll_spi.h **** {
1166:../../../libs/smtc-hal-mcu-stm32l4/third_party/STM32CubeL4/Drivers/STM32L4xx_HAL_Driver/Inc/stm32l4xx_ll_spi.h ****   return ((READ_BIT(SPIx->CR2, SPI_CR2_RXNEIE) == (SPI_CR2_RXNEIE)) ? 1UL : 0UL);
1167:../../../libs/smtc-hal-mcu-stm32l4/third_party/STM32CubeL4/Drivers/STM32L4xx_HAL_Driver/Inc/stm32l4xx_ll_spi.h **** }
1168:../../../libs/smtc-hal-mcu-stm32l4/third_party/STM32CubeL4/Drivers/STM32L4xx_HAL_Driver/Inc/stm32l4xx_ll_spi.h **** 
1169:../../../libs/smtc-hal-mcu-stm32l4/third_party/STM32CubeL4/Drivers/STM32L4xx_HAL_Driver/Inc/stm32l4xx_ll_spi.h **** /**
1170:../../../libs/smtc-hal-mcu-stm32l4/third_party/STM32CubeL4/Drivers/STM32L4xx_HAL_Driver/Inc/stm32l4xx_ll_spi.h ****   * @brief  Check if Tx buffer empty interrupt
1171:../../../libs/smtc-hal-mcu-stm32l4/third_party/STM32CubeL4/Drivers/STM32L4xx_HAL_Driver/Inc/stm32l4xx_ll_spi.h ****   * @rmtoll CR2          TXEIE         LL_SPI_IsEnabledIT_TXE
1172:../../../libs/smtc-hal-mcu-stm32l4/third_party/STM32CubeL4/Drivers/STM32L4xx_HAL_Driver/Inc/stm32l4xx_ll_spi.h ****   * @param  SPIx SPI Instance
1173:../../../libs/smtc-hal-mcu-stm32l4/third_party/STM32CubeL4/Drivers/STM32L4xx_HAL_Driver/Inc/stm32l4xx_ll_spi.h ****   * @retval State of bit (1 or 0).
1174:../../../libs/smtc-hal-mcu-stm32l4/third_party/STM32CubeL4/Drivers/STM32L4xx_HAL_Driver/Inc/stm32l4xx_ll_spi.h ****   */
1175:../../../libs/smtc-hal-mcu-stm32l4/third_party/STM32CubeL4/Drivers/STM32L4xx_HAL_Driver/Inc/stm32l4xx_ll_spi.h **** __STATIC_INLINE uint32_t LL_SPI_IsEnabledIT_TXE(SPI_TypeDef *SPIx)
1176:../../../libs/smtc-hal-mcu-stm32l4/third_party/STM32CubeL4/Drivers/STM32L4xx_HAL_Driver/Inc/stm32l4xx_ll_spi.h **** {
1177:../../../libs/smtc-hal-mcu-stm32l4/third_party/STM32CubeL4/Drivers/STM32L4xx_HAL_Driver/Inc/stm32l4xx_ll_spi.h ****   return ((READ_BIT(SPIx->CR2, SPI_CR2_TXEIE) == (SPI_CR2_TXEIE)) ? 1UL : 0UL);
1178:../../../libs/smtc-hal-mcu-stm32l4/third_party/STM32CubeL4/Drivers/STM32L4xx_HAL_Driver/Inc/stm32l4xx_ll_spi.h **** }
1179:../../../libs/smtc-hal-mcu-stm32l4/third_party/STM32CubeL4/Drivers/STM32L4xx_HAL_Driver/Inc/stm32l4xx_ll_spi.h **** 
1180:../../../libs/smtc-hal-mcu-stm32l4/third_party/STM32CubeL4/Drivers/STM32L4xx_HAL_Driver/Inc/stm32l4xx_ll_spi.h **** /**
1181:../../../libs/smtc-hal-mcu-stm32l4/third_party/STM32CubeL4/Drivers/STM32L4xx_HAL_Driver/Inc/stm32l4xx_ll_spi.h ****   * @}
1182:../../../libs/smtc-hal-mcu-stm32l4/third_party/STM32CubeL4/Drivers/STM32L4xx_HAL_Driver/Inc/stm32l4xx_ll_spi.h ****   */
1183:../../../libs/smtc-hal-mcu-stm32l4/third_party/STM32CubeL4/Drivers/STM32L4xx_HAL_Driver/Inc/stm32l4xx_ll_spi.h **** 
1184:../../../libs/smtc-hal-mcu-stm32l4/third_party/STM32CubeL4/Drivers/STM32L4xx_HAL_Driver/Inc/stm32l4xx_ll_spi.h **** /** @defgroup SPI_LL_EF_DMA_Management DMA Management
ARM GAS  C:\msys64\tmp\ccnxnf43.s 			page 28


1185:../../../libs/smtc-hal-mcu-stm32l4/third_party/STM32CubeL4/Drivers/STM32L4xx_HAL_Driver/Inc/stm32l4xx_ll_spi.h ****   * @{
1186:../../../libs/smtc-hal-mcu-stm32l4/third_party/STM32CubeL4/Drivers/STM32L4xx_HAL_Driver/Inc/stm32l4xx_ll_spi.h ****   */
1187:../../../libs/smtc-hal-mcu-stm32l4/third_party/STM32CubeL4/Drivers/STM32L4xx_HAL_Driver/Inc/stm32l4xx_ll_spi.h **** 
1188:../../../libs/smtc-hal-mcu-stm32l4/third_party/STM32CubeL4/Drivers/STM32L4xx_HAL_Driver/Inc/stm32l4xx_ll_spi.h **** /**
1189:../../../libs/smtc-hal-mcu-stm32l4/third_party/STM32CubeL4/Drivers/STM32L4xx_HAL_Driver/Inc/stm32l4xx_ll_spi.h ****   * @brief  Enable DMA Rx
1190:../../../libs/smtc-hal-mcu-stm32l4/third_party/STM32CubeL4/Drivers/STM32L4xx_HAL_Driver/Inc/stm32l4xx_ll_spi.h ****   * @rmtoll CR2          RXDMAEN       LL_SPI_EnableDMAReq_RX
1191:../../../libs/smtc-hal-mcu-stm32l4/third_party/STM32CubeL4/Drivers/STM32L4xx_HAL_Driver/Inc/stm32l4xx_ll_spi.h ****   * @param  SPIx SPI Instance
1192:../../../libs/smtc-hal-mcu-stm32l4/third_party/STM32CubeL4/Drivers/STM32L4xx_HAL_Driver/Inc/stm32l4xx_ll_spi.h ****   * @retval None
1193:../../../libs/smtc-hal-mcu-stm32l4/third_party/STM32CubeL4/Drivers/STM32L4xx_HAL_Driver/Inc/stm32l4xx_ll_spi.h ****   */
1194:../../../libs/smtc-hal-mcu-stm32l4/third_party/STM32CubeL4/Drivers/STM32L4xx_HAL_Driver/Inc/stm32l4xx_ll_spi.h **** __STATIC_INLINE void LL_SPI_EnableDMAReq_RX(SPI_TypeDef *SPIx)
1195:../../../libs/smtc-hal-mcu-stm32l4/third_party/STM32CubeL4/Drivers/STM32L4xx_HAL_Driver/Inc/stm32l4xx_ll_spi.h **** {
1196:../../../libs/smtc-hal-mcu-stm32l4/third_party/STM32CubeL4/Drivers/STM32L4xx_HAL_Driver/Inc/stm32l4xx_ll_spi.h ****   SET_BIT(SPIx->CR2, SPI_CR2_RXDMAEN);
1197:../../../libs/smtc-hal-mcu-stm32l4/third_party/STM32CubeL4/Drivers/STM32L4xx_HAL_Driver/Inc/stm32l4xx_ll_spi.h **** }
1198:../../../libs/smtc-hal-mcu-stm32l4/third_party/STM32CubeL4/Drivers/STM32L4xx_HAL_Driver/Inc/stm32l4xx_ll_spi.h **** 
1199:../../../libs/smtc-hal-mcu-stm32l4/third_party/STM32CubeL4/Drivers/STM32L4xx_HAL_Driver/Inc/stm32l4xx_ll_spi.h **** /**
1200:../../../libs/smtc-hal-mcu-stm32l4/third_party/STM32CubeL4/Drivers/STM32L4xx_HAL_Driver/Inc/stm32l4xx_ll_spi.h ****   * @brief  Disable DMA Rx
1201:../../../libs/smtc-hal-mcu-stm32l4/third_party/STM32CubeL4/Drivers/STM32L4xx_HAL_Driver/Inc/stm32l4xx_ll_spi.h ****   * @rmtoll CR2          RXDMAEN       LL_SPI_DisableDMAReq_RX
1202:../../../libs/smtc-hal-mcu-stm32l4/third_party/STM32CubeL4/Drivers/STM32L4xx_HAL_Driver/Inc/stm32l4xx_ll_spi.h ****   * @param  SPIx SPI Instance
1203:../../../libs/smtc-hal-mcu-stm32l4/third_party/STM32CubeL4/Drivers/STM32L4xx_HAL_Driver/Inc/stm32l4xx_ll_spi.h ****   * @retval None
1204:../../../libs/smtc-hal-mcu-stm32l4/third_party/STM32CubeL4/Drivers/STM32L4xx_HAL_Driver/Inc/stm32l4xx_ll_spi.h ****   */
1205:../../../libs/smtc-hal-mcu-stm32l4/third_party/STM32CubeL4/Drivers/STM32L4xx_HAL_Driver/Inc/stm32l4xx_ll_spi.h **** __STATIC_INLINE void LL_SPI_DisableDMAReq_RX(SPI_TypeDef *SPIx)
1206:../../../libs/smtc-hal-mcu-stm32l4/third_party/STM32CubeL4/Drivers/STM32L4xx_HAL_Driver/Inc/stm32l4xx_ll_spi.h **** {
1207:../../../libs/smtc-hal-mcu-stm32l4/third_party/STM32CubeL4/Drivers/STM32L4xx_HAL_Driver/Inc/stm32l4xx_ll_spi.h ****   CLEAR_BIT(SPIx->CR2, SPI_CR2_RXDMAEN);
1208:../../../libs/smtc-hal-mcu-stm32l4/third_party/STM32CubeL4/Drivers/STM32L4xx_HAL_Driver/Inc/stm32l4xx_ll_spi.h **** }
1209:../../../libs/smtc-hal-mcu-stm32l4/third_party/STM32CubeL4/Drivers/STM32L4xx_HAL_Driver/Inc/stm32l4xx_ll_spi.h **** 
1210:../../../libs/smtc-hal-mcu-stm32l4/third_party/STM32CubeL4/Drivers/STM32L4xx_HAL_Driver/Inc/stm32l4xx_ll_spi.h **** /**
1211:../../../libs/smtc-hal-mcu-stm32l4/third_party/STM32CubeL4/Drivers/STM32L4xx_HAL_Driver/Inc/stm32l4xx_ll_spi.h ****   * @brief  Check if DMA Rx is enabled
1212:../../../libs/smtc-hal-mcu-stm32l4/third_party/STM32CubeL4/Drivers/STM32L4xx_HAL_Driver/Inc/stm32l4xx_ll_spi.h ****   * @rmtoll CR2          RXDMAEN       LL_SPI_IsEnabledDMAReq_RX
1213:../../../libs/smtc-hal-mcu-stm32l4/third_party/STM32CubeL4/Drivers/STM32L4xx_HAL_Driver/Inc/stm32l4xx_ll_spi.h ****   * @param  SPIx SPI Instance
1214:../../../libs/smtc-hal-mcu-stm32l4/third_party/STM32CubeL4/Drivers/STM32L4xx_HAL_Driver/Inc/stm32l4xx_ll_spi.h ****   * @retval State of bit (1 or 0).
1215:../../../libs/smtc-hal-mcu-stm32l4/third_party/STM32CubeL4/Drivers/STM32L4xx_HAL_Driver/Inc/stm32l4xx_ll_spi.h ****   */
1216:../../../libs/smtc-hal-mcu-stm32l4/third_party/STM32CubeL4/Drivers/STM32L4xx_HAL_Driver/Inc/stm32l4xx_ll_spi.h **** __STATIC_INLINE uint32_t LL_SPI_IsEnabledDMAReq_RX(SPI_TypeDef *SPIx)
1217:../../../libs/smtc-hal-mcu-stm32l4/third_party/STM32CubeL4/Drivers/STM32L4xx_HAL_Driver/Inc/stm32l4xx_ll_spi.h **** {
1218:../../../libs/smtc-hal-mcu-stm32l4/third_party/STM32CubeL4/Drivers/STM32L4xx_HAL_Driver/Inc/stm32l4xx_ll_spi.h ****   return ((READ_BIT(SPIx->CR2, SPI_CR2_RXDMAEN) == (SPI_CR2_RXDMAEN)) ? 1UL : 0UL);
1219:../../../libs/smtc-hal-mcu-stm32l4/third_party/STM32CubeL4/Drivers/STM32L4xx_HAL_Driver/Inc/stm32l4xx_ll_spi.h **** }
1220:../../../libs/smtc-hal-mcu-stm32l4/third_party/STM32CubeL4/Drivers/STM32L4xx_HAL_Driver/Inc/stm32l4xx_ll_spi.h **** 
1221:../../../libs/smtc-hal-mcu-stm32l4/third_party/STM32CubeL4/Drivers/STM32L4xx_HAL_Driver/Inc/stm32l4xx_ll_spi.h **** /**
1222:../../../libs/smtc-hal-mcu-stm32l4/third_party/STM32CubeL4/Drivers/STM32L4xx_HAL_Driver/Inc/stm32l4xx_ll_spi.h ****   * @brief  Enable DMA Tx
1223:../../../libs/smtc-hal-mcu-stm32l4/third_party/STM32CubeL4/Drivers/STM32L4xx_HAL_Driver/Inc/stm32l4xx_ll_spi.h ****   * @rmtoll CR2          TXDMAEN       LL_SPI_EnableDMAReq_TX
1224:../../../libs/smtc-hal-mcu-stm32l4/third_party/STM32CubeL4/Drivers/STM32L4xx_HAL_Driver/Inc/stm32l4xx_ll_spi.h ****   * @param  SPIx SPI Instance
1225:../../../libs/smtc-hal-mcu-stm32l4/third_party/STM32CubeL4/Drivers/STM32L4xx_HAL_Driver/Inc/stm32l4xx_ll_spi.h ****   * @retval None
1226:../../../libs/smtc-hal-mcu-stm32l4/third_party/STM32CubeL4/Drivers/STM32L4xx_HAL_Driver/Inc/stm32l4xx_ll_spi.h ****   */
1227:../../../libs/smtc-hal-mcu-stm32l4/third_party/STM32CubeL4/Drivers/STM32L4xx_HAL_Driver/Inc/stm32l4xx_ll_spi.h **** __STATIC_INLINE void LL_SPI_EnableDMAReq_TX(SPI_TypeDef *SPIx)
1228:../../../libs/smtc-hal-mcu-stm32l4/third_party/STM32CubeL4/Drivers/STM32L4xx_HAL_Driver/Inc/stm32l4xx_ll_spi.h **** {
1229:../../../libs/smtc-hal-mcu-stm32l4/third_party/STM32CubeL4/Drivers/STM32L4xx_HAL_Driver/Inc/stm32l4xx_ll_spi.h ****   SET_BIT(SPIx->CR2, SPI_CR2_TXDMAEN);
1230:../../../libs/smtc-hal-mcu-stm32l4/third_party/STM32CubeL4/Drivers/STM32L4xx_HAL_Driver/Inc/stm32l4xx_ll_spi.h **** }
1231:../../../libs/smtc-hal-mcu-stm32l4/third_party/STM32CubeL4/Drivers/STM32L4xx_HAL_Driver/Inc/stm32l4xx_ll_spi.h **** 
1232:../../../libs/smtc-hal-mcu-stm32l4/third_party/STM32CubeL4/Drivers/STM32L4xx_HAL_Driver/Inc/stm32l4xx_ll_spi.h **** /**
1233:../../../libs/smtc-hal-mcu-stm32l4/third_party/STM32CubeL4/Drivers/STM32L4xx_HAL_Driver/Inc/stm32l4xx_ll_spi.h ****   * @brief  Disable DMA Tx
1234:../../../libs/smtc-hal-mcu-stm32l4/third_party/STM32CubeL4/Drivers/STM32L4xx_HAL_Driver/Inc/stm32l4xx_ll_spi.h ****   * @rmtoll CR2          TXDMAEN       LL_SPI_DisableDMAReq_TX
1235:../../../libs/smtc-hal-mcu-stm32l4/third_party/STM32CubeL4/Drivers/STM32L4xx_HAL_Driver/Inc/stm32l4xx_ll_spi.h ****   * @param  SPIx SPI Instance
1236:../../../libs/smtc-hal-mcu-stm32l4/third_party/STM32CubeL4/Drivers/STM32L4xx_HAL_Driver/Inc/stm32l4xx_ll_spi.h ****   * @retval None
1237:../../../libs/smtc-hal-mcu-stm32l4/third_party/STM32CubeL4/Drivers/STM32L4xx_HAL_Driver/Inc/stm32l4xx_ll_spi.h ****   */
1238:../../../libs/smtc-hal-mcu-stm32l4/third_party/STM32CubeL4/Drivers/STM32L4xx_HAL_Driver/Inc/stm32l4xx_ll_spi.h **** __STATIC_INLINE void LL_SPI_DisableDMAReq_TX(SPI_TypeDef *SPIx)
1239:../../../libs/smtc-hal-mcu-stm32l4/third_party/STM32CubeL4/Drivers/STM32L4xx_HAL_Driver/Inc/stm32l4xx_ll_spi.h **** {
1240:../../../libs/smtc-hal-mcu-stm32l4/third_party/STM32CubeL4/Drivers/STM32L4xx_HAL_Driver/Inc/stm32l4xx_ll_spi.h ****   CLEAR_BIT(SPIx->CR2, SPI_CR2_TXDMAEN);
1241:../../../libs/smtc-hal-mcu-stm32l4/third_party/STM32CubeL4/Drivers/STM32L4xx_HAL_Driver/Inc/stm32l4xx_ll_spi.h **** }
ARM GAS  C:\msys64\tmp\ccnxnf43.s 			page 29


1242:../../../libs/smtc-hal-mcu-stm32l4/third_party/STM32CubeL4/Drivers/STM32L4xx_HAL_Driver/Inc/stm32l4xx_ll_spi.h **** 
1243:../../../libs/smtc-hal-mcu-stm32l4/third_party/STM32CubeL4/Drivers/STM32L4xx_HAL_Driver/Inc/stm32l4xx_ll_spi.h **** /**
1244:../../../libs/smtc-hal-mcu-stm32l4/third_party/STM32CubeL4/Drivers/STM32L4xx_HAL_Driver/Inc/stm32l4xx_ll_spi.h ****   * @brief  Check if DMA Tx is enabled
1245:../../../libs/smtc-hal-mcu-stm32l4/third_party/STM32CubeL4/Drivers/STM32L4xx_HAL_Driver/Inc/stm32l4xx_ll_spi.h ****   * @rmtoll CR2          TXDMAEN       LL_SPI_IsEnabledDMAReq_TX
1246:../../../libs/smtc-hal-mcu-stm32l4/third_party/STM32CubeL4/Drivers/STM32L4xx_HAL_Driver/Inc/stm32l4xx_ll_spi.h ****   * @param  SPIx SPI Instance
1247:../../../libs/smtc-hal-mcu-stm32l4/third_party/STM32CubeL4/Drivers/STM32L4xx_HAL_Driver/Inc/stm32l4xx_ll_spi.h ****   * @retval State of bit (1 or 0).
1248:../../../libs/smtc-hal-mcu-stm32l4/third_party/STM32CubeL4/Drivers/STM32L4xx_HAL_Driver/Inc/stm32l4xx_ll_spi.h ****   */
1249:../../../libs/smtc-hal-mcu-stm32l4/third_party/STM32CubeL4/Drivers/STM32L4xx_HAL_Driver/Inc/stm32l4xx_ll_spi.h **** __STATIC_INLINE uint32_t LL_SPI_IsEnabledDMAReq_TX(SPI_TypeDef *SPIx)
1250:../../../libs/smtc-hal-mcu-stm32l4/third_party/STM32CubeL4/Drivers/STM32L4xx_HAL_Driver/Inc/stm32l4xx_ll_spi.h **** {
1251:../../../libs/smtc-hal-mcu-stm32l4/third_party/STM32CubeL4/Drivers/STM32L4xx_HAL_Driver/Inc/stm32l4xx_ll_spi.h ****   return ((READ_BIT(SPIx->CR2, SPI_CR2_TXDMAEN) == (SPI_CR2_TXDMAEN)) ? 1UL : 0UL);
1252:../../../libs/smtc-hal-mcu-stm32l4/third_party/STM32CubeL4/Drivers/STM32L4xx_HAL_Driver/Inc/stm32l4xx_ll_spi.h **** }
1253:../../../libs/smtc-hal-mcu-stm32l4/third_party/STM32CubeL4/Drivers/STM32L4xx_HAL_Driver/Inc/stm32l4xx_ll_spi.h **** 
1254:../../../libs/smtc-hal-mcu-stm32l4/third_party/STM32CubeL4/Drivers/STM32L4xx_HAL_Driver/Inc/stm32l4xx_ll_spi.h **** /**
1255:../../../libs/smtc-hal-mcu-stm32l4/third_party/STM32CubeL4/Drivers/STM32L4xx_HAL_Driver/Inc/stm32l4xx_ll_spi.h ****   * @brief  Set parity of  Last DMA reception
1256:../../../libs/smtc-hal-mcu-stm32l4/third_party/STM32CubeL4/Drivers/STM32L4xx_HAL_Driver/Inc/stm32l4xx_ll_spi.h ****   * @rmtoll CR2          LDMARX        LL_SPI_SetDMAParity_RX
1257:../../../libs/smtc-hal-mcu-stm32l4/third_party/STM32CubeL4/Drivers/STM32L4xx_HAL_Driver/Inc/stm32l4xx_ll_spi.h ****   * @param  SPIx SPI Instance
1258:../../../libs/smtc-hal-mcu-stm32l4/third_party/STM32CubeL4/Drivers/STM32L4xx_HAL_Driver/Inc/stm32l4xx_ll_spi.h ****   * @param  Parity This parameter can be one of the following values:
1259:../../../libs/smtc-hal-mcu-stm32l4/third_party/STM32CubeL4/Drivers/STM32L4xx_HAL_Driver/Inc/stm32l4xx_ll_spi.h ****   *         @arg @ref LL_SPI_DMA_PARITY_ODD
1260:../../../libs/smtc-hal-mcu-stm32l4/third_party/STM32CubeL4/Drivers/STM32L4xx_HAL_Driver/Inc/stm32l4xx_ll_spi.h ****   *         @arg @ref LL_SPI_DMA_PARITY_EVEN
1261:../../../libs/smtc-hal-mcu-stm32l4/third_party/STM32CubeL4/Drivers/STM32L4xx_HAL_Driver/Inc/stm32l4xx_ll_spi.h ****   * @retval None
1262:../../../libs/smtc-hal-mcu-stm32l4/third_party/STM32CubeL4/Drivers/STM32L4xx_HAL_Driver/Inc/stm32l4xx_ll_spi.h ****   */
1263:../../../libs/smtc-hal-mcu-stm32l4/third_party/STM32CubeL4/Drivers/STM32L4xx_HAL_Driver/Inc/stm32l4xx_ll_spi.h **** __STATIC_INLINE void LL_SPI_SetDMAParity_RX(SPI_TypeDef *SPIx, uint32_t Parity)
1264:../../../libs/smtc-hal-mcu-stm32l4/third_party/STM32CubeL4/Drivers/STM32L4xx_HAL_Driver/Inc/stm32l4xx_ll_spi.h **** {
1265:../../../libs/smtc-hal-mcu-stm32l4/third_party/STM32CubeL4/Drivers/STM32L4xx_HAL_Driver/Inc/stm32l4xx_ll_spi.h ****   MODIFY_REG(SPIx->CR2, SPI_CR2_LDMARX, (Parity << SPI_CR2_LDMARX_Pos));
1266:../../../libs/smtc-hal-mcu-stm32l4/third_party/STM32CubeL4/Drivers/STM32L4xx_HAL_Driver/Inc/stm32l4xx_ll_spi.h **** }
1267:../../../libs/smtc-hal-mcu-stm32l4/third_party/STM32CubeL4/Drivers/STM32L4xx_HAL_Driver/Inc/stm32l4xx_ll_spi.h **** 
1268:../../../libs/smtc-hal-mcu-stm32l4/third_party/STM32CubeL4/Drivers/STM32L4xx_HAL_Driver/Inc/stm32l4xx_ll_spi.h **** /**
1269:../../../libs/smtc-hal-mcu-stm32l4/third_party/STM32CubeL4/Drivers/STM32L4xx_HAL_Driver/Inc/stm32l4xx_ll_spi.h ****   * @brief  Get parity configuration for  Last DMA reception
1270:../../../libs/smtc-hal-mcu-stm32l4/third_party/STM32CubeL4/Drivers/STM32L4xx_HAL_Driver/Inc/stm32l4xx_ll_spi.h ****   * @rmtoll CR2          LDMARX        LL_SPI_GetDMAParity_RX
1271:../../../libs/smtc-hal-mcu-stm32l4/third_party/STM32CubeL4/Drivers/STM32L4xx_HAL_Driver/Inc/stm32l4xx_ll_spi.h ****   * @param  SPIx SPI Instance
1272:../../../libs/smtc-hal-mcu-stm32l4/third_party/STM32CubeL4/Drivers/STM32L4xx_HAL_Driver/Inc/stm32l4xx_ll_spi.h ****   * @retval Returned value can be one of the following values:
1273:../../../libs/smtc-hal-mcu-stm32l4/third_party/STM32CubeL4/Drivers/STM32L4xx_HAL_Driver/Inc/stm32l4xx_ll_spi.h ****   *         @arg @ref LL_SPI_DMA_PARITY_ODD
1274:../../../libs/smtc-hal-mcu-stm32l4/third_party/STM32CubeL4/Drivers/STM32L4xx_HAL_Driver/Inc/stm32l4xx_ll_spi.h ****   *         @arg @ref LL_SPI_DMA_PARITY_EVEN
1275:../../../libs/smtc-hal-mcu-stm32l4/third_party/STM32CubeL4/Drivers/STM32L4xx_HAL_Driver/Inc/stm32l4xx_ll_spi.h ****   */
1276:../../../libs/smtc-hal-mcu-stm32l4/third_party/STM32CubeL4/Drivers/STM32L4xx_HAL_Driver/Inc/stm32l4xx_ll_spi.h **** __STATIC_INLINE uint32_t LL_SPI_GetDMAParity_RX(SPI_TypeDef *SPIx)
1277:../../../libs/smtc-hal-mcu-stm32l4/third_party/STM32CubeL4/Drivers/STM32L4xx_HAL_Driver/Inc/stm32l4xx_ll_spi.h **** {
1278:../../../libs/smtc-hal-mcu-stm32l4/third_party/STM32CubeL4/Drivers/STM32L4xx_HAL_Driver/Inc/stm32l4xx_ll_spi.h ****   return (uint32_t)(READ_BIT(SPIx->CR2, SPI_CR2_LDMARX) >> SPI_CR2_LDMARX_Pos);
1279:../../../libs/smtc-hal-mcu-stm32l4/third_party/STM32CubeL4/Drivers/STM32L4xx_HAL_Driver/Inc/stm32l4xx_ll_spi.h **** }
1280:../../../libs/smtc-hal-mcu-stm32l4/third_party/STM32CubeL4/Drivers/STM32L4xx_HAL_Driver/Inc/stm32l4xx_ll_spi.h **** 
1281:../../../libs/smtc-hal-mcu-stm32l4/third_party/STM32CubeL4/Drivers/STM32L4xx_HAL_Driver/Inc/stm32l4xx_ll_spi.h **** /**
1282:../../../libs/smtc-hal-mcu-stm32l4/third_party/STM32CubeL4/Drivers/STM32L4xx_HAL_Driver/Inc/stm32l4xx_ll_spi.h ****   * @brief  Set parity of  Last DMA transmission
1283:../../../libs/smtc-hal-mcu-stm32l4/third_party/STM32CubeL4/Drivers/STM32L4xx_HAL_Driver/Inc/stm32l4xx_ll_spi.h ****   * @rmtoll CR2          LDMATX        LL_SPI_SetDMAParity_TX
1284:../../../libs/smtc-hal-mcu-stm32l4/third_party/STM32CubeL4/Drivers/STM32L4xx_HAL_Driver/Inc/stm32l4xx_ll_spi.h ****   * @param  SPIx SPI Instance
1285:../../../libs/smtc-hal-mcu-stm32l4/third_party/STM32CubeL4/Drivers/STM32L4xx_HAL_Driver/Inc/stm32l4xx_ll_spi.h ****   * @param  Parity This parameter can be one of the following values:
1286:../../../libs/smtc-hal-mcu-stm32l4/third_party/STM32CubeL4/Drivers/STM32L4xx_HAL_Driver/Inc/stm32l4xx_ll_spi.h ****   *         @arg @ref LL_SPI_DMA_PARITY_ODD
1287:../../../libs/smtc-hal-mcu-stm32l4/third_party/STM32CubeL4/Drivers/STM32L4xx_HAL_Driver/Inc/stm32l4xx_ll_spi.h ****   *         @arg @ref LL_SPI_DMA_PARITY_EVEN
1288:../../../libs/smtc-hal-mcu-stm32l4/third_party/STM32CubeL4/Drivers/STM32L4xx_HAL_Driver/Inc/stm32l4xx_ll_spi.h ****   * @retval None
1289:../../../libs/smtc-hal-mcu-stm32l4/third_party/STM32CubeL4/Drivers/STM32L4xx_HAL_Driver/Inc/stm32l4xx_ll_spi.h ****   */
1290:../../../libs/smtc-hal-mcu-stm32l4/third_party/STM32CubeL4/Drivers/STM32L4xx_HAL_Driver/Inc/stm32l4xx_ll_spi.h **** __STATIC_INLINE void LL_SPI_SetDMAParity_TX(SPI_TypeDef *SPIx, uint32_t Parity)
1291:../../../libs/smtc-hal-mcu-stm32l4/third_party/STM32CubeL4/Drivers/STM32L4xx_HAL_Driver/Inc/stm32l4xx_ll_spi.h **** {
1292:../../../libs/smtc-hal-mcu-stm32l4/third_party/STM32CubeL4/Drivers/STM32L4xx_HAL_Driver/Inc/stm32l4xx_ll_spi.h ****   MODIFY_REG(SPIx->CR2, SPI_CR2_LDMATX, (Parity << SPI_CR2_LDMATX_Pos));
1293:../../../libs/smtc-hal-mcu-stm32l4/third_party/STM32CubeL4/Drivers/STM32L4xx_HAL_Driver/Inc/stm32l4xx_ll_spi.h **** }
1294:../../../libs/smtc-hal-mcu-stm32l4/third_party/STM32CubeL4/Drivers/STM32L4xx_HAL_Driver/Inc/stm32l4xx_ll_spi.h **** 
1295:../../../libs/smtc-hal-mcu-stm32l4/third_party/STM32CubeL4/Drivers/STM32L4xx_HAL_Driver/Inc/stm32l4xx_ll_spi.h **** /**
1296:../../../libs/smtc-hal-mcu-stm32l4/third_party/STM32CubeL4/Drivers/STM32L4xx_HAL_Driver/Inc/stm32l4xx_ll_spi.h ****   * @brief  Get parity configuration for Last DMA transmission
1297:../../../libs/smtc-hal-mcu-stm32l4/third_party/STM32CubeL4/Drivers/STM32L4xx_HAL_Driver/Inc/stm32l4xx_ll_spi.h ****   * @rmtoll CR2          LDMATX        LL_SPI_GetDMAParity_TX
1298:../../../libs/smtc-hal-mcu-stm32l4/third_party/STM32CubeL4/Drivers/STM32L4xx_HAL_Driver/Inc/stm32l4xx_ll_spi.h ****   * @param  SPIx SPI Instance
ARM GAS  C:\msys64\tmp\ccnxnf43.s 			page 30


1299:../../../libs/smtc-hal-mcu-stm32l4/third_party/STM32CubeL4/Drivers/STM32L4xx_HAL_Driver/Inc/stm32l4xx_ll_spi.h ****   * @retval Returned value can be one of the following values:
1300:../../../libs/smtc-hal-mcu-stm32l4/third_party/STM32CubeL4/Drivers/STM32L4xx_HAL_Driver/Inc/stm32l4xx_ll_spi.h ****   *         @arg @ref LL_SPI_DMA_PARITY_ODD
1301:../../../libs/smtc-hal-mcu-stm32l4/third_party/STM32CubeL4/Drivers/STM32L4xx_HAL_Driver/Inc/stm32l4xx_ll_spi.h ****   *         @arg @ref LL_SPI_DMA_PARITY_EVEN
1302:../../../libs/smtc-hal-mcu-stm32l4/third_party/STM32CubeL4/Drivers/STM32L4xx_HAL_Driver/Inc/stm32l4xx_ll_spi.h ****   */
1303:../../../libs/smtc-hal-mcu-stm32l4/third_party/STM32CubeL4/Drivers/STM32L4xx_HAL_Driver/Inc/stm32l4xx_ll_spi.h **** __STATIC_INLINE uint32_t LL_SPI_GetDMAParity_TX(SPI_TypeDef *SPIx)
1304:../../../libs/smtc-hal-mcu-stm32l4/third_party/STM32CubeL4/Drivers/STM32L4xx_HAL_Driver/Inc/stm32l4xx_ll_spi.h **** {
1305:../../../libs/smtc-hal-mcu-stm32l4/third_party/STM32CubeL4/Drivers/STM32L4xx_HAL_Driver/Inc/stm32l4xx_ll_spi.h ****   return (uint32_t)(READ_BIT(SPIx->CR2, SPI_CR2_LDMATX) >> SPI_CR2_LDMATX_Pos);
1306:../../../libs/smtc-hal-mcu-stm32l4/third_party/STM32CubeL4/Drivers/STM32L4xx_HAL_Driver/Inc/stm32l4xx_ll_spi.h **** }
1307:../../../libs/smtc-hal-mcu-stm32l4/third_party/STM32CubeL4/Drivers/STM32L4xx_HAL_Driver/Inc/stm32l4xx_ll_spi.h **** 
1308:../../../libs/smtc-hal-mcu-stm32l4/third_party/STM32CubeL4/Drivers/STM32L4xx_HAL_Driver/Inc/stm32l4xx_ll_spi.h **** /**
1309:../../../libs/smtc-hal-mcu-stm32l4/third_party/STM32CubeL4/Drivers/STM32L4xx_HAL_Driver/Inc/stm32l4xx_ll_spi.h ****   * @brief  Get the data register address used for DMA transfer
1310:../../../libs/smtc-hal-mcu-stm32l4/third_party/STM32CubeL4/Drivers/STM32L4xx_HAL_Driver/Inc/stm32l4xx_ll_spi.h ****   * @rmtoll DR           DR            LL_SPI_DMA_GetRegAddr
1311:../../../libs/smtc-hal-mcu-stm32l4/third_party/STM32CubeL4/Drivers/STM32L4xx_HAL_Driver/Inc/stm32l4xx_ll_spi.h ****   * @param  SPIx SPI Instance
1312:../../../libs/smtc-hal-mcu-stm32l4/third_party/STM32CubeL4/Drivers/STM32L4xx_HAL_Driver/Inc/stm32l4xx_ll_spi.h ****   * @retval Address of data register
1313:../../../libs/smtc-hal-mcu-stm32l4/third_party/STM32CubeL4/Drivers/STM32L4xx_HAL_Driver/Inc/stm32l4xx_ll_spi.h ****   */
1314:../../../libs/smtc-hal-mcu-stm32l4/third_party/STM32CubeL4/Drivers/STM32L4xx_HAL_Driver/Inc/stm32l4xx_ll_spi.h **** __STATIC_INLINE uint32_t LL_SPI_DMA_GetRegAddr(SPI_TypeDef *SPIx)
1315:../../../libs/smtc-hal-mcu-stm32l4/third_party/STM32CubeL4/Drivers/STM32L4xx_HAL_Driver/Inc/stm32l4xx_ll_spi.h **** {
1316:../../../libs/smtc-hal-mcu-stm32l4/third_party/STM32CubeL4/Drivers/STM32L4xx_HAL_Driver/Inc/stm32l4xx_ll_spi.h ****   return (uint32_t) &(SPIx->DR);
1317:../../../libs/smtc-hal-mcu-stm32l4/third_party/STM32CubeL4/Drivers/STM32L4xx_HAL_Driver/Inc/stm32l4xx_ll_spi.h **** }
1318:../../../libs/smtc-hal-mcu-stm32l4/third_party/STM32CubeL4/Drivers/STM32L4xx_HAL_Driver/Inc/stm32l4xx_ll_spi.h **** 
1319:../../../libs/smtc-hal-mcu-stm32l4/third_party/STM32CubeL4/Drivers/STM32L4xx_HAL_Driver/Inc/stm32l4xx_ll_spi.h **** /**
1320:../../../libs/smtc-hal-mcu-stm32l4/third_party/STM32CubeL4/Drivers/STM32L4xx_HAL_Driver/Inc/stm32l4xx_ll_spi.h ****   * @}
1321:../../../libs/smtc-hal-mcu-stm32l4/third_party/STM32CubeL4/Drivers/STM32L4xx_HAL_Driver/Inc/stm32l4xx_ll_spi.h ****   */
1322:../../../libs/smtc-hal-mcu-stm32l4/third_party/STM32CubeL4/Drivers/STM32L4xx_HAL_Driver/Inc/stm32l4xx_ll_spi.h **** 
1323:../../../libs/smtc-hal-mcu-stm32l4/third_party/STM32CubeL4/Drivers/STM32L4xx_HAL_Driver/Inc/stm32l4xx_ll_spi.h **** /** @defgroup SPI_LL_EF_DATA_Management DATA Management
1324:../../../libs/smtc-hal-mcu-stm32l4/third_party/STM32CubeL4/Drivers/STM32L4xx_HAL_Driver/Inc/stm32l4xx_ll_spi.h ****   * @{
1325:../../../libs/smtc-hal-mcu-stm32l4/third_party/STM32CubeL4/Drivers/STM32L4xx_HAL_Driver/Inc/stm32l4xx_ll_spi.h ****   */
1326:../../../libs/smtc-hal-mcu-stm32l4/third_party/STM32CubeL4/Drivers/STM32L4xx_HAL_Driver/Inc/stm32l4xx_ll_spi.h **** 
1327:../../../libs/smtc-hal-mcu-stm32l4/third_party/STM32CubeL4/Drivers/STM32L4xx_HAL_Driver/Inc/stm32l4xx_ll_spi.h **** /**
1328:../../../libs/smtc-hal-mcu-stm32l4/third_party/STM32CubeL4/Drivers/STM32L4xx_HAL_Driver/Inc/stm32l4xx_ll_spi.h ****   * @brief  Read 8-Bits in the data register
1329:../../../libs/smtc-hal-mcu-stm32l4/third_party/STM32CubeL4/Drivers/STM32L4xx_HAL_Driver/Inc/stm32l4xx_ll_spi.h ****   * @rmtoll DR           DR            LL_SPI_ReceiveData8
1330:../../../libs/smtc-hal-mcu-stm32l4/third_party/STM32CubeL4/Drivers/STM32L4xx_HAL_Driver/Inc/stm32l4xx_ll_spi.h ****   * @param  SPIx SPI Instance
1331:../../../libs/smtc-hal-mcu-stm32l4/third_party/STM32CubeL4/Drivers/STM32L4xx_HAL_Driver/Inc/stm32l4xx_ll_spi.h ****   * @retval RxData Value between Min_Data=0x00 and Max_Data=0xFF
1332:../../../libs/smtc-hal-mcu-stm32l4/third_party/STM32CubeL4/Drivers/STM32L4xx_HAL_Driver/Inc/stm32l4xx_ll_spi.h ****   */
1333:../../../libs/smtc-hal-mcu-stm32l4/third_party/STM32CubeL4/Drivers/STM32L4xx_HAL_Driver/Inc/stm32l4xx_ll_spi.h **** __STATIC_INLINE uint8_t LL_SPI_ReceiveData8(SPI_TypeDef *SPIx)
1334:../../../libs/smtc-hal-mcu-stm32l4/third_party/STM32CubeL4/Drivers/STM32L4xx_HAL_Driver/Inc/stm32l4xx_ll_spi.h **** {
 371              		.loc 2 1334 1
 372              		.cfi_startproc
 373              		@ args = 0, pretend = 0, frame = 8
 374              		@ frame_needed = 1, uses_anonymous_args = 0
 375              		@ link register save eliminated.
 376 0000 80B4     		push	{r7}
 377              	.LCFI42:
 378              		.cfi_def_cfa_offset 4
 379              		.cfi_offset 7, -4
 380 0002 83B0     		sub	sp, sp, #12
 381              	.LCFI43:
 382              		.cfi_def_cfa_offset 16
 383 0004 00AF     		add	r7, sp, #0
 384              	.LCFI44:
 385              		.cfi_def_cfa_register 7
 386 0006 7860     		str	r0, [r7, #4]
1335:../../../libs/smtc-hal-mcu-stm32l4/third_party/STM32CubeL4/Drivers/STM32L4xx_HAL_Driver/Inc/stm32l4xx_ll_spi.h ****   return (*((__IO uint8_t *)&SPIx->DR));
 387              		.loc 2 1335 29
 388 0008 7B68     		ldr	r3, [r7, #4]
 389 000a 0C33     		adds	r3, r3, #12
 390              		.loc 2 1335 11
ARM GAS  C:\msys64\tmp\ccnxnf43.s 			page 31


 391 000c 1B78     		ldrb	r3, [r3]
 392 000e DBB2     		uxtb	r3, r3
1336:../../../libs/smtc-hal-mcu-stm32l4/third_party/STM32CubeL4/Drivers/STM32L4xx_HAL_Driver/Inc/stm32l4xx_ll_spi.h **** }
 393              		.loc 2 1336 1
 394 0010 1846     		mov	r0, r3
 395 0012 0C37     		adds	r7, r7, #12
 396              	.LCFI45:
 397              		.cfi_def_cfa_offset 4
 398 0014 BD46     		mov	sp, r7
 399              	.LCFI46:
 400              		.cfi_def_cfa_register 13
 401              		@ sp needed
 402 0016 5DF8047B 		ldr	r7, [sp], #4
 403              	.LCFI47:
 404              		.cfi_restore 7
 405              		.cfi_def_cfa_offset 0
 406 001a 7047     		bx	lr
 407              		.cfi_endproc
 408              	.LFE201:
 410              		.section	.text.LL_SPI_TransmitData8,"ax",%progbits
 411              		.align	1
 412              		.syntax unified
 413              		.thumb
 414              		.thumb_func
 416              	LL_SPI_TransmitData8:
 417              	.LFB203:
1337:../../../libs/smtc-hal-mcu-stm32l4/third_party/STM32CubeL4/Drivers/STM32L4xx_HAL_Driver/Inc/stm32l4xx_ll_spi.h **** 
1338:../../../libs/smtc-hal-mcu-stm32l4/third_party/STM32CubeL4/Drivers/STM32L4xx_HAL_Driver/Inc/stm32l4xx_ll_spi.h **** /**
1339:../../../libs/smtc-hal-mcu-stm32l4/third_party/STM32CubeL4/Drivers/STM32L4xx_HAL_Driver/Inc/stm32l4xx_ll_spi.h ****   * @brief  Read 16-Bits in the data register
1340:../../../libs/smtc-hal-mcu-stm32l4/third_party/STM32CubeL4/Drivers/STM32L4xx_HAL_Driver/Inc/stm32l4xx_ll_spi.h ****   * @rmtoll DR           DR            LL_SPI_ReceiveData16
1341:../../../libs/smtc-hal-mcu-stm32l4/third_party/STM32CubeL4/Drivers/STM32L4xx_HAL_Driver/Inc/stm32l4xx_ll_spi.h ****   * @param  SPIx SPI Instance
1342:../../../libs/smtc-hal-mcu-stm32l4/third_party/STM32CubeL4/Drivers/STM32L4xx_HAL_Driver/Inc/stm32l4xx_ll_spi.h ****   * @retval RxData Value between Min_Data=0x00 and Max_Data=0xFFFF
1343:../../../libs/smtc-hal-mcu-stm32l4/third_party/STM32CubeL4/Drivers/STM32L4xx_HAL_Driver/Inc/stm32l4xx_ll_spi.h ****   */
1344:../../../libs/smtc-hal-mcu-stm32l4/third_party/STM32CubeL4/Drivers/STM32L4xx_HAL_Driver/Inc/stm32l4xx_ll_spi.h **** __STATIC_INLINE uint16_t LL_SPI_ReceiveData16(SPI_TypeDef *SPIx)
1345:../../../libs/smtc-hal-mcu-stm32l4/third_party/STM32CubeL4/Drivers/STM32L4xx_HAL_Driver/Inc/stm32l4xx_ll_spi.h **** {
1346:../../../libs/smtc-hal-mcu-stm32l4/third_party/STM32CubeL4/Drivers/STM32L4xx_HAL_Driver/Inc/stm32l4xx_ll_spi.h ****   return (uint16_t)(READ_REG(SPIx->DR));
1347:../../../libs/smtc-hal-mcu-stm32l4/third_party/STM32CubeL4/Drivers/STM32L4xx_HAL_Driver/Inc/stm32l4xx_ll_spi.h **** }
1348:../../../libs/smtc-hal-mcu-stm32l4/third_party/STM32CubeL4/Drivers/STM32L4xx_HAL_Driver/Inc/stm32l4xx_ll_spi.h **** 
1349:../../../libs/smtc-hal-mcu-stm32l4/third_party/STM32CubeL4/Drivers/STM32L4xx_HAL_Driver/Inc/stm32l4xx_ll_spi.h **** /**
1350:../../../libs/smtc-hal-mcu-stm32l4/third_party/STM32CubeL4/Drivers/STM32L4xx_HAL_Driver/Inc/stm32l4xx_ll_spi.h ****   * @brief  Write 8-Bits in the data register
1351:../../../libs/smtc-hal-mcu-stm32l4/third_party/STM32CubeL4/Drivers/STM32L4xx_HAL_Driver/Inc/stm32l4xx_ll_spi.h ****   * @rmtoll DR           DR            LL_SPI_TransmitData8
1352:../../../libs/smtc-hal-mcu-stm32l4/third_party/STM32CubeL4/Drivers/STM32L4xx_HAL_Driver/Inc/stm32l4xx_ll_spi.h ****   * @param  SPIx SPI Instance
1353:../../../libs/smtc-hal-mcu-stm32l4/third_party/STM32CubeL4/Drivers/STM32L4xx_HAL_Driver/Inc/stm32l4xx_ll_spi.h ****   * @param  TxData Value between Min_Data=0x00 and Max_Data=0xFF
1354:../../../libs/smtc-hal-mcu-stm32l4/third_party/STM32CubeL4/Drivers/STM32L4xx_HAL_Driver/Inc/stm32l4xx_ll_spi.h ****   * @retval None
1355:../../../libs/smtc-hal-mcu-stm32l4/third_party/STM32CubeL4/Drivers/STM32L4xx_HAL_Driver/Inc/stm32l4xx_ll_spi.h ****   */
1356:../../../libs/smtc-hal-mcu-stm32l4/third_party/STM32CubeL4/Drivers/STM32L4xx_HAL_Driver/Inc/stm32l4xx_ll_spi.h **** __STATIC_INLINE void LL_SPI_TransmitData8(SPI_TypeDef *SPIx, uint8_t TxData)
1357:../../../libs/smtc-hal-mcu-stm32l4/third_party/STM32CubeL4/Drivers/STM32L4xx_HAL_Driver/Inc/stm32l4xx_ll_spi.h **** {
 418              		.loc 2 1357 1
 419              		.cfi_startproc
 420              		@ args = 0, pretend = 0, frame = 16
 421              		@ frame_needed = 1, uses_anonymous_args = 0
 422              		@ link register save eliminated.
 423 0000 80B4     		push	{r7}
 424              	.LCFI48:
 425              		.cfi_def_cfa_offset 4
 426              		.cfi_offset 7, -4
 427 0002 85B0     		sub	sp, sp, #20
ARM GAS  C:\msys64\tmp\ccnxnf43.s 			page 32


 428              	.LCFI49:
 429              		.cfi_def_cfa_offset 24
 430 0004 00AF     		add	r7, sp, #0
 431              	.LCFI50:
 432              		.cfi_def_cfa_register 7
 433 0006 7860     		str	r0, [r7, #4]
 434 0008 0B46     		mov	r3, r1
 435 000a FB70     		strb	r3, [r7, #3]
1358:../../../libs/smtc-hal-mcu-stm32l4/third_party/STM32CubeL4/Drivers/STM32L4xx_HAL_Driver/Inc/stm32l4xx_ll_spi.h **** #if defined (__GNUC__)
1359:../../../libs/smtc-hal-mcu-stm32l4/third_party/STM32CubeL4/Drivers/STM32L4xx_HAL_Driver/Inc/stm32l4xx_ll_spi.h ****   __IO uint8_t *spidr = ((__IO uint8_t *)&SPIx->DR);
 436              		.loc 2 1359 17
 437 000c 7B68     		ldr	r3, [r7, #4]
 438 000e 0C33     		adds	r3, r3, #12
 439 0010 FB60     		str	r3, [r7, #12]
1360:../../../libs/smtc-hal-mcu-stm32l4/third_party/STM32CubeL4/Drivers/STM32L4xx_HAL_Driver/Inc/stm32l4xx_ll_spi.h ****   *spidr = TxData;
 440              		.loc 2 1360 10
 441 0012 FB68     		ldr	r3, [r7, #12]
 442 0014 FA78     		ldrb	r2, [r7, #3]
 443 0016 1A70     		strb	r2, [r3]
1361:../../../libs/smtc-hal-mcu-stm32l4/third_party/STM32CubeL4/Drivers/STM32L4xx_HAL_Driver/Inc/stm32l4xx_ll_spi.h **** #else
1362:../../../libs/smtc-hal-mcu-stm32l4/third_party/STM32CubeL4/Drivers/STM32L4xx_HAL_Driver/Inc/stm32l4xx_ll_spi.h ****   *((__IO uint8_t *)&SPIx->DR) = TxData;
1363:../../../libs/smtc-hal-mcu-stm32l4/third_party/STM32CubeL4/Drivers/STM32L4xx_HAL_Driver/Inc/stm32l4xx_ll_spi.h **** #endif /* __GNUC__ */
1364:../../../libs/smtc-hal-mcu-stm32l4/third_party/STM32CubeL4/Drivers/STM32L4xx_HAL_Driver/Inc/stm32l4xx_ll_spi.h **** }
 444              		.loc 2 1364 1
 445 0018 00BF     		nop
 446 001a 1437     		adds	r7, r7, #20
 447              	.LCFI51:
 448              		.cfi_def_cfa_offset 4
 449 001c BD46     		mov	sp, r7
 450              	.LCFI52:
 451              		.cfi_def_cfa_register 13
 452              		@ sp needed
 453 001e 5DF8047B 		ldr	r7, [sp], #4
 454              	.LCFI53:
 455              		.cfi_restore 7
 456              		.cfi_def_cfa_offset 0
 457 0022 7047     		bx	lr
 458              		.cfi_endproc
 459              	.LFE203:
 461              		.section	.text.LL_AHB2_GRP1_EnableClock,"ax",%progbits
 462              		.align	1
 463              		.syntax unified
 464              		.thumb
 465              		.thumb_func
 467              	LL_AHB2_GRP1_EnableClock:
 468              	.LFB237:
 469              		.file 3 "../../../libs/smtc-hal-mcu-stm32l4/third_party/STM32CubeL4/Drivers/STM32L4xx_HAL_Driver/I
   1:../../../libs/smtc-hal-mcu-stm32l4/third_party/STM32CubeL4/Drivers/STM32L4xx_HAL_Driver/Inc/stm32l4xx_ll_bus.h **** /**
   2:../../../libs/smtc-hal-mcu-stm32l4/third_party/STM32CubeL4/Drivers/STM32L4xx_HAL_Driver/Inc/stm32l4xx_ll_bus.h ****   ******************************************************************************
   3:../../../libs/smtc-hal-mcu-stm32l4/third_party/STM32CubeL4/Drivers/STM32L4xx_HAL_Driver/Inc/stm32l4xx_ll_bus.h ****   * @file    stm32l4xx_ll_bus.h
   4:../../../libs/smtc-hal-mcu-stm32l4/third_party/STM32CubeL4/Drivers/STM32L4xx_HAL_Driver/Inc/stm32l4xx_ll_bus.h ****   * @author  MCD Application Team
   5:../../../libs/smtc-hal-mcu-stm32l4/third_party/STM32CubeL4/Drivers/STM32L4xx_HAL_Driver/Inc/stm32l4xx_ll_bus.h ****   * @brief   Header file of BUS LL module.
   6:../../../libs/smtc-hal-mcu-stm32l4/third_party/STM32CubeL4/Drivers/STM32L4xx_HAL_Driver/Inc/stm32l4xx_ll_bus.h **** 
   7:../../../libs/smtc-hal-mcu-stm32l4/third_party/STM32CubeL4/Drivers/STM32L4xx_HAL_Driver/Inc/stm32l4xx_ll_bus.h ****   @verbatim
   8:../../../libs/smtc-hal-mcu-stm32l4/third_party/STM32CubeL4/Drivers/STM32L4xx_HAL_Driver/Inc/stm32l4xx_ll_bus.h ****                       ##### RCC Limitations #####
   9:../../../libs/smtc-hal-mcu-stm32l4/third_party/STM32CubeL4/Drivers/STM32L4xx_HAL_Driver/Inc/stm32l4xx_ll_bus.h ****   ==============================================================================
  10:../../../libs/smtc-hal-mcu-stm32l4/third_party/STM32CubeL4/Drivers/STM32L4xx_HAL_Driver/Inc/stm32l4xx_ll_bus.h ****     [..]
ARM GAS  C:\msys64\tmp\ccnxnf43.s 			page 33


  11:../../../libs/smtc-hal-mcu-stm32l4/third_party/STM32CubeL4/Drivers/STM32L4xx_HAL_Driver/Inc/stm32l4xx_ll_bus.h ****       A delay between an RCC peripheral clock enable and the effective peripheral
  12:../../../libs/smtc-hal-mcu-stm32l4/third_party/STM32CubeL4/Drivers/STM32L4xx_HAL_Driver/Inc/stm32l4xx_ll_bus.h ****       enabling should be taken into account in order to manage the peripheral read/write
  13:../../../libs/smtc-hal-mcu-stm32l4/third_party/STM32CubeL4/Drivers/STM32L4xx_HAL_Driver/Inc/stm32l4xx_ll_bus.h ****       from/to registers.
  14:../../../libs/smtc-hal-mcu-stm32l4/third_party/STM32CubeL4/Drivers/STM32L4xx_HAL_Driver/Inc/stm32l4xx_ll_bus.h ****       (+) This delay depends on the peripheral mapping.
  15:../../../libs/smtc-hal-mcu-stm32l4/third_party/STM32CubeL4/Drivers/STM32L4xx_HAL_Driver/Inc/stm32l4xx_ll_bus.h ****         (++) AHB & APB peripherals, 1 dummy read is necessary
  16:../../../libs/smtc-hal-mcu-stm32l4/third_party/STM32CubeL4/Drivers/STM32L4xx_HAL_Driver/Inc/stm32l4xx_ll_bus.h **** 
  17:../../../libs/smtc-hal-mcu-stm32l4/third_party/STM32CubeL4/Drivers/STM32L4xx_HAL_Driver/Inc/stm32l4xx_ll_bus.h ****     [..]
  18:../../../libs/smtc-hal-mcu-stm32l4/third_party/STM32CubeL4/Drivers/STM32L4xx_HAL_Driver/Inc/stm32l4xx_ll_bus.h ****       Workarounds:
  19:../../../libs/smtc-hal-mcu-stm32l4/third_party/STM32CubeL4/Drivers/STM32L4xx_HAL_Driver/Inc/stm32l4xx_ll_bus.h ****       (#) For AHB & APB peripherals, a dummy read to the peripheral register has been
  20:../../../libs/smtc-hal-mcu-stm32l4/third_party/STM32CubeL4/Drivers/STM32L4xx_HAL_Driver/Inc/stm32l4xx_ll_bus.h ****           inserted in each LL_{BUS}_GRP{x}_EnableClock() function.
  21:../../../libs/smtc-hal-mcu-stm32l4/third_party/STM32CubeL4/Drivers/STM32L4xx_HAL_Driver/Inc/stm32l4xx_ll_bus.h **** 
  22:../../../libs/smtc-hal-mcu-stm32l4/third_party/STM32CubeL4/Drivers/STM32L4xx_HAL_Driver/Inc/stm32l4xx_ll_bus.h ****   @endverbatim
  23:../../../libs/smtc-hal-mcu-stm32l4/third_party/STM32CubeL4/Drivers/STM32L4xx_HAL_Driver/Inc/stm32l4xx_ll_bus.h ****   ******************************************************************************
  24:../../../libs/smtc-hal-mcu-stm32l4/third_party/STM32CubeL4/Drivers/STM32L4xx_HAL_Driver/Inc/stm32l4xx_ll_bus.h ****   * @attention
  25:../../../libs/smtc-hal-mcu-stm32l4/third_party/STM32CubeL4/Drivers/STM32L4xx_HAL_Driver/Inc/stm32l4xx_ll_bus.h ****   *
  26:../../../libs/smtc-hal-mcu-stm32l4/third_party/STM32CubeL4/Drivers/STM32L4xx_HAL_Driver/Inc/stm32l4xx_ll_bus.h ****   * Copyright (c) 2017 STMicroelectronics.
  27:../../../libs/smtc-hal-mcu-stm32l4/third_party/STM32CubeL4/Drivers/STM32L4xx_HAL_Driver/Inc/stm32l4xx_ll_bus.h ****   * All rights reserved.
  28:../../../libs/smtc-hal-mcu-stm32l4/third_party/STM32CubeL4/Drivers/STM32L4xx_HAL_Driver/Inc/stm32l4xx_ll_bus.h ****   *
  29:../../../libs/smtc-hal-mcu-stm32l4/third_party/STM32CubeL4/Drivers/STM32L4xx_HAL_Driver/Inc/stm32l4xx_ll_bus.h ****   * This software is licensed under terms that can be found in the LICENSE file in
  30:../../../libs/smtc-hal-mcu-stm32l4/third_party/STM32CubeL4/Drivers/STM32L4xx_HAL_Driver/Inc/stm32l4xx_ll_bus.h ****   * the root directory of this software component.
  31:../../../libs/smtc-hal-mcu-stm32l4/third_party/STM32CubeL4/Drivers/STM32L4xx_HAL_Driver/Inc/stm32l4xx_ll_bus.h ****   * If no LICENSE file comes with this software, it is provided AS-IS.
  32:../../../libs/smtc-hal-mcu-stm32l4/third_party/STM32CubeL4/Drivers/STM32L4xx_HAL_Driver/Inc/stm32l4xx_ll_bus.h ****   ******************************************************************************
  33:../../../libs/smtc-hal-mcu-stm32l4/third_party/STM32CubeL4/Drivers/STM32L4xx_HAL_Driver/Inc/stm32l4xx_ll_bus.h ****   */
  34:../../../libs/smtc-hal-mcu-stm32l4/third_party/STM32CubeL4/Drivers/STM32L4xx_HAL_Driver/Inc/stm32l4xx_ll_bus.h **** 
  35:../../../libs/smtc-hal-mcu-stm32l4/third_party/STM32CubeL4/Drivers/STM32L4xx_HAL_Driver/Inc/stm32l4xx_ll_bus.h **** /* Define to prevent recursive inclusion -------------------------------------*/
  36:../../../libs/smtc-hal-mcu-stm32l4/third_party/STM32CubeL4/Drivers/STM32L4xx_HAL_Driver/Inc/stm32l4xx_ll_bus.h **** #ifndef STM32L4xx_LL_BUS_H
  37:../../../libs/smtc-hal-mcu-stm32l4/third_party/STM32CubeL4/Drivers/STM32L4xx_HAL_Driver/Inc/stm32l4xx_ll_bus.h **** #define STM32L4xx_LL_BUS_H
  38:../../../libs/smtc-hal-mcu-stm32l4/third_party/STM32CubeL4/Drivers/STM32L4xx_HAL_Driver/Inc/stm32l4xx_ll_bus.h **** 
  39:../../../libs/smtc-hal-mcu-stm32l4/third_party/STM32CubeL4/Drivers/STM32L4xx_HAL_Driver/Inc/stm32l4xx_ll_bus.h **** #ifdef __cplusplus
  40:../../../libs/smtc-hal-mcu-stm32l4/third_party/STM32CubeL4/Drivers/STM32L4xx_HAL_Driver/Inc/stm32l4xx_ll_bus.h **** extern "C" {
  41:../../../libs/smtc-hal-mcu-stm32l4/third_party/STM32CubeL4/Drivers/STM32L4xx_HAL_Driver/Inc/stm32l4xx_ll_bus.h **** #endif
  42:../../../libs/smtc-hal-mcu-stm32l4/third_party/STM32CubeL4/Drivers/STM32L4xx_HAL_Driver/Inc/stm32l4xx_ll_bus.h **** 
  43:../../../libs/smtc-hal-mcu-stm32l4/third_party/STM32CubeL4/Drivers/STM32L4xx_HAL_Driver/Inc/stm32l4xx_ll_bus.h **** /* Includes ------------------------------------------------------------------*/
  44:../../../libs/smtc-hal-mcu-stm32l4/third_party/STM32CubeL4/Drivers/STM32L4xx_HAL_Driver/Inc/stm32l4xx_ll_bus.h **** #include "stm32l4xx.h"
  45:../../../libs/smtc-hal-mcu-stm32l4/third_party/STM32CubeL4/Drivers/STM32L4xx_HAL_Driver/Inc/stm32l4xx_ll_bus.h **** 
  46:../../../libs/smtc-hal-mcu-stm32l4/third_party/STM32CubeL4/Drivers/STM32L4xx_HAL_Driver/Inc/stm32l4xx_ll_bus.h **** /** @addtogroup STM32L4xx_LL_Driver
  47:../../../libs/smtc-hal-mcu-stm32l4/third_party/STM32CubeL4/Drivers/STM32L4xx_HAL_Driver/Inc/stm32l4xx_ll_bus.h ****   * @{
  48:../../../libs/smtc-hal-mcu-stm32l4/third_party/STM32CubeL4/Drivers/STM32L4xx_HAL_Driver/Inc/stm32l4xx_ll_bus.h ****   */
  49:../../../libs/smtc-hal-mcu-stm32l4/third_party/STM32CubeL4/Drivers/STM32L4xx_HAL_Driver/Inc/stm32l4xx_ll_bus.h **** 
  50:../../../libs/smtc-hal-mcu-stm32l4/third_party/STM32CubeL4/Drivers/STM32L4xx_HAL_Driver/Inc/stm32l4xx_ll_bus.h **** #if defined(RCC)
  51:../../../libs/smtc-hal-mcu-stm32l4/third_party/STM32CubeL4/Drivers/STM32L4xx_HAL_Driver/Inc/stm32l4xx_ll_bus.h **** 
  52:../../../libs/smtc-hal-mcu-stm32l4/third_party/STM32CubeL4/Drivers/STM32L4xx_HAL_Driver/Inc/stm32l4xx_ll_bus.h **** /** @defgroup BUS_LL BUS
  53:../../../libs/smtc-hal-mcu-stm32l4/third_party/STM32CubeL4/Drivers/STM32L4xx_HAL_Driver/Inc/stm32l4xx_ll_bus.h ****   * @{
  54:../../../libs/smtc-hal-mcu-stm32l4/third_party/STM32CubeL4/Drivers/STM32L4xx_HAL_Driver/Inc/stm32l4xx_ll_bus.h ****   */
  55:../../../libs/smtc-hal-mcu-stm32l4/third_party/STM32CubeL4/Drivers/STM32L4xx_HAL_Driver/Inc/stm32l4xx_ll_bus.h **** 
  56:../../../libs/smtc-hal-mcu-stm32l4/third_party/STM32CubeL4/Drivers/STM32L4xx_HAL_Driver/Inc/stm32l4xx_ll_bus.h **** /* Private types -------------------------------------------------------------*/
  57:../../../libs/smtc-hal-mcu-stm32l4/third_party/STM32CubeL4/Drivers/STM32L4xx_HAL_Driver/Inc/stm32l4xx_ll_bus.h **** /* Private variables ---------------------------------------------------------*/
  58:../../../libs/smtc-hal-mcu-stm32l4/third_party/STM32CubeL4/Drivers/STM32L4xx_HAL_Driver/Inc/stm32l4xx_ll_bus.h **** 
  59:../../../libs/smtc-hal-mcu-stm32l4/third_party/STM32CubeL4/Drivers/STM32L4xx_HAL_Driver/Inc/stm32l4xx_ll_bus.h **** /* Private constants ---------------------------------------------------------*/
  60:../../../libs/smtc-hal-mcu-stm32l4/third_party/STM32CubeL4/Drivers/STM32L4xx_HAL_Driver/Inc/stm32l4xx_ll_bus.h **** 
  61:../../../libs/smtc-hal-mcu-stm32l4/third_party/STM32CubeL4/Drivers/STM32L4xx_HAL_Driver/Inc/stm32l4xx_ll_bus.h **** /* Private macros ------------------------------------------------------------*/
  62:../../../libs/smtc-hal-mcu-stm32l4/third_party/STM32CubeL4/Drivers/STM32L4xx_HAL_Driver/Inc/stm32l4xx_ll_bus.h **** 
  63:../../../libs/smtc-hal-mcu-stm32l4/third_party/STM32CubeL4/Drivers/STM32L4xx_HAL_Driver/Inc/stm32l4xx_ll_bus.h **** /* Exported types ------------------------------------------------------------*/
  64:../../../libs/smtc-hal-mcu-stm32l4/third_party/STM32CubeL4/Drivers/STM32L4xx_HAL_Driver/Inc/stm32l4xx_ll_bus.h **** /* Exported constants --------------------------------------------------------*/
  65:../../../libs/smtc-hal-mcu-stm32l4/third_party/STM32CubeL4/Drivers/STM32L4xx_HAL_Driver/Inc/stm32l4xx_ll_bus.h **** /** @defgroup BUS_LL_Exported_Constants BUS Exported Constants
  66:../../../libs/smtc-hal-mcu-stm32l4/third_party/STM32CubeL4/Drivers/STM32L4xx_HAL_Driver/Inc/stm32l4xx_ll_bus.h ****   * @{
  67:../../../libs/smtc-hal-mcu-stm32l4/third_party/STM32CubeL4/Drivers/STM32L4xx_HAL_Driver/Inc/stm32l4xx_ll_bus.h ****   */
ARM GAS  C:\msys64\tmp\ccnxnf43.s 			page 34


  68:../../../libs/smtc-hal-mcu-stm32l4/third_party/STM32CubeL4/Drivers/STM32L4xx_HAL_Driver/Inc/stm32l4xx_ll_bus.h **** 
  69:../../../libs/smtc-hal-mcu-stm32l4/third_party/STM32CubeL4/Drivers/STM32L4xx_HAL_Driver/Inc/stm32l4xx_ll_bus.h **** /** @defgroup BUS_LL_EC_AHB1_GRP1_PERIPH  AHB1 GRP1 PERIPH
  70:../../../libs/smtc-hal-mcu-stm32l4/third_party/STM32CubeL4/Drivers/STM32L4xx_HAL_Driver/Inc/stm32l4xx_ll_bus.h ****   * @{
  71:../../../libs/smtc-hal-mcu-stm32l4/third_party/STM32CubeL4/Drivers/STM32L4xx_HAL_Driver/Inc/stm32l4xx_ll_bus.h ****   */
  72:../../../libs/smtc-hal-mcu-stm32l4/third_party/STM32CubeL4/Drivers/STM32L4xx_HAL_Driver/Inc/stm32l4xx_ll_bus.h **** #define LL_AHB1_GRP1_PERIPH_ALL            0xFFFFFFFFU
  73:../../../libs/smtc-hal-mcu-stm32l4/third_party/STM32CubeL4/Drivers/STM32L4xx_HAL_Driver/Inc/stm32l4xx_ll_bus.h **** #define LL_AHB1_GRP1_PERIPH_DMA1           RCC_AHB1ENR_DMA1EN
  74:../../../libs/smtc-hal-mcu-stm32l4/third_party/STM32CubeL4/Drivers/STM32L4xx_HAL_Driver/Inc/stm32l4xx_ll_bus.h **** #define LL_AHB1_GRP1_PERIPH_DMA2           RCC_AHB1ENR_DMA2EN
  75:../../../libs/smtc-hal-mcu-stm32l4/third_party/STM32CubeL4/Drivers/STM32L4xx_HAL_Driver/Inc/stm32l4xx_ll_bus.h **** #if defined(DMAMUX1)
  76:../../../libs/smtc-hal-mcu-stm32l4/third_party/STM32CubeL4/Drivers/STM32L4xx_HAL_Driver/Inc/stm32l4xx_ll_bus.h **** #define LL_AHB1_GRP1_PERIPH_DMAMUX1        RCC_AHB1ENR_DMAMUX1EN
  77:../../../libs/smtc-hal-mcu-stm32l4/third_party/STM32CubeL4/Drivers/STM32L4xx_HAL_Driver/Inc/stm32l4xx_ll_bus.h **** #endif /* DMAMUX1 */
  78:../../../libs/smtc-hal-mcu-stm32l4/third_party/STM32CubeL4/Drivers/STM32L4xx_HAL_Driver/Inc/stm32l4xx_ll_bus.h **** #define LL_AHB1_GRP1_PERIPH_FLASH          RCC_AHB1ENR_FLASHEN
  79:../../../libs/smtc-hal-mcu-stm32l4/third_party/STM32CubeL4/Drivers/STM32L4xx_HAL_Driver/Inc/stm32l4xx_ll_bus.h **** #define LL_AHB1_GRP1_PERIPH_CRC            RCC_AHB1ENR_CRCEN
  80:../../../libs/smtc-hal-mcu-stm32l4/third_party/STM32CubeL4/Drivers/STM32L4xx_HAL_Driver/Inc/stm32l4xx_ll_bus.h **** #define LL_AHB1_GRP1_PERIPH_TSC            RCC_AHB1ENR_TSCEN
  81:../../../libs/smtc-hal-mcu-stm32l4/third_party/STM32CubeL4/Drivers/STM32L4xx_HAL_Driver/Inc/stm32l4xx_ll_bus.h **** #if defined(DMA2D)
  82:../../../libs/smtc-hal-mcu-stm32l4/third_party/STM32CubeL4/Drivers/STM32L4xx_HAL_Driver/Inc/stm32l4xx_ll_bus.h **** #define LL_AHB1_GRP1_PERIPH_DMA2D          RCC_AHB1ENR_DMA2DEN
  83:../../../libs/smtc-hal-mcu-stm32l4/third_party/STM32CubeL4/Drivers/STM32L4xx_HAL_Driver/Inc/stm32l4xx_ll_bus.h **** #endif /* DMA2D */
  84:../../../libs/smtc-hal-mcu-stm32l4/third_party/STM32CubeL4/Drivers/STM32L4xx_HAL_Driver/Inc/stm32l4xx_ll_bus.h **** #if defined(GFXMMU)
  85:../../../libs/smtc-hal-mcu-stm32l4/third_party/STM32CubeL4/Drivers/STM32L4xx_HAL_Driver/Inc/stm32l4xx_ll_bus.h **** #define LL_AHB1_GRP1_PERIPH_GFXMMU         RCC_AHB1ENR_GFXMMUEN
  86:../../../libs/smtc-hal-mcu-stm32l4/third_party/STM32CubeL4/Drivers/STM32L4xx_HAL_Driver/Inc/stm32l4xx_ll_bus.h **** #endif /* GFXMMU */
  87:../../../libs/smtc-hal-mcu-stm32l4/third_party/STM32CubeL4/Drivers/STM32L4xx_HAL_Driver/Inc/stm32l4xx_ll_bus.h **** #define LL_AHB1_GRP1_PERIPH_SRAM1          RCC_AHB1SMENR_SRAM1SMEN
  88:../../../libs/smtc-hal-mcu-stm32l4/third_party/STM32CubeL4/Drivers/STM32L4xx_HAL_Driver/Inc/stm32l4xx_ll_bus.h **** /**
  89:../../../libs/smtc-hal-mcu-stm32l4/third_party/STM32CubeL4/Drivers/STM32L4xx_HAL_Driver/Inc/stm32l4xx_ll_bus.h ****   * @}
  90:../../../libs/smtc-hal-mcu-stm32l4/third_party/STM32CubeL4/Drivers/STM32L4xx_HAL_Driver/Inc/stm32l4xx_ll_bus.h ****   */
  91:../../../libs/smtc-hal-mcu-stm32l4/third_party/STM32CubeL4/Drivers/STM32L4xx_HAL_Driver/Inc/stm32l4xx_ll_bus.h **** 
  92:../../../libs/smtc-hal-mcu-stm32l4/third_party/STM32CubeL4/Drivers/STM32L4xx_HAL_Driver/Inc/stm32l4xx_ll_bus.h **** /** @defgroup BUS_LL_EC_AHB2_GRP1_PERIPH  AHB2 GRP1 PERIPH
  93:../../../libs/smtc-hal-mcu-stm32l4/third_party/STM32CubeL4/Drivers/STM32L4xx_HAL_Driver/Inc/stm32l4xx_ll_bus.h ****   * @{
  94:../../../libs/smtc-hal-mcu-stm32l4/third_party/STM32CubeL4/Drivers/STM32L4xx_HAL_Driver/Inc/stm32l4xx_ll_bus.h ****   */
  95:../../../libs/smtc-hal-mcu-stm32l4/third_party/STM32CubeL4/Drivers/STM32L4xx_HAL_Driver/Inc/stm32l4xx_ll_bus.h **** #define LL_AHB2_GRP1_PERIPH_ALL            0xFFFFFFFFU
  96:../../../libs/smtc-hal-mcu-stm32l4/third_party/STM32CubeL4/Drivers/STM32L4xx_HAL_Driver/Inc/stm32l4xx_ll_bus.h **** #define LL_AHB2_GRP1_PERIPH_GPIOA          RCC_AHB2ENR_GPIOAEN
  97:../../../libs/smtc-hal-mcu-stm32l4/third_party/STM32CubeL4/Drivers/STM32L4xx_HAL_Driver/Inc/stm32l4xx_ll_bus.h **** #define LL_AHB2_GRP1_PERIPH_GPIOB          RCC_AHB2ENR_GPIOBEN
  98:../../../libs/smtc-hal-mcu-stm32l4/third_party/STM32CubeL4/Drivers/STM32L4xx_HAL_Driver/Inc/stm32l4xx_ll_bus.h **** #define LL_AHB2_GRP1_PERIPH_GPIOC          RCC_AHB2ENR_GPIOCEN
  99:../../../libs/smtc-hal-mcu-stm32l4/third_party/STM32CubeL4/Drivers/STM32L4xx_HAL_Driver/Inc/stm32l4xx_ll_bus.h **** #if defined(GPIOD)
 100:../../../libs/smtc-hal-mcu-stm32l4/third_party/STM32CubeL4/Drivers/STM32L4xx_HAL_Driver/Inc/stm32l4xx_ll_bus.h **** #define LL_AHB2_GRP1_PERIPH_GPIOD          RCC_AHB2ENR_GPIODEN
 101:../../../libs/smtc-hal-mcu-stm32l4/third_party/STM32CubeL4/Drivers/STM32L4xx_HAL_Driver/Inc/stm32l4xx_ll_bus.h **** #endif /*GPIOD*/
 102:../../../libs/smtc-hal-mcu-stm32l4/third_party/STM32CubeL4/Drivers/STM32L4xx_HAL_Driver/Inc/stm32l4xx_ll_bus.h **** #if defined(GPIOE)
 103:../../../libs/smtc-hal-mcu-stm32l4/third_party/STM32CubeL4/Drivers/STM32L4xx_HAL_Driver/Inc/stm32l4xx_ll_bus.h **** #define LL_AHB2_GRP1_PERIPH_GPIOE          RCC_AHB2ENR_GPIOEEN
 104:../../../libs/smtc-hal-mcu-stm32l4/third_party/STM32CubeL4/Drivers/STM32L4xx_HAL_Driver/Inc/stm32l4xx_ll_bus.h **** #endif /*GPIOE*/
 105:../../../libs/smtc-hal-mcu-stm32l4/third_party/STM32CubeL4/Drivers/STM32L4xx_HAL_Driver/Inc/stm32l4xx_ll_bus.h **** #if defined(GPIOF)
 106:../../../libs/smtc-hal-mcu-stm32l4/third_party/STM32CubeL4/Drivers/STM32L4xx_HAL_Driver/Inc/stm32l4xx_ll_bus.h **** #define LL_AHB2_GRP1_PERIPH_GPIOF          RCC_AHB2ENR_GPIOFEN
 107:../../../libs/smtc-hal-mcu-stm32l4/third_party/STM32CubeL4/Drivers/STM32L4xx_HAL_Driver/Inc/stm32l4xx_ll_bus.h **** #endif /* GPIOF */
 108:../../../libs/smtc-hal-mcu-stm32l4/third_party/STM32CubeL4/Drivers/STM32L4xx_HAL_Driver/Inc/stm32l4xx_ll_bus.h **** #if defined(GPIOG)
 109:../../../libs/smtc-hal-mcu-stm32l4/third_party/STM32CubeL4/Drivers/STM32L4xx_HAL_Driver/Inc/stm32l4xx_ll_bus.h **** #define LL_AHB2_GRP1_PERIPH_GPIOG          RCC_AHB2ENR_GPIOGEN
 110:../../../libs/smtc-hal-mcu-stm32l4/third_party/STM32CubeL4/Drivers/STM32L4xx_HAL_Driver/Inc/stm32l4xx_ll_bus.h **** #endif /* GPIOG */
 111:../../../libs/smtc-hal-mcu-stm32l4/third_party/STM32CubeL4/Drivers/STM32L4xx_HAL_Driver/Inc/stm32l4xx_ll_bus.h **** #define LL_AHB2_GRP1_PERIPH_GPIOH          RCC_AHB2ENR_GPIOHEN
 112:../../../libs/smtc-hal-mcu-stm32l4/third_party/STM32CubeL4/Drivers/STM32L4xx_HAL_Driver/Inc/stm32l4xx_ll_bus.h **** #if defined(GPIOI)
 113:../../../libs/smtc-hal-mcu-stm32l4/third_party/STM32CubeL4/Drivers/STM32L4xx_HAL_Driver/Inc/stm32l4xx_ll_bus.h **** #define LL_AHB2_GRP1_PERIPH_GPIOI          RCC_AHB2ENR_GPIOIEN
 114:../../../libs/smtc-hal-mcu-stm32l4/third_party/STM32CubeL4/Drivers/STM32L4xx_HAL_Driver/Inc/stm32l4xx_ll_bus.h **** #endif /* GPIOI */
 115:../../../libs/smtc-hal-mcu-stm32l4/third_party/STM32CubeL4/Drivers/STM32L4xx_HAL_Driver/Inc/stm32l4xx_ll_bus.h **** #if defined(USB_OTG_FS)
 116:../../../libs/smtc-hal-mcu-stm32l4/third_party/STM32CubeL4/Drivers/STM32L4xx_HAL_Driver/Inc/stm32l4xx_ll_bus.h **** #define LL_AHB2_GRP1_PERIPH_OTGFS          RCC_AHB2ENR_OTGFSEN
 117:../../../libs/smtc-hal-mcu-stm32l4/third_party/STM32CubeL4/Drivers/STM32L4xx_HAL_Driver/Inc/stm32l4xx_ll_bus.h **** #endif /* USB_OTG_FS */
 118:../../../libs/smtc-hal-mcu-stm32l4/third_party/STM32CubeL4/Drivers/STM32L4xx_HAL_Driver/Inc/stm32l4xx_ll_bus.h **** #define LL_AHB2_GRP1_PERIPH_ADC            RCC_AHB2ENR_ADCEN
 119:../../../libs/smtc-hal-mcu-stm32l4/third_party/STM32CubeL4/Drivers/STM32L4xx_HAL_Driver/Inc/stm32l4xx_ll_bus.h **** #if defined(DCMI)
 120:../../../libs/smtc-hal-mcu-stm32l4/third_party/STM32CubeL4/Drivers/STM32L4xx_HAL_Driver/Inc/stm32l4xx_ll_bus.h **** #define LL_AHB2_GRP1_PERIPH_DCMI           RCC_AHB2ENR_DCMIEN
 121:../../../libs/smtc-hal-mcu-stm32l4/third_party/STM32CubeL4/Drivers/STM32L4xx_HAL_Driver/Inc/stm32l4xx_ll_bus.h **** #endif /* DCMI */
 122:../../../libs/smtc-hal-mcu-stm32l4/third_party/STM32CubeL4/Drivers/STM32L4xx_HAL_Driver/Inc/stm32l4xx_ll_bus.h **** #if defined(AES)
 123:../../../libs/smtc-hal-mcu-stm32l4/third_party/STM32CubeL4/Drivers/STM32L4xx_HAL_Driver/Inc/stm32l4xx_ll_bus.h **** #define LL_AHB2_GRP1_PERIPH_AES            RCC_AHB2ENR_AESEN
 124:../../../libs/smtc-hal-mcu-stm32l4/third_party/STM32CubeL4/Drivers/STM32L4xx_HAL_Driver/Inc/stm32l4xx_ll_bus.h **** #endif /* AES */
ARM GAS  C:\msys64\tmp\ccnxnf43.s 			page 35


 125:../../../libs/smtc-hal-mcu-stm32l4/third_party/STM32CubeL4/Drivers/STM32L4xx_HAL_Driver/Inc/stm32l4xx_ll_bus.h **** #if defined(HASH)
 126:../../../libs/smtc-hal-mcu-stm32l4/third_party/STM32CubeL4/Drivers/STM32L4xx_HAL_Driver/Inc/stm32l4xx_ll_bus.h **** #define LL_AHB2_GRP1_PERIPH_HASH           RCC_AHB2ENR_HASHEN
 127:../../../libs/smtc-hal-mcu-stm32l4/third_party/STM32CubeL4/Drivers/STM32L4xx_HAL_Driver/Inc/stm32l4xx_ll_bus.h **** #endif /* HASH */
 128:../../../libs/smtc-hal-mcu-stm32l4/third_party/STM32CubeL4/Drivers/STM32L4xx_HAL_Driver/Inc/stm32l4xx_ll_bus.h **** #define LL_AHB2_GRP1_PERIPH_RNG            RCC_AHB2ENR_RNGEN
 129:../../../libs/smtc-hal-mcu-stm32l4/third_party/STM32CubeL4/Drivers/STM32L4xx_HAL_Driver/Inc/stm32l4xx_ll_bus.h **** #if defined(OCTOSPIM)
 130:../../../libs/smtc-hal-mcu-stm32l4/third_party/STM32CubeL4/Drivers/STM32L4xx_HAL_Driver/Inc/stm32l4xx_ll_bus.h **** #define LL_AHB2_GRP1_PERIPH_OSPIM          RCC_AHB2ENR_OSPIMEN
 131:../../../libs/smtc-hal-mcu-stm32l4/third_party/STM32CubeL4/Drivers/STM32L4xx_HAL_Driver/Inc/stm32l4xx_ll_bus.h **** #endif /* OCTOSPIM */
 132:../../../libs/smtc-hal-mcu-stm32l4/third_party/STM32CubeL4/Drivers/STM32L4xx_HAL_Driver/Inc/stm32l4xx_ll_bus.h **** #if defined(PKA)
 133:../../../libs/smtc-hal-mcu-stm32l4/third_party/STM32CubeL4/Drivers/STM32L4xx_HAL_Driver/Inc/stm32l4xx_ll_bus.h **** #define LL_AHB2_GRP1_PERIPH_PKA            RCC_AHB2ENR_PKAEN
 134:../../../libs/smtc-hal-mcu-stm32l4/third_party/STM32CubeL4/Drivers/STM32L4xx_HAL_Driver/Inc/stm32l4xx_ll_bus.h **** #endif /* PKA */
 135:../../../libs/smtc-hal-mcu-stm32l4/third_party/STM32CubeL4/Drivers/STM32L4xx_HAL_Driver/Inc/stm32l4xx_ll_bus.h **** #if defined(SDMMC1) && defined(RCC_AHB2ENR_SDMMC1EN)
