ARM GAS  C:\msys64\tmp\cczBzbSO.s 			page 1


   1              		.cpu cortex-m4
   2              		.arch armv7e-m
   3              		.fpu fpv4-sp-d16
   4              		.eabi_attribute 27, 1
   5              		.eabi_attribute 28, 1
   6              		.eabi_attribute 20, 1
   7              		.eabi_attribute 21, 1
   8              		.eabi_attribute 23, 3
   9              		.eabi_attribute 24, 1
  10              		.eabi_attribute 25, 1
  11              		.eabi_attribute 26, 1
  12              		.eabi_attribute 30, 6
  13              		.eabi_attribute 34, 1
  14              		.eabi_attribute 18, 4
  15              		.file	"stm32l4xx_ll_exti.c"
  16              		.text
  17              	.Ltext0:
  18              		.cfi_sections	.debug_frame
  19              		.file 1 "../../../libs/smtc-hal-mcu-stm32l4/third_party/STM32CubeL4/Drivers/STM32L4xx_HAL_Driver/S
  20              		.section	.text.LL_EXTI_EnableIT_0_31,"ax",%progbits
  21              		.align	1
  22              		.syntax unified
  23              		.thumb
  24              		.thumb_func
  26              	LL_EXTI_EnableIT_0_31:
  27              	.LFB132:
  28              		.file 2 "../../../libs/smtc-hal-mcu-stm32l4/third_party/STM32CubeL4/Drivers/STM32L4xx_HAL_Driver/I
   1:../../../libs/smtc-hal-mcu-stm32l4/third_party/STM32CubeL4/Drivers/STM32L4xx_HAL_Driver/Inc/stm32l4xx_ll_exti.h **** /**
   2:../../../libs/smtc-hal-mcu-stm32l4/third_party/STM32CubeL4/Drivers/STM32L4xx_HAL_Driver/Inc/stm32l4xx_ll_exti.h ****   ******************************************************************************
   3:../../../libs/smtc-hal-mcu-stm32l4/third_party/STM32CubeL4/Drivers/STM32L4xx_HAL_Driver/Inc/stm32l4xx_ll_exti.h ****   * @file    stm32l4xx_ll_exti.h
   4:../../../libs/smtc-hal-mcu-stm32l4/third_party/STM32CubeL4/Drivers/STM32L4xx_HAL_Driver/Inc/stm32l4xx_ll_exti.h ****   * @author  MCD Application Team
   5:../../../libs/smtc-hal-mcu-stm32l4/third_party/STM32CubeL4/Drivers/STM32L4xx_HAL_Driver/Inc/stm32l4xx_ll_exti.h ****   * @brief   Header file of EXTI LL module.
   6:../../../libs/smtc-hal-mcu-stm32l4/third_party/STM32CubeL4/Drivers/STM32L4xx_HAL_Driver/Inc/stm32l4xx_ll_exti.h ****   ******************************************************************************
   7:../../../libs/smtc-hal-mcu-stm32l4/third_party/STM32CubeL4/Drivers/STM32L4xx_HAL_Driver/Inc/stm32l4xx_ll_exti.h ****   * @attention
   8:../../../libs/smtc-hal-mcu-stm32l4/third_party/STM32CubeL4/Drivers/STM32L4xx_HAL_Driver/Inc/stm32l4xx_ll_exti.h ****   *
   9:../../../libs/smtc-hal-mcu-stm32l4/third_party/STM32CubeL4/Drivers/STM32L4xx_HAL_Driver/Inc/stm32l4xx_ll_exti.h ****   * Copyright (c) 2017 STMicroelectronics.
  10:../../../libs/smtc-hal-mcu-stm32l4/third_party/STM32CubeL4/Drivers/STM32L4xx_HAL_Driver/Inc/stm32l4xx_ll_exti.h ****   * All rights reserved.
  11:../../../libs/smtc-hal-mcu-stm32l4/third_party/STM32CubeL4/Drivers/STM32L4xx_HAL_Driver/Inc/stm32l4xx_ll_exti.h ****   *
  12:../../../libs/smtc-hal-mcu-stm32l4/third_party/STM32CubeL4/Drivers/STM32L4xx_HAL_Driver/Inc/stm32l4xx_ll_exti.h ****   * This software is licensed under terms that can be found in the LICENSE file
  13:../../../libs/smtc-hal-mcu-stm32l4/third_party/STM32CubeL4/Drivers/STM32L4xx_HAL_Driver/Inc/stm32l4xx_ll_exti.h ****   * in the root directory of this software component.
  14:../../../libs/smtc-hal-mcu-stm32l4/third_party/STM32CubeL4/Drivers/STM32L4xx_HAL_Driver/Inc/stm32l4xx_ll_exti.h ****   * If no LICENSE file comes with this software, it is provided AS-IS.
  15:../../../libs/smtc-hal-mcu-stm32l4/third_party/STM32CubeL4/Drivers/STM32L4xx_HAL_Driver/Inc/stm32l4xx_ll_exti.h ****   *
  16:../../../libs/smtc-hal-mcu-stm32l4/third_party/STM32CubeL4/Drivers/STM32L4xx_HAL_Driver/Inc/stm32l4xx_ll_exti.h ****   ******************************************************************************
  17:../../../libs/smtc-hal-mcu-stm32l4/third_party/STM32CubeL4/Drivers/STM32L4xx_HAL_Driver/Inc/stm32l4xx_ll_exti.h ****   */
  18:../../../libs/smtc-hal-mcu-stm32l4/third_party/STM32CubeL4/Drivers/STM32L4xx_HAL_Driver/Inc/stm32l4xx_ll_exti.h **** 
  19:../../../libs/smtc-hal-mcu-stm32l4/third_party/STM32CubeL4/Drivers/STM32L4xx_HAL_Driver/Inc/stm32l4xx_ll_exti.h **** /* Define to prevent recursive inclusion -------------------------------------*/
  20:../../../libs/smtc-hal-mcu-stm32l4/third_party/STM32CubeL4/Drivers/STM32L4xx_HAL_Driver/Inc/stm32l4xx_ll_exti.h **** #ifndef STM32L4xx_LL_EXTI_H
  21:../../../libs/smtc-hal-mcu-stm32l4/third_party/STM32CubeL4/Drivers/STM32L4xx_HAL_Driver/Inc/stm32l4xx_ll_exti.h **** #define STM32L4xx_LL_EXTI_H
  22:../../../libs/smtc-hal-mcu-stm32l4/third_party/STM32CubeL4/Drivers/STM32L4xx_HAL_Driver/Inc/stm32l4xx_ll_exti.h **** 
  23:../../../libs/smtc-hal-mcu-stm32l4/third_party/STM32CubeL4/Drivers/STM32L4xx_HAL_Driver/Inc/stm32l4xx_ll_exti.h **** #ifdef __cplusplus
  24:../../../libs/smtc-hal-mcu-stm32l4/third_party/STM32CubeL4/Drivers/STM32L4xx_HAL_Driver/Inc/stm32l4xx_ll_exti.h **** extern "C" {
  25:../../../libs/smtc-hal-mcu-stm32l4/third_party/STM32CubeL4/Drivers/STM32L4xx_HAL_Driver/Inc/stm32l4xx_ll_exti.h **** #endif
  26:../../../libs/smtc-hal-mcu-stm32l4/third_party/STM32CubeL4/Drivers/STM32L4xx_HAL_Driver/Inc/stm32l4xx_ll_exti.h **** 
  27:../../../libs/smtc-hal-mcu-stm32l4/third_party/STM32CubeL4/Drivers/STM32L4xx_HAL_Driver/Inc/stm32l4xx_ll_exti.h **** /* Includes ------------------------------------------------------------------*/
  28:../../../libs/smtc-hal-mcu-stm32l4/third_party/STM32CubeL4/Drivers/STM32L4xx_HAL_Driver/Inc/stm32l4xx_ll_exti.h **** #include "stm32l4xx.h"
  29:../../../libs/smtc-hal-mcu-stm32l4/third_party/STM32CubeL4/Drivers/STM32L4xx_HAL_Driver/Inc/stm32l4xx_ll_exti.h **** 
  30:../../../libs/smtc-hal-mcu-stm32l4/third_party/STM32CubeL4/Drivers/STM32L4xx_HAL_Driver/Inc/stm32l4xx_ll_exti.h **** /** @addtogroup STM32L4xx_LL_Driver
ARM GAS  C:\msys64\tmp\cczBzbSO.s 			page 2


  31:../../../libs/smtc-hal-mcu-stm32l4/third_party/STM32CubeL4/Drivers/STM32L4xx_HAL_Driver/Inc/stm32l4xx_ll_exti.h ****   * @{
  32:../../../libs/smtc-hal-mcu-stm32l4/third_party/STM32CubeL4/Drivers/STM32L4xx_HAL_Driver/Inc/stm32l4xx_ll_exti.h ****   */
  33:../../../libs/smtc-hal-mcu-stm32l4/third_party/STM32CubeL4/Drivers/STM32L4xx_HAL_Driver/Inc/stm32l4xx_ll_exti.h **** 
  34:../../../libs/smtc-hal-mcu-stm32l4/third_party/STM32CubeL4/Drivers/STM32L4xx_HAL_Driver/Inc/stm32l4xx_ll_exti.h **** #if defined (EXTI)
  35:../../../libs/smtc-hal-mcu-stm32l4/third_party/STM32CubeL4/Drivers/STM32L4xx_HAL_Driver/Inc/stm32l4xx_ll_exti.h **** 
  36:../../../libs/smtc-hal-mcu-stm32l4/third_party/STM32CubeL4/Drivers/STM32L4xx_HAL_Driver/Inc/stm32l4xx_ll_exti.h **** /** @defgroup EXTI_LL EXTI
  37:../../../libs/smtc-hal-mcu-stm32l4/third_party/STM32CubeL4/Drivers/STM32L4xx_HAL_Driver/Inc/stm32l4xx_ll_exti.h ****   * @{
  38:../../../libs/smtc-hal-mcu-stm32l4/third_party/STM32CubeL4/Drivers/STM32L4xx_HAL_Driver/Inc/stm32l4xx_ll_exti.h ****   */
  39:../../../libs/smtc-hal-mcu-stm32l4/third_party/STM32CubeL4/Drivers/STM32L4xx_HAL_Driver/Inc/stm32l4xx_ll_exti.h **** 
  40:../../../libs/smtc-hal-mcu-stm32l4/third_party/STM32CubeL4/Drivers/STM32L4xx_HAL_Driver/Inc/stm32l4xx_ll_exti.h **** /* Private types -------------------------------------------------------------*/
  41:../../../libs/smtc-hal-mcu-stm32l4/third_party/STM32CubeL4/Drivers/STM32L4xx_HAL_Driver/Inc/stm32l4xx_ll_exti.h **** /* Private variables ---------------------------------------------------------*/
  42:../../../libs/smtc-hal-mcu-stm32l4/third_party/STM32CubeL4/Drivers/STM32L4xx_HAL_Driver/Inc/stm32l4xx_ll_exti.h **** /* Private constants ---------------------------------------------------------*/
  43:../../../libs/smtc-hal-mcu-stm32l4/third_party/STM32CubeL4/Drivers/STM32L4xx_HAL_Driver/Inc/stm32l4xx_ll_exti.h **** /* Private Macros ------------------------------------------------------------*/
  44:../../../libs/smtc-hal-mcu-stm32l4/third_party/STM32CubeL4/Drivers/STM32L4xx_HAL_Driver/Inc/stm32l4xx_ll_exti.h **** #if defined(USE_FULL_LL_DRIVER)
  45:../../../libs/smtc-hal-mcu-stm32l4/third_party/STM32CubeL4/Drivers/STM32L4xx_HAL_Driver/Inc/stm32l4xx_ll_exti.h **** /** @defgroup EXTI_LL_Private_Macros EXTI Private Macros
  46:../../../libs/smtc-hal-mcu-stm32l4/third_party/STM32CubeL4/Drivers/STM32L4xx_HAL_Driver/Inc/stm32l4xx_ll_exti.h ****   * @{
  47:../../../libs/smtc-hal-mcu-stm32l4/third_party/STM32CubeL4/Drivers/STM32L4xx_HAL_Driver/Inc/stm32l4xx_ll_exti.h ****   */
  48:../../../libs/smtc-hal-mcu-stm32l4/third_party/STM32CubeL4/Drivers/STM32L4xx_HAL_Driver/Inc/stm32l4xx_ll_exti.h **** /**
  49:../../../libs/smtc-hal-mcu-stm32l4/third_party/STM32CubeL4/Drivers/STM32L4xx_HAL_Driver/Inc/stm32l4xx_ll_exti.h ****   * @}
  50:../../../libs/smtc-hal-mcu-stm32l4/third_party/STM32CubeL4/Drivers/STM32L4xx_HAL_Driver/Inc/stm32l4xx_ll_exti.h ****   */
  51:../../../libs/smtc-hal-mcu-stm32l4/third_party/STM32CubeL4/Drivers/STM32L4xx_HAL_Driver/Inc/stm32l4xx_ll_exti.h **** #endif /*USE_FULL_LL_DRIVER*/
  52:../../../libs/smtc-hal-mcu-stm32l4/third_party/STM32CubeL4/Drivers/STM32L4xx_HAL_Driver/Inc/stm32l4xx_ll_exti.h **** /* Exported types ------------------------------------------------------------*/
  53:../../../libs/smtc-hal-mcu-stm32l4/third_party/STM32CubeL4/Drivers/STM32L4xx_HAL_Driver/Inc/stm32l4xx_ll_exti.h **** #if defined(USE_FULL_LL_DRIVER)
  54:../../../libs/smtc-hal-mcu-stm32l4/third_party/STM32CubeL4/Drivers/STM32L4xx_HAL_Driver/Inc/stm32l4xx_ll_exti.h **** /** @defgroup EXTI_LL_ES_INIT EXTI Exported Init structure
  55:../../../libs/smtc-hal-mcu-stm32l4/third_party/STM32CubeL4/Drivers/STM32L4xx_HAL_Driver/Inc/stm32l4xx_ll_exti.h ****   * @{
  56:../../../libs/smtc-hal-mcu-stm32l4/third_party/STM32CubeL4/Drivers/STM32L4xx_HAL_Driver/Inc/stm32l4xx_ll_exti.h ****   */
  57:../../../libs/smtc-hal-mcu-stm32l4/third_party/STM32CubeL4/Drivers/STM32L4xx_HAL_Driver/Inc/stm32l4xx_ll_exti.h **** typedef struct
  58:../../../libs/smtc-hal-mcu-stm32l4/third_party/STM32CubeL4/Drivers/STM32L4xx_HAL_Driver/Inc/stm32l4xx_ll_exti.h **** {
  59:../../../libs/smtc-hal-mcu-stm32l4/third_party/STM32CubeL4/Drivers/STM32L4xx_HAL_Driver/Inc/stm32l4xx_ll_exti.h **** 
  60:../../../libs/smtc-hal-mcu-stm32l4/third_party/STM32CubeL4/Drivers/STM32L4xx_HAL_Driver/Inc/stm32l4xx_ll_exti.h ****   uint32_t Line_0_31;           /*!< Specifies the EXTI lines to be enabled or disabled for Lines i
  61:../../../libs/smtc-hal-mcu-stm32l4/third_party/STM32CubeL4/Drivers/STM32L4xx_HAL_Driver/Inc/stm32l4xx_ll_exti.h ****                                      This parameter can be any combination of @ref EXTI_LL_EC_LINE 
  62:../../../libs/smtc-hal-mcu-stm32l4/third_party/STM32CubeL4/Drivers/STM32L4xx_HAL_Driver/Inc/stm32l4xx_ll_exti.h **** 
  63:../../../libs/smtc-hal-mcu-stm32l4/third_party/STM32CubeL4/Drivers/STM32L4xx_HAL_Driver/Inc/stm32l4xx_ll_exti.h ****   uint32_t Line_32_63;          /*!< Specifies the EXTI lines to be enabled or disabled for Lines i
  64:../../../libs/smtc-hal-mcu-stm32l4/third_party/STM32CubeL4/Drivers/STM32L4xx_HAL_Driver/Inc/stm32l4xx_ll_exti.h ****                                      This parameter can be any combination of @ref EXTI_LL_EC_LINE 
  65:../../../libs/smtc-hal-mcu-stm32l4/third_party/STM32CubeL4/Drivers/STM32L4xx_HAL_Driver/Inc/stm32l4xx_ll_exti.h **** 
  66:../../../libs/smtc-hal-mcu-stm32l4/third_party/STM32CubeL4/Drivers/STM32L4xx_HAL_Driver/Inc/stm32l4xx_ll_exti.h ****   FunctionalState LineCommand;  /*!< Specifies the new state of the selected EXTI lines.
  67:../../../libs/smtc-hal-mcu-stm32l4/third_party/STM32CubeL4/Drivers/STM32L4xx_HAL_Driver/Inc/stm32l4xx_ll_exti.h ****                                      This parameter can be set either to ENABLE or DISABLE */
  68:../../../libs/smtc-hal-mcu-stm32l4/third_party/STM32CubeL4/Drivers/STM32L4xx_HAL_Driver/Inc/stm32l4xx_ll_exti.h **** 
  69:../../../libs/smtc-hal-mcu-stm32l4/third_party/STM32CubeL4/Drivers/STM32L4xx_HAL_Driver/Inc/stm32l4xx_ll_exti.h ****   uint8_t Mode;                 /*!< Specifies the mode for the EXTI lines.
  70:../../../libs/smtc-hal-mcu-stm32l4/third_party/STM32CubeL4/Drivers/STM32L4xx_HAL_Driver/Inc/stm32l4xx_ll_exti.h ****                                      This parameter can be a value of @ref EXTI_LL_EC_MODE. */
  71:../../../libs/smtc-hal-mcu-stm32l4/third_party/STM32CubeL4/Drivers/STM32L4xx_HAL_Driver/Inc/stm32l4xx_ll_exti.h **** 
  72:../../../libs/smtc-hal-mcu-stm32l4/third_party/STM32CubeL4/Drivers/STM32L4xx_HAL_Driver/Inc/stm32l4xx_ll_exti.h ****   uint8_t Trigger;              /*!< Specifies the trigger signal active edge for the EXTI lines.
  73:../../../libs/smtc-hal-mcu-stm32l4/third_party/STM32CubeL4/Drivers/STM32L4xx_HAL_Driver/Inc/stm32l4xx_ll_exti.h ****                                      This parameter can be a value of @ref EXTI_LL_EC_TRIGGER. */
  74:../../../libs/smtc-hal-mcu-stm32l4/third_party/STM32CubeL4/Drivers/STM32L4xx_HAL_Driver/Inc/stm32l4xx_ll_exti.h **** } LL_EXTI_InitTypeDef;
  75:../../../libs/smtc-hal-mcu-stm32l4/third_party/STM32CubeL4/Drivers/STM32L4xx_HAL_Driver/Inc/stm32l4xx_ll_exti.h **** 
  76:../../../libs/smtc-hal-mcu-stm32l4/third_party/STM32CubeL4/Drivers/STM32L4xx_HAL_Driver/Inc/stm32l4xx_ll_exti.h **** /**
  77:../../../libs/smtc-hal-mcu-stm32l4/third_party/STM32CubeL4/Drivers/STM32L4xx_HAL_Driver/Inc/stm32l4xx_ll_exti.h ****   * @}
  78:../../../libs/smtc-hal-mcu-stm32l4/third_party/STM32CubeL4/Drivers/STM32L4xx_HAL_Driver/Inc/stm32l4xx_ll_exti.h ****   */
  79:../../../libs/smtc-hal-mcu-stm32l4/third_party/STM32CubeL4/Drivers/STM32L4xx_HAL_Driver/Inc/stm32l4xx_ll_exti.h **** #endif /*USE_FULL_LL_DRIVER*/
  80:../../../libs/smtc-hal-mcu-stm32l4/third_party/STM32CubeL4/Drivers/STM32L4xx_HAL_Driver/Inc/stm32l4xx_ll_exti.h **** 
  81:../../../libs/smtc-hal-mcu-stm32l4/third_party/STM32CubeL4/Drivers/STM32L4xx_HAL_Driver/Inc/stm32l4xx_ll_exti.h **** /* Exported constants --------------------------------------------------------*/
  82:../../../libs/smtc-hal-mcu-stm32l4/third_party/STM32CubeL4/Drivers/STM32L4xx_HAL_Driver/Inc/stm32l4xx_ll_exti.h **** /** @defgroup EXTI_LL_Exported_Constants EXTI Exported Constants
  83:../../../libs/smtc-hal-mcu-stm32l4/third_party/STM32CubeL4/Drivers/STM32L4xx_HAL_Driver/Inc/stm32l4xx_ll_exti.h ****   * @{
  84:../../../libs/smtc-hal-mcu-stm32l4/third_party/STM32CubeL4/Drivers/STM32L4xx_HAL_Driver/Inc/stm32l4xx_ll_exti.h ****   */
  85:../../../libs/smtc-hal-mcu-stm32l4/third_party/STM32CubeL4/Drivers/STM32L4xx_HAL_Driver/Inc/stm32l4xx_ll_exti.h **** 
  86:../../../libs/smtc-hal-mcu-stm32l4/third_party/STM32CubeL4/Drivers/STM32L4xx_HAL_Driver/Inc/stm32l4xx_ll_exti.h **** /** @defgroup EXTI_LL_EC_LINE LINE
  87:../../../libs/smtc-hal-mcu-stm32l4/third_party/STM32CubeL4/Drivers/STM32L4xx_HAL_Driver/Inc/stm32l4xx_ll_exti.h ****   * @{
ARM GAS  C:\msys64\tmp\cczBzbSO.s 			page 3


  88:../../../libs/smtc-hal-mcu-stm32l4/third_party/STM32CubeL4/Drivers/STM32L4xx_HAL_Driver/Inc/stm32l4xx_ll_exti.h ****   */
  89:../../../libs/smtc-hal-mcu-stm32l4/third_party/STM32CubeL4/Drivers/STM32L4xx_HAL_Driver/Inc/stm32l4xx_ll_exti.h **** #define LL_EXTI_LINE_0                 EXTI_IMR1_IM0           /*!< Extended line 0 */
  90:../../../libs/smtc-hal-mcu-stm32l4/third_party/STM32CubeL4/Drivers/STM32L4xx_HAL_Driver/Inc/stm32l4xx_ll_exti.h **** #define LL_EXTI_LINE_1                 EXTI_IMR1_IM1           /*!< Extended line 1 */
  91:../../../libs/smtc-hal-mcu-stm32l4/third_party/STM32CubeL4/Drivers/STM32L4xx_HAL_Driver/Inc/stm32l4xx_ll_exti.h **** #define LL_EXTI_LINE_2                 EXTI_IMR1_IM2           /*!< Extended line 2 */
  92:../../../libs/smtc-hal-mcu-stm32l4/third_party/STM32CubeL4/Drivers/STM32L4xx_HAL_Driver/Inc/stm32l4xx_ll_exti.h **** #define LL_EXTI_LINE_3                 EXTI_IMR1_IM3           /*!< Extended line 3 */
  93:../../../libs/smtc-hal-mcu-stm32l4/third_party/STM32CubeL4/Drivers/STM32L4xx_HAL_Driver/Inc/stm32l4xx_ll_exti.h **** #define LL_EXTI_LINE_4                 EXTI_IMR1_IM4           /*!< Extended line 4 */
  94:../../../libs/smtc-hal-mcu-stm32l4/third_party/STM32CubeL4/Drivers/STM32L4xx_HAL_Driver/Inc/stm32l4xx_ll_exti.h **** #define LL_EXTI_LINE_5                 EXTI_IMR1_IM5           /*!< Extended line 5 */
  95:../../../libs/smtc-hal-mcu-stm32l4/third_party/STM32CubeL4/Drivers/STM32L4xx_HAL_Driver/Inc/stm32l4xx_ll_exti.h **** #define LL_EXTI_LINE_6                 EXTI_IMR1_IM6           /*!< Extended line 6 */
  96:../../../libs/smtc-hal-mcu-stm32l4/third_party/STM32CubeL4/Drivers/STM32L4xx_HAL_Driver/Inc/stm32l4xx_ll_exti.h **** #define LL_EXTI_LINE_7                 EXTI_IMR1_IM7           /*!< Extended line 7 */
  97:../../../libs/smtc-hal-mcu-stm32l4/third_party/STM32CubeL4/Drivers/STM32L4xx_HAL_Driver/Inc/stm32l4xx_ll_exti.h **** #define LL_EXTI_LINE_8                 EXTI_IMR1_IM8           /*!< Extended line 8 */
  98:../../../libs/smtc-hal-mcu-stm32l4/third_party/STM32CubeL4/Drivers/STM32L4xx_HAL_Driver/Inc/stm32l4xx_ll_exti.h **** #define LL_EXTI_LINE_9                 EXTI_IMR1_IM9           /*!< Extended line 9 */
  99:../../../libs/smtc-hal-mcu-stm32l4/third_party/STM32CubeL4/Drivers/STM32L4xx_HAL_Driver/Inc/stm32l4xx_ll_exti.h **** #define LL_EXTI_LINE_10                EXTI_IMR1_IM10          /*!< Extended line 10 */
 100:../../../libs/smtc-hal-mcu-stm32l4/third_party/STM32CubeL4/Drivers/STM32L4xx_HAL_Driver/Inc/stm32l4xx_ll_exti.h **** #define LL_EXTI_LINE_11                EXTI_IMR1_IM11          /*!< Extended line 11 */
 101:../../../libs/smtc-hal-mcu-stm32l4/third_party/STM32CubeL4/Drivers/STM32L4xx_HAL_Driver/Inc/stm32l4xx_ll_exti.h **** #define LL_EXTI_LINE_12                EXTI_IMR1_IM12          /*!< Extended line 12 */
 102:../../../libs/smtc-hal-mcu-stm32l4/third_party/STM32CubeL4/Drivers/STM32L4xx_HAL_Driver/Inc/stm32l4xx_ll_exti.h **** #define LL_EXTI_LINE_13                EXTI_IMR1_IM13          /*!< Extended line 13 */
 103:../../../libs/smtc-hal-mcu-stm32l4/third_party/STM32CubeL4/Drivers/STM32L4xx_HAL_Driver/Inc/stm32l4xx_ll_exti.h **** #define LL_EXTI_LINE_14                EXTI_IMR1_IM14          /*!< Extended line 14 */
 104:../../../libs/smtc-hal-mcu-stm32l4/third_party/STM32CubeL4/Drivers/STM32L4xx_HAL_Driver/Inc/stm32l4xx_ll_exti.h **** #define LL_EXTI_LINE_15                EXTI_IMR1_IM15          /*!< Extended line 15 */
 105:../../../libs/smtc-hal-mcu-stm32l4/third_party/STM32CubeL4/Drivers/STM32L4xx_HAL_Driver/Inc/stm32l4xx_ll_exti.h **** #if defined(EXTI_IMR1_IM16)
 106:../../../libs/smtc-hal-mcu-stm32l4/third_party/STM32CubeL4/Drivers/STM32L4xx_HAL_Driver/Inc/stm32l4xx_ll_exti.h **** #define LL_EXTI_LINE_16                EXTI_IMR1_IM16          /*!< Extended line 16 */
 107:../../../libs/smtc-hal-mcu-stm32l4/third_party/STM32CubeL4/Drivers/STM32L4xx_HAL_Driver/Inc/stm32l4xx_ll_exti.h **** #endif
 108:../../../libs/smtc-hal-mcu-stm32l4/third_party/STM32CubeL4/Drivers/STM32L4xx_HAL_Driver/Inc/stm32l4xx_ll_exti.h **** #define LL_EXTI_LINE_17                EXTI_IMR1_IM17          /*!< Extended line 17 */
 109:../../../libs/smtc-hal-mcu-stm32l4/third_party/STM32CubeL4/Drivers/STM32L4xx_HAL_Driver/Inc/stm32l4xx_ll_exti.h **** #if defined(EXTI_IMR1_IM18)
 110:../../../libs/smtc-hal-mcu-stm32l4/third_party/STM32CubeL4/Drivers/STM32L4xx_HAL_Driver/Inc/stm32l4xx_ll_exti.h **** #define LL_EXTI_LINE_18                EXTI_IMR1_IM18          /*!< Extended line 18 */
 111:../../../libs/smtc-hal-mcu-stm32l4/third_party/STM32CubeL4/Drivers/STM32L4xx_HAL_Driver/Inc/stm32l4xx_ll_exti.h **** #endif
 112:../../../libs/smtc-hal-mcu-stm32l4/third_party/STM32CubeL4/Drivers/STM32L4xx_HAL_Driver/Inc/stm32l4xx_ll_exti.h **** #define LL_EXTI_LINE_19                EXTI_IMR1_IM19          /*!< Extended line 19 */
 113:../../../libs/smtc-hal-mcu-stm32l4/third_party/STM32CubeL4/Drivers/STM32L4xx_HAL_Driver/Inc/stm32l4xx_ll_exti.h **** #if defined(EXTI_IMR1_IM20)
 114:../../../libs/smtc-hal-mcu-stm32l4/third_party/STM32CubeL4/Drivers/STM32L4xx_HAL_Driver/Inc/stm32l4xx_ll_exti.h **** #define LL_EXTI_LINE_20                EXTI_IMR1_IM20          /*!< Extended line 20 */
 115:../../../libs/smtc-hal-mcu-stm32l4/third_party/STM32CubeL4/Drivers/STM32L4xx_HAL_Driver/Inc/stm32l4xx_ll_exti.h **** #endif
 116:../../../libs/smtc-hal-mcu-stm32l4/third_party/STM32CubeL4/Drivers/STM32L4xx_HAL_Driver/Inc/stm32l4xx_ll_exti.h **** #if defined(EXTI_IMR1_IM21)
 117:../../../libs/smtc-hal-mcu-stm32l4/third_party/STM32CubeL4/Drivers/STM32L4xx_HAL_Driver/Inc/stm32l4xx_ll_exti.h **** #define LL_EXTI_LINE_21                EXTI_IMR1_IM21          /*!< Extended line 21 */
 118:../../../libs/smtc-hal-mcu-stm32l4/third_party/STM32CubeL4/Drivers/STM32L4xx_HAL_Driver/Inc/stm32l4xx_ll_exti.h **** #endif
 119:../../../libs/smtc-hal-mcu-stm32l4/third_party/STM32CubeL4/Drivers/STM32L4xx_HAL_Driver/Inc/stm32l4xx_ll_exti.h **** #if defined(EXTI_IMR1_IM22)
 120:../../../libs/smtc-hal-mcu-stm32l4/third_party/STM32CubeL4/Drivers/STM32L4xx_HAL_Driver/Inc/stm32l4xx_ll_exti.h **** #define LL_EXTI_LINE_22                EXTI_IMR1_IM22          /*!< Extended line 22 */
 121:../../../libs/smtc-hal-mcu-stm32l4/third_party/STM32CubeL4/Drivers/STM32L4xx_HAL_Driver/Inc/stm32l4xx_ll_exti.h **** #endif
 122:../../../libs/smtc-hal-mcu-stm32l4/third_party/STM32CubeL4/Drivers/STM32L4xx_HAL_Driver/Inc/stm32l4xx_ll_exti.h **** #define LL_EXTI_LINE_23                EXTI_IMR1_IM23          /*!< Extended line 23 */
 123:../../../libs/smtc-hal-mcu-stm32l4/third_party/STM32CubeL4/Drivers/STM32L4xx_HAL_Driver/Inc/stm32l4xx_ll_exti.h **** #if defined(EXTI_IMR1_IM24)
 124:../../../libs/smtc-hal-mcu-stm32l4/third_party/STM32CubeL4/Drivers/STM32L4xx_HAL_Driver/Inc/stm32l4xx_ll_exti.h **** #define LL_EXTI_LINE_24                EXTI_IMR1_IM24          /*!< Extended line 24 */
 125:../../../libs/smtc-hal-mcu-stm32l4/third_party/STM32CubeL4/Drivers/STM32L4xx_HAL_Driver/Inc/stm32l4xx_ll_exti.h **** #endif
 126:../../../libs/smtc-hal-mcu-stm32l4/third_party/STM32CubeL4/Drivers/STM32L4xx_HAL_Driver/Inc/stm32l4xx_ll_exti.h **** #if defined(EXTI_IMR1_IM25)
 127:../../../libs/smtc-hal-mcu-stm32l4/third_party/STM32CubeL4/Drivers/STM32L4xx_HAL_Driver/Inc/stm32l4xx_ll_exti.h **** #define LL_EXTI_LINE_25                EXTI_IMR1_IM25          /*!< Extended line 25 */
 128:../../../libs/smtc-hal-mcu-stm32l4/third_party/STM32CubeL4/Drivers/STM32L4xx_HAL_Driver/Inc/stm32l4xx_ll_exti.h **** #endif
 129:../../../libs/smtc-hal-mcu-stm32l4/third_party/STM32CubeL4/Drivers/STM32L4xx_HAL_Driver/Inc/stm32l4xx_ll_exti.h **** #if defined(EXTI_IMR1_IM26)
 130:../../../libs/smtc-hal-mcu-stm32l4/third_party/STM32CubeL4/Drivers/STM32L4xx_HAL_Driver/Inc/stm32l4xx_ll_exti.h **** #define LL_EXTI_LINE_26                EXTI_IMR1_IM26          /*!< Extended line 26 */
 131:../../../libs/smtc-hal-mcu-stm32l4/third_party/STM32CubeL4/Drivers/STM32L4xx_HAL_Driver/Inc/stm32l4xx_ll_exti.h **** #endif
 132:../../../libs/smtc-hal-mcu-stm32l4/third_party/STM32CubeL4/Drivers/STM32L4xx_HAL_Driver/Inc/stm32l4xx_ll_exti.h **** #if defined(EXTI_IMR1_IM27)
 133:../../../libs/smtc-hal-mcu-stm32l4/third_party/STM32CubeL4/Drivers/STM32L4xx_HAL_Driver/Inc/stm32l4xx_ll_exti.h **** #define LL_EXTI_LINE_27                EXTI_IMR1_IM27          /*!< Extended line 27 */
 134:../../../libs/smtc-hal-mcu-stm32l4/third_party/STM32CubeL4/Drivers/STM32L4xx_HAL_Driver/Inc/stm32l4xx_ll_exti.h **** #endif
 135:../../../libs/smtc-hal-mcu-stm32l4/third_party/STM32CubeL4/Drivers/STM32L4xx_HAL_Driver/Inc/stm32l4xx_ll_exti.h **** #if defined(EXTI_IMR1_IM28)
 136:../../../libs/smtc-hal-mcu-stm32l4/third_party/STM32CubeL4/Drivers/STM32L4xx_HAL_Driver/Inc/stm32l4xx_ll_exti.h **** #define LL_EXTI_LINE_28                EXTI_IMR1_IM28          /*!< Extended line 28 */
 137:../../../libs/smtc-hal-mcu-stm32l4/third_party/STM32CubeL4/Drivers/STM32L4xx_HAL_Driver/Inc/stm32l4xx_ll_exti.h **** #endif
 138:../../../libs/smtc-hal-mcu-stm32l4/third_party/STM32CubeL4/Drivers/STM32L4xx_HAL_Driver/Inc/stm32l4xx_ll_exti.h **** #if defined(EXTI_IMR1_IM29)
 139:../../../libs/smtc-hal-mcu-stm32l4/third_party/STM32CubeL4/Drivers/STM32L4xx_HAL_Driver/Inc/stm32l4xx_ll_exti.h **** #define LL_EXTI_LINE_29                EXTI_IMR1_IM29          /*!< Extended line 29 */
 140:../../../libs/smtc-hal-mcu-stm32l4/third_party/STM32CubeL4/Drivers/STM32L4xx_HAL_Driver/Inc/stm32l4xx_ll_exti.h **** #endif
 141:../../../libs/smtc-hal-mcu-stm32l4/third_party/STM32CubeL4/Drivers/STM32L4xx_HAL_Driver/Inc/stm32l4xx_ll_exti.h **** #if defined(EXTI_IMR1_IM30)
 142:../../../libs/smtc-hal-mcu-stm32l4/third_party/STM32CubeL4/Drivers/STM32L4xx_HAL_Driver/Inc/stm32l4xx_ll_exti.h **** #define LL_EXTI_LINE_30                EXTI_IMR1_IM30          /*!< Extended line 30 */
 143:../../../libs/smtc-hal-mcu-stm32l4/third_party/STM32CubeL4/Drivers/STM32L4xx_HAL_Driver/Inc/stm32l4xx_ll_exti.h **** #endif
 144:../../../libs/smtc-hal-mcu-stm32l4/third_party/STM32CubeL4/Drivers/STM32L4xx_HAL_Driver/Inc/stm32l4xx_ll_exti.h **** #if defined(EXTI_IMR1_IM31)
ARM GAS  C:\msys64\tmp\cczBzbSO.s 			page 4


 145:../../../libs/smtc-hal-mcu-stm32l4/third_party/STM32CubeL4/Drivers/STM32L4xx_HAL_Driver/Inc/stm32l4xx_ll_exti.h **** #define LL_EXTI_LINE_31                EXTI_IMR1_IM31          /*!< Extended line 31 */
 146:../../../libs/smtc-hal-mcu-stm32l4/third_party/STM32CubeL4/Drivers/STM32L4xx_HAL_Driver/Inc/stm32l4xx_ll_exti.h **** #endif
 147:../../../libs/smtc-hal-mcu-stm32l4/third_party/STM32CubeL4/Drivers/STM32L4xx_HAL_Driver/Inc/stm32l4xx_ll_exti.h **** #define LL_EXTI_LINE_ALL_0_31          EXTI_IMR1_IM            /*!< All Extended line not reserved*
 148:../../../libs/smtc-hal-mcu-stm32l4/third_party/STM32CubeL4/Drivers/STM32L4xx_HAL_Driver/Inc/stm32l4xx_ll_exti.h **** 
 149:../../../libs/smtc-hal-mcu-stm32l4/third_party/STM32CubeL4/Drivers/STM32L4xx_HAL_Driver/Inc/stm32l4xx_ll_exti.h **** #define LL_EXTI_LINE_32                EXTI_IMR2_IM32          /*!< Extended line 32 */
 150:../../../libs/smtc-hal-mcu-stm32l4/third_party/STM32CubeL4/Drivers/STM32L4xx_HAL_Driver/Inc/stm32l4xx_ll_exti.h **** #if defined(EXTI_IMR2_IM33)
 151:../../../libs/smtc-hal-mcu-stm32l4/third_party/STM32CubeL4/Drivers/STM32L4xx_HAL_Driver/Inc/stm32l4xx_ll_exti.h **** #define LL_EXTI_LINE_33                EXTI_IMR2_IM33          /*!< Extended line 33 */
 152:../../../libs/smtc-hal-mcu-stm32l4/third_party/STM32CubeL4/Drivers/STM32L4xx_HAL_Driver/Inc/stm32l4xx_ll_exti.h **** #endif
 153:../../../libs/smtc-hal-mcu-stm32l4/third_party/STM32CubeL4/Drivers/STM32L4xx_HAL_Driver/Inc/stm32l4xx_ll_exti.h **** #if defined(EXTI_IMR2_IM34)
 154:../../../libs/smtc-hal-mcu-stm32l4/third_party/STM32CubeL4/Drivers/STM32L4xx_HAL_Driver/Inc/stm32l4xx_ll_exti.h **** #define LL_EXTI_LINE_34                EXTI_IMR2_IM34          /*!< Extended line 34 */
 155:../../../libs/smtc-hal-mcu-stm32l4/third_party/STM32CubeL4/Drivers/STM32L4xx_HAL_Driver/Inc/stm32l4xx_ll_exti.h **** #endif
 156:../../../libs/smtc-hal-mcu-stm32l4/third_party/STM32CubeL4/Drivers/STM32L4xx_HAL_Driver/Inc/stm32l4xx_ll_exti.h **** #if defined(EXTI_IMR2_IM35)
 157:../../../libs/smtc-hal-mcu-stm32l4/third_party/STM32CubeL4/Drivers/STM32L4xx_HAL_Driver/Inc/stm32l4xx_ll_exti.h **** #define LL_EXTI_LINE_35                EXTI_IMR2_IM35          /*!< Extended line 35 */
 158:../../../libs/smtc-hal-mcu-stm32l4/third_party/STM32CubeL4/Drivers/STM32L4xx_HAL_Driver/Inc/stm32l4xx_ll_exti.h **** #endif
 159:../../../libs/smtc-hal-mcu-stm32l4/third_party/STM32CubeL4/Drivers/STM32L4xx_HAL_Driver/Inc/stm32l4xx_ll_exti.h **** #if defined(EXTI_IMR2_IM36)
 160:../../../libs/smtc-hal-mcu-stm32l4/third_party/STM32CubeL4/Drivers/STM32L4xx_HAL_Driver/Inc/stm32l4xx_ll_exti.h **** #define LL_EXTI_LINE_36                EXTI_IMR2_IM36          /*!< Extended line 36 */
 161:../../../libs/smtc-hal-mcu-stm32l4/third_party/STM32CubeL4/Drivers/STM32L4xx_HAL_Driver/Inc/stm32l4xx_ll_exti.h **** #endif
 162:../../../libs/smtc-hal-mcu-stm32l4/third_party/STM32CubeL4/Drivers/STM32L4xx_HAL_Driver/Inc/stm32l4xx_ll_exti.h **** #if defined(EXTI_IMR2_IM37)
 163:../../../libs/smtc-hal-mcu-stm32l4/third_party/STM32CubeL4/Drivers/STM32L4xx_HAL_Driver/Inc/stm32l4xx_ll_exti.h **** #define LL_EXTI_LINE_37                EXTI_IMR2_IM37          /*!< Extended line 37 */
 164:../../../libs/smtc-hal-mcu-stm32l4/third_party/STM32CubeL4/Drivers/STM32L4xx_HAL_Driver/Inc/stm32l4xx_ll_exti.h **** #endif
 165:../../../libs/smtc-hal-mcu-stm32l4/third_party/STM32CubeL4/Drivers/STM32L4xx_HAL_Driver/Inc/stm32l4xx_ll_exti.h **** #if defined(EXTI_IMR2_IM38)
 166:../../../libs/smtc-hal-mcu-stm32l4/third_party/STM32CubeL4/Drivers/STM32L4xx_HAL_Driver/Inc/stm32l4xx_ll_exti.h **** #define LL_EXTI_LINE_38                EXTI_IMR2_IM38          /*!< Extended line 38 */
 167:../../../libs/smtc-hal-mcu-stm32l4/third_party/STM32CubeL4/Drivers/STM32L4xx_HAL_Driver/Inc/stm32l4xx_ll_exti.h **** #endif
 168:../../../libs/smtc-hal-mcu-stm32l4/third_party/STM32CubeL4/Drivers/STM32L4xx_HAL_Driver/Inc/stm32l4xx_ll_exti.h **** #if defined(EXTI_IMR2_IM39)
 169:../../../libs/smtc-hal-mcu-stm32l4/third_party/STM32CubeL4/Drivers/STM32L4xx_HAL_Driver/Inc/stm32l4xx_ll_exti.h **** #define LL_EXTI_LINE_39                EXTI_IMR2_IM39          /*!< Extended line 39 */
 170:../../../libs/smtc-hal-mcu-stm32l4/third_party/STM32CubeL4/Drivers/STM32L4xx_HAL_Driver/Inc/stm32l4xx_ll_exti.h **** #endif
 171:../../../libs/smtc-hal-mcu-stm32l4/third_party/STM32CubeL4/Drivers/STM32L4xx_HAL_Driver/Inc/stm32l4xx_ll_exti.h **** #if defined(EXTI_IMR2_IM40)
 172:../../../libs/smtc-hal-mcu-stm32l4/third_party/STM32CubeL4/Drivers/STM32L4xx_HAL_Driver/Inc/stm32l4xx_ll_exti.h **** #define LL_EXTI_LINE_40                EXTI_IMR2_IM40          /*!< Extended line 40 */
 173:../../../libs/smtc-hal-mcu-stm32l4/third_party/STM32CubeL4/Drivers/STM32L4xx_HAL_Driver/Inc/stm32l4xx_ll_exti.h **** #endif
 174:../../../libs/smtc-hal-mcu-stm32l4/third_party/STM32CubeL4/Drivers/STM32L4xx_HAL_Driver/Inc/stm32l4xx_ll_exti.h **** #define LL_EXTI_LINE_ALL_32_63         EXTI_IMR2_IM            /*!< All Extended line not reserved*
 175:../../../libs/smtc-hal-mcu-stm32l4/third_party/STM32CubeL4/Drivers/STM32L4xx_HAL_Driver/Inc/stm32l4xx_ll_exti.h **** 
 176:../../../libs/smtc-hal-mcu-stm32l4/third_party/STM32CubeL4/Drivers/STM32L4xx_HAL_Driver/Inc/stm32l4xx_ll_exti.h **** 
 177:../../../libs/smtc-hal-mcu-stm32l4/third_party/STM32CubeL4/Drivers/STM32L4xx_HAL_Driver/Inc/stm32l4xx_ll_exti.h **** #define LL_EXTI_LINE_ALL               (0xFFFFFFFFU)  /*!< All Extended line */
 178:../../../libs/smtc-hal-mcu-stm32l4/third_party/STM32CubeL4/Drivers/STM32L4xx_HAL_Driver/Inc/stm32l4xx_ll_exti.h **** 
 179:../../../libs/smtc-hal-mcu-stm32l4/third_party/STM32CubeL4/Drivers/STM32L4xx_HAL_Driver/Inc/stm32l4xx_ll_exti.h **** #if defined(USE_FULL_LL_DRIVER)
 180:../../../libs/smtc-hal-mcu-stm32l4/third_party/STM32CubeL4/Drivers/STM32L4xx_HAL_Driver/Inc/stm32l4xx_ll_exti.h **** #define LL_EXTI_LINE_NONE              (0x00000000U)  /*!< None Extended line */
 181:../../../libs/smtc-hal-mcu-stm32l4/third_party/STM32CubeL4/Drivers/STM32L4xx_HAL_Driver/Inc/stm32l4xx_ll_exti.h **** #endif /*USE_FULL_LL_DRIVER*/
 182:../../../libs/smtc-hal-mcu-stm32l4/third_party/STM32CubeL4/Drivers/STM32L4xx_HAL_Driver/Inc/stm32l4xx_ll_exti.h **** 
 183:../../../libs/smtc-hal-mcu-stm32l4/third_party/STM32CubeL4/Drivers/STM32L4xx_HAL_Driver/Inc/stm32l4xx_ll_exti.h **** /**
 184:../../../libs/smtc-hal-mcu-stm32l4/third_party/STM32CubeL4/Drivers/STM32L4xx_HAL_Driver/Inc/stm32l4xx_ll_exti.h ****   * @}
 185:../../../libs/smtc-hal-mcu-stm32l4/third_party/STM32CubeL4/Drivers/STM32L4xx_HAL_Driver/Inc/stm32l4xx_ll_exti.h ****   */
 186:../../../libs/smtc-hal-mcu-stm32l4/third_party/STM32CubeL4/Drivers/STM32L4xx_HAL_Driver/Inc/stm32l4xx_ll_exti.h **** 
 187:../../../libs/smtc-hal-mcu-stm32l4/third_party/STM32CubeL4/Drivers/STM32L4xx_HAL_Driver/Inc/stm32l4xx_ll_exti.h **** 
 188:../../../libs/smtc-hal-mcu-stm32l4/third_party/STM32CubeL4/Drivers/STM32L4xx_HAL_Driver/Inc/stm32l4xx_ll_exti.h **** #if defined(USE_FULL_LL_DRIVER)
 189:../../../libs/smtc-hal-mcu-stm32l4/third_party/STM32CubeL4/Drivers/STM32L4xx_HAL_Driver/Inc/stm32l4xx_ll_exti.h **** 
 190:../../../libs/smtc-hal-mcu-stm32l4/third_party/STM32CubeL4/Drivers/STM32L4xx_HAL_Driver/Inc/stm32l4xx_ll_exti.h **** /** @defgroup EXTI_LL_EC_MODE Mode
 191:../../../libs/smtc-hal-mcu-stm32l4/third_party/STM32CubeL4/Drivers/STM32L4xx_HAL_Driver/Inc/stm32l4xx_ll_exti.h ****   * @{
 192:../../../libs/smtc-hal-mcu-stm32l4/third_party/STM32CubeL4/Drivers/STM32L4xx_HAL_Driver/Inc/stm32l4xx_ll_exti.h ****   */
 193:../../../libs/smtc-hal-mcu-stm32l4/third_party/STM32CubeL4/Drivers/STM32L4xx_HAL_Driver/Inc/stm32l4xx_ll_exti.h **** #define LL_EXTI_MODE_IT                 ((uint8_t)0x00U) /*!< Interrupt Mode */
 194:../../../libs/smtc-hal-mcu-stm32l4/third_party/STM32CubeL4/Drivers/STM32L4xx_HAL_Driver/Inc/stm32l4xx_ll_exti.h **** #define LL_EXTI_MODE_EVENT              ((uint8_t)0x01U) /*!< Event Mode */
 195:../../../libs/smtc-hal-mcu-stm32l4/third_party/STM32CubeL4/Drivers/STM32L4xx_HAL_Driver/Inc/stm32l4xx_ll_exti.h **** #define LL_EXTI_MODE_IT_EVENT           ((uint8_t)0x02U) /*!< Interrupt & Event Mode */
 196:../../../libs/smtc-hal-mcu-stm32l4/third_party/STM32CubeL4/Drivers/STM32L4xx_HAL_Driver/Inc/stm32l4xx_ll_exti.h **** /**
 197:../../../libs/smtc-hal-mcu-stm32l4/third_party/STM32CubeL4/Drivers/STM32L4xx_HAL_Driver/Inc/stm32l4xx_ll_exti.h ****   * @}
 198:../../../libs/smtc-hal-mcu-stm32l4/third_party/STM32CubeL4/Drivers/STM32L4xx_HAL_Driver/Inc/stm32l4xx_ll_exti.h ****   */
 199:../../../libs/smtc-hal-mcu-stm32l4/third_party/STM32CubeL4/Drivers/STM32L4xx_HAL_Driver/Inc/stm32l4xx_ll_exti.h **** 
 200:../../../libs/smtc-hal-mcu-stm32l4/third_party/STM32CubeL4/Drivers/STM32L4xx_HAL_Driver/Inc/stm32l4xx_ll_exti.h **** /** @defgroup EXTI_LL_EC_TRIGGER Edge Trigger
 201:../../../libs/smtc-hal-mcu-stm32l4/third_party/STM32CubeL4/Drivers/STM32L4xx_HAL_Driver/Inc/stm32l4xx_ll_exti.h ****   * @{
ARM GAS  C:\msys64\tmp\cczBzbSO.s 			page 5


 202:../../../libs/smtc-hal-mcu-stm32l4/third_party/STM32CubeL4/Drivers/STM32L4xx_HAL_Driver/Inc/stm32l4xx_ll_exti.h ****   */
 203:../../../libs/smtc-hal-mcu-stm32l4/third_party/STM32CubeL4/Drivers/STM32L4xx_HAL_Driver/Inc/stm32l4xx_ll_exti.h **** #define LL_EXTI_TRIGGER_NONE            ((uint8_t)0x00U) /*!< No Trigger Mode */
 204:../../../libs/smtc-hal-mcu-stm32l4/third_party/STM32CubeL4/Drivers/STM32L4xx_HAL_Driver/Inc/stm32l4xx_ll_exti.h **** #define LL_EXTI_TRIGGER_RISING          ((uint8_t)0x01U) /*!< Trigger Rising Mode */
 205:../../../libs/smtc-hal-mcu-stm32l4/third_party/STM32CubeL4/Drivers/STM32L4xx_HAL_Driver/Inc/stm32l4xx_ll_exti.h **** #define LL_EXTI_TRIGGER_FALLING         ((uint8_t)0x02U) /*!< Trigger Falling Mode */
 206:../../../libs/smtc-hal-mcu-stm32l4/third_party/STM32CubeL4/Drivers/STM32L4xx_HAL_Driver/Inc/stm32l4xx_ll_exti.h **** #define LL_EXTI_TRIGGER_RISING_FALLING  ((uint8_t)0x03U) /*!< Trigger Rising & Falling Mode */
 207:../../../libs/smtc-hal-mcu-stm32l4/third_party/STM32CubeL4/Drivers/STM32L4xx_HAL_Driver/Inc/stm32l4xx_ll_exti.h **** 
 208:../../../libs/smtc-hal-mcu-stm32l4/third_party/STM32CubeL4/Drivers/STM32L4xx_HAL_Driver/Inc/stm32l4xx_ll_exti.h **** /**
 209:../../../libs/smtc-hal-mcu-stm32l4/third_party/STM32CubeL4/Drivers/STM32L4xx_HAL_Driver/Inc/stm32l4xx_ll_exti.h ****   * @}
 210:../../../libs/smtc-hal-mcu-stm32l4/third_party/STM32CubeL4/Drivers/STM32L4xx_HAL_Driver/Inc/stm32l4xx_ll_exti.h ****   */
 211:../../../libs/smtc-hal-mcu-stm32l4/third_party/STM32CubeL4/Drivers/STM32L4xx_HAL_Driver/Inc/stm32l4xx_ll_exti.h **** 
 212:../../../libs/smtc-hal-mcu-stm32l4/third_party/STM32CubeL4/Drivers/STM32L4xx_HAL_Driver/Inc/stm32l4xx_ll_exti.h **** 
 213:../../../libs/smtc-hal-mcu-stm32l4/third_party/STM32CubeL4/Drivers/STM32L4xx_HAL_Driver/Inc/stm32l4xx_ll_exti.h **** #endif /*USE_FULL_LL_DRIVER*/
 214:../../../libs/smtc-hal-mcu-stm32l4/third_party/STM32CubeL4/Drivers/STM32L4xx_HAL_Driver/Inc/stm32l4xx_ll_exti.h **** 
 215:../../../libs/smtc-hal-mcu-stm32l4/third_party/STM32CubeL4/Drivers/STM32L4xx_HAL_Driver/Inc/stm32l4xx_ll_exti.h **** 
 216:../../../libs/smtc-hal-mcu-stm32l4/third_party/STM32CubeL4/Drivers/STM32L4xx_HAL_Driver/Inc/stm32l4xx_ll_exti.h **** /**
 217:../../../libs/smtc-hal-mcu-stm32l4/third_party/STM32CubeL4/Drivers/STM32L4xx_HAL_Driver/Inc/stm32l4xx_ll_exti.h ****   * @}
 218:../../../libs/smtc-hal-mcu-stm32l4/third_party/STM32CubeL4/Drivers/STM32L4xx_HAL_Driver/Inc/stm32l4xx_ll_exti.h ****   */
 219:../../../libs/smtc-hal-mcu-stm32l4/third_party/STM32CubeL4/Drivers/STM32L4xx_HAL_Driver/Inc/stm32l4xx_ll_exti.h **** 
 220:../../../libs/smtc-hal-mcu-stm32l4/third_party/STM32CubeL4/Drivers/STM32L4xx_HAL_Driver/Inc/stm32l4xx_ll_exti.h **** /* Exported macro ------------------------------------------------------------*/
 221:../../../libs/smtc-hal-mcu-stm32l4/third_party/STM32CubeL4/Drivers/STM32L4xx_HAL_Driver/Inc/stm32l4xx_ll_exti.h **** /** @defgroup EXTI_LL_Exported_Macros EXTI Exported Macros
 222:../../../libs/smtc-hal-mcu-stm32l4/third_party/STM32CubeL4/Drivers/STM32L4xx_HAL_Driver/Inc/stm32l4xx_ll_exti.h ****   * @{
 223:../../../libs/smtc-hal-mcu-stm32l4/third_party/STM32CubeL4/Drivers/STM32L4xx_HAL_Driver/Inc/stm32l4xx_ll_exti.h ****   */
 224:../../../libs/smtc-hal-mcu-stm32l4/third_party/STM32CubeL4/Drivers/STM32L4xx_HAL_Driver/Inc/stm32l4xx_ll_exti.h **** 
 225:../../../libs/smtc-hal-mcu-stm32l4/third_party/STM32CubeL4/Drivers/STM32L4xx_HAL_Driver/Inc/stm32l4xx_ll_exti.h **** /** @defgroup EXTI_LL_EM_WRITE_READ Common Write and read registers Macros
 226:../../../libs/smtc-hal-mcu-stm32l4/third_party/STM32CubeL4/Drivers/STM32L4xx_HAL_Driver/Inc/stm32l4xx_ll_exti.h ****   * @{
 227:../../../libs/smtc-hal-mcu-stm32l4/third_party/STM32CubeL4/Drivers/STM32L4xx_HAL_Driver/Inc/stm32l4xx_ll_exti.h ****   */
 228:../../../libs/smtc-hal-mcu-stm32l4/third_party/STM32CubeL4/Drivers/STM32L4xx_HAL_Driver/Inc/stm32l4xx_ll_exti.h **** 
 229:../../../libs/smtc-hal-mcu-stm32l4/third_party/STM32CubeL4/Drivers/STM32L4xx_HAL_Driver/Inc/stm32l4xx_ll_exti.h **** /**
 230:../../../libs/smtc-hal-mcu-stm32l4/third_party/STM32CubeL4/Drivers/STM32L4xx_HAL_Driver/Inc/stm32l4xx_ll_exti.h ****   * @brief  Write a value in EXTI register
 231:../../../libs/smtc-hal-mcu-stm32l4/third_party/STM32CubeL4/Drivers/STM32L4xx_HAL_Driver/Inc/stm32l4xx_ll_exti.h ****   * @param  __REG__ Register to be written
 232:../../../libs/smtc-hal-mcu-stm32l4/third_party/STM32CubeL4/Drivers/STM32L4xx_HAL_Driver/Inc/stm32l4xx_ll_exti.h ****   * @param  __VALUE__ Value to be written in the register
 233:../../../libs/smtc-hal-mcu-stm32l4/third_party/STM32CubeL4/Drivers/STM32L4xx_HAL_Driver/Inc/stm32l4xx_ll_exti.h ****   * @retval None
 234:../../../libs/smtc-hal-mcu-stm32l4/third_party/STM32CubeL4/Drivers/STM32L4xx_HAL_Driver/Inc/stm32l4xx_ll_exti.h ****   */
 235:../../../libs/smtc-hal-mcu-stm32l4/third_party/STM32CubeL4/Drivers/STM32L4xx_HAL_Driver/Inc/stm32l4xx_ll_exti.h **** #define LL_EXTI_WriteReg(__REG__, __VALUE__) WRITE_REG(EXTI->__REG__, (__VALUE__))
 236:../../../libs/smtc-hal-mcu-stm32l4/third_party/STM32CubeL4/Drivers/STM32L4xx_HAL_Driver/Inc/stm32l4xx_ll_exti.h **** 
 237:../../../libs/smtc-hal-mcu-stm32l4/third_party/STM32CubeL4/Drivers/STM32L4xx_HAL_Driver/Inc/stm32l4xx_ll_exti.h **** /**
 238:../../../libs/smtc-hal-mcu-stm32l4/third_party/STM32CubeL4/Drivers/STM32L4xx_HAL_Driver/Inc/stm32l4xx_ll_exti.h ****   * @brief  Read a value in EXTI register
 239:../../../libs/smtc-hal-mcu-stm32l4/third_party/STM32CubeL4/Drivers/STM32L4xx_HAL_Driver/Inc/stm32l4xx_ll_exti.h ****   * @param  __REG__ Register to be read
 240:../../../libs/smtc-hal-mcu-stm32l4/third_party/STM32CubeL4/Drivers/STM32L4xx_HAL_Driver/Inc/stm32l4xx_ll_exti.h ****   * @retval Register value
 241:../../../libs/smtc-hal-mcu-stm32l4/third_party/STM32CubeL4/Drivers/STM32L4xx_HAL_Driver/Inc/stm32l4xx_ll_exti.h ****   */
 242:../../../libs/smtc-hal-mcu-stm32l4/third_party/STM32CubeL4/Drivers/STM32L4xx_HAL_Driver/Inc/stm32l4xx_ll_exti.h **** #define LL_EXTI_ReadReg(__REG__) READ_REG(EXTI->__REG__)
 243:../../../libs/smtc-hal-mcu-stm32l4/third_party/STM32CubeL4/Drivers/STM32L4xx_HAL_Driver/Inc/stm32l4xx_ll_exti.h **** /**
 244:../../../libs/smtc-hal-mcu-stm32l4/third_party/STM32CubeL4/Drivers/STM32L4xx_HAL_Driver/Inc/stm32l4xx_ll_exti.h ****   * @}
 245:../../../libs/smtc-hal-mcu-stm32l4/third_party/STM32CubeL4/Drivers/STM32L4xx_HAL_Driver/Inc/stm32l4xx_ll_exti.h ****   */
 246:../../../libs/smtc-hal-mcu-stm32l4/third_party/STM32CubeL4/Drivers/STM32L4xx_HAL_Driver/Inc/stm32l4xx_ll_exti.h **** 
 247:../../../libs/smtc-hal-mcu-stm32l4/third_party/STM32CubeL4/Drivers/STM32L4xx_HAL_Driver/Inc/stm32l4xx_ll_exti.h **** 
 248:../../../libs/smtc-hal-mcu-stm32l4/third_party/STM32CubeL4/Drivers/STM32L4xx_HAL_Driver/Inc/stm32l4xx_ll_exti.h **** /**
 249:../../../libs/smtc-hal-mcu-stm32l4/third_party/STM32CubeL4/Drivers/STM32L4xx_HAL_Driver/Inc/stm32l4xx_ll_exti.h ****   * @}
 250:../../../libs/smtc-hal-mcu-stm32l4/third_party/STM32CubeL4/Drivers/STM32L4xx_HAL_Driver/Inc/stm32l4xx_ll_exti.h ****   */
 251:../../../libs/smtc-hal-mcu-stm32l4/third_party/STM32CubeL4/Drivers/STM32L4xx_HAL_Driver/Inc/stm32l4xx_ll_exti.h **** 
 252:../../../libs/smtc-hal-mcu-stm32l4/third_party/STM32CubeL4/Drivers/STM32L4xx_HAL_Driver/Inc/stm32l4xx_ll_exti.h **** 
 253:../../../libs/smtc-hal-mcu-stm32l4/third_party/STM32CubeL4/Drivers/STM32L4xx_HAL_Driver/Inc/stm32l4xx_ll_exti.h **** 
 254:../../../libs/smtc-hal-mcu-stm32l4/third_party/STM32CubeL4/Drivers/STM32L4xx_HAL_Driver/Inc/stm32l4xx_ll_exti.h **** /* Exported functions --------------------------------------------------------*/
 255:../../../libs/smtc-hal-mcu-stm32l4/third_party/STM32CubeL4/Drivers/STM32L4xx_HAL_Driver/Inc/stm32l4xx_ll_exti.h **** /** @defgroup EXTI_LL_Exported_Functions EXTI Exported Functions
 256:../../../libs/smtc-hal-mcu-stm32l4/third_party/STM32CubeL4/Drivers/STM32L4xx_HAL_Driver/Inc/stm32l4xx_ll_exti.h ****  * @{
 257:../../../libs/smtc-hal-mcu-stm32l4/third_party/STM32CubeL4/Drivers/STM32L4xx_HAL_Driver/Inc/stm32l4xx_ll_exti.h ****  */
 258:../../../libs/smtc-hal-mcu-stm32l4/third_party/STM32CubeL4/Drivers/STM32L4xx_HAL_Driver/Inc/stm32l4xx_ll_exti.h **** /** @defgroup EXTI_LL_EF_IT_Management IT_Management
ARM GAS  C:\msys64\tmp\cczBzbSO.s 			page 6


 259:../../../libs/smtc-hal-mcu-stm32l4/third_party/STM32CubeL4/Drivers/STM32L4xx_HAL_Driver/Inc/stm32l4xx_ll_exti.h ****   * @{
 260:../../../libs/smtc-hal-mcu-stm32l4/third_party/STM32CubeL4/Drivers/STM32L4xx_HAL_Driver/Inc/stm32l4xx_ll_exti.h ****   */
 261:../../../libs/smtc-hal-mcu-stm32l4/third_party/STM32CubeL4/Drivers/STM32L4xx_HAL_Driver/Inc/stm32l4xx_ll_exti.h **** 
 262:../../../libs/smtc-hal-mcu-stm32l4/third_party/STM32CubeL4/Drivers/STM32L4xx_HAL_Driver/Inc/stm32l4xx_ll_exti.h **** /**
 263:../../../libs/smtc-hal-mcu-stm32l4/third_party/STM32CubeL4/Drivers/STM32L4xx_HAL_Driver/Inc/stm32l4xx_ll_exti.h ****   * @brief  Enable ExtiLine Interrupt request for Lines in range 0 to 31
 264:../../../libs/smtc-hal-mcu-stm32l4/third_party/STM32CubeL4/Drivers/STM32L4xx_HAL_Driver/Inc/stm32l4xx_ll_exti.h ****   * @note The reset value for the direct or internal lines (see RM)
 265:../../../libs/smtc-hal-mcu-stm32l4/third_party/STM32CubeL4/Drivers/STM32L4xx_HAL_Driver/Inc/stm32l4xx_ll_exti.h ****   *       is set to 1 in order to enable the interrupt by default.
 266:../../../libs/smtc-hal-mcu-stm32l4/third_party/STM32CubeL4/Drivers/STM32L4xx_HAL_Driver/Inc/stm32l4xx_ll_exti.h ****   *       Bits are set automatically at Power on.
 267:../../../libs/smtc-hal-mcu-stm32l4/third_party/STM32CubeL4/Drivers/STM32L4xx_HAL_Driver/Inc/stm32l4xx_ll_exti.h ****   * @rmtoll IMR1         IMx           LL_EXTI_EnableIT_0_31
 268:../../../libs/smtc-hal-mcu-stm32l4/third_party/STM32CubeL4/Drivers/STM32L4xx_HAL_Driver/Inc/stm32l4xx_ll_exti.h ****   * @param  ExtiLine This parameter can be one of the following values:
 269:../../../libs/smtc-hal-mcu-stm32l4/third_party/STM32CubeL4/Drivers/STM32L4xx_HAL_Driver/Inc/stm32l4xx_ll_exti.h ****   *         @arg @ref LL_EXTI_LINE_0
 270:../../../libs/smtc-hal-mcu-stm32l4/third_party/STM32CubeL4/Drivers/STM32L4xx_HAL_Driver/Inc/stm32l4xx_ll_exti.h ****   *         @arg @ref LL_EXTI_LINE_1
 271:../../../libs/smtc-hal-mcu-stm32l4/third_party/STM32CubeL4/Drivers/STM32L4xx_HAL_Driver/Inc/stm32l4xx_ll_exti.h ****   *         @arg @ref LL_EXTI_LINE_2
 272:../../../libs/smtc-hal-mcu-stm32l4/third_party/STM32CubeL4/Drivers/STM32L4xx_HAL_Driver/Inc/stm32l4xx_ll_exti.h ****   *         @arg @ref LL_EXTI_LINE_3
 273:../../../libs/smtc-hal-mcu-stm32l4/third_party/STM32CubeL4/Drivers/STM32L4xx_HAL_Driver/Inc/stm32l4xx_ll_exti.h ****   *         @arg @ref LL_EXTI_LINE_4
 274:../../../libs/smtc-hal-mcu-stm32l4/third_party/STM32CubeL4/Drivers/STM32L4xx_HAL_Driver/Inc/stm32l4xx_ll_exti.h ****   *         @arg @ref LL_EXTI_LINE_5
 275:../../../libs/smtc-hal-mcu-stm32l4/third_party/STM32CubeL4/Drivers/STM32L4xx_HAL_Driver/Inc/stm32l4xx_ll_exti.h ****   *         @arg @ref LL_EXTI_LINE_6
 276:../../../libs/smtc-hal-mcu-stm32l4/third_party/STM32CubeL4/Drivers/STM32L4xx_HAL_Driver/Inc/stm32l4xx_ll_exti.h ****   *         @arg @ref LL_EXTI_LINE_7
 277:../../../libs/smtc-hal-mcu-stm32l4/third_party/STM32CubeL4/Drivers/STM32L4xx_HAL_Driver/Inc/stm32l4xx_ll_exti.h ****   *         @arg @ref LL_EXTI_LINE_8
 278:../../../libs/smtc-hal-mcu-stm32l4/third_party/STM32CubeL4/Drivers/STM32L4xx_HAL_Driver/Inc/stm32l4xx_ll_exti.h ****   *         @arg @ref LL_EXTI_LINE_9
 279:../../../libs/smtc-hal-mcu-stm32l4/third_party/STM32CubeL4/Drivers/STM32L4xx_HAL_Driver/Inc/stm32l4xx_ll_exti.h ****   *         @arg @ref LL_EXTI_LINE_10
 280:../../../libs/smtc-hal-mcu-stm32l4/third_party/STM32CubeL4/Drivers/STM32L4xx_HAL_Driver/Inc/stm32l4xx_ll_exti.h ****   *         @arg @ref LL_EXTI_LINE_11
 281:../../../libs/smtc-hal-mcu-stm32l4/third_party/STM32CubeL4/Drivers/STM32L4xx_HAL_Driver/Inc/stm32l4xx_ll_exti.h ****   *         @arg @ref LL_EXTI_LINE_12
 282:../../../libs/smtc-hal-mcu-stm32l4/third_party/STM32CubeL4/Drivers/STM32L4xx_HAL_Driver/Inc/stm32l4xx_ll_exti.h ****   *         @arg @ref LL_EXTI_LINE_13
 283:../../../libs/smtc-hal-mcu-stm32l4/third_party/STM32CubeL4/Drivers/STM32L4xx_HAL_Driver/Inc/stm32l4xx_ll_exti.h ****   *         @arg @ref LL_EXTI_LINE_14
 284:../../../libs/smtc-hal-mcu-stm32l4/third_party/STM32CubeL4/Drivers/STM32L4xx_HAL_Driver/Inc/stm32l4xx_ll_exti.h ****   *         @arg @ref LL_EXTI_LINE_15
 285:../../../libs/smtc-hal-mcu-stm32l4/third_party/STM32CubeL4/Drivers/STM32L4xx_HAL_Driver/Inc/stm32l4xx_ll_exti.h ****   *         @arg @ref LL_EXTI_LINE_16
 286:../../../libs/smtc-hal-mcu-stm32l4/third_party/STM32CubeL4/Drivers/STM32L4xx_HAL_Driver/Inc/stm32l4xx_ll_exti.h ****   *         @arg @ref LL_EXTI_LINE_17
 287:../../../libs/smtc-hal-mcu-stm32l4/third_party/STM32CubeL4/Drivers/STM32L4xx_HAL_Driver/Inc/stm32l4xx_ll_exti.h ****   *         @arg @ref LL_EXTI_LINE_18
 288:../../../libs/smtc-hal-mcu-stm32l4/third_party/STM32CubeL4/Drivers/STM32L4xx_HAL_Driver/Inc/stm32l4xx_ll_exti.h ****   *         @arg @ref LL_EXTI_LINE_19
 289:../../../libs/smtc-hal-mcu-stm32l4/third_party/STM32CubeL4/Drivers/STM32L4xx_HAL_Driver/Inc/stm32l4xx_ll_exti.h ****   *         @arg @ref LL_EXTI_LINE_20
 290:../../../libs/smtc-hal-mcu-stm32l4/third_party/STM32CubeL4/Drivers/STM32L4xx_HAL_Driver/Inc/stm32l4xx_ll_exti.h ****   *         @arg @ref LL_EXTI_LINE_21
 291:../../../libs/smtc-hal-mcu-stm32l4/third_party/STM32CubeL4/Drivers/STM32L4xx_HAL_Driver/Inc/stm32l4xx_ll_exti.h ****   *         @arg @ref LL_EXTI_LINE_22
 292:../../../libs/smtc-hal-mcu-stm32l4/third_party/STM32CubeL4/Drivers/STM32L4xx_HAL_Driver/Inc/stm32l4xx_ll_exti.h ****   *         @arg @ref LL_EXTI_LINE_23
 293:../../../libs/smtc-hal-mcu-stm32l4/third_party/STM32CubeL4/Drivers/STM32L4xx_HAL_Driver/Inc/stm32l4xx_ll_exti.h ****   *         @arg @ref LL_EXTI_LINE_24
 294:../../../libs/smtc-hal-mcu-stm32l4/third_party/STM32CubeL4/Drivers/STM32L4xx_HAL_Driver/Inc/stm32l4xx_ll_exti.h ****   *         @arg @ref LL_EXTI_LINE_25
 295:../../../libs/smtc-hal-mcu-stm32l4/third_party/STM32CubeL4/Drivers/STM32L4xx_HAL_Driver/Inc/stm32l4xx_ll_exti.h ****   *         @arg @ref LL_EXTI_LINE_26
 296:../../../libs/smtc-hal-mcu-stm32l4/third_party/STM32CubeL4/Drivers/STM32L4xx_HAL_Driver/Inc/stm32l4xx_ll_exti.h ****   *         @arg @ref LL_EXTI_LINE_27
 297:../../../libs/smtc-hal-mcu-stm32l4/third_party/STM32CubeL4/Drivers/STM32L4xx_HAL_Driver/Inc/stm32l4xx_ll_exti.h ****   *         @arg @ref LL_EXTI_LINE_28
 298:../../../libs/smtc-hal-mcu-stm32l4/third_party/STM32CubeL4/Drivers/STM32L4xx_HAL_Driver/Inc/stm32l4xx_ll_exti.h ****   *         @arg @ref LL_EXTI_LINE_29
 299:../../../libs/smtc-hal-mcu-stm32l4/third_party/STM32CubeL4/Drivers/STM32L4xx_HAL_Driver/Inc/stm32l4xx_ll_exti.h ****   *         @arg @ref LL_EXTI_LINE_30
 300:../../../libs/smtc-hal-mcu-stm32l4/third_party/STM32CubeL4/Drivers/STM32L4xx_HAL_Driver/Inc/stm32l4xx_ll_exti.h ****   *         @arg @ref LL_EXTI_LINE_31
 301:../../../libs/smtc-hal-mcu-stm32l4/third_party/STM32CubeL4/Drivers/STM32L4xx_HAL_Driver/Inc/stm32l4xx_ll_exti.h ****   *         @arg @ref LL_EXTI_LINE_ALL_0_31
 302:../../../libs/smtc-hal-mcu-stm32l4/third_party/STM32CubeL4/Drivers/STM32L4xx_HAL_Driver/Inc/stm32l4xx_ll_exti.h ****   * @note   Please check each device line mapping for EXTI Line availability
 303:../../../libs/smtc-hal-mcu-stm32l4/third_party/STM32CubeL4/Drivers/STM32L4xx_HAL_Driver/Inc/stm32l4xx_ll_exti.h ****   * @retval None
 304:../../../libs/smtc-hal-mcu-stm32l4/third_party/STM32CubeL4/Drivers/STM32L4xx_HAL_Driver/Inc/stm32l4xx_ll_exti.h ****   */
 305:../../../libs/smtc-hal-mcu-stm32l4/third_party/STM32CubeL4/Drivers/STM32L4xx_HAL_Driver/Inc/stm32l4xx_ll_exti.h **** __STATIC_INLINE void LL_EXTI_EnableIT_0_31(uint32_t ExtiLine)
 306:../../../libs/smtc-hal-mcu-stm32l4/third_party/STM32CubeL4/Drivers/STM32L4xx_HAL_Driver/Inc/stm32l4xx_ll_exti.h **** {
  29              		.loc 2 306 1
  30              		.cfi_startproc
  31              		@ args = 0, pretend = 0, frame = 8
  32              		@ frame_needed = 1, uses_anonymous_args = 0
  33              		@ link register save eliminated.
  34 0000 80B4     		push	{r7}
  35              	.LCFI0:
  36              		.cfi_def_cfa_offset 4
  37              		.cfi_offset 7, -4
ARM GAS  C:\msys64\tmp\cczBzbSO.s 			page 7


  38 0002 83B0     		sub	sp, sp, #12
  39              	.LCFI1:
  40              		.cfi_def_cfa_offset 16
  41 0004 00AF     		add	r7, sp, #0
  42              	.LCFI2:
  43              		.cfi_def_cfa_register 7
  44 0006 7860     		str	r0, [r7, #4]
 307:../../../libs/smtc-hal-mcu-stm32l4/third_party/STM32CubeL4/Drivers/STM32L4xx_HAL_Driver/Inc/stm32l4xx_ll_exti.h ****   SET_BIT(EXTI->IMR1, ExtiLine);
  45              		.loc 2 307 3
  46 0008 054B     		ldr	r3, .L2
  47 000a 1A68     		ldr	r2, [r3]
  48 000c 0449     		ldr	r1, .L2
  49 000e 7B68     		ldr	r3, [r7, #4]
  50 0010 1343     		orrs	r3, r3, r2
  51 0012 0B60     		str	r3, [r1]
 308:../../../libs/smtc-hal-mcu-stm32l4/third_party/STM32CubeL4/Drivers/STM32L4xx_HAL_Driver/Inc/stm32l4xx_ll_exti.h **** }
  52              		.loc 2 308 1
  53 0014 00BF     		nop
  54 0016 0C37     		adds	r7, r7, #12
  55              	.LCFI3:
  56              		.cfi_def_cfa_offset 4
  57 0018 BD46     		mov	sp, r7
  58              	.LCFI4:
  59              		.cfi_def_cfa_register 13
  60              		@ sp needed
  61 001a 5DF8047B 		ldr	r7, [sp], #4
  62              	.LCFI5:
  63              		.cfi_restore 7
  64              		.cfi_def_cfa_offset 0
  65 001e 7047     		bx	lr
  66              	.L3:
  67              		.align	2
  68              	.L2:
  69 0020 00040140 		.word	1073808384
  70              		.cfi_endproc
  71              	.LFE132:
  73              		.section	.text.LL_EXTI_EnableIT_32_63,"ax",%progbits
  74              		.align	1
  75              		.syntax unified
  76              		.thumb
  77              		.thumb_func
  79              	LL_EXTI_EnableIT_32_63:
  80              	.LFB133:
 309:../../../libs/smtc-hal-mcu-stm32l4/third_party/STM32CubeL4/Drivers/STM32L4xx_HAL_Driver/Inc/stm32l4xx_ll_exti.h **** /**
 310:../../../libs/smtc-hal-mcu-stm32l4/third_party/STM32CubeL4/Drivers/STM32L4xx_HAL_Driver/Inc/stm32l4xx_ll_exti.h ****   * @brief  Enable ExtiLine Interrupt request for Lines in range 32 to 63
 311:../../../libs/smtc-hal-mcu-stm32l4/third_party/STM32CubeL4/Drivers/STM32L4xx_HAL_Driver/Inc/stm32l4xx_ll_exti.h ****   * @note The reset value for the direct lines (lines from 32 to 34, line
 312:../../../libs/smtc-hal-mcu-stm32l4/third_party/STM32CubeL4/Drivers/STM32L4xx_HAL_Driver/Inc/stm32l4xx_ll_exti.h ****   *       39) is set to 1 in order to enable the interrupt by default.
 313:../../../libs/smtc-hal-mcu-stm32l4/third_party/STM32CubeL4/Drivers/STM32L4xx_HAL_Driver/Inc/stm32l4xx_ll_exti.h ****   *       Bits are set automatically at Power on.
 314:../../../libs/smtc-hal-mcu-stm32l4/third_party/STM32CubeL4/Drivers/STM32L4xx_HAL_Driver/Inc/stm32l4xx_ll_exti.h ****   * @rmtoll IMR2         IMx           LL_EXTI_EnableIT_32_63
 315:../../../libs/smtc-hal-mcu-stm32l4/third_party/STM32CubeL4/Drivers/STM32L4xx_HAL_Driver/Inc/stm32l4xx_ll_exti.h ****   * @param  ExtiLine This parameter can be one of the following values:
 316:../../../libs/smtc-hal-mcu-stm32l4/third_party/STM32CubeL4/Drivers/STM32L4xx_HAL_Driver/Inc/stm32l4xx_ll_exti.h ****   *         @arg @ref LL_EXTI_LINE_32
 317:../../../libs/smtc-hal-mcu-stm32l4/third_party/STM32CubeL4/Drivers/STM32L4xx_HAL_Driver/Inc/stm32l4xx_ll_exti.h ****   *         @arg @ref LL_EXTI_LINE_33
 318:../../../libs/smtc-hal-mcu-stm32l4/third_party/STM32CubeL4/Drivers/STM32L4xx_HAL_Driver/Inc/stm32l4xx_ll_exti.h ****   *         @arg @ref LL_EXTI_LINE_34(*)
 319:../../../libs/smtc-hal-mcu-stm32l4/third_party/STM32CubeL4/Drivers/STM32L4xx_HAL_Driver/Inc/stm32l4xx_ll_exti.h ****   *         @arg @ref LL_EXTI_LINE_35
 320:../../../libs/smtc-hal-mcu-stm32l4/third_party/STM32CubeL4/Drivers/STM32L4xx_HAL_Driver/Inc/stm32l4xx_ll_exti.h ****   *         @arg @ref LL_EXTI_LINE_36
 321:../../../libs/smtc-hal-mcu-stm32l4/third_party/STM32CubeL4/Drivers/STM32L4xx_HAL_Driver/Inc/stm32l4xx_ll_exti.h ****   *         @arg @ref LL_EXTI_LINE_37
 322:../../../libs/smtc-hal-mcu-stm32l4/third_party/STM32CubeL4/Drivers/STM32L4xx_HAL_Driver/Inc/stm32l4xx_ll_exti.h ****   *         @arg @ref LL_EXTI_LINE_38
ARM GAS  C:\msys64\tmp\cczBzbSO.s 			page 8


 323:../../../libs/smtc-hal-mcu-stm32l4/third_party/STM32CubeL4/Drivers/STM32L4xx_HAL_Driver/Inc/stm32l4xx_ll_exti.h ****   *         @arg @ref LL_EXTI_LINE_39(*)
 324:../../../libs/smtc-hal-mcu-stm32l4/third_party/STM32CubeL4/Drivers/STM32L4xx_HAL_Driver/Inc/stm32l4xx_ll_exti.h ****   *         @arg @ref LL_EXTI_LINE_40(*)
 325:../../../libs/smtc-hal-mcu-stm32l4/third_party/STM32CubeL4/Drivers/STM32L4xx_HAL_Driver/Inc/stm32l4xx_ll_exti.h ****   *         @arg @ref LL_EXTI_LINE_ALL_32_63
 326:../../../libs/smtc-hal-mcu-stm32l4/third_party/STM32CubeL4/Drivers/STM32L4xx_HAL_Driver/Inc/stm32l4xx_ll_exti.h ****   * @note   (*): Available in some devices
 327:../../../libs/smtc-hal-mcu-stm32l4/third_party/STM32CubeL4/Drivers/STM32L4xx_HAL_Driver/Inc/stm32l4xx_ll_exti.h ****   * @retval None
 328:../../../libs/smtc-hal-mcu-stm32l4/third_party/STM32CubeL4/Drivers/STM32L4xx_HAL_Driver/Inc/stm32l4xx_ll_exti.h ****   */
 329:../../../libs/smtc-hal-mcu-stm32l4/third_party/STM32CubeL4/Drivers/STM32L4xx_HAL_Driver/Inc/stm32l4xx_ll_exti.h **** __STATIC_INLINE void LL_EXTI_EnableIT_32_63(uint32_t ExtiLine)
 330:../../../libs/smtc-hal-mcu-stm32l4/third_party/STM32CubeL4/Drivers/STM32L4xx_HAL_Driver/Inc/stm32l4xx_ll_exti.h **** {
  81              		.loc 2 330 1
  82              		.cfi_startproc
  83              		@ args = 0, pretend = 0, frame = 8
  84              		@ frame_needed = 1, uses_anonymous_args = 0
  85              		@ link register save eliminated.
  86 0000 80B4     		push	{r7}
  87              	.LCFI6:
  88              		.cfi_def_cfa_offset 4
  89              		.cfi_offset 7, -4
  90 0002 83B0     		sub	sp, sp, #12
  91              	.LCFI7:
  92              		.cfi_def_cfa_offset 16
  93 0004 00AF     		add	r7, sp, #0
  94              	.LCFI8:
  95              		.cfi_def_cfa_register 7
  96 0006 7860     		str	r0, [r7, #4]
 331:../../../libs/smtc-hal-mcu-stm32l4/third_party/STM32CubeL4/Drivers/STM32L4xx_HAL_Driver/Inc/stm32l4xx_ll_exti.h ****   SET_BIT(EXTI->IMR2, ExtiLine);
  97              		.loc 2 331 3
  98 0008 054B     		ldr	r3, .L5
  99 000a 1A6A     		ldr	r2, [r3, #32]
 100 000c 0449     		ldr	r1, .L5
 101 000e 7B68     		ldr	r3, [r7, #4]
 102 0010 1343     		orrs	r3, r3, r2
 103 0012 0B62     		str	r3, [r1, #32]
 332:../../../libs/smtc-hal-mcu-stm32l4/third_party/STM32CubeL4/Drivers/STM32L4xx_HAL_Driver/Inc/stm32l4xx_ll_exti.h **** }
 104              		.loc 2 332 1
 105 0014 00BF     		nop
 106 0016 0C37     		adds	r7, r7, #12
 107              	.LCFI9:
 108              		.cfi_def_cfa_offset 4
 109 0018 BD46     		mov	sp, r7
 110              	.LCFI10:
 111              		.cfi_def_cfa_register 13
 112              		@ sp needed
 113 001a 5DF8047B 		ldr	r7, [sp], #4
 114              	.LCFI11:
 115              		.cfi_restore 7
 116              		.cfi_def_cfa_offset 0
 117 001e 7047     		bx	lr
 118              	.L6:
 119              		.align	2
 120              	.L5:
 121 0020 00040140 		.word	1073808384
 122              		.cfi_endproc
 123              	.LFE133:
 125              		.section	.text.LL_EXTI_DisableIT_0_31,"ax",%progbits
 126              		.align	1
 127              		.syntax unified
 128              		.thumb
ARM GAS  C:\msys64\tmp\cczBzbSO.s 			page 9


 129              		.thumb_func
 131              	LL_EXTI_DisableIT_0_31:
 132              	.LFB134:
 333:../../../libs/smtc-hal-mcu-stm32l4/third_party/STM32CubeL4/Drivers/STM32L4xx_HAL_Driver/Inc/stm32l4xx_ll_exti.h **** 
 334:../../../libs/smtc-hal-mcu-stm32l4/third_party/STM32CubeL4/Drivers/STM32L4xx_HAL_Driver/Inc/stm32l4xx_ll_exti.h **** /**
 335:../../../libs/smtc-hal-mcu-stm32l4/third_party/STM32CubeL4/Drivers/STM32L4xx_HAL_Driver/Inc/stm32l4xx_ll_exti.h ****   * @brief  Disable ExtiLine Interrupt request for Lines in range 0 to 31
 336:../../../libs/smtc-hal-mcu-stm32l4/third_party/STM32CubeL4/Drivers/STM32L4xx_HAL_Driver/Inc/stm32l4xx_ll_exti.h ****   * @note The reset value for the direct or internal lines (see RM)
 337:../../../libs/smtc-hal-mcu-stm32l4/third_party/STM32CubeL4/Drivers/STM32L4xx_HAL_Driver/Inc/stm32l4xx_ll_exti.h ****   *       is set to 1 in order to enable the interrupt by default.
 338:../../../libs/smtc-hal-mcu-stm32l4/third_party/STM32CubeL4/Drivers/STM32L4xx_HAL_Driver/Inc/stm32l4xx_ll_exti.h ****   *       Bits are set automatically at Power on.
 339:../../../libs/smtc-hal-mcu-stm32l4/third_party/STM32CubeL4/Drivers/STM32L4xx_HAL_Driver/Inc/stm32l4xx_ll_exti.h ****   * @rmtoll IMR1         IMx           LL_EXTI_DisableIT_0_31
 340:../../../libs/smtc-hal-mcu-stm32l4/third_party/STM32CubeL4/Drivers/STM32L4xx_HAL_Driver/Inc/stm32l4xx_ll_exti.h ****   * @param  ExtiLine This parameter can be one of the following values:
 341:../../../libs/smtc-hal-mcu-stm32l4/third_party/STM32CubeL4/Drivers/STM32L4xx_HAL_Driver/Inc/stm32l4xx_ll_exti.h ****   *         @arg @ref LL_EXTI_LINE_0
 342:../../../libs/smtc-hal-mcu-stm32l4/third_party/STM32CubeL4/Drivers/STM32L4xx_HAL_Driver/Inc/stm32l4xx_ll_exti.h ****   *         @arg @ref LL_EXTI_LINE_1
 343:../../../libs/smtc-hal-mcu-stm32l4/third_party/STM32CubeL4/Drivers/STM32L4xx_HAL_Driver/Inc/stm32l4xx_ll_exti.h ****   *         @arg @ref LL_EXTI_LINE_2
 344:../../../libs/smtc-hal-mcu-stm32l4/third_party/STM32CubeL4/Drivers/STM32L4xx_HAL_Driver/Inc/stm32l4xx_ll_exti.h ****   *         @arg @ref LL_EXTI_LINE_3
 345:../../../libs/smtc-hal-mcu-stm32l4/third_party/STM32CubeL4/Drivers/STM32L4xx_HAL_Driver/Inc/stm32l4xx_ll_exti.h ****   *         @arg @ref LL_EXTI_LINE_4
 346:../../../libs/smtc-hal-mcu-stm32l4/third_party/STM32CubeL4/Drivers/STM32L4xx_HAL_Driver/Inc/stm32l4xx_ll_exti.h ****   *         @arg @ref LL_EXTI_LINE_5
 347:../../../libs/smtc-hal-mcu-stm32l4/third_party/STM32CubeL4/Drivers/STM32L4xx_HAL_Driver/Inc/stm32l4xx_ll_exti.h ****   *         @arg @ref LL_EXTI_LINE_6
 348:../../../libs/smtc-hal-mcu-stm32l4/third_party/STM32CubeL4/Drivers/STM32L4xx_HAL_Driver/Inc/stm32l4xx_ll_exti.h ****   *         @arg @ref LL_EXTI_LINE_7
 349:../../../libs/smtc-hal-mcu-stm32l4/third_party/STM32CubeL4/Drivers/STM32L4xx_HAL_Driver/Inc/stm32l4xx_ll_exti.h ****   *         @arg @ref LL_EXTI_LINE_8
 350:../../../libs/smtc-hal-mcu-stm32l4/third_party/STM32CubeL4/Drivers/STM32L4xx_HAL_Driver/Inc/stm32l4xx_ll_exti.h ****   *         @arg @ref LL_EXTI_LINE_9
 351:../../../libs/smtc-hal-mcu-stm32l4/third_party/STM32CubeL4/Drivers/STM32L4xx_HAL_Driver/Inc/stm32l4xx_ll_exti.h ****   *         @arg @ref LL_EXTI_LINE_10
 352:../../../libs/smtc-hal-mcu-stm32l4/third_party/STM32CubeL4/Drivers/STM32L4xx_HAL_Driver/Inc/stm32l4xx_ll_exti.h ****   *         @arg @ref LL_EXTI_LINE_11
 353:../../../libs/smtc-hal-mcu-stm32l4/third_party/STM32CubeL4/Drivers/STM32L4xx_HAL_Driver/Inc/stm32l4xx_ll_exti.h ****   *         @arg @ref LL_EXTI_LINE_12
 354:../../../libs/smtc-hal-mcu-stm32l4/third_party/STM32CubeL4/Drivers/STM32L4xx_HAL_Driver/Inc/stm32l4xx_ll_exti.h ****   *         @arg @ref LL_EXTI_LINE_13
 355:../../../libs/smtc-hal-mcu-stm32l4/third_party/STM32CubeL4/Drivers/STM32L4xx_HAL_Driver/Inc/stm32l4xx_ll_exti.h ****   *         @arg @ref LL_EXTI_LINE_14
 356:../../../libs/smtc-hal-mcu-stm32l4/third_party/STM32CubeL4/Drivers/STM32L4xx_HAL_Driver/Inc/stm32l4xx_ll_exti.h ****   *         @arg @ref LL_EXTI_LINE_15
 357:../../../libs/smtc-hal-mcu-stm32l4/third_party/STM32CubeL4/Drivers/STM32L4xx_HAL_Driver/Inc/stm32l4xx_ll_exti.h ****   *         @arg @ref LL_EXTI_LINE_16
 358:../../../libs/smtc-hal-mcu-stm32l4/third_party/STM32CubeL4/Drivers/STM32L4xx_HAL_Driver/Inc/stm32l4xx_ll_exti.h ****   *         @arg @ref LL_EXTI_LINE_17
 359:../../../libs/smtc-hal-mcu-stm32l4/third_party/STM32CubeL4/Drivers/STM32L4xx_HAL_Driver/Inc/stm32l4xx_ll_exti.h ****   *         @arg @ref LL_EXTI_LINE_18
 360:../../../libs/smtc-hal-mcu-stm32l4/third_party/STM32CubeL4/Drivers/STM32L4xx_HAL_Driver/Inc/stm32l4xx_ll_exti.h ****   *         @arg @ref LL_EXTI_LINE_19
 361:../../../libs/smtc-hal-mcu-stm32l4/third_party/STM32CubeL4/Drivers/STM32L4xx_HAL_Driver/Inc/stm32l4xx_ll_exti.h ****   *         @arg @ref LL_EXTI_LINE_20
 362:../../../libs/smtc-hal-mcu-stm32l4/third_party/STM32CubeL4/Drivers/STM32L4xx_HAL_Driver/Inc/stm32l4xx_ll_exti.h ****   *         @arg @ref LL_EXTI_LINE_21
 363:../../../libs/smtc-hal-mcu-stm32l4/third_party/STM32CubeL4/Drivers/STM32L4xx_HAL_Driver/Inc/stm32l4xx_ll_exti.h ****   *         @arg @ref LL_EXTI_LINE_22
 364:../../../libs/smtc-hal-mcu-stm32l4/third_party/STM32CubeL4/Drivers/STM32L4xx_HAL_Driver/Inc/stm32l4xx_ll_exti.h ****   *         @arg @ref LL_EXTI_LINE_23
 365:../../../libs/smtc-hal-mcu-stm32l4/third_party/STM32CubeL4/Drivers/STM32L4xx_HAL_Driver/Inc/stm32l4xx_ll_exti.h ****   *         @arg @ref LL_EXTI_LINE_24
 366:../../../libs/smtc-hal-mcu-stm32l4/third_party/STM32CubeL4/Drivers/STM32L4xx_HAL_Driver/Inc/stm32l4xx_ll_exti.h ****   *         @arg @ref LL_EXTI_LINE_25
 367:../../../libs/smtc-hal-mcu-stm32l4/third_party/STM32CubeL4/Drivers/STM32L4xx_HAL_Driver/Inc/stm32l4xx_ll_exti.h ****   *         @arg @ref LL_EXTI_LINE_26
 368:../../../libs/smtc-hal-mcu-stm32l4/third_party/STM32CubeL4/Drivers/STM32L4xx_HAL_Driver/Inc/stm32l4xx_ll_exti.h ****   *         @arg @ref LL_EXTI_LINE_27
 369:../../../libs/smtc-hal-mcu-stm32l4/third_party/STM32CubeL4/Drivers/STM32L4xx_HAL_Driver/Inc/stm32l4xx_ll_exti.h ****   *         @arg @ref LL_EXTI_LINE_28
 370:../../../libs/smtc-hal-mcu-stm32l4/third_party/STM32CubeL4/Drivers/STM32L4xx_HAL_Driver/Inc/stm32l4xx_ll_exti.h ****   *         @arg @ref LL_EXTI_LINE_29
 371:../../../libs/smtc-hal-mcu-stm32l4/third_party/STM32CubeL4/Drivers/STM32L4xx_HAL_Driver/Inc/stm32l4xx_ll_exti.h ****   *         @arg @ref LL_EXTI_LINE_30
 372:../../../libs/smtc-hal-mcu-stm32l4/third_party/STM32CubeL4/Drivers/STM32L4xx_HAL_Driver/Inc/stm32l4xx_ll_exti.h ****   *         @arg @ref LL_EXTI_LINE_31
 373:../../../libs/smtc-hal-mcu-stm32l4/third_party/STM32CubeL4/Drivers/STM32L4xx_HAL_Driver/Inc/stm32l4xx_ll_exti.h ****   *         @arg @ref LL_EXTI_LINE_ALL_0_31
 374:../../../libs/smtc-hal-mcu-stm32l4/third_party/STM32CubeL4/Drivers/STM32L4xx_HAL_Driver/Inc/stm32l4xx_ll_exti.h ****   * @note   Please check each device line mapping for EXTI Line availability
 375:../../../libs/smtc-hal-mcu-stm32l4/third_party/STM32CubeL4/Drivers/STM32L4xx_HAL_Driver/Inc/stm32l4xx_ll_exti.h ****   * @retval None
 376:../../../libs/smtc-hal-mcu-stm32l4/third_party/STM32CubeL4/Drivers/STM32L4xx_HAL_Driver/Inc/stm32l4xx_ll_exti.h ****   */
 377:../../../libs/smtc-hal-mcu-stm32l4/third_party/STM32CubeL4/Drivers/STM32L4xx_HAL_Driver/Inc/stm32l4xx_ll_exti.h **** __STATIC_INLINE void LL_EXTI_DisableIT_0_31(uint32_t ExtiLine)
 378:../../../libs/smtc-hal-mcu-stm32l4/third_party/STM32CubeL4/Drivers/STM32L4xx_HAL_Driver/Inc/stm32l4xx_ll_exti.h **** {
 133              		.loc 2 378 1
 134              		.cfi_startproc
 135              		@ args = 0, pretend = 0, frame = 8
 136              		@ frame_needed = 1, uses_anonymous_args = 0
 137              		@ link register save eliminated.
 138 0000 80B4     		push	{r7}
 139              	.LCFI12:
 140              		.cfi_def_cfa_offset 4
ARM GAS  C:\msys64\tmp\cczBzbSO.s 			page 10


 141              		.cfi_offset 7, -4
 142 0002 83B0     		sub	sp, sp, #12
 143              	.LCFI13:
 144              		.cfi_def_cfa_offset 16
 145 0004 00AF     		add	r7, sp, #0
 146              	.LCFI14:
 147              		.cfi_def_cfa_register 7
 148 0006 7860     		str	r0, [r7, #4]
 379:../../../libs/smtc-hal-mcu-stm32l4/third_party/STM32CubeL4/Drivers/STM32L4xx_HAL_Driver/Inc/stm32l4xx_ll_exti.h ****   CLEAR_BIT(EXTI->IMR1, ExtiLine);
 149              		.loc 2 379 3
 150 0008 064B     		ldr	r3, .L8
 151 000a 1A68     		ldr	r2, [r3]
 152 000c 7B68     		ldr	r3, [r7, #4]
 153 000e DB43     		mvns	r3, r3
 154 0010 0449     		ldr	r1, .L8
 155 0012 1340     		ands	r3, r3, r2
 156 0014 0B60     		str	r3, [r1]
 380:../../../libs/smtc-hal-mcu-stm32l4/third_party/STM32CubeL4/Drivers/STM32L4xx_HAL_Driver/Inc/stm32l4xx_ll_exti.h **** }
 157              		.loc 2 380 1
 158 0016 00BF     		nop
 159 0018 0C37     		adds	r7, r7, #12
 160              	.LCFI15:
 161              		.cfi_def_cfa_offset 4
 162 001a BD46     		mov	sp, r7
 163              	.LCFI16:
 164              		.cfi_def_cfa_register 13
 165              		@ sp needed
 166 001c 5DF8047B 		ldr	r7, [sp], #4
 167              	.LCFI17:
 168              		.cfi_restore 7
 169              		.cfi_def_cfa_offset 0
 170 0020 7047     		bx	lr
 171              	.L9:
 172 0022 00BF     		.align	2
 173              	.L8:
 174 0024 00040140 		.word	1073808384
 175              		.cfi_endproc
 176              	.LFE134:
 178              		.section	.text.LL_EXTI_DisableIT_32_63,"ax",%progbits
 179              		.align	1
 180              		.syntax unified
 181              		.thumb
 182              		.thumb_func
 184              	LL_EXTI_DisableIT_32_63:
 185              	.LFB135:
 381:../../../libs/smtc-hal-mcu-stm32l4/third_party/STM32CubeL4/Drivers/STM32L4xx_HAL_Driver/Inc/stm32l4xx_ll_exti.h **** 
 382:../../../libs/smtc-hal-mcu-stm32l4/third_party/STM32CubeL4/Drivers/STM32L4xx_HAL_Driver/Inc/stm32l4xx_ll_exti.h **** /**
 383:../../../libs/smtc-hal-mcu-stm32l4/third_party/STM32CubeL4/Drivers/STM32L4xx_HAL_Driver/Inc/stm32l4xx_ll_exti.h ****   * @brief  Disable ExtiLine Interrupt request for Lines in range 32 to 63
 384:../../../libs/smtc-hal-mcu-stm32l4/third_party/STM32CubeL4/Drivers/STM32L4xx_HAL_Driver/Inc/stm32l4xx_ll_exti.h ****   * @note The reset value for the direct lines (lines from 32 to 34, line
 385:../../../libs/smtc-hal-mcu-stm32l4/third_party/STM32CubeL4/Drivers/STM32L4xx_HAL_Driver/Inc/stm32l4xx_ll_exti.h ****   *       39) is set to 1 in order to enable the interrupt by default.
 386:../../../libs/smtc-hal-mcu-stm32l4/third_party/STM32CubeL4/Drivers/STM32L4xx_HAL_Driver/Inc/stm32l4xx_ll_exti.h ****   *       Bits are set automatically at Power on.
 387:../../../libs/smtc-hal-mcu-stm32l4/third_party/STM32CubeL4/Drivers/STM32L4xx_HAL_Driver/Inc/stm32l4xx_ll_exti.h ****   * @rmtoll IMR2         IMx           LL_EXTI_DisableIT_32_63
 388:../../../libs/smtc-hal-mcu-stm32l4/third_party/STM32CubeL4/Drivers/STM32L4xx_HAL_Driver/Inc/stm32l4xx_ll_exti.h ****   * @param  ExtiLine This parameter can be one of the following values:
 389:../../../libs/smtc-hal-mcu-stm32l4/third_party/STM32CubeL4/Drivers/STM32L4xx_HAL_Driver/Inc/stm32l4xx_ll_exti.h ****   *         @arg @ref LL_EXTI_LINE_32
 390:../../../libs/smtc-hal-mcu-stm32l4/third_party/STM32CubeL4/Drivers/STM32L4xx_HAL_Driver/Inc/stm32l4xx_ll_exti.h ****   *         @arg @ref LL_EXTI_LINE_33
 391:../../../libs/smtc-hal-mcu-stm32l4/third_party/STM32CubeL4/Drivers/STM32L4xx_HAL_Driver/Inc/stm32l4xx_ll_exti.h ****   *         @arg @ref LL_EXTI_LINE_34(*)
 392:../../../libs/smtc-hal-mcu-stm32l4/third_party/STM32CubeL4/Drivers/STM32L4xx_HAL_Driver/Inc/stm32l4xx_ll_exti.h ****   *         @arg @ref LL_EXTI_LINE_35
ARM GAS  C:\msys64\tmp\cczBzbSO.s 			page 11


 393:../../../libs/smtc-hal-mcu-stm32l4/third_party/STM32CubeL4/Drivers/STM32L4xx_HAL_Driver/Inc/stm32l4xx_ll_exti.h ****   *         @arg @ref LL_EXTI_LINE_36
 394:../../../libs/smtc-hal-mcu-stm32l4/third_party/STM32CubeL4/Drivers/STM32L4xx_HAL_Driver/Inc/stm32l4xx_ll_exti.h ****   *         @arg @ref LL_EXTI_LINE_37
 395:../../../libs/smtc-hal-mcu-stm32l4/third_party/STM32CubeL4/Drivers/STM32L4xx_HAL_Driver/Inc/stm32l4xx_ll_exti.h ****   *         @arg @ref LL_EXTI_LINE_38
 396:../../../libs/smtc-hal-mcu-stm32l4/third_party/STM32CubeL4/Drivers/STM32L4xx_HAL_Driver/Inc/stm32l4xx_ll_exti.h ****   *         @arg @ref LL_EXTI_LINE_39(*)
 397:../../../libs/smtc-hal-mcu-stm32l4/third_party/STM32CubeL4/Drivers/STM32L4xx_HAL_Driver/Inc/stm32l4xx_ll_exti.h ****   *         @arg @ref LL_EXTI_LINE_40(*)
 398:../../../libs/smtc-hal-mcu-stm32l4/third_party/STM32CubeL4/Drivers/STM32L4xx_HAL_Driver/Inc/stm32l4xx_ll_exti.h ****   *         @arg @ref LL_EXTI_LINE_ALL_32_63
 399:../../../libs/smtc-hal-mcu-stm32l4/third_party/STM32CubeL4/Drivers/STM32L4xx_HAL_Driver/Inc/stm32l4xx_ll_exti.h ****   * @note   (*): Available in some devices
 400:../../../libs/smtc-hal-mcu-stm32l4/third_party/STM32CubeL4/Drivers/STM32L4xx_HAL_Driver/Inc/stm32l4xx_ll_exti.h ****   * @retval None
 401:../../../libs/smtc-hal-mcu-stm32l4/third_party/STM32CubeL4/Drivers/STM32L4xx_HAL_Driver/Inc/stm32l4xx_ll_exti.h ****   */
 402:../../../libs/smtc-hal-mcu-stm32l4/third_party/STM32CubeL4/Drivers/STM32L4xx_HAL_Driver/Inc/stm32l4xx_ll_exti.h **** __STATIC_INLINE void LL_EXTI_DisableIT_32_63(uint32_t ExtiLine)
 403:../../../libs/smtc-hal-mcu-stm32l4/third_party/STM32CubeL4/Drivers/STM32L4xx_HAL_Driver/Inc/stm32l4xx_ll_exti.h **** {
 186              		.loc 2 403 1
 187              		.cfi_startproc
 188              		@ args = 0, pretend = 0, frame = 8
 189              		@ frame_needed = 1, uses_anonymous_args = 0
 190              		@ link register save eliminated.
 191 0000 80B4     		push	{r7}
 192              	.LCFI18:
 193              		.cfi_def_cfa_offset 4
 194              		.cfi_offset 7, -4
 195 0002 83B0     		sub	sp, sp, #12
 196              	.LCFI19:
 197              		.cfi_def_cfa_offset 16
 198 0004 00AF     		add	r7, sp, #0
 199              	.LCFI20:
 200              		.cfi_def_cfa_register 7
 201 0006 7860     		str	r0, [r7, #4]
 404:../../../libs/smtc-hal-mcu-stm32l4/third_party/STM32CubeL4/Drivers/STM32L4xx_HAL_Driver/Inc/stm32l4xx_ll_exti.h ****   CLEAR_BIT(EXTI->IMR2, ExtiLine);
 202              		.loc 2 404 3
 203 0008 064B     		ldr	r3, .L11
 204 000a 1A6A     		ldr	r2, [r3, #32]
 205 000c 7B68     		ldr	r3, [r7, #4]
 206 000e DB43     		mvns	r3, r3
 207 0010 0449     		ldr	r1, .L11
 208 0012 1340     		ands	r3, r3, r2
 209 0014 0B62     		str	r3, [r1, #32]
 405:../../../libs/smtc-hal-mcu-stm32l4/third_party/STM32CubeL4/Drivers/STM32L4xx_HAL_Driver/Inc/stm32l4xx_ll_exti.h **** }
 210              		.loc 2 405 1
 211 0016 00BF     		nop
 212 0018 0C37     		adds	r7, r7, #12
 213              	.LCFI21:
 214              		.cfi_def_cfa_offset 4
 215 001a BD46     		mov	sp, r7
 216              	.LCFI22:
 217              		.cfi_def_cfa_register 13
 218              		@ sp needed
 219 001c 5DF8047B 		ldr	r7, [sp], #4
 220              	.LCFI23:
 221              		.cfi_restore 7
 222              		.cfi_def_cfa_offset 0
 223 0020 7047     		bx	lr
 224              	.L12:
 225 0022 00BF     		.align	2
 226              	.L11:
 227 0024 00040140 		.word	1073808384
 228              		.cfi_endproc
 229              	.LFE135:
ARM GAS  C:\msys64\tmp\cczBzbSO.s 			page 12


 231              		.section	.text.LL_EXTI_EnableEvent_0_31,"ax",%progbits
 232              		.align	1
 233              		.syntax unified
 234              		.thumb
 235              		.thumb_func
 237              	LL_EXTI_EnableEvent_0_31:
 238              	.LFB138:
 406:../../../libs/smtc-hal-mcu-stm32l4/third_party/STM32CubeL4/Drivers/STM32L4xx_HAL_Driver/Inc/stm32l4xx_ll_exti.h **** 
 407:../../../libs/smtc-hal-mcu-stm32l4/third_party/STM32CubeL4/Drivers/STM32L4xx_HAL_Driver/Inc/stm32l4xx_ll_exti.h **** /**
 408:../../../libs/smtc-hal-mcu-stm32l4/third_party/STM32CubeL4/Drivers/STM32L4xx_HAL_Driver/Inc/stm32l4xx_ll_exti.h ****   * @brief  Indicate if ExtiLine Interrupt request is enabled for Lines in range 0 to 31
 409:../../../libs/smtc-hal-mcu-stm32l4/third_party/STM32CubeL4/Drivers/STM32L4xx_HAL_Driver/Inc/stm32l4xx_ll_exti.h ****   * @note The reset value for the direct or internal lines (see RM)
 410:../../../libs/smtc-hal-mcu-stm32l4/third_party/STM32CubeL4/Drivers/STM32L4xx_HAL_Driver/Inc/stm32l4xx_ll_exti.h ****   *       is set to 1 in order to enable the interrupt by default.
 411:../../../libs/smtc-hal-mcu-stm32l4/third_party/STM32CubeL4/Drivers/STM32L4xx_HAL_Driver/Inc/stm32l4xx_ll_exti.h ****   *       Bits are set automatically at Power on.
 412:../../../libs/smtc-hal-mcu-stm32l4/third_party/STM32CubeL4/Drivers/STM32L4xx_HAL_Driver/Inc/stm32l4xx_ll_exti.h ****   * @rmtoll IMR1         IMx           LL_EXTI_IsEnabledIT_0_31
 413:../../../libs/smtc-hal-mcu-stm32l4/third_party/STM32CubeL4/Drivers/STM32L4xx_HAL_Driver/Inc/stm32l4xx_ll_exti.h ****   * @param  ExtiLine This parameter can be one of the following values:
 414:../../../libs/smtc-hal-mcu-stm32l4/third_party/STM32CubeL4/Drivers/STM32L4xx_HAL_Driver/Inc/stm32l4xx_ll_exti.h ****   *         @arg @ref LL_EXTI_LINE_0
 415:../../../libs/smtc-hal-mcu-stm32l4/third_party/STM32CubeL4/Drivers/STM32L4xx_HAL_Driver/Inc/stm32l4xx_ll_exti.h ****   *         @arg @ref LL_EXTI_LINE_1
 416:../../../libs/smtc-hal-mcu-stm32l4/third_party/STM32CubeL4/Drivers/STM32L4xx_HAL_Driver/Inc/stm32l4xx_ll_exti.h ****   *         @arg @ref LL_EXTI_LINE_2
 417:../../../libs/smtc-hal-mcu-stm32l4/third_party/STM32CubeL4/Drivers/STM32L4xx_HAL_Driver/Inc/stm32l4xx_ll_exti.h ****   *         @arg @ref LL_EXTI_LINE_3
 418:../../../libs/smtc-hal-mcu-stm32l4/third_party/STM32CubeL4/Drivers/STM32L4xx_HAL_Driver/Inc/stm32l4xx_ll_exti.h ****   *         @arg @ref LL_EXTI_LINE_4
 419:../../../libs/smtc-hal-mcu-stm32l4/third_party/STM32CubeL4/Drivers/STM32L4xx_HAL_Driver/Inc/stm32l4xx_ll_exti.h ****   *         @arg @ref LL_EXTI_LINE_5
 420:../../../libs/smtc-hal-mcu-stm32l4/third_party/STM32CubeL4/Drivers/STM32L4xx_HAL_Driver/Inc/stm32l4xx_ll_exti.h ****   *         @arg @ref LL_EXTI_LINE_6
 421:../../../libs/smtc-hal-mcu-stm32l4/third_party/STM32CubeL4/Drivers/STM32L4xx_HAL_Driver/Inc/stm32l4xx_ll_exti.h ****   *         @arg @ref LL_EXTI_LINE_7
 422:../../../libs/smtc-hal-mcu-stm32l4/third_party/STM32CubeL4/Drivers/STM32L4xx_HAL_Driver/Inc/stm32l4xx_ll_exti.h ****   *         @arg @ref LL_EXTI_LINE_8
 423:../../../libs/smtc-hal-mcu-stm32l4/third_party/STM32CubeL4/Drivers/STM32L4xx_HAL_Driver/Inc/stm32l4xx_ll_exti.h ****   *         @arg @ref LL_EXTI_LINE_9
 424:../../../libs/smtc-hal-mcu-stm32l4/third_party/STM32CubeL4/Drivers/STM32L4xx_HAL_Driver/Inc/stm32l4xx_ll_exti.h ****   *         @arg @ref LL_EXTI_LINE_10
 425:../../../libs/smtc-hal-mcu-stm32l4/third_party/STM32CubeL4/Drivers/STM32L4xx_HAL_Driver/Inc/stm32l4xx_ll_exti.h ****   *         @arg @ref LL_EXTI_LINE_11
 426:../../../libs/smtc-hal-mcu-stm32l4/third_party/STM32CubeL4/Drivers/STM32L4xx_HAL_Driver/Inc/stm32l4xx_ll_exti.h ****   *         @arg @ref LL_EXTI_LINE_12
 427:../../../libs/smtc-hal-mcu-stm32l4/third_party/STM32CubeL4/Drivers/STM32L4xx_HAL_Driver/Inc/stm32l4xx_ll_exti.h ****   *         @arg @ref LL_EXTI_LINE_13
 428:../../../libs/smtc-hal-mcu-stm32l4/third_party/STM32CubeL4/Drivers/STM32L4xx_HAL_Driver/Inc/stm32l4xx_ll_exti.h ****   *         @arg @ref LL_EXTI_LINE_14
 429:../../../libs/smtc-hal-mcu-stm32l4/third_party/STM32CubeL4/Drivers/STM32L4xx_HAL_Driver/Inc/stm32l4xx_ll_exti.h ****   *         @arg @ref LL_EXTI_LINE_15
 430:../../../libs/smtc-hal-mcu-stm32l4/third_party/STM32CubeL4/Drivers/STM32L4xx_HAL_Driver/Inc/stm32l4xx_ll_exti.h ****   *         @arg @ref LL_EXTI_LINE_16
 431:../../../libs/smtc-hal-mcu-stm32l4/third_party/STM32CubeL4/Drivers/STM32L4xx_HAL_Driver/Inc/stm32l4xx_ll_exti.h ****   *         @arg @ref LL_EXTI_LINE_17
 432:../../../libs/smtc-hal-mcu-stm32l4/third_party/STM32CubeL4/Drivers/STM32L4xx_HAL_Driver/Inc/stm32l4xx_ll_exti.h ****   *         @arg @ref LL_EXTI_LINE_18
 433:../../../libs/smtc-hal-mcu-stm32l4/third_party/STM32CubeL4/Drivers/STM32L4xx_HAL_Driver/Inc/stm32l4xx_ll_exti.h ****   *         @arg @ref LL_EXTI_LINE_19
 434:../../../libs/smtc-hal-mcu-stm32l4/third_party/STM32CubeL4/Drivers/STM32L4xx_HAL_Driver/Inc/stm32l4xx_ll_exti.h ****   *         @arg @ref LL_EXTI_LINE_20
 435:../../../libs/smtc-hal-mcu-stm32l4/third_party/STM32CubeL4/Drivers/STM32L4xx_HAL_Driver/Inc/stm32l4xx_ll_exti.h ****   *         @arg @ref LL_EXTI_LINE_21
 436:../../../libs/smtc-hal-mcu-stm32l4/third_party/STM32CubeL4/Drivers/STM32L4xx_HAL_Driver/Inc/stm32l4xx_ll_exti.h ****   *         @arg @ref LL_EXTI_LINE_22
 437:../../../libs/smtc-hal-mcu-stm32l4/third_party/STM32CubeL4/Drivers/STM32L4xx_HAL_Driver/Inc/stm32l4xx_ll_exti.h ****   *         @arg @ref LL_EXTI_LINE_23
 438:../../../libs/smtc-hal-mcu-stm32l4/third_party/STM32CubeL4/Drivers/STM32L4xx_HAL_Driver/Inc/stm32l4xx_ll_exti.h ****   *         @arg @ref LL_EXTI_LINE_24
 439:../../../libs/smtc-hal-mcu-stm32l4/third_party/STM32CubeL4/Drivers/STM32L4xx_HAL_Driver/Inc/stm32l4xx_ll_exti.h ****   *         @arg @ref LL_EXTI_LINE_25
 440:../../../libs/smtc-hal-mcu-stm32l4/third_party/STM32CubeL4/Drivers/STM32L4xx_HAL_Driver/Inc/stm32l4xx_ll_exti.h ****   *         @arg @ref LL_EXTI_LINE_26
 441:../../../libs/smtc-hal-mcu-stm32l4/third_party/STM32CubeL4/Drivers/STM32L4xx_HAL_Driver/Inc/stm32l4xx_ll_exti.h ****   *         @arg @ref LL_EXTI_LINE_27
 442:../../../libs/smtc-hal-mcu-stm32l4/third_party/STM32CubeL4/Drivers/STM32L4xx_HAL_Driver/Inc/stm32l4xx_ll_exti.h ****   *         @arg @ref LL_EXTI_LINE_28
 443:../../../libs/smtc-hal-mcu-stm32l4/third_party/STM32CubeL4/Drivers/STM32L4xx_HAL_Driver/Inc/stm32l4xx_ll_exti.h ****   *         @arg @ref LL_EXTI_LINE_29
 444:../../../libs/smtc-hal-mcu-stm32l4/third_party/STM32CubeL4/Drivers/STM32L4xx_HAL_Driver/Inc/stm32l4xx_ll_exti.h ****   *         @arg @ref LL_EXTI_LINE_30
 445:../../../libs/smtc-hal-mcu-stm32l4/third_party/STM32CubeL4/Drivers/STM32L4xx_HAL_Driver/Inc/stm32l4xx_ll_exti.h ****   *         @arg @ref LL_EXTI_LINE_31
 446:../../../libs/smtc-hal-mcu-stm32l4/third_party/STM32CubeL4/Drivers/STM32L4xx_HAL_Driver/Inc/stm32l4xx_ll_exti.h ****   *         @arg @ref LL_EXTI_LINE_ALL_0_31
 447:../../../libs/smtc-hal-mcu-stm32l4/third_party/STM32CubeL4/Drivers/STM32L4xx_HAL_Driver/Inc/stm32l4xx_ll_exti.h ****   * @note   Please check each device line mapping for EXTI Line availability
 448:../../../libs/smtc-hal-mcu-stm32l4/third_party/STM32CubeL4/Drivers/STM32L4xx_HAL_Driver/Inc/stm32l4xx_ll_exti.h ****   * @retval State of bit (1 or 0).
 449:../../../libs/smtc-hal-mcu-stm32l4/third_party/STM32CubeL4/Drivers/STM32L4xx_HAL_Driver/Inc/stm32l4xx_ll_exti.h ****   */
 450:../../../libs/smtc-hal-mcu-stm32l4/third_party/STM32CubeL4/Drivers/STM32L4xx_HAL_Driver/Inc/stm32l4xx_ll_exti.h **** __STATIC_INLINE uint32_t LL_EXTI_IsEnabledIT_0_31(uint32_t ExtiLine)
 451:../../../libs/smtc-hal-mcu-stm32l4/third_party/STM32CubeL4/Drivers/STM32L4xx_HAL_Driver/Inc/stm32l4xx_ll_exti.h **** {
 452:../../../libs/smtc-hal-mcu-stm32l4/third_party/STM32CubeL4/Drivers/STM32L4xx_HAL_Driver/Inc/stm32l4xx_ll_exti.h ****   return ((READ_BIT(EXTI->IMR1, ExtiLine) == (ExtiLine)) ? 1UL : 0UL);
 453:../../../libs/smtc-hal-mcu-stm32l4/third_party/STM32CubeL4/Drivers/STM32L4xx_HAL_Driver/Inc/stm32l4xx_ll_exti.h **** }
 454:../../../libs/smtc-hal-mcu-stm32l4/third_party/STM32CubeL4/Drivers/STM32L4xx_HAL_Driver/Inc/stm32l4xx_ll_exti.h **** 
 455:../../../libs/smtc-hal-mcu-stm32l4/third_party/STM32CubeL4/Drivers/STM32L4xx_HAL_Driver/Inc/stm32l4xx_ll_exti.h **** /**
ARM GAS  C:\msys64\tmp\cczBzbSO.s 			page 13


 456:../../../libs/smtc-hal-mcu-stm32l4/third_party/STM32CubeL4/Drivers/STM32L4xx_HAL_Driver/Inc/stm32l4xx_ll_exti.h ****   * @brief  Indicate if ExtiLine Interrupt request is enabled for Lines in range 32 to 63
 457:../../../libs/smtc-hal-mcu-stm32l4/third_party/STM32CubeL4/Drivers/STM32L4xx_HAL_Driver/Inc/stm32l4xx_ll_exti.h ****   * @note The reset value for the direct lines (lines from 32 to 34, line
 458:../../../libs/smtc-hal-mcu-stm32l4/third_party/STM32CubeL4/Drivers/STM32L4xx_HAL_Driver/Inc/stm32l4xx_ll_exti.h ****   *       39) is set to 1 in order to enable the interrupt by default.
 459:../../../libs/smtc-hal-mcu-stm32l4/third_party/STM32CubeL4/Drivers/STM32L4xx_HAL_Driver/Inc/stm32l4xx_ll_exti.h ****   *       Bits are set automatically at Power on.
 460:../../../libs/smtc-hal-mcu-stm32l4/third_party/STM32CubeL4/Drivers/STM32L4xx_HAL_Driver/Inc/stm32l4xx_ll_exti.h ****   * @rmtoll IMR2         IMx           LL_EXTI_IsEnabledIT_32_63
 461:../../../libs/smtc-hal-mcu-stm32l4/third_party/STM32CubeL4/Drivers/STM32L4xx_HAL_Driver/Inc/stm32l4xx_ll_exti.h ****   * @param  ExtiLine This parameter can be one of the following values:
 462:../../../libs/smtc-hal-mcu-stm32l4/third_party/STM32CubeL4/Drivers/STM32L4xx_HAL_Driver/Inc/stm32l4xx_ll_exti.h ****   *         @arg @ref LL_EXTI_LINE_32
 463:../../../libs/smtc-hal-mcu-stm32l4/third_party/STM32CubeL4/Drivers/STM32L4xx_HAL_Driver/Inc/stm32l4xx_ll_exti.h ****   *         @arg @ref LL_EXTI_LINE_33
 464:../../../libs/smtc-hal-mcu-stm32l4/third_party/STM32CubeL4/Drivers/STM32L4xx_HAL_Driver/Inc/stm32l4xx_ll_exti.h ****   *         @arg @ref LL_EXTI_LINE_34(*)
 465:../../../libs/smtc-hal-mcu-stm32l4/third_party/STM32CubeL4/Drivers/STM32L4xx_HAL_Driver/Inc/stm32l4xx_ll_exti.h ****   *         @arg @ref LL_EXTI_LINE_35
 466:../../../libs/smtc-hal-mcu-stm32l4/third_party/STM32CubeL4/Drivers/STM32L4xx_HAL_Driver/Inc/stm32l4xx_ll_exti.h ****   *         @arg @ref LL_EXTI_LINE_36
 467:../../../libs/smtc-hal-mcu-stm32l4/third_party/STM32CubeL4/Drivers/STM32L4xx_HAL_Driver/Inc/stm32l4xx_ll_exti.h ****   *         @arg @ref LL_EXTI_LINE_37
 468:../../../libs/smtc-hal-mcu-stm32l4/third_party/STM32CubeL4/Drivers/STM32L4xx_HAL_Driver/Inc/stm32l4xx_ll_exti.h ****   *         @arg @ref LL_EXTI_LINE_38
 469:../../../libs/smtc-hal-mcu-stm32l4/third_party/STM32CubeL4/Drivers/STM32L4xx_HAL_Driver/Inc/stm32l4xx_ll_exti.h ****   *         @arg @ref LL_EXTI_LINE_39(*)
 470:../../../libs/smtc-hal-mcu-stm32l4/third_party/STM32CubeL4/Drivers/STM32L4xx_HAL_Driver/Inc/stm32l4xx_ll_exti.h ****   *         @arg @ref LL_EXTI_LINE_40(*)
 471:../../../libs/smtc-hal-mcu-stm32l4/third_party/STM32CubeL4/Drivers/STM32L4xx_HAL_Driver/Inc/stm32l4xx_ll_exti.h ****   *         @arg @ref LL_EXTI_LINE_ALL_32_63
 472:../../../libs/smtc-hal-mcu-stm32l4/third_party/STM32CubeL4/Drivers/STM32L4xx_HAL_Driver/Inc/stm32l4xx_ll_exti.h ****   * @note   (*): Available in some devices
 473:../../../libs/smtc-hal-mcu-stm32l4/third_party/STM32CubeL4/Drivers/STM32L4xx_HAL_Driver/Inc/stm32l4xx_ll_exti.h ****   * @retval State of bit (1 or 0).
 474:../../../libs/smtc-hal-mcu-stm32l4/third_party/STM32CubeL4/Drivers/STM32L4xx_HAL_Driver/Inc/stm32l4xx_ll_exti.h ****   */
 475:../../../libs/smtc-hal-mcu-stm32l4/third_party/STM32CubeL4/Drivers/STM32L4xx_HAL_Driver/Inc/stm32l4xx_ll_exti.h **** __STATIC_INLINE uint32_t LL_EXTI_IsEnabledIT_32_63(uint32_t ExtiLine)
 476:../../../libs/smtc-hal-mcu-stm32l4/third_party/STM32CubeL4/Drivers/STM32L4xx_HAL_Driver/Inc/stm32l4xx_ll_exti.h **** {
 477:../../../libs/smtc-hal-mcu-stm32l4/third_party/STM32CubeL4/Drivers/STM32L4xx_HAL_Driver/Inc/stm32l4xx_ll_exti.h ****   return ((READ_BIT(EXTI->IMR2, ExtiLine) == (ExtiLine)) ? 1UL : 0UL);
 478:../../../libs/smtc-hal-mcu-stm32l4/third_party/STM32CubeL4/Drivers/STM32L4xx_HAL_Driver/Inc/stm32l4xx_ll_exti.h **** }
 479:../../../libs/smtc-hal-mcu-stm32l4/third_party/STM32CubeL4/Drivers/STM32L4xx_HAL_Driver/Inc/stm32l4xx_ll_exti.h **** 
 480:../../../libs/smtc-hal-mcu-stm32l4/third_party/STM32CubeL4/Drivers/STM32L4xx_HAL_Driver/Inc/stm32l4xx_ll_exti.h **** /**
 481:../../../libs/smtc-hal-mcu-stm32l4/third_party/STM32CubeL4/Drivers/STM32L4xx_HAL_Driver/Inc/stm32l4xx_ll_exti.h ****   * @}
 482:../../../libs/smtc-hal-mcu-stm32l4/third_party/STM32CubeL4/Drivers/STM32L4xx_HAL_Driver/Inc/stm32l4xx_ll_exti.h ****   */
 483:../../../libs/smtc-hal-mcu-stm32l4/third_party/STM32CubeL4/Drivers/STM32L4xx_HAL_Driver/Inc/stm32l4xx_ll_exti.h **** 
 484:../../../libs/smtc-hal-mcu-stm32l4/third_party/STM32CubeL4/Drivers/STM32L4xx_HAL_Driver/Inc/stm32l4xx_ll_exti.h **** /** @defgroup EXTI_LL_EF_Event_Management Event_Management
 485:../../../libs/smtc-hal-mcu-stm32l4/third_party/STM32CubeL4/Drivers/STM32L4xx_HAL_Driver/Inc/stm32l4xx_ll_exti.h ****   * @{
 486:../../../libs/smtc-hal-mcu-stm32l4/third_party/STM32CubeL4/Drivers/STM32L4xx_HAL_Driver/Inc/stm32l4xx_ll_exti.h ****   */
 487:../../../libs/smtc-hal-mcu-stm32l4/third_party/STM32CubeL4/Drivers/STM32L4xx_HAL_Driver/Inc/stm32l4xx_ll_exti.h **** 
 488:../../../libs/smtc-hal-mcu-stm32l4/third_party/STM32CubeL4/Drivers/STM32L4xx_HAL_Driver/Inc/stm32l4xx_ll_exti.h **** /**
 489:../../../libs/smtc-hal-mcu-stm32l4/third_party/STM32CubeL4/Drivers/STM32L4xx_HAL_Driver/Inc/stm32l4xx_ll_exti.h ****   * @brief  Enable ExtiLine Event request for Lines in range 0 to 31
 490:../../../libs/smtc-hal-mcu-stm32l4/third_party/STM32CubeL4/Drivers/STM32L4xx_HAL_Driver/Inc/stm32l4xx_ll_exti.h ****   * @rmtoll EMR1         EMx           LL_EXTI_EnableEvent_0_31
 491:../../../libs/smtc-hal-mcu-stm32l4/third_party/STM32CubeL4/Drivers/STM32L4xx_HAL_Driver/Inc/stm32l4xx_ll_exti.h ****   * @param  ExtiLine This parameter can be one of the following values:
 492:../../../libs/smtc-hal-mcu-stm32l4/third_party/STM32CubeL4/Drivers/STM32L4xx_HAL_Driver/Inc/stm32l4xx_ll_exti.h ****   *         @arg @ref LL_EXTI_LINE_0
 493:../../../libs/smtc-hal-mcu-stm32l4/third_party/STM32CubeL4/Drivers/STM32L4xx_HAL_Driver/Inc/stm32l4xx_ll_exti.h ****   *         @arg @ref LL_EXTI_LINE_1
 494:../../../libs/smtc-hal-mcu-stm32l4/third_party/STM32CubeL4/Drivers/STM32L4xx_HAL_Driver/Inc/stm32l4xx_ll_exti.h ****   *         @arg @ref LL_EXTI_LINE_2
 495:../../../libs/smtc-hal-mcu-stm32l4/third_party/STM32CubeL4/Drivers/STM32L4xx_HAL_Driver/Inc/stm32l4xx_ll_exti.h ****   *         @arg @ref LL_EXTI_LINE_3
 496:../../../libs/smtc-hal-mcu-stm32l4/third_party/STM32CubeL4/Drivers/STM32L4xx_HAL_Driver/Inc/stm32l4xx_ll_exti.h ****   *         @arg @ref LL_EXTI_LINE_4
 497:../../../libs/smtc-hal-mcu-stm32l4/third_party/STM32CubeL4/Drivers/STM32L4xx_HAL_Driver/Inc/stm32l4xx_ll_exti.h ****   *         @arg @ref LL_EXTI_LINE_5
 498:../../../libs/smtc-hal-mcu-stm32l4/third_party/STM32CubeL4/Drivers/STM32L4xx_HAL_Driver/Inc/stm32l4xx_ll_exti.h ****   *         @arg @ref LL_EXTI_LINE_6
 499:../../../libs/smtc-hal-mcu-stm32l4/third_party/STM32CubeL4/Drivers/STM32L4xx_HAL_Driver/Inc/stm32l4xx_ll_exti.h ****   *         @arg @ref LL_EXTI_LINE_7
 500:../../../libs/smtc-hal-mcu-stm32l4/third_party/STM32CubeL4/Drivers/STM32L4xx_HAL_Driver/Inc/stm32l4xx_ll_exti.h ****   *         @arg @ref LL_EXTI_LINE_8
 501:../../../libs/smtc-hal-mcu-stm32l4/third_party/STM32CubeL4/Drivers/STM32L4xx_HAL_Driver/Inc/stm32l4xx_ll_exti.h ****   *         @arg @ref LL_EXTI_LINE_9
 502:../../../libs/smtc-hal-mcu-stm32l4/third_party/STM32CubeL4/Drivers/STM32L4xx_HAL_Driver/Inc/stm32l4xx_ll_exti.h ****   *         @arg @ref LL_EXTI_LINE_10
 503:../../../libs/smtc-hal-mcu-stm32l4/third_party/STM32CubeL4/Drivers/STM32L4xx_HAL_Driver/Inc/stm32l4xx_ll_exti.h ****   *         @arg @ref LL_EXTI_LINE_11
 504:../../../libs/smtc-hal-mcu-stm32l4/third_party/STM32CubeL4/Drivers/STM32L4xx_HAL_Driver/Inc/stm32l4xx_ll_exti.h ****   *         @arg @ref LL_EXTI_LINE_12
 505:../../../libs/smtc-hal-mcu-stm32l4/third_party/STM32CubeL4/Drivers/STM32L4xx_HAL_Driver/Inc/stm32l4xx_ll_exti.h ****   *         @arg @ref LL_EXTI_LINE_13
 506:../../../libs/smtc-hal-mcu-stm32l4/third_party/STM32CubeL4/Drivers/STM32L4xx_HAL_Driver/Inc/stm32l4xx_ll_exti.h ****   *         @arg @ref LL_EXTI_LINE_14
 507:../../../libs/smtc-hal-mcu-stm32l4/third_party/STM32CubeL4/Drivers/STM32L4xx_HAL_Driver/Inc/stm32l4xx_ll_exti.h ****   *         @arg @ref LL_EXTI_LINE_15
 508:../../../libs/smtc-hal-mcu-stm32l4/third_party/STM32CubeL4/Drivers/STM32L4xx_HAL_Driver/Inc/stm32l4xx_ll_exti.h ****   *         @arg @ref LL_EXTI_LINE_16
 509:../../../libs/smtc-hal-mcu-stm32l4/third_party/STM32CubeL4/Drivers/STM32L4xx_HAL_Driver/Inc/stm32l4xx_ll_exti.h ****   *         @arg @ref LL_EXTI_LINE_17
 510:../../../libs/smtc-hal-mcu-stm32l4/third_party/STM32CubeL4/Drivers/STM32L4xx_HAL_Driver/Inc/stm32l4xx_ll_exti.h ****   *         @arg @ref LL_EXTI_LINE_18
 511:../../../libs/smtc-hal-mcu-stm32l4/third_party/STM32CubeL4/Drivers/STM32L4xx_HAL_Driver/Inc/stm32l4xx_ll_exti.h ****   *         @arg @ref LL_EXTI_LINE_19
 512:../../../libs/smtc-hal-mcu-stm32l4/third_party/STM32CubeL4/Drivers/STM32L4xx_HAL_Driver/Inc/stm32l4xx_ll_exti.h ****   *         @arg @ref LL_EXTI_LINE_20
ARM GAS  C:\msys64\tmp\cczBzbSO.s 			page 14


 513:../../../libs/smtc-hal-mcu-stm32l4/third_party/STM32CubeL4/Drivers/STM32L4xx_HAL_Driver/Inc/stm32l4xx_ll_exti.h ****   *         @arg @ref LL_EXTI_LINE_21
 514:../../../libs/smtc-hal-mcu-stm32l4/third_party/STM32CubeL4/Drivers/STM32L4xx_HAL_Driver/Inc/stm32l4xx_ll_exti.h ****   *         @arg @ref LL_EXTI_LINE_22
 515:../../../libs/smtc-hal-mcu-stm32l4/third_party/STM32CubeL4/Drivers/STM32L4xx_HAL_Driver/Inc/stm32l4xx_ll_exti.h ****   *         @arg @ref LL_EXTI_LINE_23
 516:../../../libs/smtc-hal-mcu-stm32l4/third_party/STM32CubeL4/Drivers/STM32L4xx_HAL_Driver/Inc/stm32l4xx_ll_exti.h ****   *         @arg @ref LL_EXTI_LINE_24
 517:../../../libs/smtc-hal-mcu-stm32l4/third_party/STM32CubeL4/Drivers/STM32L4xx_HAL_Driver/Inc/stm32l4xx_ll_exti.h ****   *         @arg @ref LL_EXTI_LINE_25
 518:../../../libs/smtc-hal-mcu-stm32l4/third_party/STM32CubeL4/Drivers/STM32L4xx_HAL_Driver/Inc/stm32l4xx_ll_exti.h ****   *         @arg @ref LL_EXTI_LINE_26
 519:../../../libs/smtc-hal-mcu-stm32l4/third_party/STM32CubeL4/Drivers/STM32L4xx_HAL_Driver/Inc/stm32l4xx_ll_exti.h ****   *         @arg @ref LL_EXTI_LINE_27
 520:../../../libs/smtc-hal-mcu-stm32l4/third_party/STM32CubeL4/Drivers/STM32L4xx_HAL_Driver/Inc/stm32l4xx_ll_exti.h ****   *         @arg @ref LL_EXTI_LINE_28
 521:../../../libs/smtc-hal-mcu-stm32l4/third_party/STM32CubeL4/Drivers/STM32L4xx_HAL_Driver/Inc/stm32l4xx_ll_exti.h ****   *         @arg @ref LL_EXTI_LINE_29
 522:../../../libs/smtc-hal-mcu-stm32l4/third_party/STM32CubeL4/Drivers/STM32L4xx_HAL_Driver/Inc/stm32l4xx_ll_exti.h ****   *         @arg @ref LL_EXTI_LINE_30
 523:../../../libs/smtc-hal-mcu-stm32l4/third_party/STM32CubeL4/Drivers/STM32L4xx_HAL_Driver/Inc/stm32l4xx_ll_exti.h ****   *         @arg @ref LL_EXTI_LINE_31
 524:../../../libs/smtc-hal-mcu-stm32l4/third_party/STM32CubeL4/Drivers/STM32L4xx_HAL_Driver/Inc/stm32l4xx_ll_exti.h ****   *         @arg @ref LL_EXTI_LINE_ALL_0_31
 525:../../../libs/smtc-hal-mcu-stm32l4/third_party/STM32CubeL4/Drivers/STM32L4xx_HAL_Driver/Inc/stm32l4xx_ll_exti.h ****   * @note   Please check each device line mapping for EXTI Line availability
 526:../../../libs/smtc-hal-mcu-stm32l4/third_party/STM32CubeL4/Drivers/STM32L4xx_HAL_Driver/Inc/stm32l4xx_ll_exti.h ****   * @retval None
 527:../../../libs/smtc-hal-mcu-stm32l4/third_party/STM32CubeL4/Drivers/STM32L4xx_HAL_Driver/Inc/stm32l4xx_ll_exti.h ****   */
 528:../../../libs/smtc-hal-mcu-stm32l4/third_party/STM32CubeL4/Drivers/STM32L4xx_HAL_Driver/Inc/stm32l4xx_ll_exti.h **** __STATIC_INLINE void LL_EXTI_EnableEvent_0_31(uint32_t ExtiLine)
 529:../../../libs/smtc-hal-mcu-stm32l4/third_party/STM32CubeL4/Drivers/STM32L4xx_HAL_Driver/Inc/stm32l4xx_ll_exti.h **** {
 239              		.loc 2 529 1
 240              		.cfi_startproc
 241              		@ args = 0, pretend = 0, frame = 8
 242              		@ frame_needed = 1, uses_anonymous_args = 0
 243              		@ link register save eliminated.
 244 0000 80B4     		push	{r7}
 245              	.LCFI24:
 246              		.cfi_def_cfa_offset 4
 247              		.cfi_offset 7, -4
 248 0002 83B0     		sub	sp, sp, #12
 249              	.LCFI25:
 250              		.cfi_def_cfa_offset 16
 251 0004 00AF     		add	r7, sp, #0
 252              	.LCFI26:
 253              		.cfi_def_cfa_register 7
 254 0006 7860     		str	r0, [r7, #4]
 530:../../../libs/smtc-hal-mcu-stm32l4/third_party/STM32CubeL4/Drivers/STM32L4xx_HAL_Driver/Inc/stm32l4xx_ll_exti.h ****   SET_BIT(EXTI->EMR1, ExtiLine);
 255              		.loc 2 530 3
 256 0008 054B     		ldr	r3, .L14
 257 000a 5A68     		ldr	r2, [r3, #4]
 258 000c 0449     		ldr	r1, .L14
 259 000e 7B68     		ldr	r3, [r7, #4]
 260 0010 1343     		orrs	r3, r3, r2
 261 0012 4B60     		str	r3, [r1, #4]
 531:../../../libs/smtc-hal-mcu-stm32l4/third_party/STM32CubeL4/Drivers/STM32L4xx_HAL_Driver/Inc/stm32l4xx_ll_exti.h **** 
 532:../../../libs/smtc-hal-mcu-stm32l4/third_party/STM32CubeL4/Drivers/STM32L4xx_HAL_Driver/Inc/stm32l4xx_ll_exti.h **** }
 262              		.loc 2 532 1
 263 0014 00BF     		nop
 264 0016 0C37     		adds	r7, r7, #12
 265              	.LCFI27:
 266              		.cfi_def_cfa_offset 4
 267 0018 BD46     		mov	sp, r7
 268              	.LCFI28:
 269              		.cfi_def_cfa_register 13
 270              		@ sp needed
 271 001a 5DF8047B 		ldr	r7, [sp], #4
 272              	.LCFI29:
 273              		.cfi_restore 7
 274              		.cfi_def_cfa_offset 0
 275 001e 7047     		bx	lr
ARM GAS  C:\msys64\tmp\cczBzbSO.s 			page 15


 276              	.L15:
 277              		.align	2
 278              	.L14:
 279 0020 00040140 		.word	1073808384
 280              		.cfi_endproc
 281              	.LFE138:
 283              		.section	.text.LL_EXTI_EnableEvent_32_63,"ax",%progbits
 284              		.align	1
 285              		.syntax unified
 286              		.thumb
 287              		.thumb_func
 289              	LL_EXTI_EnableEvent_32_63:
 290              	.LFB139:
 533:../../../libs/smtc-hal-mcu-stm32l4/third_party/STM32CubeL4/Drivers/STM32L4xx_HAL_Driver/Inc/stm32l4xx_ll_exti.h **** 
 534:../../../libs/smtc-hal-mcu-stm32l4/third_party/STM32CubeL4/Drivers/STM32L4xx_HAL_Driver/Inc/stm32l4xx_ll_exti.h **** /**
 535:../../../libs/smtc-hal-mcu-stm32l4/third_party/STM32CubeL4/Drivers/STM32L4xx_HAL_Driver/Inc/stm32l4xx_ll_exti.h ****   * @brief  Enable ExtiLine Event request for Lines in range 32 to 63
 536:../../../libs/smtc-hal-mcu-stm32l4/third_party/STM32CubeL4/Drivers/STM32L4xx_HAL_Driver/Inc/stm32l4xx_ll_exti.h ****   * @rmtoll EMR2         EMx           LL_EXTI_EnableEvent_32_63
 537:../../../libs/smtc-hal-mcu-stm32l4/third_party/STM32CubeL4/Drivers/STM32L4xx_HAL_Driver/Inc/stm32l4xx_ll_exti.h ****   * @param  ExtiLine This parameter can be a combination of the following values:
 538:../../../libs/smtc-hal-mcu-stm32l4/third_party/STM32CubeL4/Drivers/STM32L4xx_HAL_Driver/Inc/stm32l4xx_ll_exti.h ****   *         @arg @ref LL_EXTI_LINE_32
 539:../../../libs/smtc-hal-mcu-stm32l4/third_party/STM32CubeL4/Drivers/STM32L4xx_HAL_Driver/Inc/stm32l4xx_ll_exti.h ****   *         @arg @ref LL_EXTI_LINE_33
 540:../../../libs/smtc-hal-mcu-stm32l4/third_party/STM32CubeL4/Drivers/STM32L4xx_HAL_Driver/Inc/stm32l4xx_ll_exti.h ****   *         @arg @ref LL_EXTI_LINE_34(*)
 541:../../../libs/smtc-hal-mcu-stm32l4/third_party/STM32CubeL4/Drivers/STM32L4xx_HAL_Driver/Inc/stm32l4xx_ll_exti.h ****   *         @arg @ref LL_EXTI_LINE_35
 542:../../../libs/smtc-hal-mcu-stm32l4/third_party/STM32CubeL4/Drivers/STM32L4xx_HAL_Driver/Inc/stm32l4xx_ll_exti.h ****   *         @arg @ref LL_EXTI_LINE_36
 543:../../../libs/smtc-hal-mcu-stm32l4/third_party/STM32CubeL4/Drivers/STM32L4xx_HAL_Driver/Inc/stm32l4xx_ll_exti.h ****   *         @arg @ref LL_EXTI_LINE_37
 544:../../../libs/smtc-hal-mcu-stm32l4/third_party/STM32CubeL4/Drivers/STM32L4xx_HAL_Driver/Inc/stm32l4xx_ll_exti.h ****   *         @arg @ref LL_EXTI_LINE_38
 545:../../../libs/smtc-hal-mcu-stm32l4/third_party/STM32CubeL4/Drivers/STM32L4xx_HAL_Driver/Inc/stm32l4xx_ll_exti.h ****   *         @arg @ref LL_EXTI_LINE_39(*)
 546:../../../libs/smtc-hal-mcu-stm32l4/third_party/STM32CubeL4/Drivers/STM32L4xx_HAL_Driver/Inc/stm32l4xx_ll_exti.h ****   *         @arg @ref LL_EXTI_LINE_40(*)
 547:../../../libs/smtc-hal-mcu-stm32l4/third_party/STM32CubeL4/Drivers/STM32L4xx_HAL_Driver/Inc/stm32l4xx_ll_exti.h ****   *         @arg @ref LL_EXTI_LINE_ALL_32_63
 548:../../../libs/smtc-hal-mcu-stm32l4/third_party/STM32CubeL4/Drivers/STM32L4xx_HAL_Driver/Inc/stm32l4xx_ll_exti.h ****   * @note   (*): Available in some devices
 549:../../../libs/smtc-hal-mcu-stm32l4/third_party/STM32CubeL4/Drivers/STM32L4xx_HAL_Driver/Inc/stm32l4xx_ll_exti.h ****   * @retval None
 550:../../../libs/smtc-hal-mcu-stm32l4/third_party/STM32CubeL4/Drivers/STM32L4xx_HAL_Driver/Inc/stm32l4xx_ll_exti.h ****   */
 551:../../../libs/smtc-hal-mcu-stm32l4/third_party/STM32CubeL4/Drivers/STM32L4xx_HAL_Driver/Inc/stm32l4xx_ll_exti.h **** __STATIC_INLINE void LL_EXTI_EnableEvent_32_63(uint32_t ExtiLine)
 552:../../../libs/smtc-hal-mcu-stm32l4/third_party/STM32CubeL4/Drivers/STM32L4xx_HAL_Driver/Inc/stm32l4xx_ll_exti.h **** {
 291              		.loc 2 552 1
 292              		.cfi_startproc
 293              		@ args = 0, pretend = 0, frame = 8
 294              		@ frame_needed = 1, uses_anonymous_args = 0
 295              		@ link register save eliminated.
 296 0000 80B4     		push	{r7}
 297              	.LCFI30:
 298              		.cfi_def_cfa_offset 4
 299              		.cfi_offset 7, -4
 300 0002 83B0     		sub	sp, sp, #12
 301              	.LCFI31:
 302              		.cfi_def_cfa_offset 16
 303 0004 00AF     		add	r7, sp, #0
 304              	.LCFI32:
 305              		.cfi_def_cfa_register 7
 306 0006 7860     		str	r0, [r7, #4]
 553:../../../libs/smtc-hal-mcu-stm32l4/third_party/STM32CubeL4/Drivers/STM32L4xx_HAL_Driver/Inc/stm32l4xx_ll_exti.h ****   SET_BIT(EXTI->EMR2, ExtiLine);
 307              		.loc 2 553 3
 308 0008 054B     		ldr	r3, .L17
 309 000a 5A6A     		ldr	r2, [r3, #36]
 310 000c 0449     		ldr	r1, .L17
 311 000e 7B68     		ldr	r3, [r7, #4]
 312 0010 1343     		orrs	r3, r3, r2
 313 0012 4B62     		str	r3, [r1, #36]
ARM GAS  C:\msys64\tmp\cczBzbSO.s 			page 16


 554:../../../libs/smtc-hal-mcu-stm32l4/third_party/STM32CubeL4/Drivers/STM32L4xx_HAL_Driver/Inc/stm32l4xx_ll_exti.h **** }
 314              		.loc 2 554 1
 315 0014 00BF     		nop
 316 0016 0C37     		adds	r7, r7, #12
 317              	.LCFI33:
 318              		.cfi_def_cfa_offset 4
 319 0018 BD46     		mov	sp, r7
 320              	.LCFI34:
 321              		.cfi_def_cfa_register 13
 322              		@ sp needed
 323 001a 5DF8047B 		ldr	r7, [sp], #4
 324              	.LCFI35:
 325              		.cfi_restore 7
 326              		.cfi_def_cfa_offset 0
 327 001e 7047     		bx	lr
 328              	.L18:
 329              		.align	2
 330              	.L17:
 331 0020 00040140 		.word	1073808384
 332              		.cfi_endproc
 333              	.LFE139:
 335              		.section	.text.LL_EXTI_DisableEvent_0_31,"ax",%progbits
 336              		.align	1
 337              		.syntax unified
 338              		.thumb
 339              		.thumb_func
 341              	LL_EXTI_DisableEvent_0_31:
 342              	.LFB140:
 555:../../../libs/smtc-hal-mcu-stm32l4/third_party/STM32CubeL4/Drivers/STM32L4xx_HAL_Driver/Inc/stm32l4xx_ll_exti.h **** 
 556:../../../libs/smtc-hal-mcu-stm32l4/third_party/STM32CubeL4/Drivers/STM32L4xx_HAL_Driver/Inc/stm32l4xx_ll_exti.h **** /**
 557:../../../libs/smtc-hal-mcu-stm32l4/third_party/STM32CubeL4/Drivers/STM32L4xx_HAL_Driver/Inc/stm32l4xx_ll_exti.h ****   * @brief  Disable ExtiLine Event request for Lines in range 0 to 31
 558:../../../libs/smtc-hal-mcu-stm32l4/third_party/STM32CubeL4/Drivers/STM32L4xx_HAL_Driver/Inc/stm32l4xx_ll_exti.h ****   * @rmtoll EMR1         EMx           LL_EXTI_DisableEvent_0_31
 559:../../../libs/smtc-hal-mcu-stm32l4/third_party/STM32CubeL4/Drivers/STM32L4xx_HAL_Driver/Inc/stm32l4xx_ll_exti.h ****   * @param  ExtiLine This parameter can be one of the following values:
 560:../../../libs/smtc-hal-mcu-stm32l4/third_party/STM32CubeL4/Drivers/STM32L4xx_HAL_Driver/Inc/stm32l4xx_ll_exti.h ****   *         @arg @ref LL_EXTI_LINE_0
 561:../../../libs/smtc-hal-mcu-stm32l4/third_party/STM32CubeL4/Drivers/STM32L4xx_HAL_Driver/Inc/stm32l4xx_ll_exti.h ****   *         @arg @ref LL_EXTI_LINE_1
 562:../../../libs/smtc-hal-mcu-stm32l4/third_party/STM32CubeL4/Drivers/STM32L4xx_HAL_Driver/Inc/stm32l4xx_ll_exti.h ****   *         @arg @ref LL_EXTI_LINE_2
 563:../../../libs/smtc-hal-mcu-stm32l4/third_party/STM32CubeL4/Drivers/STM32L4xx_HAL_Driver/Inc/stm32l4xx_ll_exti.h ****   *         @arg @ref LL_EXTI_LINE_3
 564:../../../libs/smtc-hal-mcu-stm32l4/third_party/STM32CubeL4/Drivers/STM32L4xx_HAL_Driver/Inc/stm32l4xx_ll_exti.h ****   *         @arg @ref LL_EXTI_LINE_4
 565:../../../libs/smtc-hal-mcu-stm32l4/third_party/STM32CubeL4/Drivers/STM32L4xx_HAL_Driver/Inc/stm32l4xx_ll_exti.h ****   *         @arg @ref LL_EXTI_LINE_5
 566:../../../libs/smtc-hal-mcu-stm32l4/third_party/STM32CubeL4/Drivers/STM32L4xx_HAL_Driver/Inc/stm32l4xx_ll_exti.h ****   *         @arg @ref LL_EXTI_LINE_6
 567:../../../libs/smtc-hal-mcu-stm32l4/third_party/STM32CubeL4/Drivers/STM32L4xx_HAL_Driver/Inc/stm32l4xx_ll_exti.h ****   *         @arg @ref LL_EXTI_LINE_7
 568:../../../libs/smtc-hal-mcu-stm32l4/third_party/STM32CubeL4/Drivers/STM32L4xx_HAL_Driver/Inc/stm32l4xx_ll_exti.h ****   *         @arg @ref LL_EXTI_LINE_8
 569:../../../libs/smtc-hal-mcu-stm32l4/third_party/STM32CubeL4/Drivers/STM32L4xx_HAL_Driver/Inc/stm32l4xx_ll_exti.h ****   *         @arg @ref LL_EXTI_LINE_9
 570:../../../libs/smtc-hal-mcu-stm32l4/third_party/STM32CubeL4/Drivers/STM32L4xx_HAL_Driver/Inc/stm32l4xx_ll_exti.h ****   *         @arg @ref LL_EXTI_LINE_10
 571:../../../libs/smtc-hal-mcu-stm32l4/third_party/STM32CubeL4/Drivers/STM32L4xx_HAL_Driver/Inc/stm32l4xx_ll_exti.h ****   *         @arg @ref LL_EXTI_LINE_11
 572:../../../libs/smtc-hal-mcu-stm32l4/third_party/STM32CubeL4/Drivers/STM32L4xx_HAL_Driver/Inc/stm32l4xx_ll_exti.h ****   *         @arg @ref LL_EXTI_LINE_12
 573:../../../libs/smtc-hal-mcu-stm32l4/third_party/STM32CubeL4/Drivers/STM32L4xx_HAL_Driver/Inc/stm32l4xx_ll_exti.h ****   *         @arg @ref LL_EXTI_LINE_13
 574:../../../libs/smtc-hal-mcu-stm32l4/third_party/STM32CubeL4/Drivers/STM32L4xx_HAL_Driver/Inc/stm32l4xx_ll_exti.h ****   *         @arg @ref LL_EXTI_LINE_14
 575:../../../libs/smtc-hal-mcu-stm32l4/third_party/STM32CubeL4/Drivers/STM32L4xx_HAL_Driver/Inc/stm32l4xx_ll_exti.h ****   *         @arg @ref LL_EXTI_LINE_15
 576:../../../libs/smtc-hal-mcu-stm32l4/third_party/STM32CubeL4/Drivers/STM32L4xx_HAL_Driver/Inc/stm32l4xx_ll_exti.h ****   *         @arg @ref LL_EXTI_LINE_16
 577:../../../libs/smtc-hal-mcu-stm32l4/third_party/STM32CubeL4/Drivers/STM32L4xx_HAL_Driver/Inc/stm32l4xx_ll_exti.h ****   *         @arg @ref LL_EXTI_LINE_17
 578:../../../libs/smtc-hal-mcu-stm32l4/third_party/STM32CubeL4/Drivers/STM32L4xx_HAL_Driver/Inc/stm32l4xx_ll_exti.h ****   *         @arg @ref LL_EXTI_LINE_18
 579:../../../libs/smtc-hal-mcu-stm32l4/third_party/STM32CubeL4/Drivers/STM32L4xx_HAL_Driver/Inc/stm32l4xx_ll_exti.h ****   *         @arg @ref LL_EXTI_LINE_19
 580:../../../libs/smtc-hal-mcu-stm32l4/third_party/STM32CubeL4/Drivers/STM32L4xx_HAL_Driver/Inc/stm32l4xx_ll_exti.h ****   *         @arg @ref LL_EXTI_LINE_20
 581:../../../libs/smtc-hal-mcu-stm32l4/third_party/STM32CubeL4/Drivers/STM32L4xx_HAL_Driver/Inc/stm32l4xx_ll_exti.h ****   *         @arg @ref LL_EXTI_LINE_21
 582:../../../libs/smtc-hal-mcu-stm32l4/third_party/STM32CubeL4/Drivers/STM32L4xx_HAL_Driver/Inc/stm32l4xx_ll_exti.h ****   *         @arg @ref LL_EXTI_LINE_22
 583:../../../libs/smtc-hal-mcu-stm32l4/third_party/STM32CubeL4/Drivers/STM32L4xx_HAL_Driver/Inc/stm32l4xx_ll_exti.h ****   *         @arg @ref LL_EXTI_LINE_23
ARM GAS  C:\msys64\tmp\cczBzbSO.s 			page 17


 584:../../../libs/smtc-hal-mcu-stm32l4/third_party/STM32CubeL4/Drivers/STM32L4xx_HAL_Driver/Inc/stm32l4xx_ll_exti.h ****   *         @arg @ref LL_EXTI_LINE_24
 585:../../../libs/smtc-hal-mcu-stm32l4/third_party/STM32CubeL4/Drivers/STM32L4xx_HAL_Driver/Inc/stm32l4xx_ll_exti.h ****   *         @arg @ref LL_EXTI_LINE_25
 586:../../../libs/smtc-hal-mcu-stm32l4/third_party/STM32CubeL4/Drivers/STM32L4xx_HAL_Driver/Inc/stm32l4xx_ll_exti.h ****   *         @arg @ref LL_EXTI_LINE_26
 587:../../../libs/smtc-hal-mcu-stm32l4/third_party/STM32CubeL4/Drivers/STM32L4xx_HAL_Driver/Inc/stm32l4xx_ll_exti.h ****   *         @arg @ref LL_EXTI_LINE_27
 588:../../../libs/smtc-hal-mcu-stm32l4/third_party/STM32CubeL4/Drivers/STM32L4xx_HAL_Driver/Inc/stm32l4xx_ll_exti.h ****   *         @arg @ref LL_EXTI_LINE_28
 589:../../../libs/smtc-hal-mcu-stm32l4/third_party/STM32CubeL4/Drivers/STM32L4xx_HAL_Driver/Inc/stm32l4xx_ll_exti.h ****   *         @arg @ref LL_EXTI_LINE_29
 590:../../../libs/smtc-hal-mcu-stm32l4/third_party/STM32CubeL4/Drivers/STM32L4xx_HAL_Driver/Inc/stm32l4xx_ll_exti.h ****   *         @arg @ref LL_EXTI_LINE_30
 591:../../../libs/smtc-hal-mcu-stm32l4/third_party/STM32CubeL4/Drivers/STM32L4xx_HAL_Driver/Inc/stm32l4xx_ll_exti.h ****   *         @arg @ref LL_EXTI_LINE_31
 592:../../../libs/smtc-hal-mcu-stm32l4/third_party/STM32CubeL4/Drivers/STM32L4xx_HAL_Driver/Inc/stm32l4xx_ll_exti.h ****   *         @arg @ref LL_EXTI_LINE_ALL_0_31
 593:../../../libs/smtc-hal-mcu-stm32l4/third_party/STM32CubeL4/Drivers/STM32L4xx_HAL_Driver/Inc/stm32l4xx_ll_exti.h ****   * @note   Please check each device line mapping for EXTI Line availability
 594:../../../libs/smtc-hal-mcu-stm32l4/third_party/STM32CubeL4/Drivers/STM32L4xx_HAL_Driver/Inc/stm32l4xx_ll_exti.h ****   * @retval None
 595:../../../libs/smtc-hal-mcu-stm32l4/third_party/STM32CubeL4/Drivers/STM32L4xx_HAL_Driver/Inc/stm32l4xx_ll_exti.h ****   */
 596:../../../libs/smtc-hal-mcu-stm32l4/third_party/STM32CubeL4/Drivers/STM32L4xx_HAL_Driver/Inc/stm32l4xx_ll_exti.h **** __STATIC_INLINE void LL_EXTI_DisableEvent_0_31(uint32_t ExtiLine)
 597:../../../libs/smtc-hal-mcu-stm32l4/third_party/STM32CubeL4/Drivers/STM32L4xx_HAL_Driver/Inc/stm32l4xx_ll_exti.h **** {
 343              		.loc 2 597 1
 344              		.cfi_startproc
 345              		@ args = 0, pretend = 0, frame = 8
 346              		@ frame_needed = 1, uses_anonymous_args = 0
 347              		@ link register save eliminated.
 348 0000 80B4     		push	{r7}
 349              	.LCFI36:
 350              		.cfi_def_cfa_offset 4
 351              		.cfi_offset 7, -4
 352 0002 83B0     		sub	sp, sp, #12
 353              	.LCFI37:
 354              		.cfi_def_cfa_offset 16
 355 0004 00AF     		add	r7, sp, #0
 356              	.LCFI38:
 357              		.cfi_def_cfa_register 7
 358 0006 7860     		str	r0, [r7, #4]
 598:../../../libs/smtc-hal-mcu-stm32l4/third_party/STM32CubeL4/Drivers/STM32L4xx_HAL_Driver/Inc/stm32l4xx_ll_exti.h ****   CLEAR_BIT(EXTI->EMR1, ExtiLine);
 359              		.loc 2 598 3
 360 0008 064B     		ldr	r3, .L20
 361 000a 5A68     		ldr	r2, [r3, #4]
 362 000c 7B68     		ldr	r3, [r7, #4]
 363 000e DB43     		mvns	r3, r3
 364 0010 0449     		ldr	r1, .L20
 365 0012 1340     		ands	r3, r3, r2
 366 0014 4B60     		str	r3, [r1, #4]
 599:../../../libs/smtc-hal-mcu-stm32l4/third_party/STM32CubeL4/Drivers/STM32L4xx_HAL_Driver/Inc/stm32l4xx_ll_exti.h **** }
 367              		.loc 2 599 1
 368 0016 00BF     		nop
 369 0018 0C37     		adds	r7, r7, #12
 370              	.LCFI39:
 371              		.cfi_def_cfa_offset 4
 372 001a BD46     		mov	sp, r7
 373              	.LCFI40:
 374              		.cfi_def_cfa_register 13
 375              		@ sp needed
 376 001c 5DF8047B 		ldr	r7, [sp], #4
 377              	.LCFI41:
 378              		.cfi_restore 7
 379              		.cfi_def_cfa_offset 0
 380 0020 7047     		bx	lr
 381              	.L21:
 382 0022 00BF     		.align	2
 383              	.L20:
ARM GAS  C:\msys64\tmp\cczBzbSO.s 			page 18


 384 0024 00040140 		.word	1073808384
 385              		.cfi_endproc
 386              	.LFE140:
 388              		.section	.text.LL_EXTI_DisableEvent_32_63,"ax",%progbits
 389              		.align	1
 390              		.syntax unified
 391              		.thumb
 392              		.thumb_func
 394              	LL_EXTI_DisableEvent_32_63:
 395              	.LFB141:
 600:../../../libs/smtc-hal-mcu-stm32l4/third_party/STM32CubeL4/Drivers/STM32L4xx_HAL_Driver/Inc/stm32l4xx_ll_exti.h **** 
 601:../../../libs/smtc-hal-mcu-stm32l4/third_party/STM32CubeL4/Drivers/STM32L4xx_HAL_Driver/Inc/stm32l4xx_ll_exti.h **** /**
 602:../../../libs/smtc-hal-mcu-stm32l4/third_party/STM32CubeL4/Drivers/STM32L4xx_HAL_Driver/Inc/stm32l4xx_ll_exti.h ****   * @brief  Disable ExtiLine Event request for Lines in range 32 to 63
 603:../../../libs/smtc-hal-mcu-stm32l4/third_party/STM32CubeL4/Drivers/STM32L4xx_HAL_Driver/Inc/stm32l4xx_ll_exti.h ****   * @rmtoll EMR2         EMx           LL_EXTI_DisableEvent_32_63
 604:../../../libs/smtc-hal-mcu-stm32l4/third_party/STM32CubeL4/Drivers/STM32L4xx_HAL_Driver/Inc/stm32l4xx_ll_exti.h ****   * @param  ExtiLine This parameter can be a combination of the following values:
 605:../../../libs/smtc-hal-mcu-stm32l4/third_party/STM32CubeL4/Drivers/STM32L4xx_HAL_Driver/Inc/stm32l4xx_ll_exti.h ****   *         @arg @ref LL_EXTI_LINE_32
 606:../../../libs/smtc-hal-mcu-stm32l4/third_party/STM32CubeL4/Drivers/STM32L4xx_HAL_Driver/Inc/stm32l4xx_ll_exti.h ****   *         @arg @ref LL_EXTI_LINE_33
 607:../../../libs/smtc-hal-mcu-stm32l4/third_party/STM32CubeL4/Drivers/STM32L4xx_HAL_Driver/Inc/stm32l4xx_ll_exti.h ****   *         @arg @ref LL_EXTI_LINE_34(*)
 608:../../../libs/smtc-hal-mcu-stm32l4/third_party/STM32CubeL4/Drivers/STM32L4xx_HAL_Driver/Inc/stm32l4xx_ll_exti.h ****   *         @arg @ref LL_EXTI_LINE_35
 609:../../../libs/smtc-hal-mcu-stm32l4/third_party/STM32CubeL4/Drivers/STM32L4xx_HAL_Driver/Inc/stm32l4xx_ll_exti.h ****   *         @arg @ref LL_EXTI_LINE_36
 610:../../../libs/smtc-hal-mcu-stm32l4/third_party/STM32CubeL4/Drivers/STM32L4xx_HAL_Driver/Inc/stm32l4xx_ll_exti.h ****   *         @arg @ref LL_EXTI_LINE_37
 611:../../../libs/smtc-hal-mcu-stm32l4/third_party/STM32CubeL4/Drivers/STM32L4xx_HAL_Driver/Inc/stm32l4xx_ll_exti.h ****   *         @arg @ref LL_EXTI_LINE_38
 612:../../../libs/smtc-hal-mcu-stm32l4/third_party/STM32CubeL4/Drivers/STM32L4xx_HAL_Driver/Inc/stm32l4xx_ll_exti.h ****   *         @arg @ref LL_EXTI_LINE_39(*)
 613:../../../libs/smtc-hal-mcu-stm32l4/third_party/STM32CubeL4/Drivers/STM32L4xx_HAL_Driver/Inc/stm32l4xx_ll_exti.h ****   *         @arg @ref LL_EXTI_LINE_40(*)
 614:../../../libs/smtc-hal-mcu-stm32l4/third_party/STM32CubeL4/Drivers/STM32L4xx_HAL_Driver/Inc/stm32l4xx_ll_exti.h ****   *         @arg @ref LL_EXTI_LINE_ALL_32_63
 615:../../../libs/smtc-hal-mcu-stm32l4/third_party/STM32CubeL4/Drivers/STM32L4xx_HAL_Driver/Inc/stm32l4xx_ll_exti.h ****   * @note   (*): Available in some devices
 616:../../../libs/smtc-hal-mcu-stm32l4/third_party/STM32CubeL4/Drivers/STM32L4xx_HAL_Driver/Inc/stm32l4xx_ll_exti.h ****   * @retval None
 617:../../../libs/smtc-hal-mcu-stm32l4/third_party/STM32CubeL4/Drivers/STM32L4xx_HAL_Driver/Inc/stm32l4xx_ll_exti.h ****   */
 618:../../../libs/smtc-hal-mcu-stm32l4/third_party/STM32CubeL4/Drivers/STM32L4xx_HAL_Driver/Inc/stm32l4xx_ll_exti.h **** __STATIC_INLINE void LL_EXTI_DisableEvent_32_63(uint32_t ExtiLine)
 619:../../../libs/smtc-hal-mcu-stm32l4/third_party/STM32CubeL4/Drivers/STM32L4xx_HAL_Driver/Inc/stm32l4xx_ll_exti.h **** {
 396              		.loc 2 619 1
 397              		.cfi_startproc
 398              		@ args = 0, pretend = 0, frame = 8
 399              		@ frame_needed = 1, uses_anonymous_args = 0
 400              		@ link register save eliminated.
 401 0000 80B4     		push	{r7}
 402              	.LCFI42:
 403              		.cfi_def_cfa_offset 4
 404              		.cfi_offset 7, -4
 405 0002 83B0     		sub	sp, sp, #12
 406              	.LCFI43:
 407              		.cfi_def_cfa_offset 16
 408 0004 00AF     		add	r7, sp, #0
 409              	.LCFI44:
 410              		.cfi_def_cfa_register 7
 411 0006 7860     		str	r0, [r7, #4]
 620:../../../libs/smtc-hal-mcu-stm32l4/third_party/STM32CubeL4/Drivers/STM32L4xx_HAL_Driver/Inc/stm32l4xx_ll_exti.h ****   CLEAR_BIT(EXTI->EMR2, ExtiLine);
 412              		.loc 2 620 3
 413 0008 064B     		ldr	r3, .L23
 414 000a 5A6A     		ldr	r2, [r3, #36]
 415 000c 7B68     		ldr	r3, [r7, #4]
 416 000e DB43     		mvns	r3, r3
 417 0010 0449     		ldr	r1, .L23
 418 0012 1340     		ands	r3, r3, r2
 419 0014 4B62     		str	r3, [r1, #36]
 621:../../../libs/smtc-hal-mcu-stm32l4/third_party/STM32CubeL4/Drivers/STM32L4xx_HAL_Driver/Inc/stm32l4xx_ll_exti.h **** }
 420              		.loc 2 621 1
ARM GAS  C:\msys64\tmp\cczBzbSO.s 			page 19


 421 0016 00BF     		nop
 422 0018 0C37     		adds	r7, r7, #12
 423              	.LCFI45:
 424              		.cfi_def_cfa_offset 4
 425 001a BD46     		mov	sp, r7
 426              	.LCFI46:
 427              		.cfi_def_cfa_register 13
 428              		@ sp needed
 429 001c 5DF8047B 		ldr	r7, [sp], #4
 430              	.LCFI47:
 431              		.cfi_restore 7
 432              		.cfi_def_cfa_offset 0
 433 0020 7047     		bx	lr
 434              	.L24:
 435 0022 00BF     		.align	2
 436              	.L23:
 437 0024 00040140 		.word	1073808384
 438              		.cfi_endproc
 439              	.LFE141:
 441              		.section	.text.LL_EXTI_EnableRisingTrig_0_31,"ax",%progbits
 442              		.align	1
 443              		.syntax unified
 444              		.thumb
 445              		.thumb_func
 447              	LL_EXTI_EnableRisingTrig_0_31:
 448              	.LFB144:
 622:../../../libs/smtc-hal-mcu-stm32l4/third_party/STM32CubeL4/Drivers/STM32L4xx_HAL_Driver/Inc/stm32l4xx_ll_exti.h **** 
 623:../../../libs/smtc-hal-mcu-stm32l4/third_party/STM32CubeL4/Drivers/STM32L4xx_HAL_Driver/Inc/stm32l4xx_ll_exti.h **** /**
 624:../../../libs/smtc-hal-mcu-stm32l4/third_party/STM32CubeL4/Drivers/STM32L4xx_HAL_Driver/Inc/stm32l4xx_ll_exti.h ****   * @brief  Indicate if ExtiLine Event request is enabled for Lines in range 0 to 31
 625:../../../libs/smtc-hal-mcu-stm32l4/third_party/STM32CubeL4/Drivers/STM32L4xx_HAL_Driver/Inc/stm32l4xx_ll_exti.h ****   * @rmtoll EMR1         EMx           LL_EXTI_IsEnabledEvent_0_31
 626:../../../libs/smtc-hal-mcu-stm32l4/third_party/STM32CubeL4/Drivers/STM32L4xx_HAL_Driver/Inc/stm32l4xx_ll_exti.h ****   * @param  ExtiLine This parameter can be one of the following values:
 627:../../../libs/smtc-hal-mcu-stm32l4/third_party/STM32CubeL4/Drivers/STM32L4xx_HAL_Driver/Inc/stm32l4xx_ll_exti.h ****   *         @arg @ref LL_EXTI_LINE_0
 628:../../../libs/smtc-hal-mcu-stm32l4/third_party/STM32CubeL4/Drivers/STM32L4xx_HAL_Driver/Inc/stm32l4xx_ll_exti.h ****   *         @arg @ref LL_EXTI_LINE_1
 629:../../../libs/smtc-hal-mcu-stm32l4/third_party/STM32CubeL4/Drivers/STM32L4xx_HAL_Driver/Inc/stm32l4xx_ll_exti.h ****   *         @arg @ref LL_EXTI_LINE_2
 630:../../../libs/smtc-hal-mcu-stm32l4/third_party/STM32CubeL4/Drivers/STM32L4xx_HAL_Driver/Inc/stm32l4xx_ll_exti.h ****   *         @arg @ref LL_EXTI_LINE_3
 631:../../../libs/smtc-hal-mcu-stm32l4/third_party/STM32CubeL4/Drivers/STM32L4xx_HAL_Driver/Inc/stm32l4xx_ll_exti.h ****   *         @arg @ref LL_EXTI_LINE_4
 632:../../../libs/smtc-hal-mcu-stm32l4/third_party/STM32CubeL4/Drivers/STM32L4xx_HAL_Driver/Inc/stm32l4xx_ll_exti.h ****   *         @arg @ref LL_EXTI_LINE_5
 633:../../../libs/smtc-hal-mcu-stm32l4/third_party/STM32CubeL4/Drivers/STM32L4xx_HAL_Driver/Inc/stm32l4xx_ll_exti.h ****   *         @arg @ref LL_EXTI_LINE_6
 634:../../../libs/smtc-hal-mcu-stm32l4/third_party/STM32CubeL4/Drivers/STM32L4xx_HAL_Driver/Inc/stm32l4xx_ll_exti.h ****   *         @arg @ref LL_EXTI_LINE_7
 635:../../../libs/smtc-hal-mcu-stm32l4/third_party/STM32CubeL4/Drivers/STM32L4xx_HAL_Driver/Inc/stm32l4xx_ll_exti.h ****   *         @arg @ref LL_EXTI_LINE_8
 636:../../../libs/smtc-hal-mcu-stm32l4/third_party/STM32CubeL4/Drivers/STM32L4xx_HAL_Driver/Inc/stm32l4xx_ll_exti.h ****   *         @arg @ref LL_EXTI_LINE_9
 637:../../../libs/smtc-hal-mcu-stm32l4/third_party/STM32CubeL4/Drivers/STM32L4xx_HAL_Driver/Inc/stm32l4xx_ll_exti.h ****   *         @arg @ref LL_EXTI_LINE_10
 638:../../../libs/smtc-hal-mcu-stm32l4/third_party/STM32CubeL4/Drivers/STM32L4xx_HAL_Driver/Inc/stm32l4xx_ll_exti.h ****   *         @arg @ref LL_EXTI_LINE_11
 639:../../../libs/smtc-hal-mcu-stm32l4/third_party/STM32CubeL4/Drivers/STM32L4xx_HAL_Driver/Inc/stm32l4xx_ll_exti.h ****   *         @arg @ref LL_EXTI_LINE_12
 640:../../../libs/smtc-hal-mcu-stm32l4/third_party/STM32CubeL4/Drivers/STM32L4xx_HAL_Driver/Inc/stm32l4xx_ll_exti.h ****   *         @arg @ref LL_EXTI_LINE_13
 641:../../../libs/smtc-hal-mcu-stm32l4/third_party/STM32CubeL4/Drivers/STM32L4xx_HAL_Driver/Inc/stm32l4xx_ll_exti.h ****   *         @arg @ref LL_EXTI_LINE_14
 642:../../../libs/smtc-hal-mcu-stm32l4/third_party/STM32CubeL4/Drivers/STM32L4xx_HAL_Driver/Inc/stm32l4xx_ll_exti.h ****   *         @arg @ref LL_EXTI_LINE_15
 643:../../../libs/smtc-hal-mcu-stm32l4/third_party/STM32CubeL4/Drivers/STM32L4xx_HAL_Driver/Inc/stm32l4xx_ll_exti.h ****   *         @arg @ref LL_EXTI_LINE_16
 644:../../../libs/smtc-hal-mcu-stm32l4/third_party/STM32CubeL4/Drivers/STM32L4xx_HAL_Driver/Inc/stm32l4xx_ll_exti.h ****   *         @arg @ref LL_EXTI_LINE_17
 645:../../../libs/smtc-hal-mcu-stm32l4/third_party/STM32CubeL4/Drivers/STM32L4xx_HAL_Driver/Inc/stm32l4xx_ll_exti.h ****   *         @arg @ref LL_EXTI_LINE_18
 646:../../../libs/smtc-hal-mcu-stm32l4/third_party/STM32CubeL4/Drivers/STM32L4xx_HAL_Driver/Inc/stm32l4xx_ll_exti.h ****   *         @arg @ref LL_EXTI_LINE_19
 647:../../../libs/smtc-hal-mcu-stm32l4/third_party/STM32CubeL4/Drivers/STM32L4xx_HAL_Driver/Inc/stm32l4xx_ll_exti.h ****   *         @arg @ref LL_EXTI_LINE_20
 648:../../../libs/smtc-hal-mcu-stm32l4/third_party/STM32CubeL4/Drivers/STM32L4xx_HAL_Driver/Inc/stm32l4xx_ll_exti.h ****   *         @arg @ref LL_EXTI_LINE_21
 649:../../../libs/smtc-hal-mcu-stm32l4/third_party/STM32CubeL4/Drivers/STM32L4xx_HAL_Driver/Inc/stm32l4xx_ll_exti.h ****   *         @arg @ref LL_EXTI_LINE_22
 650:../../../libs/smtc-hal-mcu-stm32l4/third_party/STM32CubeL4/Drivers/STM32L4xx_HAL_Driver/Inc/stm32l4xx_ll_exti.h ****   *         @arg @ref LL_EXTI_LINE_23
 651:../../../libs/smtc-hal-mcu-stm32l4/third_party/STM32CubeL4/Drivers/STM32L4xx_HAL_Driver/Inc/stm32l4xx_ll_exti.h ****   *         @arg @ref LL_EXTI_LINE_24
 652:../../../libs/smtc-hal-mcu-stm32l4/third_party/STM32CubeL4/Drivers/STM32L4xx_HAL_Driver/Inc/stm32l4xx_ll_exti.h ****   *         @arg @ref LL_EXTI_LINE_25
ARM GAS  C:\msys64\tmp\cczBzbSO.s 			page 20


 653:../../../libs/smtc-hal-mcu-stm32l4/third_party/STM32CubeL4/Drivers/STM32L4xx_HAL_Driver/Inc/stm32l4xx_ll_exti.h ****   *         @arg @ref LL_EXTI_LINE_26
 654:../../../libs/smtc-hal-mcu-stm32l4/third_party/STM32CubeL4/Drivers/STM32L4xx_HAL_Driver/Inc/stm32l4xx_ll_exti.h ****   *         @arg @ref LL_EXTI_LINE_27
 655:../../../libs/smtc-hal-mcu-stm32l4/third_party/STM32CubeL4/Drivers/STM32L4xx_HAL_Driver/Inc/stm32l4xx_ll_exti.h ****   *         @arg @ref LL_EXTI_LINE_28
 656:../../../libs/smtc-hal-mcu-stm32l4/third_party/STM32CubeL4/Drivers/STM32L4xx_HAL_Driver/Inc/stm32l4xx_ll_exti.h ****   *         @arg @ref LL_EXTI_LINE_29
 657:../../../libs/smtc-hal-mcu-stm32l4/third_party/STM32CubeL4/Drivers/STM32L4xx_HAL_Driver/Inc/stm32l4xx_ll_exti.h ****   *         @arg @ref LL_EXTI_LINE_30
 658:../../../libs/smtc-hal-mcu-stm32l4/third_party/STM32CubeL4/Drivers/STM32L4xx_HAL_Driver/Inc/stm32l4xx_ll_exti.h ****   *         @arg @ref LL_EXTI_LINE_31
 659:../../../libs/smtc-hal-mcu-stm32l4/third_party/STM32CubeL4/Drivers/STM32L4xx_HAL_Driver/Inc/stm32l4xx_ll_exti.h ****   *         @arg @ref LL_EXTI_LINE_ALL_0_31
 660:../../../libs/smtc-hal-mcu-stm32l4/third_party/STM32CubeL4/Drivers/STM32L4xx_HAL_Driver/Inc/stm32l4xx_ll_exti.h ****   * @note   Please check each device line mapping for EXTI Line availability
 661:../../../libs/smtc-hal-mcu-stm32l4/third_party/STM32CubeL4/Drivers/STM32L4xx_HAL_Driver/Inc/stm32l4xx_ll_exti.h ****   * @retval State of bit (1 or 0).
 662:../../../libs/smtc-hal-mcu-stm32l4/third_party/STM32CubeL4/Drivers/STM32L4xx_HAL_Driver/Inc/stm32l4xx_ll_exti.h ****   */
 663:../../../libs/smtc-hal-mcu-stm32l4/third_party/STM32CubeL4/Drivers/STM32L4xx_HAL_Driver/Inc/stm32l4xx_ll_exti.h **** __STATIC_INLINE uint32_t LL_EXTI_IsEnabledEvent_0_31(uint32_t ExtiLine)
 664:../../../libs/smtc-hal-mcu-stm32l4/third_party/STM32CubeL4/Drivers/STM32L4xx_HAL_Driver/Inc/stm32l4xx_ll_exti.h **** {
 665:../../../libs/smtc-hal-mcu-stm32l4/third_party/STM32CubeL4/Drivers/STM32L4xx_HAL_Driver/Inc/stm32l4xx_ll_exti.h ****   return ((READ_BIT(EXTI->EMR1, ExtiLine) == (ExtiLine)) ? 1UL : 0UL);
 666:../../../libs/smtc-hal-mcu-stm32l4/third_party/STM32CubeL4/Drivers/STM32L4xx_HAL_Driver/Inc/stm32l4xx_ll_exti.h **** 
 667:../../../libs/smtc-hal-mcu-stm32l4/third_party/STM32CubeL4/Drivers/STM32L4xx_HAL_Driver/Inc/stm32l4xx_ll_exti.h **** }
 668:../../../libs/smtc-hal-mcu-stm32l4/third_party/STM32CubeL4/Drivers/STM32L4xx_HAL_Driver/Inc/stm32l4xx_ll_exti.h **** 
 669:../../../libs/smtc-hal-mcu-stm32l4/third_party/STM32CubeL4/Drivers/STM32L4xx_HAL_Driver/Inc/stm32l4xx_ll_exti.h **** /**
 670:../../../libs/smtc-hal-mcu-stm32l4/third_party/STM32CubeL4/Drivers/STM32L4xx_HAL_Driver/Inc/stm32l4xx_ll_exti.h ****   * @brief  Indicate if ExtiLine Event request is enabled for Lines in range 32 to 63
 671:../../../libs/smtc-hal-mcu-stm32l4/third_party/STM32CubeL4/Drivers/STM32L4xx_HAL_Driver/Inc/stm32l4xx_ll_exti.h ****   * @rmtoll EMR2         EMx           LL_EXTI_IsEnabledEvent_32_63
 672:../../../libs/smtc-hal-mcu-stm32l4/third_party/STM32CubeL4/Drivers/STM32L4xx_HAL_Driver/Inc/stm32l4xx_ll_exti.h ****   * @param  ExtiLine This parameter can be a combination of the following values:
 673:../../../libs/smtc-hal-mcu-stm32l4/third_party/STM32CubeL4/Drivers/STM32L4xx_HAL_Driver/Inc/stm32l4xx_ll_exti.h ****   *         @arg @ref LL_EXTI_LINE_32
 674:../../../libs/smtc-hal-mcu-stm32l4/third_party/STM32CubeL4/Drivers/STM32L4xx_HAL_Driver/Inc/stm32l4xx_ll_exti.h ****   *         @arg @ref LL_EXTI_LINE_33
 675:../../../libs/smtc-hal-mcu-stm32l4/third_party/STM32CubeL4/Drivers/STM32L4xx_HAL_Driver/Inc/stm32l4xx_ll_exti.h ****   *         @arg @ref LL_EXTI_LINE_34(*)
 676:../../../libs/smtc-hal-mcu-stm32l4/third_party/STM32CubeL4/Drivers/STM32L4xx_HAL_Driver/Inc/stm32l4xx_ll_exti.h ****   *         @arg @ref LL_EXTI_LINE_35
 677:../../../libs/smtc-hal-mcu-stm32l4/third_party/STM32CubeL4/Drivers/STM32L4xx_HAL_Driver/Inc/stm32l4xx_ll_exti.h ****   *         @arg @ref LL_EXTI_LINE_36
 678:../../../libs/smtc-hal-mcu-stm32l4/third_party/STM32CubeL4/Drivers/STM32L4xx_HAL_Driver/Inc/stm32l4xx_ll_exti.h ****   *         @arg @ref LL_EXTI_LINE_37
 679:../../../libs/smtc-hal-mcu-stm32l4/third_party/STM32CubeL4/Drivers/STM32L4xx_HAL_Driver/Inc/stm32l4xx_ll_exti.h ****   *         @arg @ref LL_EXTI_LINE_38
 680:../../../libs/smtc-hal-mcu-stm32l4/third_party/STM32CubeL4/Drivers/STM32L4xx_HAL_Driver/Inc/stm32l4xx_ll_exti.h ****   *         @arg @ref LL_EXTI_LINE_39(*)
 681:../../../libs/smtc-hal-mcu-stm32l4/third_party/STM32CubeL4/Drivers/STM32L4xx_HAL_Driver/Inc/stm32l4xx_ll_exti.h ****   *         @arg @ref LL_EXTI_LINE_40(*)
 682:../../../libs/smtc-hal-mcu-stm32l4/third_party/STM32CubeL4/Drivers/STM32L4xx_HAL_Driver/Inc/stm32l4xx_ll_exti.h ****   *         @arg @ref LL_EXTI_LINE_ALL_32_63
 683:../../../libs/smtc-hal-mcu-stm32l4/third_party/STM32CubeL4/Drivers/STM32L4xx_HAL_Driver/Inc/stm32l4xx_ll_exti.h ****   * @note   (*): Available in some devices
 684:../../../libs/smtc-hal-mcu-stm32l4/third_party/STM32CubeL4/Drivers/STM32L4xx_HAL_Driver/Inc/stm32l4xx_ll_exti.h ****   * @retval State of bit (1 or 0).
 685:../../../libs/smtc-hal-mcu-stm32l4/third_party/STM32CubeL4/Drivers/STM32L4xx_HAL_Driver/Inc/stm32l4xx_ll_exti.h ****   */
 686:../../../libs/smtc-hal-mcu-stm32l4/third_party/STM32CubeL4/Drivers/STM32L4xx_HAL_Driver/Inc/stm32l4xx_ll_exti.h **** __STATIC_INLINE uint32_t LL_EXTI_IsEnabledEvent_32_63(uint32_t ExtiLine)
 687:../../../libs/smtc-hal-mcu-stm32l4/third_party/STM32CubeL4/Drivers/STM32L4xx_HAL_Driver/Inc/stm32l4xx_ll_exti.h **** {
 688:../../../libs/smtc-hal-mcu-stm32l4/third_party/STM32CubeL4/Drivers/STM32L4xx_HAL_Driver/Inc/stm32l4xx_ll_exti.h ****   return ((READ_BIT(EXTI->EMR2, ExtiLine) == (ExtiLine)) ? 1UL : 0UL);
 689:../../../libs/smtc-hal-mcu-stm32l4/third_party/STM32CubeL4/Drivers/STM32L4xx_HAL_Driver/Inc/stm32l4xx_ll_exti.h **** }
 690:../../../libs/smtc-hal-mcu-stm32l4/third_party/STM32CubeL4/Drivers/STM32L4xx_HAL_Driver/Inc/stm32l4xx_ll_exti.h **** 
 691:../../../libs/smtc-hal-mcu-stm32l4/third_party/STM32CubeL4/Drivers/STM32L4xx_HAL_Driver/Inc/stm32l4xx_ll_exti.h **** /**
 692:../../../libs/smtc-hal-mcu-stm32l4/third_party/STM32CubeL4/Drivers/STM32L4xx_HAL_Driver/Inc/stm32l4xx_ll_exti.h ****   * @}
 693:../../../libs/smtc-hal-mcu-stm32l4/third_party/STM32CubeL4/Drivers/STM32L4xx_HAL_Driver/Inc/stm32l4xx_ll_exti.h ****   */
 694:../../../libs/smtc-hal-mcu-stm32l4/third_party/STM32CubeL4/Drivers/STM32L4xx_HAL_Driver/Inc/stm32l4xx_ll_exti.h **** 
 695:../../../libs/smtc-hal-mcu-stm32l4/third_party/STM32CubeL4/Drivers/STM32L4xx_HAL_Driver/Inc/stm32l4xx_ll_exti.h **** /** @defgroup EXTI_LL_EF_Rising_Trigger_Management Rising_Trigger_Management
 696:../../../libs/smtc-hal-mcu-stm32l4/third_party/STM32CubeL4/Drivers/STM32L4xx_HAL_Driver/Inc/stm32l4xx_ll_exti.h ****   * @{
 697:../../../libs/smtc-hal-mcu-stm32l4/third_party/STM32CubeL4/Drivers/STM32L4xx_HAL_Driver/Inc/stm32l4xx_ll_exti.h ****   */
 698:../../../libs/smtc-hal-mcu-stm32l4/third_party/STM32CubeL4/Drivers/STM32L4xx_HAL_Driver/Inc/stm32l4xx_ll_exti.h **** 
 699:../../../libs/smtc-hal-mcu-stm32l4/third_party/STM32CubeL4/Drivers/STM32L4xx_HAL_Driver/Inc/stm32l4xx_ll_exti.h **** /**
 700:../../../libs/smtc-hal-mcu-stm32l4/third_party/STM32CubeL4/Drivers/STM32L4xx_HAL_Driver/Inc/stm32l4xx_ll_exti.h ****   * @brief  Enable ExtiLine Rising Edge Trigger for Lines in range 0 to 31
 701:../../../libs/smtc-hal-mcu-stm32l4/third_party/STM32CubeL4/Drivers/STM32L4xx_HAL_Driver/Inc/stm32l4xx_ll_exti.h ****   * @note The configurable wakeup lines are edge-triggered. No glitch must be
 702:../../../libs/smtc-hal-mcu-stm32l4/third_party/STM32CubeL4/Drivers/STM32L4xx_HAL_Driver/Inc/stm32l4xx_ll_exti.h ****   *       generated on these lines. If a rising edge on a configurable interrupt
 703:../../../libs/smtc-hal-mcu-stm32l4/third_party/STM32CubeL4/Drivers/STM32L4xx_HAL_Driver/Inc/stm32l4xx_ll_exti.h ****   *       line occurs during a write operation in the EXTI_RTSR register, the
 704:../../../libs/smtc-hal-mcu-stm32l4/third_party/STM32CubeL4/Drivers/STM32L4xx_HAL_Driver/Inc/stm32l4xx_ll_exti.h ****   *       pending bit is not set.
 705:../../../libs/smtc-hal-mcu-stm32l4/third_party/STM32CubeL4/Drivers/STM32L4xx_HAL_Driver/Inc/stm32l4xx_ll_exti.h ****   *       Rising and falling edge triggers can be set for
 706:../../../libs/smtc-hal-mcu-stm32l4/third_party/STM32CubeL4/Drivers/STM32L4xx_HAL_Driver/Inc/stm32l4xx_ll_exti.h ****   *       the same interrupt line. In this case, both generate a trigger
 707:../../../libs/smtc-hal-mcu-stm32l4/third_party/STM32CubeL4/Drivers/STM32L4xx_HAL_Driver/Inc/stm32l4xx_ll_exti.h ****   *       condition.
 708:../../../libs/smtc-hal-mcu-stm32l4/third_party/STM32CubeL4/Drivers/STM32L4xx_HAL_Driver/Inc/stm32l4xx_ll_exti.h ****   * @rmtoll RTSR1        RTx           LL_EXTI_EnableRisingTrig_0_31
 709:../../../libs/smtc-hal-mcu-stm32l4/third_party/STM32CubeL4/Drivers/STM32L4xx_HAL_Driver/Inc/stm32l4xx_ll_exti.h ****   * @param  ExtiLine This parameter can be a combination of the following values:
ARM GAS  C:\msys64\tmp\cczBzbSO.s 			page 21


 710:../../../libs/smtc-hal-mcu-stm32l4/third_party/STM32CubeL4/Drivers/STM32L4xx_HAL_Driver/Inc/stm32l4xx_ll_exti.h ****   *         @arg @ref LL_EXTI_LINE_0
 711:../../../libs/smtc-hal-mcu-stm32l4/third_party/STM32CubeL4/Drivers/STM32L4xx_HAL_Driver/Inc/stm32l4xx_ll_exti.h ****   *         @arg @ref LL_EXTI_LINE_1
 712:../../../libs/smtc-hal-mcu-stm32l4/third_party/STM32CubeL4/Drivers/STM32L4xx_HAL_Driver/Inc/stm32l4xx_ll_exti.h ****   *         @arg @ref LL_EXTI_LINE_2
 713:../../../libs/smtc-hal-mcu-stm32l4/third_party/STM32CubeL4/Drivers/STM32L4xx_HAL_Driver/Inc/stm32l4xx_ll_exti.h ****   *         @arg @ref LL_EXTI_LINE_3
 714:../../../libs/smtc-hal-mcu-stm32l4/third_party/STM32CubeL4/Drivers/STM32L4xx_HAL_Driver/Inc/stm32l4xx_ll_exti.h ****   *         @arg @ref LL_EXTI_LINE_4
 715:../../../libs/smtc-hal-mcu-stm32l4/third_party/STM32CubeL4/Drivers/STM32L4xx_HAL_Driver/Inc/stm32l4xx_ll_exti.h ****   *         @arg @ref LL_EXTI_LINE_5
 716:../../../libs/smtc-hal-mcu-stm32l4/third_party/STM32CubeL4/Drivers/STM32L4xx_HAL_Driver/Inc/stm32l4xx_ll_exti.h ****   *         @arg @ref LL_EXTI_LINE_6
 717:../../../libs/smtc-hal-mcu-stm32l4/third_party/STM32CubeL4/Drivers/STM32L4xx_HAL_Driver/Inc/stm32l4xx_ll_exti.h ****   *         @arg @ref LL_EXTI_LINE_7
 718:../../../libs/smtc-hal-mcu-stm32l4/third_party/STM32CubeL4/Drivers/STM32L4xx_HAL_Driver/Inc/stm32l4xx_ll_exti.h ****   *         @arg @ref LL_EXTI_LINE_8
 719:../../../libs/smtc-hal-mcu-stm32l4/third_party/STM32CubeL4/Drivers/STM32L4xx_HAL_Driver/Inc/stm32l4xx_ll_exti.h ****   *         @arg @ref LL_EXTI_LINE_9
 720:../../../libs/smtc-hal-mcu-stm32l4/third_party/STM32CubeL4/Drivers/STM32L4xx_HAL_Driver/Inc/stm32l4xx_ll_exti.h ****   *         @arg @ref LL_EXTI_LINE_10
 721:../../../libs/smtc-hal-mcu-stm32l4/third_party/STM32CubeL4/Drivers/STM32L4xx_HAL_Driver/Inc/stm32l4xx_ll_exti.h ****   *         @arg @ref LL_EXTI_LINE_11
 722:../../../libs/smtc-hal-mcu-stm32l4/third_party/STM32CubeL4/Drivers/STM32L4xx_HAL_Driver/Inc/stm32l4xx_ll_exti.h ****   *         @arg @ref LL_EXTI_LINE_12
 723:../../../libs/smtc-hal-mcu-stm32l4/third_party/STM32CubeL4/Drivers/STM32L4xx_HAL_Driver/Inc/stm32l4xx_ll_exti.h ****   *         @arg @ref LL_EXTI_LINE_13
 724:../../../libs/smtc-hal-mcu-stm32l4/third_party/STM32CubeL4/Drivers/STM32L4xx_HAL_Driver/Inc/stm32l4xx_ll_exti.h ****   *         @arg @ref LL_EXTI_LINE_14
 725:../../../libs/smtc-hal-mcu-stm32l4/third_party/STM32CubeL4/Drivers/STM32L4xx_HAL_Driver/Inc/stm32l4xx_ll_exti.h ****   *         @arg @ref LL_EXTI_LINE_15
 726:../../../libs/smtc-hal-mcu-stm32l4/third_party/STM32CubeL4/Drivers/STM32L4xx_HAL_Driver/Inc/stm32l4xx_ll_exti.h ****   *         @arg @ref LL_EXTI_LINE_16
 727:../../../libs/smtc-hal-mcu-stm32l4/third_party/STM32CubeL4/Drivers/STM32L4xx_HAL_Driver/Inc/stm32l4xx_ll_exti.h ****   *         @arg @ref LL_EXTI_LINE_18
 728:../../../libs/smtc-hal-mcu-stm32l4/third_party/STM32CubeL4/Drivers/STM32L4xx_HAL_Driver/Inc/stm32l4xx_ll_exti.h ****   *         @arg @ref LL_EXTI_LINE_19
 729:../../../libs/smtc-hal-mcu-stm32l4/third_party/STM32CubeL4/Drivers/STM32L4xx_HAL_Driver/Inc/stm32l4xx_ll_exti.h ****   *         @arg @ref LL_EXTI_LINE_20
 730:../../../libs/smtc-hal-mcu-stm32l4/third_party/STM32CubeL4/Drivers/STM32L4xx_HAL_Driver/Inc/stm32l4xx_ll_exti.h ****   *         @arg @ref LL_EXTI_LINE_21
 731:../../../libs/smtc-hal-mcu-stm32l4/third_party/STM32CubeL4/Drivers/STM32L4xx_HAL_Driver/Inc/stm32l4xx_ll_exti.h ****   *         @arg @ref LL_EXTI_LINE_22
 732:../../../libs/smtc-hal-mcu-stm32l4/third_party/STM32CubeL4/Drivers/STM32L4xx_HAL_Driver/Inc/stm32l4xx_ll_exti.h ****   *         @arg @ref LL_EXTI_LINE_29
 733:../../../libs/smtc-hal-mcu-stm32l4/third_party/STM32CubeL4/Drivers/STM32L4xx_HAL_Driver/Inc/stm32l4xx_ll_exti.h ****   *         @arg @ref LL_EXTI_LINE_30
 734:../../../libs/smtc-hal-mcu-stm32l4/third_party/STM32CubeL4/Drivers/STM32L4xx_HAL_Driver/Inc/stm32l4xx_ll_exti.h ****   *         @arg @ref LL_EXTI_LINE_31
 735:../../../libs/smtc-hal-mcu-stm32l4/third_party/STM32CubeL4/Drivers/STM32L4xx_HAL_Driver/Inc/stm32l4xx_ll_exti.h ****   * @note   Please check each device line mapping for EXTI Line availability
 736:../../../libs/smtc-hal-mcu-stm32l4/third_party/STM32CubeL4/Drivers/STM32L4xx_HAL_Driver/Inc/stm32l4xx_ll_exti.h ****   * @retval None
 737:../../../libs/smtc-hal-mcu-stm32l4/third_party/STM32CubeL4/Drivers/STM32L4xx_HAL_Driver/Inc/stm32l4xx_ll_exti.h ****   */
 738:../../../libs/smtc-hal-mcu-stm32l4/third_party/STM32CubeL4/Drivers/STM32L4xx_HAL_Driver/Inc/stm32l4xx_ll_exti.h **** __STATIC_INLINE void LL_EXTI_EnableRisingTrig_0_31(uint32_t ExtiLine)
 739:../../../libs/smtc-hal-mcu-stm32l4/third_party/STM32CubeL4/Drivers/STM32L4xx_HAL_Driver/Inc/stm32l4xx_ll_exti.h **** {
 449              		.loc 2 739 1
 450              		.cfi_startproc
 451              		@ args = 0, pretend = 0, frame = 8
 452              		@ frame_needed = 1, uses_anonymous_args = 0
 453              		@ link register save eliminated.
 454 0000 80B4     		push	{r7}
 455              	.LCFI48:
 456              		.cfi_def_cfa_offset 4
 457              		.cfi_offset 7, -4
 458 0002 83B0     		sub	sp, sp, #12
 459              	.LCFI49:
 460              		.cfi_def_cfa_offset 16
 461 0004 00AF     		add	r7, sp, #0
 462              	.LCFI50:
 463              		.cfi_def_cfa_register 7
 464 0006 7860     		str	r0, [r7, #4]
 740:../../../libs/smtc-hal-mcu-stm32l4/third_party/STM32CubeL4/Drivers/STM32L4xx_HAL_Driver/Inc/stm32l4xx_ll_exti.h ****   SET_BIT(EXTI->RTSR1, ExtiLine);
 465              		.loc 2 740 3
 466 0008 054B     		ldr	r3, .L26
 467 000a 9A68     		ldr	r2, [r3, #8]
 468 000c 0449     		ldr	r1, .L26
 469 000e 7B68     		ldr	r3, [r7, #4]
 470 0010 1343     		orrs	r3, r3, r2
 471 0012 8B60     		str	r3, [r1, #8]
 741:../../../libs/smtc-hal-mcu-stm32l4/third_party/STM32CubeL4/Drivers/STM32L4xx_HAL_Driver/Inc/stm32l4xx_ll_exti.h **** 
 742:../../../libs/smtc-hal-mcu-stm32l4/third_party/STM32CubeL4/Drivers/STM32L4xx_HAL_Driver/Inc/stm32l4xx_ll_exti.h **** }
 472              		.loc 2 742 1
ARM GAS  C:\msys64\tmp\cczBzbSO.s 			page 22


 473 0014 00BF     		nop
 474 0016 0C37     		adds	r7, r7, #12
 475              	.LCFI51:
 476              		.cfi_def_cfa_offset 4
 477 0018 BD46     		mov	sp, r7
 478              	.LCFI52:
 479              		.cfi_def_cfa_register 13
 480              		@ sp needed
 481 001a 5DF8047B 		ldr	r7, [sp], #4
 482              	.LCFI53:
 483              		.cfi_restore 7
 484              		.cfi_def_cfa_offset 0
 485 001e 7047     		bx	lr
 486              	.L27:
 487              		.align	2
 488              	.L26:
 489 0020 00040140 		.word	1073808384
 490              		.cfi_endproc
 491              	.LFE144:
 493              		.section	.text.LL_EXTI_EnableRisingTrig_32_63,"ax",%progbits
 494              		.align	1
 495              		.syntax unified
 496              		.thumb
 497              		.thumb_func
 499              	LL_EXTI_EnableRisingTrig_32_63:
 500              	.LFB145:
 743:../../../libs/smtc-hal-mcu-stm32l4/third_party/STM32CubeL4/Drivers/STM32L4xx_HAL_Driver/Inc/stm32l4xx_ll_exti.h **** 
 744:../../../libs/smtc-hal-mcu-stm32l4/third_party/STM32CubeL4/Drivers/STM32L4xx_HAL_Driver/Inc/stm32l4xx_ll_exti.h **** /**
 745:../../../libs/smtc-hal-mcu-stm32l4/third_party/STM32CubeL4/Drivers/STM32L4xx_HAL_Driver/Inc/stm32l4xx_ll_exti.h ****   * @brief  Enable ExtiLine Rising Edge Trigger for Lines in range 32 to 63
 746:../../../libs/smtc-hal-mcu-stm32l4/third_party/STM32CubeL4/Drivers/STM32L4xx_HAL_Driver/Inc/stm32l4xx_ll_exti.h ****   * @note The configurable wakeup lines are edge-triggered. No glitch must be
 747:../../../libs/smtc-hal-mcu-stm32l4/third_party/STM32CubeL4/Drivers/STM32L4xx_HAL_Driver/Inc/stm32l4xx_ll_exti.h ****   *       generated on these lines. If a rising edge on a configurable interrupt
 748:../../../libs/smtc-hal-mcu-stm32l4/third_party/STM32CubeL4/Drivers/STM32L4xx_HAL_Driver/Inc/stm32l4xx_ll_exti.h ****   *       line occurs during a write operation in the EXTI_RTSR register, the
 749:../../../libs/smtc-hal-mcu-stm32l4/third_party/STM32CubeL4/Drivers/STM32L4xx_HAL_Driver/Inc/stm32l4xx_ll_exti.h ****   *       pending bit is not set.Rising and falling edge triggers can be set for
 750:../../../libs/smtc-hal-mcu-stm32l4/third_party/STM32CubeL4/Drivers/STM32L4xx_HAL_Driver/Inc/stm32l4xx_ll_exti.h ****   *       the same interrupt line. In this case, both generate a trigger
 751:../../../libs/smtc-hal-mcu-stm32l4/third_party/STM32CubeL4/Drivers/STM32L4xx_HAL_Driver/Inc/stm32l4xx_ll_exti.h ****   *       condition.
 752:../../../libs/smtc-hal-mcu-stm32l4/third_party/STM32CubeL4/Drivers/STM32L4xx_HAL_Driver/Inc/stm32l4xx_ll_exti.h ****   * @rmtoll RTSR2        RTx           LL_EXTI_EnableRisingTrig_32_63
 753:../../../libs/smtc-hal-mcu-stm32l4/third_party/STM32CubeL4/Drivers/STM32L4xx_HAL_Driver/Inc/stm32l4xx_ll_exti.h ****   * @param  ExtiLine This parameter can be a combination of the following values:
 754:../../../libs/smtc-hal-mcu-stm32l4/third_party/STM32CubeL4/Drivers/STM32L4xx_HAL_Driver/Inc/stm32l4xx_ll_exti.h ****   *         @arg @ref LL_EXTI_LINE_35
 755:../../../libs/smtc-hal-mcu-stm32l4/third_party/STM32CubeL4/Drivers/STM32L4xx_HAL_Driver/Inc/stm32l4xx_ll_exti.h ****   *         @arg @ref LL_EXTI_LINE_36
 756:../../../libs/smtc-hal-mcu-stm32l4/third_party/STM32CubeL4/Drivers/STM32L4xx_HAL_Driver/Inc/stm32l4xx_ll_exti.h ****   *         @arg @ref LL_EXTI_LINE_37
 757:../../../libs/smtc-hal-mcu-stm32l4/third_party/STM32CubeL4/Drivers/STM32L4xx_HAL_Driver/Inc/stm32l4xx_ll_exti.h ****   *         @arg @ref LL_EXTI_LINE_38
 758:../../../libs/smtc-hal-mcu-stm32l4/third_party/STM32CubeL4/Drivers/STM32L4xx_HAL_Driver/Inc/stm32l4xx_ll_exti.h ****   * @retval None
 759:../../../libs/smtc-hal-mcu-stm32l4/third_party/STM32CubeL4/Drivers/STM32L4xx_HAL_Driver/Inc/stm32l4xx_ll_exti.h ****   */
 760:../../../libs/smtc-hal-mcu-stm32l4/third_party/STM32CubeL4/Drivers/STM32L4xx_HAL_Driver/Inc/stm32l4xx_ll_exti.h **** __STATIC_INLINE void LL_EXTI_EnableRisingTrig_32_63(uint32_t ExtiLine)
 761:../../../libs/smtc-hal-mcu-stm32l4/third_party/STM32CubeL4/Drivers/STM32L4xx_HAL_Driver/Inc/stm32l4xx_ll_exti.h **** {
 501              		.loc 2 761 1
 502              		.cfi_startproc
 503              		@ args = 0, pretend = 0, frame = 8
 504              		@ frame_needed = 1, uses_anonymous_args = 0
 505              		@ link register save eliminated.
 506 0000 80B4     		push	{r7}
 507              	.LCFI54:
 508              		.cfi_def_cfa_offset 4
 509              		.cfi_offset 7, -4
 510 0002 83B0     		sub	sp, sp, #12
 511              	.LCFI55:
 512              		.cfi_def_cfa_offset 16
ARM GAS  C:\msys64\tmp\cczBzbSO.s 			page 23


 513 0004 00AF     		add	r7, sp, #0
 514              	.LCFI56:
 515              		.cfi_def_cfa_register 7
 516 0006 7860     		str	r0, [r7, #4]
 762:../../../libs/smtc-hal-mcu-stm32l4/third_party/STM32CubeL4/Drivers/STM32L4xx_HAL_Driver/Inc/stm32l4xx_ll_exti.h ****   SET_BIT(EXTI->RTSR2, ExtiLine);
 517              		.loc 2 762 3
 518 0008 054B     		ldr	r3, .L29
 519 000a 9A6A     		ldr	r2, [r3, #40]
 520 000c 0449     		ldr	r1, .L29
 521 000e 7B68     		ldr	r3, [r7, #4]
 522 0010 1343     		orrs	r3, r3, r2
 523 0012 8B62     		str	r3, [r1, #40]
 763:../../../libs/smtc-hal-mcu-stm32l4/third_party/STM32CubeL4/Drivers/STM32L4xx_HAL_Driver/Inc/stm32l4xx_ll_exti.h **** }
 524              		.loc 2 763 1
 525 0014 00BF     		nop
 526 0016 0C37     		adds	r7, r7, #12
 527              	.LCFI57:
 528              		.cfi_def_cfa_offset 4
 529 0018 BD46     		mov	sp, r7
 530              	.LCFI58:
 531              		.cfi_def_cfa_register 13
 532              		@ sp needed
 533 001a 5DF8047B 		ldr	r7, [sp], #4
 534              	.LCFI59:
 535              		.cfi_restore 7
 536              		.cfi_def_cfa_offset 0
 537 001e 7047     		bx	lr
 538              	.L30:
 539              		.align	2
 540              	.L29:
 541 0020 00040140 		.word	1073808384
 542              		.cfi_endproc
 543              	.LFE145:
 545              		.section	.text.LL_EXTI_DisableRisingTrig_0_31,"ax",%progbits
 546              		.align	1
 547              		.syntax unified
 548              		.thumb
 549              		.thumb_func
 551              	LL_EXTI_DisableRisingTrig_0_31:
 552              	.LFB146:
 764:../../../libs/smtc-hal-mcu-stm32l4/third_party/STM32CubeL4/Drivers/STM32L4xx_HAL_Driver/Inc/stm32l4xx_ll_exti.h **** 
 765:../../../libs/smtc-hal-mcu-stm32l4/third_party/STM32CubeL4/Drivers/STM32L4xx_HAL_Driver/Inc/stm32l4xx_ll_exti.h **** /**
 766:../../../libs/smtc-hal-mcu-stm32l4/third_party/STM32CubeL4/Drivers/STM32L4xx_HAL_Driver/Inc/stm32l4xx_ll_exti.h ****   * @brief  Disable ExtiLine Rising Edge Trigger for Lines in range 0 to 31
 767:../../../libs/smtc-hal-mcu-stm32l4/third_party/STM32CubeL4/Drivers/STM32L4xx_HAL_Driver/Inc/stm32l4xx_ll_exti.h ****   * @note The configurable wakeup lines are edge-triggered. No glitch must be
 768:../../../libs/smtc-hal-mcu-stm32l4/third_party/STM32CubeL4/Drivers/STM32L4xx_HAL_Driver/Inc/stm32l4xx_ll_exti.h ****   *       generated on these lines. If a rising edge on a configurable interrupt
 769:../../../libs/smtc-hal-mcu-stm32l4/third_party/STM32CubeL4/Drivers/STM32L4xx_HAL_Driver/Inc/stm32l4xx_ll_exti.h ****   *       line occurs during a write operation in the EXTI_RTSR register, the
 770:../../../libs/smtc-hal-mcu-stm32l4/third_party/STM32CubeL4/Drivers/STM32L4xx_HAL_Driver/Inc/stm32l4xx_ll_exti.h ****   *       pending bit is not set.
 771:../../../libs/smtc-hal-mcu-stm32l4/third_party/STM32CubeL4/Drivers/STM32L4xx_HAL_Driver/Inc/stm32l4xx_ll_exti.h ****   *       Rising and falling edge triggers can be set for
 772:../../../libs/smtc-hal-mcu-stm32l4/third_party/STM32CubeL4/Drivers/STM32L4xx_HAL_Driver/Inc/stm32l4xx_ll_exti.h ****   *       the same interrupt line. In this case, both generate a trigger
 773:../../../libs/smtc-hal-mcu-stm32l4/third_party/STM32CubeL4/Drivers/STM32L4xx_HAL_Driver/Inc/stm32l4xx_ll_exti.h ****   *       condition.
 774:../../../libs/smtc-hal-mcu-stm32l4/third_party/STM32CubeL4/Drivers/STM32L4xx_HAL_Driver/Inc/stm32l4xx_ll_exti.h ****   * @rmtoll RTSR1        RTx           LL_EXTI_DisableRisingTrig_0_31
 775:../../../libs/smtc-hal-mcu-stm32l4/third_party/STM32CubeL4/Drivers/STM32L4xx_HAL_Driver/Inc/stm32l4xx_ll_exti.h ****   * @param  ExtiLine This parameter can be a combination of the following values:
 776:../../../libs/smtc-hal-mcu-stm32l4/third_party/STM32CubeL4/Drivers/STM32L4xx_HAL_Driver/Inc/stm32l4xx_ll_exti.h ****   *         @arg @ref LL_EXTI_LINE_0
 777:../../../libs/smtc-hal-mcu-stm32l4/third_party/STM32CubeL4/Drivers/STM32L4xx_HAL_Driver/Inc/stm32l4xx_ll_exti.h ****   *         @arg @ref LL_EXTI_LINE_1
 778:../../../libs/smtc-hal-mcu-stm32l4/third_party/STM32CubeL4/Drivers/STM32L4xx_HAL_Driver/Inc/stm32l4xx_ll_exti.h ****   *         @arg @ref LL_EXTI_LINE_2
 779:../../../libs/smtc-hal-mcu-stm32l4/third_party/STM32CubeL4/Drivers/STM32L4xx_HAL_Driver/Inc/stm32l4xx_ll_exti.h ****   *         @arg @ref LL_EXTI_LINE_3
 780:../../../libs/smtc-hal-mcu-stm32l4/third_party/STM32CubeL4/Drivers/STM32L4xx_HAL_Driver/Inc/stm32l4xx_ll_exti.h ****   *         @arg @ref LL_EXTI_LINE_4
ARM GAS  C:\msys64\tmp\cczBzbSO.s 			page 24


 781:../../../libs/smtc-hal-mcu-stm32l4/third_party/STM32CubeL4/Drivers/STM32L4xx_HAL_Driver/Inc/stm32l4xx_ll_exti.h ****   *         @arg @ref LL_EXTI_LINE_5
 782:../../../libs/smtc-hal-mcu-stm32l4/third_party/STM32CubeL4/Drivers/STM32L4xx_HAL_Driver/Inc/stm32l4xx_ll_exti.h ****   *         @arg @ref LL_EXTI_LINE_6
 783:../../../libs/smtc-hal-mcu-stm32l4/third_party/STM32CubeL4/Drivers/STM32L4xx_HAL_Driver/Inc/stm32l4xx_ll_exti.h ****   *         @arg @ref LL_EXTI_LINE_7
 784:../../../libs/smtc-hal-mcu-stm32l4/third_party/STM32CubeL4/Drivers/STM32L4xx_HAL_Driver/Inc/stm32l4xx_ll_exti.h ****   *         @arg @ref LL_EXTI_LINE_8
 785:../../../libs/smtc-hal-mcu-stm32l4/third_party/STM32CubeL4/Drivers/STM32L4xx_HAL_Driver/Inc/stm32l4xx_ll_exti.h ****   *         @arg @ref LL_EXTI_LINE_9
 786:../../../libs/smtc-hal-mcu-stm32l4/third_party/STM32CubeL4/Drivers/STM32L4xx_HAL_Driver/Inc/stm32l4xx_ll_exti.h ****   *         @arg @ref LL_EXTI_LINE_10
 787:../../../libs/smtc-hal-mcu-stm32l4/third_party/STM32CubeL4/Drivers/STM32L4xx_HAL_Driver/Inc/stm32l4xx_ll_exti.h ****   *         @arg @ref LL_EXTI_LINE_11
 788:../../../libs/smtc-hal-mcu-stm32l4/third_party/STM32CubeL4/Drivers/STM32L4xx_HAL_Driver/Inc/stm32l4xx_ll_exti.h ****   *         @arg @ref LL_EXTI_LINE_12
 789:../../../libs/smtc-hal-mcu-stm32l4/third_party/STM32CubeL4/Drivers/STM32L4xx_HAL_Driver/Inc/stm32l4xx_ll_exti.h ****   *         @arg @ref LL_EXTI_LINE_13
 790:../../../libs/smtc-hal-mcu-stm32l4/third_party/STM32CubeL4/Drivers/STM32L4xx_HAL_Driver/Inc/stm32l4xx_ll_exti.h ****   *         @arg @ref LL_EXTI_LINE_14
 791:../../../libs/smtc-hal-mcu-stm32l4/third_party/STM32CubeL4/Drivers/STM32L4xx_HAL_Driver/Inc/stm32l4xx_ll_exti.h ****   *         @arg @ref LL_EXTI_LINE_15
 792:../../../libs/smtc-hal-mcu-stm32l4/third_party/STM32CubeL4/Drivers/STM32L4xx_HAL_Driver/Inc/stm32l4xx_ll_exti.h ****   *         @arg @ref LL_EXTI_LINE_16
 793:../../../libs/smtc-hal-mcu-stm32l4/third_party/STM32CubeL4/Drivers/STM32L4xx_HAL_Driver/Inc/stm32l4xx_ll_exti.h ****   *         @arg @ref LL_EXTI_LINE_18
 794:../../../libs/smtc-hal-mcu-stm32l4/third_party/STM32CubeL4/Drivers/STM32L4xx_HAL_Driver/Inc/stm32l4xx_ll_exti.h ****   *         @arg @ref LL_EXTI_LINE_19
 795:../../../libs/smtc-hal-mcu-stm32l4/third_party/STM32CubeL4/Drivers/STM32L4xx_HAL_Driver/Inc/stm32l4xx_ll_exti.h ****   *         @arg @ref LL_EXTI_LINE_20
 796:../../../libs/smtc-hal-mcu-stm32l4/third_party/STM32CubeL4/Drivers/STM32L4xx_HAL_Driver/Inc/stm32l4xx_ll_exti.h ****   *         @arg @ref LL_EXTI_LINE_21
 797:../../../libs/smtc-hal-mcu-stm32l4/third_party/STM32CubeL4/Drivers/STM32L4xx_HAL_Driver/Inc/stm32l4xx_ll_exti.h ****   *         @arg @ref LL_EXTI_LINE_22
 798:../../../libs/smtc-hal-mcu-stm32l4/third_party/STM32CubeL4/Drivers/STM32L4xx_HAL_Driver/Inc/stm32l4xx_ll_exti.h ****   *         @arg @ref LL_EXTI_LINE_29
 799:../../../libs/smtc-hal-mcu-stm32l4/third_party/STM32CubeL4/Drivers/STM32L4xx_HAL_Driver/Inc/stm32l4xx_ll_exti.h ****   *         @arg @ref LL_EXTI_LINE_30
 800:../../../libs/smtc-hal-mcu-stm32l4/third_party/STM32CubeL4/Drivers/STM32L4xx_HAL_Driver/Inc/stm32l4xx_ll_exti.h ****   *         @arg @ref LL_EXTI_LINE_31
 801:../../../libs/smtc-hal-mcu-stm32l4/third_party/STM32CubeL4/Drivers/STM32L4xx_HAL_Driver/Inc/stm32l4xx_ll_exti.h ****   * @note   Please check each device line mapping for EXTI Line availability
 802:../../../libs/smtc-hal-mcu-stm32l4/third_party/STM32CubeL4/Drivers/STM32L4xx_HAL_Driver/Inc/stm32l4xx_ll_exti.h ****   * @retval None
 803:../../../libs/smtc-hal-mcu-stm32l4/third_party/STM32CubeL4/Drivers/STM32L4xx_HAL_Driver/Inc/stm32l4xx_ll_exti.h ****   */
 804:../../../libs/smtc-hal-mcu-stm32l4/third_party/STM32CubeL4/Drivers/STM32L4xx_HAL_Driver/Inc/stm32l4xx_ll_exti.h **** __STATIC_INLINE void LL_EXTI_DisableRisingTrig_0_31(uint32_t ExtiLine)
 805:../../../libs/smtc-hal-mcu-stm32l4/third_party/STM32CubeL4/Drivers/STM32L4xx_HAL_Driver/Inc/stm32l4xx_ll_exti.h **** {
 553              		.loc 2 805 1
 554              		.cfi_startproc
 555              		@ args = 0, pretend = 0, frame = 8
 556              		@ frame_needed = 1, uses_anonymous_args = 0
 557              		@ link register save eliminated.
 558 0000 80B4     		push	{r7}
 559              	.LCFI60:
 560              		.cfi_def_cfa_offset 4
 561              		.cfi_offset 7, -4
 562 0002 83B0     		sub	sp, sp, #12
 563              	.LCFI61:
 564              		.cfi_def_cfa_offset 16
 565 0004 00AF     		add	r7, sp, #0
 566              	.LCFI62:
 567              		.cfi_def_cfa_register 7
 568 0006 7860     		str	r0, [r7, #4]
 806:../../../libs/smtc-hal-mcu-stm32l4/third_party/STM32CubeL4/Drivers/STM32L4xx_HAL_Driver/Inc/stm32l4xx_ll_exti.h ****   CLEAR_BIT(EXTI->RTSR1, ExtiLine);
 569              		.loc 2 806 3
 570 0008 064B     		ldr	r3, .L32
 571 000a 9A68     		ldr	r2, [r3, #8]
 572 000c 7B68     		ldr	r3, [r7, #4]
 573 000e DB43     		mvns	r3, r3
 574 0010 0449     		ldr	r1, .L32
 575 0012 1340     		ands	r3, r3, r2
 576 0014 8B60     		str	r3, [r1, #8]
 807:../../../libs/smtc-hal-mcu-stm32l4/third_party/STM32CubeL4/Drivers/STM32L4xx_HAL_Driver/Inc/stm32l4xx_ll_exti.h **** 
 808:../../../libs/smtc-hal-mcu-stm32l4/third_party/STM32CubeL4/Drivers/STM32L4xx_HAL_Driver/Inc/stm32l4xx_ll_exti.h **** }
 577              		.loc 2 808 1
 578 0016 00BF     		nop
 579 0018 0C37     		adds	r7, r7, #12
 580              	.LCFI63:
 581              		.cfi_def_cfa_offset 4
ARM GAS  C:\msys64\tmp\cczBzbSO.s 			page 25


 582 001a BD46     		mov	sp, r7
 583              	.LCFI64:
 584              		.cfi_def_cfa_register 13
 585              		@ sp needed
 586 001c 5DF8047B 		ldr	r7, [sp], #4
 587              	.LCFI65:
 588              		.cfi_restore 7
 589              		.cfi_def_cfa_offset 0
 590 0020 7047     		bx	lr
 591              	.L33:
 592 0022 00BF     		.align	2
 593              	.L32:
 594 0024 00040140 		.word	1073808384
 595              		.cfi_endproc
 596              	.LFE146:
 598              		.section	.text.LL_EXTI_DisableRisingTrig_32_63,"ax",%progbits
 599              		.align	1
 600              		.syntax unified
 601              		.thumb
 602              		.thumb_func
 604              	LL_EXTI_DisableRisingTrig_32_63:
 605              	.LFB147:
 809:../../../libs/smtc-hal-mcu-stm32l4/third_party/STM32CubeL4/Drivers/STM32L4xx_HAL_Driver/Inc/stm32l4xx_ll_exti.h **** 
 810:../../../libs/smtc-hal-mcu-stm32l4/third_party/STM32CubeL4/Drivers/STM32L4xx_HAL_Driver/Inc/stm32l4xx_ll_exti.h **** /**
 811:../../../libs/smtc-hal-mcu-stm32l4/third_party/STM32CubeL4/Drivers/STM32L4xx_HAL_Driver/Inc/stm32l4xx_ll_exti.h ****   * @brief  Disable ExtiLine Rising Edge Trigger for Lines in range 32 to 63
 812:../../../libs/smtc-hal-mcu-stm32l4/third_party/STM32CubeL4/Drivers/STM32L4xx_HAL_Driver/Inc/stm32l4xx_ll_exti.h ****   * @note The configurable wakeup lines are edge-triggered. No glitch must be
 813:../../../libs/smtc-hal-mcu-stm32l4/third_party/STM32CubeL4/Drivers/STM32L4xx_HAL_Driver/Inc/stm32l4xx_ll_exti.h ****   *       generated on these lines. If a rising edge on a configurable interrupt
 814:../../../libs/smtc-hal-mcu-stm32l4/third_party/STM32CubeL4/Drivers/STM32L4xx_HAL_Driver/Inc/stm32l4xx_ll_exti.h ****   *       line occurs during a write operation in the EXTI_RTSR register, the
 815:../../../libs/smtc-hal-mcu-stm32l4/third_party/STM32CubeL4/Drivers/STM32L4xx_HAL_Driver/Inc/stm32l4xx_ll_exti.h ****   *       pending bit is not set.
 816:../../../libs/smtc-hal-mcu-stm32l4/third_party/STM32CubeL4/Drivers/STM32L4xx_HAL_Driver/Inc/stm32l4xx_ll_exti.h ****   *       Rising and falling edge triggers can be set for
 817:../../../libs/smtc-hal-mcu-stm32l4/third_party/STM32CubeL4/Drivers/STM32L4xx_HAL_Driver/Inc/stm32l4xx_ll_exti.h ****   *       the same interrupt line. In this case, both generate a trigger
 818:../../../libs/smtc-hal-mcu-stm32l4/third_party/STM32CubeL4/Drivers/STM32L4xx_HAL_Driver/Inc/stm32l4xx_ll_exti.h ****   *       condition.
 819:../../../libs/smtc-hal-mcu-stm32l4/third_party/STM32CubeL4/Drivers/STM32L4xx_HAL_Driver/Inc/stm32l4xx_ll_exti.h ****   * @rmtoll RTSR2        RTx           LL_EXTI_DisableRisingTrig_32_63
 820:../../../libs/smtc-hal-mcu-stm32l4/third_party/STM32CubeL4/Drivers/STM32L4xx_HAL_Driver/Inc/stm32l4xx_ll_exti.h ****   * @param  ExtiLine This parameter can be a combination of the following values:
 821:../../../libs/smtc-hal-mcu-stm32l4/third_party/STM32CubeL4/Drivers/STM32L4xx_HAL_Driver/Inc/stm32l4xx_ll_exti.h ****   *         @arg @ref LL_EXTI_LINE_35
 822:../../../libs/smtc-hal-mcu-stm32l4/third_party/STM32CubeL4/Drivers/STM32L4xx_HAL_Driver/Inc/stm32l4xx_ll_exti.h ****   *         @arg @ref LL_EXTI_LINE_36
 823:../../../libs/smtc-hal-mcu-stm32l4/third_party/STM32CubeL4/Drivers/STM32L4xx_HAL_Driver/Inc/stm32l4xx_ll_exti.h ****   *         @arg @ref LL_EXTI_LINE_37
 824:../../../libs/smtc-hal-mcu-stm32l4/third_party/STM32CubeL4/Drivers/STM32L4xx_HAL_Driver/Inc/stm32l4xx_ll_exti.h ****   *         @arg @ref LL_EXTI_LINE_38
 825:../../../libs/smtc-hal-mcu-stm32l4/third_party/STM32CubeL4/Drivers/STM32L4xx_HAL_Driver/Inc/stm32l4xx_ll_exti.h ****   * @retval None
 826:../../../libs/smtc-hal-mcu-stm32l4/third_party/STM32CubeL4/Drivers/STM32L4xx_HAL_Driver/Inc/stm32l4xx_ll_exti.h ****   */
 827:../../../libs/smtc-hal-mcu-stm32l4/third_party/STM32CubeL4/Drivers/STM32L4xx_HAL_Driver/Inc/stm32l4xx_ll_exti.h **** __STATIC_INLINE void LL_EXTI_DisableRisingTrig_32_63(uint32_t ExtiLine)
 828:../../../libs/smtc-hal-mcu-stm32l4/third_party/STM32CubeL4/Drivers/STM32L4xx_HAL_Driver/Inc/stm32l4xx_ll_exti.h **** {
 606              		.loc 2 828 1
 607              		.cfi_startproc
 608              		@ args = 0, pretend = 0, frame = 8
 609              		@ frame_needed = 1, uses_anonymous_args = 0
 610              		@ link register save eliminated.
 611 0000 80B4     		push	{r7}
 612              	.LCFI66:
 613              		.cfi_def_cfa_offset 4
 614              		.cfi_offset 7, -4
 615 0002 83B0     		sub	sp, sp, #12
 616              	.LCFI67:
 617              		.cfi_def_cfa_offset 16
 618 0004 00AF     		add	r7, sp, #0
 619              	.LCFI68:
 620              		.cfi_def_cfa_register 7
ARM GAS  C:\msys64\tmp\cczBzbSO.s 			page 26


 621 0006 7860     		str	r0, [r7, #4]
 829:../../../libs/smtc-hal-mcu-stm32l4/third_party/STM32CubeL4/Drivers/STM32L4xx_HAL_Driver/Inc/stm32l4xx_ll_exti.h ****   CLEAR_BIT(EXTI->RTSR2, ExtiLine);
 622              		.loc 2 829 3
 623 0008 064B     		ldr	r3, .L35
 624 000a 9A6A     		ldr	r2, [r3, #40]
 625 000c 7B68     		ldr	r3, [r7, #4]
 626 000e DB43     		mvns	r3, r3
 627 0010 0449     		ldr	r1, .L35
 628 0012 1340     		ands	r3, r3, r2
 629 0014 8B62     		str	r3, [r1, #40]
 830:../../../libs/smtc-hal-mcu-stm32l4/third_party/STM32CubeL4/Drivers/STM32L4xx_HAL_Driver/Inc/stm32l4xx_ll_exti.h **** }
 630              		.loc 2 830 1
 631 0016 00BF     		nop
 632 0018 0C37     		adds	r7, r7, #12
 633              	.LCFI69:
 634              		.cfi_def_cfa_offset 4
 635 001a BD46     		mov	sp, r7
 636              	.LCFI70:
 637              		.cfi_def_cfa_register 13
 638              		@ sp needed
 639 001c 5DF8047B 		ldr	r7, [sp], #4
 640              	.LCFI71:
 641              		.cfi_restore 7
 642              		.cfi_def_cfa_offset 0
 643 0020 7047     		bx	lr
 644              	.L36:
 645 0022 00BF     		.align	2
 646              	.L35:
 647 0024 00040140 		.word	1073808384
 648              		.cfi_endproc
 649              	.LFE147:
 651              		.section	.text.LL_EXTI_EnableFallingTrig_0_31,"ax",%progbits
 652              		.align	1
 653              		.syntax unified
 654              		.thumb
 655              		.thumb_func
 657              	LL_EXTI_EnableFallingTrig_0_31:
 658              	.LFB150:
 831:../../../libs/smtc-hal-mcu-stm32l4/third_party/STM32CubeL4/Drivers/STM32L4xx_HAL_Driver/Inc/stm32l4xx_ll_exti.h **** 
 832:../../../libs/smtc-hal-mcu-stm32l4/third_party/STM32CubeL4/Drivers/STM32L4xx_HAL_Driver/Inc/stm32l4xx_ll_exti.h **** /**
 833:../../../libs/smtc-hal-mcu-stm32l4/third_party/STM32CubeL4/Drivers/STM32L4xx_HAL_Driver/Inc/stm32l4xx_ll_exti.h ****   * @brief  Check if rising edge trigger is enabled for Lines in range 0 to 31
 834:../../../libs/smtc-hal-mcu-stm32l4/third_party/STM32CubeL4/Drivers/STM32L4xx_HAL_Driver/Inc/stm32l4xx_ll_exti.h ****   * @rmtoll RTSR1        RTx           LL_EXTI_IsEnabledRisingTrig_0_31
 835:../../../libs/smtc-hal-mcu-stm32l4/third_party/STM32CubeL4/Drivers/STM32L4xx_HAL_Driver/Inc/stm32l4xx_ll_exti.h ****   * @param  ExtiLine This parameter can be a combination of the following values:
 836:../../../libs/smtc-hal-mcu-stm32l4/third_party/STM32CubeL4/Drivers/STM32L4xx_HAL_Driver/Inc/stm32l4xx_ll_exti.h ****   *         @arg @ref LL_EXTI_LINE_0
 837:../../../libs/smtc-hal-mcu-stm32l4/third_party/STM32CubeL4/Drivers/STM32L4xx_HAL_Driver/Inc/stm32l4xx_ll_exti.h ****   *         @arg @ref LL_EXTI_LINE_1
 838:../../../libs/smtc-hal-mcu-stm32l4/third_party/STM32CubeL4/Drivers/STM32L4xx_HAL_Driver/Inc/stm32l4xx_ll_exti.h ****   *         @arg @ref LL_EXTI_LINE_2
 839:../../../libs/smtc-hal-mcu-stm32l4/third_party/STM32CubeL4/Drivers/STM32L4xx_HAL_Driver/Inc/stm32l4xx_ll_exti.h ****   *         @arg @ref LL_EXTI_LINE_3
 840:../../../libs/smtc-hal-mcu-stm32l4/third_party/STM32CubeL4/Drivers/STM32L4xx_HAL_Driver/Inc/stm32l4xx_ll_exti.h ****   *         @arg @ref LL_EXTI_LINE_4
 841:../../../libs/smtc-hal-mcu-stm32l4/third_party/STM32CubeL4/Drivers/STM32L4xx_HAL_Driver/Inc/stm32l4xx_ll_exti.h ****   *         @arg @ref LL_EXTI_LINE_5
 842:../../../libs/smtc-hal-mcu-stm32l4/third_party/STM32CubeL4/Drivers/STM32L4xx_HAL_Driver/Inc/stm32l4xx_ll_exti.h ****   *         @arg @ref LL_EXTI_LINE_6
 843:../../../libs/smtc-hal-mcu-stm32l4/third_party/STM32CubeL4/Drivers/STM32L4xx_HAL_Driver/Inc/stm32l4xx_ll_exti.h ****   *         @arg @ref LL_EXTI_LINE_7
 844:../../../libs/smtc-hal-mcu-stm32l4/third_party/STM32CubeL4/Drivers/STM32L4xx_HAL_Driver/Inc/stm32l4xx_ll_exti.h ****   *         @arg @ref LL_EXTI_LINE_8
 845:../../../libs/smtc-hal-mcu-stm32l4/third_party/STM32CubeL4/Drivers/STM32L4xx_HAL_Driver/Inc/stm32l4xx_ll_exti.h ****   *         @arg @ref LL_EXTI_LINE_9
 846:../../../libs/smtc-hal-mcu-stm32l4/third_party/STM32CubeL4/Drivers/STM32L4xx_HAL_Driver/Inc/stm32l4xx_ll_exti.h ****   *         @arg @ref LL_EXTI_LINE_10
 847:../../../libs/smtc-hal-mcu-stm32l4/third_party/STM32CubeL4/Drivers/STM32L4xx_HAL_Driver/Inc/stm32l4xx_ll_exti.h ****   *         @arg @ref LL_EXTI_LINE_11
 848:../../../libs/smtc-hal-mcu-stm32l4/third_party/STM32CubeL4/Drivers/STM32L4xx_HAL_Driver/Inc/stm32l4xx_ll_exti.h ****   *         @arg @ref LL_EXTI_LINE_12
 849:../../../libs/smtc-hal-mcu-stm32l4/third_party/STM32CubeL4/Drivers/STM32L4xx_HAL_Driver/Inc/stm32l4xx_ll_exti.h ****   *         @arg @ref LL_EXTI_LINE_13
ARM GAS  C:\msys64\tmp\cczBzbSO.s 			page 27


 850:../../../libs/smtc-hal-mcu-stm32l4/third_party/STM32CubeL4/Drivers/STM32L4xx_HAL_Driver/Inc/stm32l4xx_ll_exti.h ****   *         @arg @ref LL_EXTI_LINE_14
 851:../../../libs/smtc-hal-mcu-stm32l4/third_party/STM32CubeL4/Drivers/STM32L4xx_HAL_Driver/Inc/stm32l4xx_ll_exti.h ****   *         @arg @ref LL_EXTI_LINE_15
 852:../../../libs/smtc-hal-mcu-stm32l4/third_party/STM32CubeL4/Drivers/STM32L4xx_HAL_Driver/Inc/stm32l4xx_ll_exti.h ****   *         @arg @ref LL_EXTI_LINE_16
 853:../../../libs/smtc-hal-mcu-stm32l4/third_party/STM32CubeL4/Drivers/STM32L4xx_HAL_Driver/Inc/stm32l4xx_ll_exti.h ****   *         @arg @ref LL_EXTI_LINE_18
 854:../../../libs/smtc-hal-mcu-stm32l4/third_party/STM32CubeL4/Drivers/STM32L4xx_HAL_Driver/Inc/stm32l4xx_ll_exti.h ****   *         @arg @ref LL_EXTI_LINE_19
 855:../../../libs/smtc-hal-mcu-stm32l4/third_party/STM32CubeL4/Drivers/STM32L4xx_HAL_Driver/Inc/stm32l4xx_ll_exti.h ****   *         @arg @ref LL_EXTI_LINE_20
 856:../../../libs/smtc-hal-mcu-stm32l4/third_party/STM32CubeL4/Drivers/STM32L4xx_HAL_Driver/Inc/stm32l4xx_ll_exti.h ****   *         @arg @ref LL_EXTI_LINE_21
 857:../../../libs/smtc-hal-mcu-stm32l4/third_party/STM32CubeL4/Drivers/STM32L4xx_HAL_Driver/Inc/stm32l4xx_ll_exti.h ****   *         @arg @ref LL_EXTI_LINE_22
 858:../../../libs/smtc-hal-mcu-stm32l4/third_party/STM32CubeL4/Drivers/STM32L4xx_HAL_Driver/Inc/stm32l4xx_ll_exti.h ****   *         @arg @ref LL_EXTI_LINE_29
 859:../../../libs/smtc-hal-mcu-stm32l4/third_party/STM32CubeL4/Drivers/STM32L4xx_HAL_Driver/Inc/stm32l4xx_ll_exti.h ****   *         @arg @ref LL_EXTI_LINE_30
 860:../../../libs/smtc-hal-mcu-stm32l4/third_party/STM32CubeL4/Drivers/STM32L4xx_HAL_Driver/Inc/stm32l4xx_ll_exti.h ****   *         @arg @ref LL_EXTI_LINE_31
 861:../../../libs/smtc-hal-mcu-stm32l4/third_party/STM32CubeL4/Drivers/STM32L4xx_HAL_Driver/Inc/stm32l4xx_ll_exti.h ****   * @note   Please check each device line mapping for EXTI Line availability
 862:../../../libs/smtc-hal-mcu-stm32l4/third_party/STM32CubeL4/Drivers/STM32L4xx_HAL_Driver/Inc/stm32l4xx_ll_exti.h ****   * @retval State of bit (1 or 0).
 863:../../../libs/smtc-hal-mcu-stm32l4/third_party/STM32CubeL4/Drivers/STM32L4xx_HAL_Driver/Inc/stm32l4xx_ll_exti.h ****   */
 864:../../../libs/smtc-hal-mcu-stm32l4/third_party/STM32CubeL4/Drivers/STM32L4xx_HAL_Driver/Inc/stm32l4xx_ll_exti.h **** __STATIC_INLINE uint32_t LL_EXTI_IsEnabledRisingTrig_0_31(uint32_t ExtiLine)
 865:../../../libs/smtc-hal-mcu-stm32l4/third_party/STM32CubeL4/Drivers/STM32L4xx_HAL_Driver/Inc/stm32l4xx_ll_exti.h **** {
 866:../../../libs/smtc-hal-mcu-stm32l4/third_party/STM32CubeL4/Drivers/STM32L4xx_HAL_Driver/Inc/stm32l4xx_ll_exti.h ****   return ((READ_BIT(EXTI->RTSR1, ExtiLine) == (ExtiLine)) ? 1UL : 0UL);
 867:../../../libs/smtc-hal-mcu-stm32l4/third_party/STM32CubeL4/Drivers/STM32L4xx_HAL_Driver/Inc/stm32l4xx_ll_exti.h **** }
 868:../../../libs/smtc-hal-mcu-stm32l4/third_party/STM32CubeL4/Drivers/STM32L4xx_HAL_Driver/Inc/stm32l4xx_ll_exti.h **** 
 869:../../../libs/smtc-hal-mcu-stm32l4/third_party/STM32CubeL4/Drivers/STM32L4xx_HAL_Driver/Inc/stm32l4xx_ll_exti.h **** /**
 870:../../../libs/smtc-hal-mcu-stm32l4/third_party/STM32CubeL4/Drivers/STM32L4xx_HAL_Driver/Inc/stm32l4xx_ll_exti.h ****   * @brief  Check if rising edge trigger is enabled for Lines in range 32 to 63
 871:../../../libs/smtc-hal-mcu-stm32l4/third_party/STM32CubeL4/Drivers/STM32L4xx_HAL_Driver/Inc/stm32l4xx_ll_exti.h ****   * @rmtoll RTSR2        RTx           LL_EXTI_IsEnabledRisingTrig_32_63
 872:../../../libs/smtc-hal-mcu-stm32l4/third_party/STM32CubeL4/Drivers/STM32L4xx_HAL_Driver/Inc/stm32l4xx_ll_exti.h ****   * @param  ExtiLine This parameter can be a combination of the following values:
 873:../../../libs/smtc-hal-mcu-stm32l4/third_party/STM32CubeL4/Drivers/STM32L4xx_HAL_Driver/Inc/stm32l4xx_ll_exti.h ****   *         @arg @ref LL_EXTI_LINE_35
 874:../../../libs/smtc-hal-mcu-stm32l4/third_party/STM32CubeL4/Drivers/STM32L4xx_HAL_Driver/Inc/stm32l4xx_ll_exti.h ****   *         @arg @ref LL_EXTI_LINE_36
 875:../../../libs/smtc-hal-mcu-stm32l4/third_party/STM32CubeL4/Drivers/STM32L4xx_HAL_Driver/Inc/stm32l4xx_ll_exti.h ****   *         @arg @ref LL_EXTI_LINE_37
 876:../../../libs/smtc-hal-mcu-stm32l4/third_party/STM32CubeL4/Drivers/STM32L4xx_HAL_Driver/Inc/stm32l4xx_ll_exti.h ****   *         @arg @ref LL_EXTI_LINE_38
 877:../../../libs/smtc-hal-mcu-stm32l4/third_party/STM32CubeL4/Drivers/STM32L4xx_HAL_Driver/Inc/stm32l4xx_ll_exti.h ****   * @retval State of bit (1 or 0).
 878:../../../libs/smtc-hal-mcu-stm32l4/third_party/STM32CubeL4/Drivers/STM32L4xx_HAL_Driver/Inc/stm32l4xx_ll_exti.h ****   */
 879:../../../libs/smtc-hal-mcu-stm32l4/third_party/STM32CubeL4/Drivers/STM32L4xx_HAL_Driver/Inc/stm32l4xx_ll_exti.h **** __STATIC_INLINE uint32_t LL_EXTI_IsEnabledRisingTrig_32_63(uint32_t ExtiLine)
 880:../../../libs/smtc-hal-mcu-stm32l4/third_party/STM32CubeL4/Drivers/STM32L4xx_HAL_Driver/Inc/stm32l4xx_ll_exti.h **** {
 881:../../../libs/smtc-hal-mcu-stm32l4/third_party/STM32CubeL4/Drivers/STM32L4xx_HAL_Driver/Inc/stm32l4xx_ll_exti.h ****   return ((READ_BIT(EXTI->RTSR2, ExtiLine) == (ExtiLine)) ? 1UL : 0UL);
 882:../../../libs/smtc-hal-mcu-stm32l4/third_party/STM32CubeL4/Drivers/STM32L4xx_HAL_Driver/Inc/stm32l4xx_ll_exti.h **** }
 883:../../../libs/smtc-hal-mcu-stm32l4/third_party/STM32CubeL4/Drivers/STM32L4xx_HAL_Driver/Inc/stm32l4xx_ll_exti.h **** 
 884:../../../libs/smtc-hal-mcu-stm32l4/third_party/STM32CubeL4/Drivers/STM32L4xx_HAL_Driver/Inc/stm32l4xx_ll_exti.h **** /**
 885:../../../libs/smtc-hal-mcu-stm32l4/third_party/STM32CubeL4/Drivers/STM32L4xx_HAL_Driver/Inc/stm32l4xx_ll_exti.h ****   * @}
 886:../../../libs/smtc-hal-mcu-stm32l4/third_party/STM32CubeL4/Drivers/STM32L4xx_HAL_Driver/Inc/stm32l4xx_ll_exti.h ****   */
 887:../../../libs/smtc-hal-mcu-stm32l4/third_party/STM32CubeL4/Drivers/STM32L4xx_HAL_Driver/Inc/stm32l4xx_ll_exti.h **** 
 888:../../../libs/smtc-hal-mcu-stm32l4/third_party/STM32CubeL4/Drivers/STM32L4xx_HAL_Driver/Inc/stm32l4xx_ll_exti.h **** /** @defgroup EXTI_LL_EF_Falling_Trigger_Management Falling_Trigger_Management
 889:../../../libs/smtc-hal-mcu-stm32l4/third_party/STM32CubeL4/Drivers/STM32L4xx_HAL_Driver/Inc/stm32l4xx_ll_exti.h ****   * @{
 890:../../../libs/smtc-hal-mcu-stm32l4/third_party/STM32CubeL4/Drivers/STM32L4xx_HAL_Driver/Inc/stm32l4xx_ll_exti.h ****   */
 891:../../../libs/smtc-hal-mcu-stm32l4/third_party/STM32CubeL4/Drivers/STM32L4xx_HAL_Driver/Inc/stm32l4xx_ll_exti.h **** 
 892:../../../libs/smtc-hal-mcu-stm32l4/third_party/STM32CubeL4/Drivers/STM32L4xx_HAL_Driver/Inc/stm32l4xx_ll_exti.h **** /**
 893:../../../libs/smtc-hal-mcu-stm32l4/third_party/STM32CubeL4/Drivers/STM32L4xx_HAL_Driver/Inc/stm32l4xx_ll_exti.h ****   * @brief  Enable ExtiLine Falling Edge Trigger for Lines in range 0 to 31
 894:../../../libs/smtc-hal-mcu-stm32l4/third_party/STM32CubeL4/Drivers/STM32L4xx_HAL_Driver/Inc/stm32l4xx_ll_exti.h ****   * @note The configurable wakeup lines are edge-triggered. No glitch must be
 895:../../../libs/smtc-hal-mcu-stm32l4/third_party/STM32CubeL4/Drivers/STM32L4xx_HAL_Driver/Inc/stm32l4xx_ll_exti.h ****   *       generated on these lines. If a falling edge on a configurable interrupt
 896:../../../libs/smtc-hal-mcu-stm32l4/third_party/STM32CubeL4/Drivers/STM32L4xx_HAL_Driver/Inc/stm32l4xx_ll_exti.h ****   *       line occurs during a write operation in the EXTI_FTSR register, the
 897:../../../libs/smtc-hal-mcu-stm32l4/third_party/STM32CubeL4/Drivers/STM32L4xx_HAL_Driver/Inc/stm32l4xx_ll_exti.h ****   *       pending bit is not set.
 898:../../../libs/smtc-hal-mcu-stm32l4/third_party/STM32CubeL4/Drivers/STM32L4xx_HAL_Driver/Inc/stm32l4xx_ll_exti.h ****   *       Rising and falling edge triggers can be set for
 899:../../../libs/smtc-hal-mcu-stm32l4/third_party/STM32CubeL4/Drivers/STM32L4xx_HAL_Driver/Inc/stm32l4xx_ll_exti.h ****   *       the same interrupt line. In this case, both generate a trigger
 900:../../../libs/smtc-hal-mcu-stm32l4/third_party/STM32CubeL4/Drivers/STM32L4xx_HAL_Driver/Inc/stm32l4xx_ll_exti.h ****   *       condition.
 901:../../../libs/smtc-hal-mcu-stm32l4/third_party/STM32CubeL4/Drivers/STM32L4xx_HAL_Driver/Inc/stm32l4xx_ll_exti.h ****   * @rmtoll FTSR1        FTx           LL_EXTI_EnableFallingTrig_0_31
 902:../../../libs/smtc-hal-mcu-stm32l4/third_party/STM32CubeL4/Drivers/STM32L4xx_HAL_Driver/Inc/stm32l4xx_ll_exti.h ****   * @param  ExtiLine This parameter can be a combination of the following values:
 903:../../../libs/smtc-hal-mcu-stm32l4/third_party/STM32CubeL4/Drivers/STM32L4xx_HAL_Driver/Inc/stm32l4xx_ll_exti.h ****   *         @arg @ref LL_EXTI_LINE_0
 904:../../../libs/smtc-hal-mcu-stm32l4/third_party/STM32CubeL4/Drivers/STM32L4xx_HAL_Driver/Inc/stm32l4xx_ll_exti.h ****   *         @arg @ref LL_EXTI_LINE_1
 905:../../../libs/smtc-hal-mcu-stm32l4/third_party/STM32CubeL4/Drivers/STM32L4xx_HAL_Driver/Inc/stm32l4xx_ll_exti.h ****   *         @arg @ref LL_EXTI_LINE_2
 906:../../../libs/smtc-hal-mcu-stm32l4/third_party/STM32CubeL4/Drivers/STM32L4xx_HAL_Driver/Inc/stm32l4xx_ll_exti.h ****   *         @arg @ref LL_EXTI_LINE_3
ARM GAS  C:\msys64\tmp\cczBzbSO.s 			page 28


 907:../../../libs/smtc-hal-mcu-stm32l4/third_party/STM32CubeL4/Drivers/STM32L4xx_HAL_Driver/Inc/stm32l4xx_ll_exti.h ****   *         @arg @ref LL_EXTI_LINE_4
 908:../../../libs/smtc-hal-mcu-stm32l4/third_party/STM32CubeL4/Drivers/STM32L4xx_HAL_Driver/Inc/stm32l4xx_ll_exti.h ****   *         @arg @ref LL_EXTI_LINE_5
 909:../../../libs/smtc-hal-mcu-stm32l4/third_party/STM32CubeL4/Drivers/STM32L4xx_HAL_Driver/Inc/stm32l4xx_ll_exti.h ****   *         @arg @ref LL_EXTI_LINE_6
 910:../../../libs/smtc-hal-mcu-stm32l4/third_party/STM32CubeL4/Drivers/STM32L4xx_HAL_Driver/Inc/stm32l4xx_ll_exti.h ****   *         @arg @ref LL_EXTI_LINE_7
 911:../../../libs/smtc-hal-mcu-stm32l4/third_party/STM32CubeL4/Drivers/STM32L4xx_HAL_Driver/Inc/stm32l4xx_ll_exti.h ****   *         @arg @ref LL_EXTI_LINE_8
 912:../../../libs/smtc-hal-mcu-stm32l4/third_party/STM32CubeL4/Drivers/STM32L4xx_HAL_Driver/Inc/stm32l4xx_ll_exti.h ****   *         @arg @ref LL_EXTI_LINE_9
 913:../../../libs/smtc-hal-mcu-stm32l4/third_party/STM32CubeL4/Drivers/STM32L4xx_HAL_Driver/Inc/stm32l4xx_ll_exti.h ****   *         @arg @ref LL_EXTI_LINE_10
 914:../../../libs/smtc-hal-mcu-stm32l4/third_party/STM32CubeL4/Drivers/STM32L4xx_HAL_Driver/Inc/stm32l4xx_ll_exti.h ****   *         @arg @ref LL_EXTI_LINE_11
 915:../../../libs/smtc-hal-mcu-stm32l4/third_party/STM32CubeL4/Drivers/STM32L4xx_HAL_Driver/Inc/stm32l4xx_ll_exti.h ****   *         @arg @ref LL_EXTI_LINE_12
 916:../../../libs/smtc-hal-mcu-stm32l4/third_party/STM32CubeL4/Drivers/STM32L4xx_HAL_Driver/Inc/stm32l4xx_ll_exti.h ****   *         @arg @ref LL_EXTI_LINE_13
 917:../../../libs/smtc-hal-mcu-stm32l4/third_party/STM32CubeL4/Drivers/STM32L4xx_HAL_Driver/Inc/stm32l4xx_ll_exti.h ****   *         @arg @ref LL_EXTI_LINE_14
 918:../../../libs/smtc-hal-mcu-stm32l4/third_party/STM32CubeL4/Drivers/STM32L4xx_HAL_Driver/Inc/stm32l4xx_ll_exti.h ****   *         @arg @ref LL_EXTI_LINE_15
 919:../../../libs/smtc-hal-mcu-stm32l4/third_party/STM32CubeL4/Drivers/STM32L4xx_HAL_Driver/Inc/stm32l4xx_ll_exti.h ****   *         @arg @ref LL_EXTI_LINE_16
 920:../../../libs/smtc-hal-mcu-stm32l4/third_party/STM32CubeL4/Drivers/STM32L4xx_HAL_Driver/Inc/stm32l4xx_ll_exti.h ****   *         @arg @ref LL_EXTI_LINE_18
 921:../../../libs/smtc-hal-mcu-stm32l4/third_party/STM32CubeL4/Drivers/STM32L4xx_HAL_Driver/Inc/stm32l4xx_ll_exti.h ****   *         @arg @ref LL_EXTI_LINE_19
 922:../../../libs/smtc-hal-mcu-stm32l4/third_party/STM32CubeL4/Drivers/STM32L4xx_HAL_Driver/Inc/stm32l4xx_ll_exti.h ****   *         @arg @ref LL_EXTI_LINE_20
 923:../../../libs/smtc-hal-mcu-stm32l4/third_party/STM32CubeL4/Drivers/STM32L4xx_HAL_Driver/Inc/stm32l4xx_ll_exti.h ****   *         @arg @ref LL_EXTI_LINE_21
 924:../../../libs/smtc-hal-mcu-stm32l4/third_party/STM32CubeL4/Drivers/STM32L4xx_HAL_Driver/Inc/stm32l4xx_ll_exti.h ****   *         @arg @ref LL_EXTI_LINE_22
 925:../../../libs/smtc-hal-mcu-stm32l4/third_party/STM32CubeL4/Drivers/STM32L4xx_HAL_Driver/Inc/stm32l4xx_ll_exti.h ****   *         @arg @ref LL_EXTI_LINE_29
 926:../../../libs/smtc-hal-mcu-stm32l4/third_party/STM32CubeL4/Drivers/STM32L4xx_HAL_Driver/Inc/stm32l4xx_ll_exti.h ****   *         @arg @ref LL_EXTI_LINE_30
 927:../../../libs/smtc-hal-mcu-stm32l4/third_party/STM32CubeL4/Drivers/STM32L4xx_HAL_Driver/Inc/stm32l4xx_ll_exti.h ****   *         @arg @ref LL_EXTI_LINE_31
 928:../../../libs/smtc-hal-mcu-stm32l4/third_party/STM32CubeL4/Drivers/STM32L4xx_HAL_Driver/Inc/stm32l4xx_ll_exti.h ****   * @note   Please check each device line mapping for EXTI Line availability
 929:../../../libs/smtc-hal-mcu-stm32l4/third_party/STM32CubeL4/Drivers/STM32L4xx_HAL_Driver/Inc/stm32l4xx_ll_exti.h ****   * @retval None
 930:../../../libs/smtc-hal-mcu-stm32l4/third_party/STM32CubeL4/Drivers/STM32L4xx_HAL_Driver/Inc/stm32l4xx_ll_exti.h ****   */
 931:../../../libs/smtc-hal-mcu-stm32l4/third_party/STM32CubeL4/Drivers/STM32L4xx_HAL_Driver/Inc/stm32l4xx_ll_exti.h **** __STATIC_INLINE void LL_EXTI_EnableFallingTrig_0_31(uint32_t ExtiLine)
 932:../../../libs/smtc-hal-mcu-stm32l4/third_party/STM32CubeL4/Drivers/STM32L4xx_HAL_Driver/Inc/stm32l4xx_ll_exti.h **** {
 659              		.loc 2 932 1
 660              		.cfi_startproc
 661              		@ args = 0, pretend = 0, frame = 8
 662              		@ frame_needed = 1, uses_anonymous_args = 0
 663              		@ link register save eliminated.
 664 0000 80B4     		push	{r7}
 665              	.LCFI72:
 666              		.cfi_def_cfa_offset 4
 667              		.cfi_offset 7, -4
 668 0002 83B0     		sub	sp, sp, #12
 669              	.LCFI73:
 670              		.cfi_def_cfa_offset 16
 671 0004 00AF     		add	r7, sp, #0
 672              	.LCFI74:
 673              		.cfi_def_cfa_register 7
 674 0006 7860     		str	r0, [r7, #4]
 933:../../../libs/smtc-hal-mcu-stm32l4/third_party/STM32CubeL4/Drivers/STM32L4xx_HAL_Driver/Inc/stm32l4xx_ll_exti.h ****   SET_BIT(EXTI->FTSR1, ExtiLine);
 675              		.loc 2 933 3
 676 0008 054B     		ldr	r3, .L38
 677 000a DA68     		ldr	r2, [r3, #12]
 678 000c 0449     		ldr	r1, .L38
 679 000e 7B68     		ldr	r3, [r7, #4]
 680 0010 1343     		orrs	r3, r3, r2
 681 0012 CB60     		str	r3, [r1, #12]
 934:../../../libs/smtc-hal-mcu-stm32l4/third_party/STM32CubeL4/Drivers/STM32L4xx_HAL_Driver/Inc/stm32l4xx_ll_exti.h **** }
 682              		.loc 2 934 1
 683 0014 00BF     		nop
 684 0016 0C37     		adds	r7, r7, #12
 685              	.LCFI75:
 686              		.cfi_def_cfa_offset 4
 687 0018 BD46     		mov	sp, r7
ARM GAS  C:\msys64\tmp\cczBzbSO.s 			page 29


 688              	.LCFI76:
 689              		.cfi_def_cfa_register 13
 690              		@ sp needed
 691 001a 5DF8047B 		ldr	r7, [sp], #4
 692              	.LCFI77:
 693              		.cfi_restore 7
 694              		.cfi_def_cfa_offset 0
 695 001e 7047     		bx	lr
 696              	.L39:
 697              		.align	2
 698              	.L38:
 699 0020 00040140 		.word	1073808384
 700              		.cfi_endproc
 701              	.LFE150:
 703              		.section	.text.LL_EXTI_EnableFallingTrig_32_63,"ax",%progbits
 704              		.align	1
 705              		.syntax unified
 706              		.thumb
 707              		.thumb_func
 709              	LL_EXTI_EnableFallingTrig_32_63:
 710              	.LFB151:
 935:../../../libs/smtc-hal-mcu-stm32l4/third_party/STM32CubeL4/Drivers/STM32L4xx_HAL_Driver/Inc/stm32l4xx_ll_exti.h **** 
 936:../../../libs/smtc-hal-mcu-stm32l4/third_party/STM32CubeL4/Drivers/STM32L4xx_HAL_Driver/Inc/stm32l4xx_ll_exti.h **** /**
 937:../../../libs/smtc-hal-mcu-stm32l4/third_party/STM32CubeL4/Drivers/STM32L4xx_HAL_Driver/Inc/stm32l4xx_ll_exti.h ****   * @brief  Enable ExtiLine Falling Edge Trigger for Lines in range 32 to 63
 938:../../../libs/smtc-hal-mcu-stm32l4/third_party/STM32CubeL4/Drivers/STM32L4xx_HAL_Driver/Inc/stm32l4xx_ll_exti.h ****   * @note The configurable wakeup lines are edge-triggered. No glitch must be
 939:../../../libs/smtc-hal-mcu-stm32l4/third_party/STM32CubeL4/Drivers/STM32L4xx_HAL_Driver/Inc/stm32l4xx_ll_exti.h ****   *       generated on these lines. If a Falling edge on a configurable interrupt
 940:../../../libs/smtc-hal-mcu-stm32l4/third_party/STM32CubeL4/Drivers/STM32L4xx_HAL_Driver/Inc/stm32l4xx_ll_exti.h ****   *       line occurs during a write operation in the EXTI_FTSR register, the
 941:../../../libs/smtc-hal-mcu-stm32l4/third_party/STM32CubeL4/Drivers/STM32L4xx_HAL_Driver/Inc/stm32l4xx_ll_exti.h ****   *       pending bit is not set.
 942:../../../libs/smtc-hal-mcu-stm32l4/third_party/STM32CubeL4/Drivers/STM32L4xx_HAL_Driver/Inc/stm32l4xx_ll_exti.h ****   *       Rising and falling edge triggers can be set for
 943:../../../libs/smtc-hal-mcu-stm32l4/third_party/STM32CubeL4/Drivers/STM32L4xx_HAL_Driver/Inc/stm32l4xx_ll_exti.h ****   *       the same interrupt line. In this case, both generate a trigger
 944:../../../libs/smtc-hal-mcu-stm32l4/third_party/STM32CubeL4/Drivers/STM32L4xx_HAL_Driver/Inc/stm32l4xx_ll_exti.h ****   *       condition.
 945:../../../libs/smtc-hal-mcu-stm32l4/third_party/STM32CubeL4/Drivers/STM32L4xx_HAL_Driver/Inc/stm32l4xx_ll_exti.h ****   * @rmtoll FTSR2        FTx           LL_EXTI_EnableFallingTrig_32_63
 946:../../../libs/smtc-hal-mcu-stm32l4/third_party/STM32CubeL4/Drivers/STM32L4xx_HAL_Driver/Inc/stm32l4xx_ll_exti.h ****   * @param  ExtiLine This parameter can be a combination of the following values:
 947:../../../libs/smtc-hal-mcu-stm32l4/third_party/STM32CubeL4/Drivers/STM32L4xx_HAL_Driver/Inc/stm32l4xx_ll_exti.h ****   *         @arg @ref LL_EXTI_LINE_35
 948:../../../libs/smtc-hal-mcu-stm32l4/third_party/STM32CubeL4/Drivers/STM32L4xx_HAL_Driver/Inc/stm32l4xx_ll_exti.h ****   *         @arg @ref LL_EXTI_LINE_36
 949:../../../libs/smtc-hal-mcu-stm32l4/third_party/STM32CubeL4/Drivers/STM32L4xx_HAL_Driver/Inc/stm32l4xx_ll_exti.h ****   *         @arg @ref LL_EXTI_LINE_37
 950:../../../libs/smtc-hal-mcu-stm32l4/third_party/STM32CubeL4/Drivers/STM32L4xx_HAL_Driver/Inc/stm32l4xx_ll_exti.h ****   *         @arg @ref LL_EXTI_LINE_38
 951:../../../libs/smtc-hal-mcu-stm32l4/third_party/STM32CubeL4/Drivers/STM32L4xx_HAL_Driver/Inc/stm32l4xx_ll_exti.h ****   * @retval None
 952:../../../libs/smtc-hal-mcu-stm32l4/third_party/STM32CubeL4/Drivers/STM32L4xx_HAL_Driver/Inc/stm32l4xx_ll_exti.h ****   */
 953:../../../libs/smtc-hal-mcu-stm32l4/third_party/STM32CubeL4/Drivers/STM32L4xx_HAL_Driver/Inc/stm32l4xx_ll_exti.h **** __STATIC_INLINE void LL_EXTI_EnableFallingTrig_32_63(uint32_t ExtiLine)
 954:../../../libs/smtc-hal-mcu-stm32l4/third_party/STM32CubeL4/Drivers/STM32L4xx_HAL_Driver/Inc/stm32l4xx_ll_exti.h **** {
 711              		.loc 2 954 1
 712              		.cfi_startproc
 713              		@ args = 0, pretend = 0, frame = 8
 714              		@ frame_needed = 1, uses_anonymous_args = 0
 715              		@ link register save eliminated.
 716 0000 80B4     		push	{r7}
 717              	.LCFI78:
 718              		.cfi_def_cfa_offset 4
 719              		.cfi_offset 7, -4
 720 0002 83B0     		sub	sp, sp, #12
 721              	.LCFI79:
 722              		.cfi_def_cfa_offset 16
 723 0004 00AF     		add	r7, sp, #0
 724              	.LCFI80:
 725              		.cfi_def_cfa_register 7
 726 0006 7860     		str	r0, [r7, #4]
ARM GAS  C:\msys64\tmp\cczBzbSO.s 			page 30


 955:../../../libs/smtc-hal-mcu-stm32l4/third_party/STM32CubeL4/Drivers/STM32L4xx_HAL_Driver/Inc/stm32l4xx_ll_exti.h ****   SET_BIT(EXTI->FTSR2, ExtiLine);
 727              		.loc 2 955 3
 728 0008 054B     		ldr	r3, .L41
 729 000a DA6A     		ldr	r2, [r3, #44]
 730 000c 0449     		ldr	r1, .L41
 731 000e 7B68     		ldr	r3, [r7, #4]
 732 0010 1343     		orrs	r3, r3, r2
 733 0012 CB62     		str	r3, [r1, #44]
 956:../../../libs/smtc-hal-mcu-stm32l4/third_party/STM32CubeL4/Drivers/STM32L4xx_HAL_Driver/Inc/stm32l4xx_ll_exti.h **** }
 734              		.loc 2 956 1
 735 0014 00BF     		nop
 736 0016 0C37     		adds	r7, r7, #12
 737              	.LCFI81:
 738              		.cfi_def_cfa_offset 4
 739 0018 BD46     		mov	sp, r7
 740              	.LCFI82:
 741              		.cfi_def_cfa_register 13
 742              		@ sp needed
 743 001a 5DF8047B 		ldr	r7, [sp], #4
 744              	.LCFI83:
 745              		.cfi_restore 7
 746              		.cfi_def_cfa_offset 0
 747 001e 7047     		bx	lr
 748              	.L42:
 749              		.align	2
 750              	.L41:
 751 0020 00040140 		.word	1073808384
 752              		.cfi_endproc
 753              	.LFE151:
 755              		.section	.text.LL_EXTI_DisableFallingTrig_0_31,"ax",%progbits
 756              		.align	1
 757              		.syntax unified
 758              		.thumb
 759              		.thumb_func
 761              	LL_EXTI_DisableFallingTrig_0_31:
 762              	.LFB152:
 957:../../../libs/smtc-hal-mcu-stm32l4/third_party/STM32CubeL4/Drivers/STM32L4xx_HAL_Driver/Inc/stm32l4xx_ll_exti.h **** 
 958:../../../libs/smtc-hal-mcu-stm32l4/third_party/STM32CubeL4/Drivers/STM32L4xx_HAL_Driver/Inc/stm32l4xx_ll_exti.h **** /**
 959:../../../libs/smtc-hal-mcu-stm32l4/third_party/STM32CubeL4/Drivers/STM32L4xx_HAL_Driver/Inc/stm32l4xx_ll_exti.h ****   * @brief  Disable ExtiLine Falling Edge Trigger for Lines in range 0 to 31
 960:../../../libs/smtc-hal-mcu-stm32l4/third_party/STM32CubeL4/Drivers/STM32L4xx_HAL_Driver/Inc/stm32l4xx_ll_exti.h ****   * @note The configurable wakeup lines are edge-triggered. No glitch must be
 961:../../../libs/smtc-hal-mcu-stm32l4/third_party/STM32CubeL4/Drivers/STM32L4xx_HAL_Driver/Inc/stm32l4xx_ll_exti.h ****   *       generated on these lines. If a Falling edge on a configurable interrupt
 962:../../../libs/smtc-hal-mcu-stm32l4/third_party/STM32CubeL4/Drivers/STM32L4xx_HAL_Driver/Inc/stm32l4xx_ll_exti.h ****   *       line occurs during a write operation in the EXTI_FTSR register, the
 963:../../../libs/smtc-hal-mcu-stm32l4/third_party/STM32CubeL4/Drivers/STM32L4xx_HAL_Driver/Inc/stm32l4xx_ll_exti.h ****   *       pending bit is not set.
 964:../../../libs/smtc-hal-mcu-stm32l4/third_party/STM32CubeL4/Drivers/STM32L4xx_HAL_Driver/Inc/stm32l4xx_ll_exti.h ****   *       Rising and falling edge triggers can be set for the same interrupt line.
 965:../../../libs/smtc-hal-mcu-stm32l4/third_party/STM32CubeL4/Drivers/STM32L4xx_HAL_Driver/Inc/stm32l4xx_ll_exti.h ****   *       In this case, both generate a trigger condition.
 966:../../../libs/smtc-hal-mcu-stm32l4/third_party/STM32CubeL4/Drivers/STM32L4xx_HAL_Driver/Inc/stm32l4xx_ll_exti.h ****   * @rmtoll FTSR1        FTx           LL_EXTI_DisableFallingTrig_0_31
 967:../../../libs/smtc-hal-mcu-stm32l4/third_party/STM32CubeL4/Drivers/STM32L4xx_HAL_Driver/Inc/stm32l4xx_ll_exti.h ****   * @param  ExtiLine This parameter can be a combination of the following values:
 968:../../../libs/smtc-hal-mcu-stm32l4/third_party/STM32CubeL4/Drivers/STM32L4xx_HAL_Driver/Inc/stm32l4xx_ll_exti.h ****   *         @arg @ref LL_EXTI_LINE_0
 969:../../../libs/smtc-hal-mcu-stm32l4/third_party/STM32CubeL4/Drivers/STM32L4xx_HAL_Driver/Inc/stm32l4xx_ll_exti.h ****   *         @arg @ref LL_EXTI_LINE_1
 970:../../../libs/smtc-hal-mcu-stm32l4/third_party/STM32CubeL4/Drivers/STM32L4xx_HAL_Driver/Inc/stm32l4xx_ll_exti.h ****   *         @arg @ref LL_EXTI_LINE_2
 971:../../../libs/smtc-hal-mcu-stm32l4/third_party/STM32CubeL4/Drivers/STM32L4xx_HAL_Driver/Inc/stm32l4xx_ll_exti.h ****   *         @arg @ref LL_EXTI_LINE_3
 972:../../../libs/smtc-hal-mcu-stm32l4/third_party/STM32CubeL4/Drivers/STM32L4xx_HAL_Driver/Inc/stm32l4xx_ll_exti.h ****   *         @arg @ref LL_EXTI_LINE_4
 973:../../../libs/smtc-hal-mcu-stm32l4/third_party/STM32CubeL4/Drivers/STM32L4xx_HAL_Driver/Inc/stm32l4xx_ll_exti.h ****   *         @arg @ref LL_EXTI_LINE_5
 974:../../../libs/smtc-hal-mcu-stm32l4/third_party/STM32CubeL4/Drivers/STM32L4xx_HAL_Driver/Inc/stm32l4xx_ll_exti.h ****   *         @arg @ref LL_EXTI_LINE_6
 975:../../../libs/smtc-hal-mcu-stm32l4/third_party/STM32CubeL4/Drivers/STM32L4xx_HAL_Driver/Inc/stm32l4xx_ll_exti.h ****   *         @arg @ref LL_EXTI_LINE_7
 976:../../../libs/smtc-hal-mcu-stm32l4/third_party/STM32CubeL4/Drivers/STM32L4xx_HAL_Driver/Inc/stm32l4xx_ll_exti.h ****   *         @arg @ref LL_EXTI_LINE_8
 977:../../../libs/smtc-hal-mcu-stm32l4/third_party/STM32CubeL4/Drivers/STM32L4xx_HAL_Driver/Inc/stm32l4xx_ll_exti.h ****   *         @arg @ref LL_EXTI_LINE_9
ARM GAS  C:\msys64\tmp\cczBzbSO.s 			page 31


 978:../../../libs/smtc-hal-mcu-stm32l4/third_party/STM32CubeL4/Drivers/STM32L4xx_HAL_Driver/Inc/stm32l4xx_ll_exti.h ****   *         @arg @ref LL_EXTI_LINE_10
 979:../../../libs/smtc-hal-mcu-stm32l4/third_party/STM32CubeL4/Drivers/STM32L4xx_HAL_Driver/Inc/stm32l4xx_ll_exti.h ****   *         @arg @ref LL_EXTI_LINE_11
 980:../../../libs/smtc-hal-mcu-stm32l4/third_party/STM32CubeL4/Drivers/STM32L4xx_HAL_Driver/Inc/stm32l4xx_ll_exti.h ****   *         @arg @ref LL_EXTI_LINE_12
 981:../../../libs/smtc-hal-mcu-stm32l4/third_party/STM32CubeL4/Drivers/STM32L4xx_HAL_Driver/Inc/stm32l4xx_ll_exti.h ****   *         @arg @ref LL_EXTI_LINE_13
 982:../../../libs/smtc-hal-mcu-stm32l4/third_party/STM32CubeL4/Drivers/STM32L4xx_HAL_Driver/Inc/stm32l4xx_ll_exti.h ****   *         @arg @ref LL_EXTI_LINE_14
 983:../../../libs/smtc-hal-mcu-stm32l4/third_party/STM32CubeL4/Drivers/STM32L4xx_HAL_Driver/Inc/stm32l4xx_ll_exti.h ****   *         @arg @ref LL_EXTI_LINE_15
 984:../../../libs/smtc-hal-mcu-stm32l4/third_party/STM32CubeL4/Drivers/STM32L4xx_HAL_Driver/Inc/stm32l4xx_ll_exti.h ****   *         @arg @ref LL_EXTI_LINE_16
 985:../../../libs/smtc-hal-mcu-stm32l4/third_party/STM32CubeL4/Drivers/STM32L4xx_HAL_Driver/Inc/stm32l4xx_ll_exti.h ****   *         @arg @ref LL_EXTI_LINE_18
 986:../../../libs/smtc-hal-mcu-stm32l4/third_party/STM32CubeL4/Drivers/STM32L4xx_HAL_Driver/Inc/stm32l4xx_ll_exti.h ****   *         @arg @ref LL_EXTI_LINE_19
 987:../../../libs/smtc-hal-mcu-stm32l4/third_party/STM32CubeL4/Drivers/STM32L4xx_HAL_Driver/Inc/stm32l4xx_ll_exti.h ****   *         @arg @ref LL_EXTI_LINE_20
 988:../../../libs/smtc-hal-mcu-stm32l4/third_party/STM32CubeL4/Drivers/STM32L4xx_HAL_Driver/Inc/stm32l4xx_ll_exti.h ****   *         @arg @ref LL_EXTI_LINE_21
 989:../../../libs/smtc-hal-mcu-stm32l4/third_party/STM32CubeL4/Drivers/STM32L4xx_HAL_Driver/Inc/stm32l4xx_ll_exti.h ****   *         @arg @ref LL_EXTI_LINE_22
 990:../../../libs/smtc-hal-mcu-stm32l4/third_party/STM32CubeL4/Drivers/STM32L4xx_HAL_Driver/Inc/stm32l4xx_ll_exti.h ****   *         @arg @ref LL_EXTI_LINE_29
 991:../../../libs/smtc-hal-mcu-stm32l4/third_party/STM32CubeL4/Drivers/STM32L4xx_HAL_Driver/Inc/stm32l4xx_ll_exti.h ****   *         @arg @ref LL_EXTI_LINE_30
 992:../../../libs/smtc-hal-mcu-stm32l4/third_party/STM32CubeL4/Drivers/STM32L4xx_HAL_Driver/Inc/stm32l4xx_ll_exti.h ****   *         @arg @ref LL_EXTI_LINE_31
 993:../../../libs/smtc-hal-mcu-stm32l4/third_party/STM32CubeL4/Drivers/STM32L4xx_HAL_Driver/Inc/stm32l4xx_ll_exti.h ****   * @note   Please check each device line mapping for EXTI Line availability
 994:../../../libs/smtc-hal-mcu-stm32l4/third_party/STM32CubeL4/Drivers/STM32L4xx_HAL_Driver/Inc/stm32l4xx_ll_exti.h ****   * @retval None
 995:../../../libs/smtc-hal-mcu-stm32l4/third_party/STM32CubeL4/Drivers/STM32L4xx_HAL_Driver/Inc/stm32l4xx_ll_exti.h ****   */
 996:../../../libs/smtc-hal-mcu-stm32l4/third_party/STM32CubeL4/Drivers/STM32L4xx_HAL_Driver/Inc/stm32l4xx_ll_exti.h **** __STATIC_INLINE void LL_EXTI_DisableFallingTrig_0_31(uint32_t ExtiLine)
 997:../../../libs/smtc-hal-mcu-stm32l4/third_party/STM32CubeL4/Drivers/STM32L4xx_HAL_Driver/Inc/stm32l4xx_ll_exti.h **** {
 763              		.loc 2 997 1
 764              		.cfi_startproc
 765              		@ args = 0, pretend = 0, frame = 8
 766              		@ frame_needed = 1, uses_anonymous_args = 0
 767              		@ link register save eliminated.
 768 0000 80B4     		push	{r7}
 769              	.LCFI84:
 770              		.cfi_def_cfa_offset 4
 771              		.cfi_offset 7, -4
 772 0002 83B0     		sub	sp, sp, #12
 773              	.LCFI85:
 774              		.cfi_def_cfa_offset 16
 775 0004 00AF     		add	r7, sp, #0
 776              	.LCFI86:
 777              		.cfi_def_cfa_register 7
 778 0006 7860     		str	r0, [r7, #4]
 998:../../../libs/smtc-hal-mcu-stm32l4/third_party/STM32CubeL4/Drivers/STM32L4xx_HAL_Driver/Inc/stm32l4xx_ll_exti.h ****   CLEAR_BIT(EXTI->FTSR1, ExtiLine);
 779              		.loc 2 998 3
 780 0008 064B     		ldr	r3, .L44
 781 000a DA68     		ldr	r2, [r3, #12]
 782 000c 7B68     		ldr	r3, [r7, #4]
 783 000e DB43     		mvns	r3, r3
 784 0010 0449     		ldr	r1, .L44
 785 0012 1340     		ands	r3, r3, r2
 786 0014 CB60     		str	r3, [r1, #12]
 999:../../../libs/smtc-hal-mcu-stm32l4/third_party/STM32CubeL4/Drivers/STM32L4xx_HAL_Driver/Inc/stm32l4xx_ll_exti.h **** }
 787              		.loc 2 999 1
 788 0016 00BF     		nop
 789 0018 0C37     		adds	r7, r7, #12
 790              	.LCFI87:
 791              		.cfi_def_cfa_offset 4
 792 001a BD46     		mov	sp, r7
 793              	.LCFI88:
 794              		.cfi_def_cfa_register 13
 795              		@ sp needed
 796 001c 5DF8047B 		ldr	r7, [sp], #4
 797              	.LCFI89:
ARM GAS  C:\msys64\tmp\cczBzbSO.s 			page 32


 798              		.cfi_restore 7
 799              		.cfi_def_cfa_offset 0
 800 0020 7047     		bx	lr
 801              	.L45:
 802 0022 00BF     		.align	2
 803              	.L44:
 804 0024 00040140 		.word	1073808384
 805              		.cfi_endproc
 806              	.LFE152:
 808              		.section	.text.LL_EXTI_DisableFallingTrig_32_63,"ax",%progbits
 809              		.align	1
 810              		.syntax unified
 811              		.thumb
 812              		.thumb_func
 814              	LL_EXTI_DisableFallingTrig_32_63:
 815              	.LFB153:
1000:../../../libs/smtc-hal-mcu-stm32l4/third_party/STM32CubeL4/Drivers/STM32L4xx_HAL_Driver/Inc/stm32l4xx_ll_exti.h **** 
1001:../../../libs/smtc-hal-mcu-stm32l4/third_party/STM32CubeL4/Drivers/STM32L4xx_HAL_Driver/Inc/stm32l4xx_ll_exti.h **** /**
1002:../../../libs/smtc-hal-mcu-stm32l4/third_party/STM32CubeL4/Drivers/STM32L4xx_HAL_Driver/Inc/stm32l4xx_ll_exti.h ****   * @brief  Disable ExtiLine Falling Edge Trigger for Lines in range 32 to 63
1003:../../../libs/smtc-hal-mcu-stm32l4/third_party/STM32CubeL4/Drivers/STM32L4xx_HAL_Driver/Inc/stm32l4xx_ll_exti.h ****   * @note The configurable wakeup lines are edge-triggered. No glitch must be
1004:../../../libs/smtc-hal-mcu-stm32l4/third_party/STM32CubeL4/Drivers/STM32L4xx_HAL_Driver/Inc/stm32l4xx_ll_exti.h ****   *       generated on these lines. If a Falling edge on a configurable interrupt
1005:../../../libs/smtc-hal-mcu-stm32l4/third_party/STM32CubeL4/Drivers/STM32L4xx_HAL_Driver/Inc/stm32l4xx_ll_exti.h ****   *       line occurs during a write operation in the EXTI_FTSR register, the
1006:../../../libs/smtc-hal-mcu-stm32l4/third_party/STM32CubeL4/Drivers/STM32L4xx_HAL_Driver/Inc/stm32l4xx_ll_exti.h ****   *       pending bit is not set.
1007:../../../libs/smtc-hal-mcu-stm32l4/third_party/STM32CubeL4/Drivers/STM32L4xx_HAL_Driver/Inc/stm32l4xx_ll_exti.h ****   *       Rising and falling edge triggers can be set for the same interrupt line.
1008:../../../libs/smtc-hal-mcu-stm32l4/third_party/STM32CubeL4/Drivers/STM32L4xx_HAL_Driver/Inc/stm32l4xx_ll_exti.h ****   *       In this case, both generate a trigger condition.
1009:../../../libs/smtc-hal-mcu-stm32l4/third_party/STM32CubeL4/Drivers/STM32L4xx_HAL_Driver/Inc/stm32l4xx_ll_exti.h ****   * @rmtoll FTSR2        FTx           LL_EXTI_DisableFallingTrig_32_63
1010:../../../libs/smtc-hal-mcu-stm32l4/third_party/STM32CubeL4/Drivers/STM32L4xx_HAL_Driver/Inc/stm32l4xx_ll_exti.h ****   * @param  ExtiLine This parameter can be a combination of the following values:
1011:../../../libs/smtc-hal-mcu-stm32l4/third_party/STM32CubeL4/Drivers/STM32L4xx_HAL_Driver/Inc/stm32l4xx_ll_exti.h ****   *         @arg @ref LL_EXTI_LINE_35
1012:../../../libs/smtc-hal-mcu-stm32l4/third_party/STM32CubeL4/Drivers/STM32L4xx_HAL_Driver/Inc/stm32l4xx_ll_exti.h ****   *         @arg @ref LL_EXTI_LINE_36
1013:../../../libs/smtc-hal-mcu-stm32l4/third_party/STM32CubeL4/Drivers/STM32L4xx_HAL_Driver/Inc/stm32l4xx_ll_exti.h ****   *         @arg @ref LL_EXTI_LINE_37
1014:../../../libs/smtc-hal-mcu-stm32l4/third_party/STM32CubeL4/Drivers/STM32L4xx_HAL_Driver/Inc/stm32l4xx_ll_exti.h ****   *         @arg @ref LL_EXTI_LINE_38
1015:../../../libs/smtc-hal-mcu-stm32l4/third_party/STM32CubeL4/Drivers/STM32L4xx_HAL_Driver/Inc/stm32l4xx_ll_exti.h ****   * @retval None
1016:../../../libs/smtc-hal-mcu-stm32l4/third_party/STM32CubeL4/Drivers/STM32L4xx_HAL_Driver/Inc/stm32l4xx_ll_exti.h ****   */
1017:../../../libs/smtc-hal-mcu-stm32l4/third_party/STM32CubeL4/Drivers/STM32L4xx_HAL_Driver/Inc/stm32l4xx_ll_exti.h **** __STATIC_INLINE void LL_EXTI_DisableFallingTrig_32_63(uint32_t ExtiLine)
1018:../../../libs/smtc-hal-mcu-stm32l4/third_party/STM32CubeL4/Drivers/STM32L4xx_HAL_Driver/Inc/stm32l4xx_ll_exti.h **** {
 816              		.loc 2 1018 1
 817              		.cfi_startproc
 818              		@ args = 0, pretend = 0, frame = 8
 819              		@ frame_needed = 1, uses_anonymous_args = 0
 820              		@ link register save eliminated.
 821 0000 80B4     		push	{r7}
 822              	.LCFI90:
 823              		.cfi_def_cfa_offset 4
 824              		.cfi_offset 7, -4
 825 0002 83B0     		sub	sp, sp, #12
 826              	.LCFI91:
 827              		.cfi_def_cfa_offset 16
 828 0004 00AF     		add	r7, sp, #0
 829              	.LCFI92:
 830              		.cfi_def_cfa_register 7
 831 0006 7860     		str	r0, [r7, #4]
1019:../../../libs/smtc-hal-mcu-stm32l4/third_party/STM32CubeL4/Drivers/STM32L4xx_HAL_Driver/Inc/stm32l4xx_ll_exti.h ****   CLEAR_BIT(EXTI->FTSR2, ExtiLine);
 832              		.loc 2 1019 3
 833 0008 064B     		ldr	r3, .L47
 834 000a DA6A     		ldr	r2, [r3, #44]
 835 000c 7B68     		ldr	r3, [r7, #4]
 836 000e DB43     		mvns	r3, r3
ARM GAS  C:\msys64\tmp\cczBzbSO.s 			page 33


 837 0010 0449     		ldr	r1, .L47
 838 0012 1340     		ands	r3, r3, r2
 839 0014 CB62     		str	r3, [r1, #44]
1020:../../../libs/smtc-hal-mcu-stm32l4/third_party/STM32CubeL4/Drivers/STM32L4xx_HAL_Driver/Inc/stm32l4xx_ll_exti.h **** }
 840              		.loc 2 1020 1
 841 0016 00BF     		nop
 842 0018 0C37     		adds	r7, r7, #12
 843              	.LCFI93:
 844              		.cfi_def_cfa_offset 4
 845 001a BD46     		mov	sp, r7
 846              	.LCFI94:
 847              		.cfi_def_cfa_register 13
 848              		@ sp needed
 849 001c 5DF8047B 		ldr	r7, [sp], #4
 850              	.LCFI95:
 851              		.cfi_restore 7
 852              		.cfi_def_cfa_offset 0
 853 0020 7047     		bx	lr
 854              	.L48:
 855 0022 00BF     		.align	2
 856              	.L47:
 857 0024 00040140 		.word	1073808384
 858              		.cfi_endproc
 859              	.LFE153:
 861              		.section	.text.LL_EXTI_DeInit,"ax",%progbits
 862              		.align	1
 863              		.global	LL_EXTI_DeInit
 864              		.syntax unified
 865              		.thumb
 866              		.thumb_func
 868              	LL_EXTI_DeInit:
 869              	.LFB164:
   1:../../../libs/smtc-hal-mcu-stm32l4/third_party/STM32CubeL4/Drivers/STM32L4xx_HAL_Driver/Src/stm32l4xx_ll_exti.c **** /**
   2:../../../libs/smtc-hal-mcu-stm32l4/third_party/STM32CubeL4/Drivers/STM32L4xx_HAL_Driver/Src/stm32l4xx_ll_exti.c ****   ******************************************************************************
   3:../../../libs/smtc-hal-mcu-stm32l4/third_party/STM32CubeL4/Drivers/STM32L4xx_HAL_Driver/Src/stm32l4xx_ll_exti.c ****   * @file    stm32l4xx_ll_exti.c
   4:../../../libs/smtc-hal-mcu-stm32l4/third_party/STM32CubeL4/Drivers/STM32L4xx_HAL_Driver/Src/stm32l4xx_ll_exti.c ****   * @author  MCD Application Team
   5:../../../libs/smtc-hal-mcu-stm32l4/third_party/STM32CubeL4/Drivers/STM32L4xx_HAL_Driver/Src/stm32l4xx_ll_exti.c ****   * @brief   EXTI LL module driver.
   6:../../../libs/smtc-hal-mcu-stm32l4/third_party/STM32CubeL4/Drivers/STM32L4xx_HAL_Driver/Src/stm32l4xx_ll_exti.c ****   ******************************************************************************
   7:../../../libs/smtc-hal-mcu-stm32l4/third_party/STM32CubeL4/Drivers/STM32L4xx_HAL_Driver/Src/stm32l4xx_ll_exti.c ****   * @attention
   8:../../../libs/smtc-hal-mcu-stm32l4/third_party/STM32CubeL4/Drivers/STM32L4xx_HAL_Driver/Src/stm32l4xx_ll_exti.c ****   *
   9:../../../libs/smtc-hal-mcu-stm32l4/third_party/STM32CubeL4/Drivers/STM32L4xx_HAL_Driver/Src/stm32l4xx_ll_exti.c ****   * Copyright (c) 2017 STMicroelectronics.
  10:../../../libs/smtc-hal-mcu-stm32l4/third_party/STM32CubeL4/Drivers/STM32L4xx_HAL_Driver/Src/stm32l4xx_ll_exti.c ****   * All rights reserved.
  11:../../../libs/smtc-hal-mcu-stm32l4/third_party/STM32CubeL4/Drivers/STM32L4xx_HAL_Driver/Src/stm32l4xx_ll_exti.c ****   *
  12:../../../libs/smtc-hal-mcu-stm32l4/third_party/STM32CubeL4/Drivers/STM32L4xx_HAL_Driver/Src/stm32l4xx_ll_exti.c ****   * This software is licensed under terms that can be found in the LICENSE file
  13:../../../libs/smtc-hal-mcu-stm32l4/third_party/STM32CubeL4/Drivers/STM32L4xx_HAL_Driver/Src/stm32l4xx_ll_exti.c ****   * in the root directory of this software component.
  14:../../../libs/smtc-hal-mcu-stm32l4/third_party/STM32CubeL4/Drivers/STM32L4xx_HAL_Driver/Src/stm32l4xx_ll_exti.c ****   * If no LICENSE file comes with this software, it is provided AS-IS.
  15:../../../libs/smtc-hal-mcu-stm32l4/third_party/STM32CubeL4/Drivers/STM32L4xx_HAL_Driver/Src/stm32l4xx_ll_exti.c ****   *
  16:../../../libs/smtc-hal-mcu-stm32l4/third_party/STM32CubeL4/Drivers/STM32L4xx_HAL_Driver/Src/stm32l4xx_ll_exti.c ****   ******************************************************************************
  17:../../../libs/smtc-hal-mcu-stm32l4/third_party/STM32CubeL4/Drivers/STM32L4xx_HAL_Driver/Src/stm32l4xx_ll_exti.c ****   */
  18:../../../libs/smtc-hal-mcu-stm32l4/third_party/STM32CubeL4/Drivers/STM32L4xx_HAL_Driver/Src/stm32l4xx_ll_exti.c **** #if defined(USE_FULL_LL_DRIVER)
  19:../../../libs/smtc-hal-mcu-stm32l4/third_party/STM32CubeL4/Drivers/STM32L4xx_HAL_Driver/Src/stm32l4xx_ll_exti.c **** 
  20:../../../libs/smtc-hal-mcu-stm32l4/third_party/STM32CubeL4/Drivers/STM32L4xx_HAL_Driver/Src/stm32l4xx_ll_exti.c **** /* Includes ------------------------------------------------------------------*/
  21:../../../libs/smtc-hal-mcu-stm32l4/third_party/STM32CubeL4/Drivers/STM32L4xx_HAL_Driver/Src/stm32l4xx_ll_exti.c **** #include "stm32l4xx_ll_exti.h"
  22:../../../libs/smtc-hal-mcu-stm32l4/third_party/STM32CubeL4/Drivers/STM32L4xx_HAL_Driver/Src/stm32l4xx_ll_exti.c **** #ifdef  USE_FULL_ASSERT
  23:../../../libs/smtc-hal-mcu-stm32l4/third_party/STM32CubeL4/Drivers/STM32L4xx_HAL_Driver/Src/stm32l4xx_ll_exti.c **** #include "stm32_assert.h"
  24:../../../libs/smtc-hal-mcu-stm32l4/third_party/STM32CubeL4/Drivers/STM32L4xx_HAL_Driver/Src/stm32l4xx_ll_exti.c **** #else
  25:../../../libs/smtc-hal-mcu-stm32l4/third_party/STM32CubeL4/Drivers/STM32L4xx_HAL_Driver/Src/stm32l4xx_ll_exti.c **** #define assert_param(expr) ((void)0U)
ARM GAS  C:\msys64\tmp\cczBzbSO.s 			page 34


  26:../../../libs/smtc-hal-mcu-stm32l4/third_party/STM32CubeL4/Drivers/STM32L4xx_HAL_Driver/Src/stm32l4xx_ll_exti.c **** #endif
  27:../../../libs/smtc-hal-mcu-stm32l4/third_party/STM32CubeL4/Drivers/STM32L4xx_HAL_Driver/Src/stm32l4xx_ll_exti.c **** 
  28:../../../libs/smtc-hal-mcu-stm32l4/third_party/STM32CubeL4/Drivers/STM32L4xx_HAL_Driver/Src/stm32l4xx_ll_exti.c **** /** @addtogroup STM32L4xx_LL_Driver
  29:../../../libs/smtc-hal-mcu-stm32l4/third_party/STM32CubeL4/Drivers/STM32L4xx_HAL_Driver/Src/stm32l4xx_ll_exti.c ****   * @{
  30:../../../libs/smtc-hal-mcu-stm32l4/third_party/STM32CubeL4/Drivers/STM32L4xx_HAL_Driver/Src/stm32l4xx_ll_exti.c ****   */
  31:../../../libs/smtc-hal-mcu-stm32l4/third_party/STM32CubeL4/Drivers/STM32L4xx_HAL_Driver/Src/stm32l4xx_ll_exti.c **** 
  32:../../../libs/smtc-hal-mcu-stm32l4/third_party/STM32CubeL4/Drivers/STM32L4xx_HAL_Driver/Src/stm32l4xx_ll_exti.c **** #if defined (EXTI)
  33:../../../libs/smtc-hal-mcu-stm32l4/third_party/STM32CubeL4/Drivers/STM32L4xx_HAL_Driver/Src/stm32l4xx_ll_exti.c **** 
  34:../../../libs/smtc-hal-mcu-stm32l4/third_party/STM32CubeL4/Drivers/STM32L4xx_HAL_Driver/Src/stm32l4xx_ll_exti.c **** /** @defgroup EXTI_LL EXTI
  35:../../../libs/smtc-hal-mcu-stm32l4/third_party/STM32CubeL4/Drivers/STM32L4xx_HAL_Driver/Src/stm32l4xx_ll_exti.c ****   * @{
  36:../../../libs/smtc-hal-mcu-stm32l4/third_party/STM32CubeL4/Drivers/STM32L4xx_HAL_Driver/Src/stm32l4xx_ll_exti.c ****   */
  37:../../../libs/smtc-hal-mcu-stm32l4/third_party/STM32CubeL4/Drivers/STM32L4xx_HAL_Driver/Src/stm32l4xx_ll_exti.c **** 
  38:../../../libs/smtc-hal-mcu-stm32l4/third_party/STM32CubeL4/Drivers/STM32L4xx_HAL_Driver/Src/stm32l4xx_ll_exti.c **** /* Private types -------------------------------------------------------------*/
  39:../../../libs/smtc-hal-mcu-stm32l4/third_party/STM32CubeL4/Drivers/STM32L4xx_HAL_Driver/Src/stm32l4xx_ll_exti.c **** /* Private variables ---------------------------------------------------------*/
  40:../../../libs/smtc-hal-mcu-stm32l4/third_party/STM32CubeL4/Drivers/STM32L4xx_HAL_Driver/Src/stm32l4xx_ll_exti.c **** /* Private constants ---------------------------------------------------------*/
  41:../../../libs/smtc-hal-mcu-stm32l4/third_party/STM32CubeL4/Drivers/STM32L4xx_HAL_Driver/Src/stm32l4xx_ll_exti.c **** /* Private macros ------------------------------------------------------------*/
  42:../../../libs/smtc-hal-mcu-stm32l4/third_party/STM32CubeL4/Drivers/STM32L4xx_HAL_Driver/Src/stm32l4xx_ll_exti.c **** /** @addtogroup EXTI_LL_Private_Macros
  43:../../../libs/smtc-hal-mcu-stm32l4/third_party/STM32CubeL4/Drivers/STM32L4xx_HAL_Driver/Src/stm32l4xx_ll_exti.c ****   * @{
  44:../../../libs/smtc-hal-mcu-stm32l4/third_party/STM32CubeL4/Drivers/STM32L4xx_HAL_Driver/Src/stm32l4xx_ll_exti.c ****   */
  45:../../../libs/smtc-hal-mcu-stm32l4/third_party/STM32CubeL4/Drivers/STM32L4xx_HAL_Driver/Src/stm32l4xx_ll_exti.c **** 
  46:../../../libs/smtc-hal-mcu-stm32l4/third_party/STM32CubeL4/Drivers/STM32L4xx_HAL_Driver/Src/stm32l4xx_ll_exti.c **** #define IS_LL_EXTI_LINE_0_31(__VALUE__)              (((__VALUE__) & ~LL_EXTI_LINE_ALL_0_31) == 0x0
  47:../../../libs/smtc-hal-mcu-stm32l4/third_party/STM32CubeL4/Drivers/STM32L4xx_HAL_Driver/Src/stm32l4xx_ll_exti.c **** #define IS_LL_EXTI_LINE_32_63(__VALUE__)             (((__VALUE__) & ~LL_EXTI_LINE_ALL_32_63) == 0x
  48:../../../libs/smtc-hal-mcu-stm32l4/third_party/STM32CubeL4/Drivers/STM32L4xx_HAL_Driver/Src/stm32l4xx_ll_exti.c **** 
  49:../../../libs/smtc-hal-mcu-stm32l4/third_party/STM32CubeL4/Drivers/STM32L4xx_HAL_Driver/Src/stm32l4xx_ll_exti.c **** #define IS_LL_EXTI_MODE(__VALUE__)                   (((__VALUE__) == LL_EXTI_MODE_IT)            \
  50:../../../libs/smtc-hal-mcu-stm32l4/third_party/STM32CubeL4/Drivers/STM32L4xx_HAL_Driver/Src/stm32l4xx_ll_exti.c ****                                                    || ((__VALUE__) == LL_EXTI_MODE_EVENT)         \
  51:../../../libs/smtc-hal-mcu-stm32l4/third_party/STM32CubeL4/Drivers/STM32L4xx_HAL_Driver/Src/stm32l4xx_ll_exti.c ****                                                    || ((__VALUE__) == LL_EXTI_MODE_IT_EVENT))
  52:../../../libs/smtc-hal-mcu-stm32l4/third_party/STM32CubeL4/Drivers/STM32L4xx_HAL_Driver/Src/stm32l4xx_ll_exti.c **** 
  53:../../../libs/smtc-hal-mcu-stm32l4/third_party/STM32CubeL4/Drivers/STM32L4xx_HAL_Driver/Src/stm32l4xx_ll_exti.c **** 
  54:../../../libs/smtc-hal-mcu-stm32l4/third_party/STM32CubeL4/Drivers/STM32L4xx_HAL_Driver/Src/stm32l4xx_ll_exti.c **** #define IS_LL_EXTI_TRIGGER(__VALUE__)                (((__VALUE__) == LL_EXTI_TRIGGER_NONE)       \
  55:../../../libs/smtc-hal-mcu-stm32l4/third_party/STM32CubeL4/Drivers/STM32L4xx_HAL_Driver/Src/stm32l4xx_ll_exti.c ****                                                    || ((__VALUE__) == LL_EXTI_TRIGGER_RISING)     \
  56:../../../libs/smtc-hal-mcu-stm32l4/third_party/STM32CubeL4/Drivers/STM32L4xx_HAL_Driver/Src/stm32l4xx_ll_exti.c ****                                                    || ((__VALUE__) == LL_EXTI_TRIGGER_FALLING)    \
  57:../../../libs/smtc-hal-mcu-stm32l4/third_party/STM32CubeL4/Drivers/STM32L4xx_HAL_Driver/Src/stm32l4xx_ll_exti.c ****                                                    || ((__VALUE__) == LL_EXTI_TRIGGER_RISING_FALLIN
  58:../../../libs/smtc-hal-mcu-stm32l4/third_party/STM32CubeL4/Drivers/STM32L4xx_HAL_Driver/Src/stm32l4xx_ll_exti.c **** 
  59:../../../libs/smtc-hal-mcu-stm32l4/third_party/STM32CubeL4/Drivers/STM32L4xx_HAL_Driver/Src/stm32l4xx_ll_exti.c **** /**
  60:../../../libs/smtc-hal-mcu-stm32l4/third_party/STM32CubeL4/Drivers/STM32L4xx_HAL_Driver/Src/stm32l4xx_ll_exti.c ****   * @}
  61:../../../libs/smtc-hal-mcu-stm32l4/third_party/STM32CubeL4/Drivers/STM32L4xx_HAL_Driver/Src/stm32l4xx_ll_exti.c ****   */
  62:../../../libs/smtc-hal-mcu-stm32l4/third_party/STM32CubeL4/Drivers/STM32L4xx_HAL_Driver/Src/stm32l4xx_ll_exti.c **** 
  63:../../../libs/smtc-hal-mcu-stm32l4/third_party/STM32CubeL4/Drivers/STM32L4xx_HAL_Driver/Src/stm32l4xx_ll_exti.c **** /* Private function prototypes -----------------------------------------------*/
  64:../../../libs/smtc-hal-mcu-stm32l4/third_party/STM32CubeL4/Drivers/STM32L4xx_HAL_Driver/Src/stm32l4xx_ll_exti.c **** 
  65:../../../libs/smtc-hal-mcu-stm32l4/third_party/STM32CubeL4/Drivers/STM32L4xx_HAL_Driver/Src/stm32l4xx_ll_exti.c **** /* Exported functions --------------------------------------------------------*/
  66:../../../libs/smtc-hal-mcu-stm32l4/third_party/STM32CubeL4/Drivers/STM32L4xx_HAL_Driver/Src/stm32l4xx_ll_exti.c **** /** @addtogroup EXTI_LL_Exported_Functions
  67:../../../libs/smtc-hal-mcu-stm32l4/third_party/STM32CubeL4/Drivers/STM32L4xx_HAL_Driver/Src/stm32l4xx_ll_exti.c ****   * @{
  68:../../../libs/smtc-hal-mcu-stm32l4/third_party/STM32CubeL4/Drivers/STM32L4xx_HAL_Driver/Src/stm32l4xx_ll_exti.c ****   */
  69:../../../libs/smtc-hal-mcu-stm32l4/third_party/STM32CubeL4/Drivers/STM32L4xx_HAL_Driver/Src/stm32l4xx_ll_exti.c **** 
  70:../../../libs/smtc-hal-mcu-stm32l4/third_party/STM32CubeL4/Drivers/STM32L4xx_HAL_Driver/Src/stm32l4xx_ll_exti.c **** /** @addtogroup EXTI_LL_EF_Init
  71:../../../libs/smtc-hal-mcu-stm32l4/third_party/STM32CubeL4/Drivers/STM32L4xx_HAL_Driver/Src/stm32l4xx_ll_exti.c ****   * @{
  72:../../../libs/smtc-hal-mcu-stm32l4/third_party/STM32CubeL4/Drivers/STM32L4xx_HAL_Driver/Src/stm32l4xx_ll_exti.c ****   */
  73:../../../libs/smtc-hal-mcu-stm32l4/third_party/STM32CubeL4/Drivers/STM32L4xx_HAL_Driver/Src/stm32l4xx_ll_exti.c **** 
  74:../../../libs/smtc-hal-mcu-stm32l4/third_party/STM32CubeL4/Drivers/STM32L4xx_HAL_Driver/Src/stm32l4xx_ll_exti.c **** /**
  75:../../../libs/smtc-hal-mcu-stm32l4/third_party/STM32CubeL4/Drivers/STM32L4xx_HAL_Driver/Src/stm32l4xx_ll_exti.c ****   * @brief  De-initialize the EXTI registers to their default reset values.
  76:../../../libs/smtc-hal-mcu-stm32l4/third_party/STM32CubeL4/Drivers/STM32L4xx_HAL_Driver/Src/stm32l4xx_ll_exti.c ****   * @retval An ErrorStatus enumeration value:
  77:../../../libs/smtc-hal-mcu-stm32l4/third_party/STM32CubeL4/Drivers/STM32L4xx_HAL_Driver/Src/stm32l4xx_ll_exti.c ****   *          - 0x00: EXTI registers are de-initialized
  78:../../../libs/smtc-hal-mcu-stm32l4/third_party/STM32CubeL4/Drivers/STM32L4xx_HAL_Driver/Src/stm32l4xx_ll_exti.c ****   */
  79:../../../libs/smtc-hal-mcu-stm32l4/third_party/STM32CubeL4/Drivers/STM32L4xx_HAL_Driver/Src/stm32l4xx_ll_exti.c **** uint32_t LL_EXTI_DeInit(void)
  80:../../../libs/smtc-hal-mcu-stm32l4/third_party/STM32CubeL4/Drivers/STM32L4xx_HAL_Driver/Src/stm32l4xx_ll_exti.c **** {
 870              		.loc 1 80 1
 871              		.cfi_startproc
ARM GAS  C:\msys64\tmp\cczBzbSO.s 			page 35


 872              		@ args = 0, pretend = 0, frame = 0
 873              		@ frame_needed = 1, uses_anonymous_args = 0
 874              		@ link register save eliminated.
 875 0000 80B4     		push	{r7}
 876              	.LCFI96:
 877              		.cfi_def_cfa_offset 4
 878              		.cfi_offset 7, -4
 879 0002 00AF     		add	r7, sp, #0
 880              	.LCFI97:
 881              		.cfi_def_cfa_register 7
  81:../../../libs/smtc-hal-mcu-stm32l4/third_party/STM32CubeL4/Drivers/STM32L4xx_HAL_Driver/Src/stm32l4xx_ll_exti.c ****   /* Interrupt mask register set to default reset values */
  82:../../../libs/smtc-hal-mcu-stm32l4/third_party/STM32CubeL4/Drivers/STM32L4xx_HAL_Driver/Src/stm32l4xx_ll_exti.c ****   LL_EXTI_WriteReg(IMR1,   0xFF820000U);
 882              		.loc 1 82 3
 883 0004 144B     		ldr	r3, .L51
 884 0006 154A     		ldr	r2, .L51+4
 885 0008 1A60     		str	r2, [r3]
  83:../../../libs/smtc-hal-mcu-stm32l4/third_party/STM32CubeL4/Drivers/STM32L4xx_HAL_Driver/Src/stm32l4xx_ll_exti.c ****   /* Event mask register set to default reset values */
  84:../../../libs/smtc-hal-mcu-stm32l4/third_party/STM32CubeL4/Drivers/STM32L4xx_HAL_Driver/Src/stm32l4xx_ll_exti.c ****   LL_EXTI_WriteReg(EMR1,   0x00000000U);
 886              		.loc 1 84 3
 887 000a 134B     		ldr	r3, .L51
 888 000c 0022     		movs	r2, #0
 889 000e 5A60     		str	r2, [r3, #4]
  85:../../../libs/smtc-hal-mcu-stm32l4/third_party/STM32CubeL4/Drivers/STM32L4xx_HAL_Driver/Src/stm32l4xx_ll_exti.c ****   /* Rising Trigger selection register set to default reset values */
  86:../../../libs/smtc-hal-mcu-stm32l4/third_party/STM32CubeL4/Drivers/STM32L4xx_HAL_Driver/Src/stm32l4xx_ll_exti.c ****   LL_EXTI_WriteReg(RTSR1,  0x00000000U);
 890              		.loc 1 86 3
 891 0010 114B     		ldr	r3, .L51
 892 0012 0022     		movs	r2, #0
 893 0014 9A60     		str	r2, [r3, #8]
  87:../../../libs/smtc-hal-mcu-stm32l4/third_party/STM32CubeL4/Drivers/STM32L4xx_HAL_Driver/Src/stm32l4xx_ll_exti.c ****   /* Falling Trigger selection register set to default reset values */
  88:../../../libs/smtc-hal-mcu-stm32l4/third_party/STM32CubeL4/Drivers/STM32L4xx_HAL_Driver/Src/stm32l4xx_ll_exti.c ****   LL_EXTI_WriteReg(FTSR1,  0x00000000U);
 894              		.loc 1 88 3
 895 0016 104B     		ldr	r3, .L51
 896 0018 0022     		movs	r2, #0
 897 001a DA60     		str	r2, [r3, #12]
  89:../../../libs/smtc-hal-mcu-stm32l4/third_party/STM32CubeL4/Drivers/STM32L4xx_HAL_Driver/Src/stm32l4xx_ll_exti.c ****   /* Software interrupt event register set to default reset values */
  90:../../../libs/smtc-hal-mcu-stm32l4/third_party/STM32CubeL4/Drivers/STM32L4xx_HAL_Driver/Src/stm32l4xx_ll_exti.c ****   LL_EXTI_WriteReg(SWIER1, 0x00000000U);
 898              		.loc 1 90 3
 899 001c 0E4B     		ldr	r3, .L51
 900 001e 0022     		movs	r2, #0
 901 0020 1A61     		str	r2, [r3, #16]
  91:../../../libs/smtc-hal-mcu-stm32l4/third_party/STM32CubeL4/Drivers/STM32L4xx_HAL_Driver/Src/stm32l4xx_ll_exti.c ****   /* Pending register clear */
  92:../../../libs/smtc-hal-mcu-stm32l4/third_party/STM32CubeL4/Drivers/STM32L4xx_HAL_Driver/Src/stm32l4xx_ll_exti.c ****   LL_EXTI_WriteReg(PR1,    0x007DFFFFU);
 902              		.loc 1 92 3
 903 0022 0D4B     		ldr	r3, .L51
 904 0024 0E4A     		ldr	r2, .L51+8
 905 0026 5A61     		str	r2, [r3, #20]
  93:../../../libs/smtc-hal-mcu-stm32l4/third_party/STM32CubeL4/Drivers/STM32L4xx_HAL_Driver/Src/stm32l4xx_ll_exti.c **** 
  94:../../../libs/smtc-hal-mcu-stm32l4/third_party/STM32CubeL4/Drivers/STM32L4xx_HAL_Driver/Src/stm32l4xx_ll_exti.c ****   /* Interrupt mask register 2 set to default reset values */
  95:../../../libs/smtc-hal-mcu-stm32l4/third_party/STM32CubeL4/Drivers/STM32L4xx_HAL_Driver/Src/stm32l4xx_ll_exti.c **** #if defined(LL_EXTI_LINE_40)
  96:../../../libs/smtc-hal-mcu-stm32l4/third_party/STM32CubeL4/Drivers/STM32L4xx_HAL_Driver/Src/stm32l4xx_ll_exti.c ****   LL_EXTI_WriteReg(IMR2,        0x00000187U);
  97:../../../libs/smtc-hal-mcu-stm32l4/third_party/STM32CubeL4/Drivers/STM32L4xx_HAL_Driver/Src/stm32l4xx_ll_exti.c **** #else
  98:../../../libs/smtc-hal-mcu-stm32l4/third_party/STM32CubeL4/Drivers/STM32L4xx_HAL_Driver/Src/stm32l4xx_ll_exti.c ****   LL_EXTI_WriteReg(IMR2,        0x00000087U);
 906              		.loc 1 98 3
 907 0028 0B4B     		ldr	r3, .L51
 908 002a 8722     		movs	r2, #135
 909 002c 1A62     		str	r2, [r3, #32]
  99:../../../libs/smtc-hal-mcu-stm32l4/third_party/STM32CubeL4/Drivers/STM32L4xx_HAL_Driver/Src/stm32l4xx_ll_exti.c **** #endif
ARM GAS  C:\msys64\tmp\cczBzbSO.s 			page 36


 100:../../../libs/smtc-hal-mcu-stm32l4/third_party/STM32CubeL4/Drivers/STM32L4xx_HAL_Driver/Src/stm32l4xx_ll_exti.c ****   /* Event mask register 2 set to default reset values */
 101:../../../libs/smtc-hal-mcu-stm32l4/third_party/STM32CubeL4/Drivers/STM32L4xx_HAL_Driver/Src/stm32l4xx_ll_exti.c ****   LL_EXTI_WriteReg(EMR2,        0x00000000U);
 910              		.loc 1 101 3
 911 002e 0A4B     		ldr	r3, .L51
 912 0030 0022     		movs	r2, #0
 913 0032 5A62     		str	r2, [r3, #36]
 102:../../../libs/smtc-hal-mcu-stm32l4/third_party/STM32CubeL4/Drivers/STM32L4xx_HAL_Driver/Src/stm32l4xx_ll_exti.c ****   /* Rising Trigger selection register 2 set to default reset values */
 103:../../../libs/smtc-hal-mcu-stm32l4/third_party/STM32CubeL4/Drivers/STM32L4xx_HAL_Driver/Src/stm32l4xx_ll_exti.c ****   LL_EXTI_WriteReg(RTSR2,       0x00000000U);
 914              		.loc 1 103 3
 915 0034 084B     		ldr	r3, .L51
 916 0036 0022     		movs	r2, #0
 917 0038 9A62     		str	r2, [r3, #40]
 104:../../../libs/smtc-hal-mcu-stm32l4/third_party/STM32CubeL4/Drivers/STM32L4xx_HAL_Driver/Src/stm32l4xx_ll_exti.c ****   /* Falling Trigger selection register 2 set to default reset values */
 105:../../../libs/smtc-hal-mcu-stm32l4/third_party/STM32CubeL4/Drivers/STM32L4xx_HAL_Driver/Src/stm32l4xx_ll_exti.c ****   LL_EXTI_WriteReg(FTSR2,       0x00000000U);
 918              		.loc 1 105 3
 919 003a 074B     		ldr	r3, .L51
 920 003c 0022     		movs	r2, #0
 921 003e DA62     		str	r2, [r3, #44]
 106:../../../libs/smtc-hal-mcu-stm32l4/third_party/STM32CubeL4/Drivers/STM32L4xx_HAL_Driver/Src/stm32l4xx_ll_exti.c ****   /* Software interrupt event register 2 set to default reset values */
 107:../../../libs/smtc-hal-mcu-stm32l4/third_party/STM32CubeL4/Drivers/STM32L4xx_HAL_Driver/Src/stm32l4xx_ll_exti.c ****   LL_EXTI_WriteReg(SWIER2,      0x00000000U);
 922              		.loc 1 107 3
 923 0040 054B     		ldr	r3, .L51
 924 0042 0022     		movs	r2, #0
 925 0044 1A63     		str	r2, [r3, #48]
 108:../../../libs/smtc-hal-mcu-stm32l4/third_party/STM32CubeL4/Drivers/STM32L4xx_HAL_Driver/Src/stm32l4xx_ll_exti.c ****   /* Pending register 2 clear */
 109:../../../libs/smtc-hal-mcu-stm32l4/third_party/STM32CubeL4/Drivers/STM32L4xx_HAL_Driver/Src/stm32l4xx_ll_exti.c ****   LL_EXTI_WriteReg(PR2,         0x00000078U);
 926              		.loc 1 109 3
 927 0046 044B     		ldr	r3, .L51
 928 0048 7822     		movs	r2, #120
 929 004a 5A63     		str	r2, [r3, #52]
 110:../../../libs/smtc-hal-mcu-stm32l4/third_party/STM32CubeL4/Drivers/STM32L4xx_HAL_Driver/Src/stm32l4xx_ll_exti.c **** 
 111:../../../libs/smtc-hal-mcu-stm32l4/third_party/STM32CubeL4/Drivers/STM32L4xx_HAL_Driver/Src/stm32l4xx_ll_exti.c ****   return 0x00u;
 930              		.loc 1 111 10
 931 004c 0023     		movs	r3, #0
 112:../../../libs/smtc-hal-mcu-stm32l4/third_party/STM32CubeL4/Drivers/STM32L4xx_HAL_Driver/Src/stm32l4xx_ll_exti.c **** }
 932              		.loc 1 112 1
 933 004e 1846     		mov	r0, r3
 934 0050 BD46     		mov	sp, r7
 935              	.LCFI98:
 936              		.cfi_def_cfa_register 13
 937              		@ sp needed
 938 0052 5DF8047B 		ldr	r7, [sp], #4
 939              	.LCFI99:
 940              		.cfi_restore 7
 941              		.cfi_def_cfa_offset 0
 942 0056 7047     		bx	lr
 943              	.L52:
 944              		.align	2
 945              	.L51:
 946 0058 00040140 		.word	1073808384
 947 005c 000082FF 		.word	-8257536
 948 0060 FFFF7D00 		.word	8257535
 949              		.cfi_endproc
 950              	.LFE164:
 952              		.section	.text.LL_EXTI_Init,"ax",%progbits
 953              		.align	1
 954              		.global	LL_EXTI_Init
ARM GAS  C:\msys64\tmp\cczBzbSO.s 			page 37


 955              		.syntax unified
 956              		.thumb
 957              		.thumb_func
 959              	LL_EXTI_Init:
 960              	.LFB165:
 113:../../../libs/smtc-hal-mcu-stm32l4/third_party/STM32CubeL4/Drivers/STM32L4xx_HAL_Driver/Src/stm32l4xx_ll_exti.c **** 
 114:../../../libs/smtc-hal-mcu-stm32l4/third_party/STM32CubeL4/Drivers/STM32L4xx_HAL_Driver/Src/stm32l4xx_ll_exti.c **** /**
 115:../../../libs/smtc-hal-mcu-stm32l4/third_party/STM32CubeL4/Drivers/STM32L4xx_HAL_Driver/Src/stm32l4xx_ll_exti.c ****   * @brief  Initialize the EXTI registers according to the specified parameters in EXTI_InitStruct.
 116:../../../libs/smtc-hal-mcu-stm32l4/third_party/STM32CubeL4/Drivers/STM32L4xx_HAL_Driver/Src/stm32l4xx_ll_exti.c ****   * @param  EXTI_InitStruct pointer to a @ref LL_EXTI_InitTypeDef structure.
 117:../../../libs/smtc-hal-mcu-stm32l4/third_party/STM32CubeL4/Drivers/STM32L4xx_HAL_Driver/Src/stm32l4xx_ll_exti.c ****   * @retval An ErrorStatus enumeration value:
 118:../../../libs/smtc-hal-mcu-stm32l4/third_party/STM32CubeL4/Drivers/STM32L4xx_HAL_Driver/Src/stm32l4xx_ll_exti.c ****   *          - 0x00: EXTI registers are initialized
 119:../../../libs/smtc-hal-mcu-stm32l4/third_party/STM32CubeL4/Drivers/STM32L4xx_HAL_Driver/Src/stm32l4xx_ll_exti.c ****   *          - any other value : wrong configuration
 120:../../../libs/smtc-hal-mcu-stm32l4/third_party/STM32CubeL4/Drivers/STM32L4xx_HAL_Driver/Src/stm32l4xx_ll_exti.c ****   */
 121:../../../libs/smtc-hal-mcu-stm32l4/third_party/STM32CubeL4/Drivers/STM32L4xx_HAL_Driver/Src/stm32l4xx_ll_exti.c **** uint32_t LL_EXTI_Init(LL_EXTI_InitTypeDef *EXTI_InitStruct)
 122:../../../libs/smtc-hal-mcu-stm32l4/third_party/STM32CubeL4/Drivers/STM32L4xx_HAL_Driver/Src/stm32l4xx_ll_exti.c **** {
 961              		.loc 1 122 1
 962              		.cfi_startproc
 963              		@ args = 0, pretend = 0, frame = 16
 964              		@ frame_needed = 1, uses_anonymous_args = 0
 965 0000 80B5     		push	{r7, lr}
 966              	.LCFI100:
 967              		.cfi_def_cfa_offset 8
 968              		.cfi_offset 7, -8
 969              		.cfi_offset 14, -4
 970 0002 84B0     		sub	sp, sp, #16
 971              	.LCFI101:
 972              		.cfi_def_cfa_offset 24
 973 0004 00AF     		add	r7, sp, #0
 974              	.LCFI102:
 975              		.cfi_def_cfa_register 7
 976 0006 7860     		str	r0, [r7, #4]
 123:../../../libs/smtc-hal-mcu-stm32l4/third_party/STM32CubeL4/Drivers/STM32L4xx_HAL_Driver/Src/stm32l4xx_ll_exti.c ****   uint32_t status = 0x00u;
 977              		.loc 1 123 12
 978 0008 0023     		movs	r3, #0
 979 000a FB60     		str	r3, [r7, #12]
 124:../../../libs/smtc-hal-mcu-stm32l4/third_party/STM32CubeL4/Drivers/STM32L4xx_HAL_Driver/Src/stm32l4xx_ll_exti.c **** 
 125:../../../libs/smtc-hal-mcu-stm32l4/third_party/STM32CubeL4/Drivers/STM32L4xx_HAL_Driver/Src/stm32l4xx_ll_exti.c ****   /* Check the parameters */
 126:../../../libs/smtc-hal-mcu-stm32l4/third_party/STM32CubeL4/Drivers/STM32L4xx_HAL_Driver/Src/stm32l4xx_ll_exti.c ****   assert_param(IS_LL_EXTI_LINE_0_31(EXTI_InitStruct->Line_0_31));
 127:../../../libs/smtc-hal-mcu-stm32l4/third_party/STM32CubeL4/Drivers/STM32L4xx_HAL_Driver/Src/stm32l4xx_ll_exti.c ****   assert_param(IS_LL_EXTI_LINE_32_63(EXTI_InitStruct->Line_32_63));
 128:../../../libs/smtc-hal-mcu-stm32l4/third_party/STM32CubeL4/Drivers/STM32L4xx_HAL_Driver/Src/stm32l4xx_ll_exti.c ****   assert_param(IS_FUNCTIONAL_STATE(EXTI_InitStruct->LineCommand));
 129:../../../libs/smtc-hal-mcu-stm32l4/third_party/STM32CubeL4/Drivers/STM32L4xx_HAL_Driver/Src/stm32l4xx_ll_exti.c ****   assert_param(IS_LL_EXTI_MODE(EXTI_InitStruct->Mode));
 130:../../../libs/smtc-hal-mcu-stm32l4/third_party/STM32CubeL4/Drivers/STM32L4xx_HAL_Driver/Src/stm32l4xx_ll_exti.c **** 
 131:../../../libs/smtc-hal-mcu-stm32l4/third_party/STM32CubeL4/Drivers/STM32L4xx_HAL_Driver/Src/stm32l4xx_ll_exti.c ****   /* ENABLE LineCommand */
 132:../../../libs/smtc-hal-mcu-stm32l4/third_party/STM32CubeL4/Drivers/STM32L4xx_HAL_Driver/Src/stm32l4xx_ll_exti.c ****   if (EXTI_InitStruct->LineCommand != DISABLE)
 980              		.loc 1 132 22
 981 000c 7B68     		ldr	r3, [r7, #4]
 982 000e 1B7A     		ldrb	r3, [r3, #8]	@ zero_extendqisi2
 983              		.loc 1 132 6
 984 0010 002B     		cmp	r3, #0
 985 0012 00F0D080 		beq	.L54
 133:../../../libs/smtc-hal-mcu-stm32l4/third_party/STM32CubeL4/Drivers/STM32L4xx_HAL_Driver/Src/stm32l4xx_ll_exti.c ****   {
 134:../../../libs/smtc-hal-mcu-stm32l4/third_party/STM32CubeL4/Drivers/STM32L4xx_HAL_Driver/Src/stm32l4xx_ll_exti.c ****     assert_param(IS_LL_EXTI_TRIGGER(EXTI_InitStruct->Trigger));
 135:../../../libs/smtc-hal-mcu-stm32l4/third_party/STM32CubeL4/Drivers/STM32L4xx_HAL_Driver/Src/stm32l4xx_ll_exti.c **** 
 136:../../../libs/smtc-hal-mcu-stm32l4/third_party/STM32CubeL4/Drivers/STM32L4xx_HAL_Driver/Src/stm32l4xx_ll_exti.c ****     /* Configure EXTI Lines in range from 0 to 31 */
 137:../../../libs/smtc-hal-mcu-stm32l4/third_party/STM32CubeL4/Drivers/STM32L4xx_HAL_Driver/Src/stm32l4xx_ll_exti.c ****     if (EXTI_InitStruct->Line_0_31 != LL_EXTI_LINE_NONE)
 986              		.loc 1 137 24
 987 0016 7B68     		ldr	r3, [r7, #4]
ARM GAS  C:\msys64\tmp\cczBzbSO.s 			page 38


 988 0018 1B68     		ldr	r3, [r3]
 989              		.loc 1 137 8
 990 001a 002B     		cmp	r3, #0
 991 001c 63D0     		beq	.L55
 138:../../../libs/smtc-hal-mcu-stm32l4/third_party/STM32CubeL4/Drivers/STM32L4xx_HAL_Driver/Src/stm32l4xx_ll_exti.c ****     {
 139:../../../libs/smtc-hal-mcu-stm32l4/third_party/STM32CubeL4/Drivers/STM32L4xx_HAL_Driver/Src/stm32l4xx_ll_exti.c ****       switch (EXTI_InitStruct->Mode)
 992              		.loc 1 139 30
 993 001e 7B68     		ldr	r3, [r7, #4]
 994 0020 5B7A     		ldrb	r3, [r3, #9]	@ zero_extendqisi2
 995              		.loc 1 139 7
 996 0022 022B     		cmp	r3, #2
 997 0024 1CD0     		beq	.L56
 998 0026 022B     		cmp	r3, #2
 999 0028 25DC     		bgt	.L57
 1000 002a 002B     		cmp	r3, #0
 1001 002c 02D0     		beq	.L58
 1002 002e 012B     		cmp	r3, #1
 1003 0030 0BD0     		beq	.L59
 1004 0032 20E0     		b	.L57
 1005              	.L58:
 140:../../../libs/smtc-hal-mcu-stm32l4/third_party/STM32CubeL4/Drivers/STM32L4xx_HAL_Driver/Src/stm32l4xx_ll_exti.c ****       {
 141:../../../libs/smtc-hal-mcu-stm32l4/third_party/STM32CubeL4/Drivers/STM32L4xx_HAL_Driver/Src/stm32l4xx_ll_exti.c ****         case LL_EXTI_MODE_IT:
 142:../../../libs/smtc-hal-mcu-stm32l4/third_party/STM32CubeL4/Drivers/STM32L4xx_HAL_Driver/Src/stm32l4xx_ll_exti.c ****           /* First Disable Event on provided Lines */
 143:../../../libs/smtc-hal-mcu-stm32l4/third_party/STM32CubeL4/Drivers/STM32L4xx_HAL_Driver/Src/stm32l4xx_ll_exti.c ****           LL_EXTI_DisableEvent_0_31(EXTI_InitStruct->Line_0_31);
 1006              		.loc 1 143 11
 1007 0034 7B68     		ldr	r3, [r7, #4]
 1008 0036 1B68     		ldr	r3, [r3]
 1009 0038 1846     		mov	r0, r3
 1010 003a FFF7FEFF 		bl	LL_EXTI_DisableEvent_0_31
 144:../../../libs/smtc-hal-mcu-stm32l4/third_party/STM32CubeL4/Drivers/STM32L4xx_HAL_Driver/Src/stm32l4xx_ll_exti.c ****           /* Then Enable IT on provided Lines */
 145:../../../libs/smtc-hal-mcu-stm32l4/third_party/STM32CubeL4/Drivers/STM32L4xx_HAL_Driver/Src/stm32l4xx_ll_exti.c ****           LL_EXTI_EnableIT_0_31(EXTI_InitStruct->Line_0_31);
 1011              		.loc 1 145 11
 1012 003e 7B68     		ldr	r3, [r7, #4]
 1013 0040 1B68     		ldr	r3, [r3]
 1014 0042 1846     		mov	r0, r3
 1015 0044 FFF7FEFF 		bl	LL_EXTI_EnableIT_0_31
 146:../../../libs/smtc-hal-mcu-stm32l4/third_party/STM32CubeL4/Drivers/STM32L4xx_HAL_Driver/Src/stm32l4xx_ll_exti.c ****           break;
 1016              		.loc 1 146 11
 1017 0048 18E0     		b	.L60
 1018              	.L59:
 147:../../../libs/smtc-hal-mcu-stm32l4/third_party/STM32CubeL4/Drivers/STM32L4xx_HAL_Driver/Src/stm32l4xx_ll_exti.c ****         case LL_EXTI_MODE_EVENT:
 148:../../../libs/smtc-hal-mcu-stm32l4/third_party/STM32CubeL4/Drivers/STM32L4xx_HAL_Driver/Src/stm32l4xx_ll_exti.c ****           /* First Disable IT on provided Lines */
 149:../../../libs/smtc-hal-mcu-stm32l4/third_party/STM32CubeL4/Drivers/STM32L4xx_HAL_Driver/Src/stm32l4xx_ll_exti.c ****           LL_EXTI_DisableIT_0_31(EXTI_InitStruct->Line_0_31);
 1019              		.loc 1 149 11
 1020 004a 7B68     		ldr	r3, [r7, #4]
 1021 004c 1B68     		ldr	r3, [r3]
 1022 004e 1846     		mov	r0, r3
 1023 0050 FFF7FEFF 		bl	LL_EXTI_DisableIT_0_31
 150:../../../libs/smtc-hal-mcu-stm32l4/third_party/STM32CubeL4/Drivers/STM32L4xx_HAL_Driver/Src/stm32l4xx_ll_exti.c ****           /* Then Enable Event on provided Lines */
 151:../../../libs/smtc-hal-mcu-stm32l4/third_party/STM32CubeL4/Drivers/STM32L4xx_HAL_Driver/Src/stm32l4xx_ll_exti.c ****           LL_EXTI_EnableEvent_0_31(EXTI_InitStruct->Line_0_31);
 1024              		.loc 1 151 11
 1025 0054 7B68     		ldr	r3, [r7, #4]
 1026 0056 1B68     		ldr	r3, [r3]
 1027 0058 1846     		mov	r0, r3
 1028 005a FFF7FEFF 		bl	LL_EXTI_EnableEvent_0_31
 152:../../../libs/smtc-hal-mcu-stm32l4/third_party/STM32CubeL4/Drivers/STM32L4xx_HAL_Driver/Src/stm32l4xx_ll_exti.c ****           break;
 1029              		.loc 1 152 11
ARM GAS  C:\msys64\tmp\cczBzbSO.s 			page 39


 1030 005e 0DE0     		b	.L60
 1031              	.L56:
 153:../../../libs/smtc-hal-mcu-stm32l4/third_party/STM32CubeL4/Drivers/STM32L4xx_HAL_Driver/Src/stm32l4xx_ll_exti.c ****         case LL_EXTI_MODE_IT_EVENT:
 154:../../../libs/smtc-hal-mcu-stm32l4/third_party/STM32CubeL4/Drivers/STM32L4xx_HAL_Driver/Src/stm32l4xx_ll_exti.c ****           /* Directly Enable IT & Event on provided Lines */
 155:../../../libs/smtc-hal-mcu-stm32l4/third_party/STM32CubeL4/Drivers/STM32L4xx_HAL_Driver/Src/stm32l4xx_ll_exti.c ****           LL_EXTI_EnableIT_0_31(EXTI_InitStruct->Line_0_31);
 1032              		.loc 1 155 11
 1033 0060 7B68     		ldr	r3, [r7, #4]
 1034 0062 1B68     		ldr	r3, [r3]
 1035 0064 1846     		mov	r0, r3
 1036 0066 FFF7FEFF 		bl	LL_EXTI_EnableIT_0_31
 156:../../../libs/smtc-hal-mcu-stm32l4/third_party/STM32CubeL4/Drivers/STM32L4xx_HAL_Driver/Src/stm32l4xx_ll_exti.c ****           LL_EXTI_EnableEvent_0_31(EXTI_InitStruct->Line_0_31);
 1037              		.loc 1 156 11
 1038 006a 7B68     		ldr	r3, [r7, #4]
 1039 006c 1B68     		ldr	r3, [r3]
 1040 006e 1846     		mov	r0, r3
 1041 0070 FFF7FEFF 		bl	LL_EXTI_EnableEvent_0_31
 157:../../../libs/smtc-hal-mcu-stm32l4/third_party/STM32CubeL4/Drivers/STM32L4xx_HAL_Driver/Src/stm32l4xx_ll_exti.c ****           break;
 1042              		.loc 1 157 11
 1043 0074 02E0     		b	.L60
 1044              	.L57:
 158:../../../libs/smtc-hal-mcu-stm32l4/third_party/STM32CubeL4/Drivers/STM32L4xx_HAL_Driver/Src/stm32l4xx_ll_exti.c ****         default:
 159:../../../libs/smtc-hal-mcu-stm32l4/third_party/STM32CubeL4/Drivers/STM32L4xx_HAL_Driver/Src/stm32l4xx_ll_exti.c ****           status = 0x01u;
 1045              		.loc 1 159 18
 1046 0076 0123     		movs	r3, #1
 1047 0078 FB60     		str	r3, [r7, #12]
 160:../../../libs/smtc-hal-mcu-stm32l4/third_party/STM32CubeL4/Drivers/STM32L4xx_HAL_Driver/Src/stm32l4xx_ll_exti.c ****           break;
 1048              		.loc 1 160 11
 1049 007a 00BF     		nop
 1050              	.L60:
 161:../../../libs/smtc-hal-mcu-stm32l4/third_party/STM32CubeL4/Drivers/STM32L4xx_HAL_Driver/Src/stm32l4xx_ll_exti.c ****       }
 162:../../../libs/smtc-hal-mcu-stm32l4/third_party/STM32CubeL4/Drivers/STM32L4xx_HAL_Driver/Src/stm32l4xx_ll_exti.c ****       if (EXTI_InitStruct->Trigger != LL_EXTI_TRIGGER_NONE)
 1051              		.loc 1 162 26
 1052 007c 7B68     		ldr	r3, [r7, #4]
 1053 007e 9B7A     		ldrb	r3, [r3, #10]	@ zero_extendqisi2
 1054              		.loc 1 162 10
 1055 0080 002B     		cmp	r3, #0
 1056 0082 30D0     		beq	.L55
 163:../../../libs/smtc-hal-mcu-stm32l4/third_party/STM32CubeL4/Drivers/STM32L4xx_HAL_Driver/Src/stm32l4xx_ll_exti.c ****       {
 164:../../../libs/smtc-hal-mcu-stm32l4/third_party/STM32CubeL4/Drivers/STM32L4xx_HAL_Driver/Src/stm32l4xx_ll_exti.c ****         switch (EXTI_InitStruct->Trigger)
 1057              		.loc 1 164 32
 1058 0084 7B68     		ldr	r3, [r7, #4]
 1059 0086 9B7A     		ldrb	r3, [r3, #10]	@ zero_extendqisi2
 1060              		.loc 1 164 9
 1061 0088 032B     		cmp	r3, #3
 1062 008a 1CD0     		beq	.L61
 1063 008c 032B     		cmp	r3, #3
 1064 008e 25DC     		bgt	.L62
 1065 0090 012B     		cmp	r3, #1
 1066 0092 02D0     		beq	.L63
 1067 0094 022B     		cmp	r3, #2
 1068 0096 0BD0     		beq	.L64
 1069 0098 20E0     		b	.L62
 1070              	.L63:
 165:../../../libs/smtc-hal-mcu-stm32l4/third_party/STM32CubeL4/Drivers/STM32L4xx_HAL_Driver/Src/stm32l4xx_ll_exti.c ****         {
 166:../../../libs/smtc-hal-mcu-stm32l4/third_party/STM32CubeL4/Drivers/STM32L4xx_HAL_Driver/Src/stm32l4xx_ll_exti.c ****           case LL_EXTI_TRIGGER_RISING:
 167:../../../libs/smtc-hal-mcu-stm32l4/third_party/STM32CubeL4/Drivers/STM32L4xx_HAL_Driver/Src/stm32l4xx_ll_exti.c ****             /* First Disable Falling Trigger on provided Lines */
 168:../../../libs/smtc-hal-mcu-stm32l4/third_party/STM32CubeL4/Drivers/STM32L4xx_HAL_Driver/Src/stm32l4xx_ll_exti.c ****             LL_EXTI_DisableFallingTrig_0_31(EXTI_InitStruct->Line_0_31);
ARM GAS  C:\msys64\tmp\cczBzbSO.s 			page 40


 1071              		.loc 1 168 13
 1072 009a 7B68     		ldr	r3, [r7, #4]
 1073 009c 1B68     		ldr	r3, [r3]
 1074 009e 1846     		mov	r0, r3
 1075 00a0 FFF7FEFF 		bl	LL_EXTI_DisableFallingTrig_0_31
 169:../../../libs/smtc-hal-mcu-stm32l4/third_party/STM32CubeL4/Drivers/STM32L4xx_HAL_Driver/Src/stm32l4xx_ll_exti.c ****             /* Then Enable Rising Trigger on provided Lines */
 170:../../../libs/smtc-hal-mcu-stm32l4/third_party/STM32CubeL4/Drivers/STM32L4xx_HAL_Driver/Src/stm32l4xx_ll_exti.c ****             LL_EXTI_EnableRisingTrig_0_31(EXTI_InitStruct->Line_0_31);
 1076              		.loc 1 170 13
 1077 00a4 7B68     		ldr	r3, [r7, #4]
 1078 00a6 1B68     		ldr	r3, [r3]
 1079 00a8 1846     		mov	r0, r3
 1080 00aa FFF7FEFF 		bl	LL_EXTI_EnableRisingTrig_0_31
 171:../../../libs/smtc-hal-mcu-stm32l4/third_party/STM32CubeL4/Drivers/STM32L4xx_HAL_Driver/Src/stm32l4xx_ll_exti.c ****             break;
 1081              		.loc 1 171 13
 1082 00ae 1AE0     		b	.L55
 1083              	.L64:
 172:../../../libs/smtc-hal-mcu-stm32l4/third_party/STM32CubeL4/Drivers/STM32L4xx_HAL_Driver/Src/stm32l4xx_ll_exti.c ****           case LL_EXTI_TRIGGER_FALLING:
 173:../../../libs/smtc-hal-mcu-stm32l4/third_party/STM32CubeL4/Drivers/STM32L4xx_HAL_Driver/Src/stm32l4xx_ll_exti.c ****             /* First Disable Rising Trigger on provided Lines */
 174:../../../libs/smtc-hal-mcu-stm32l4/third_party/STM32CubeL4/Drivers/STM32L4xx_HAL_Driver/Src/stm32l4xx_ll_exti.c ****             LL_EXTI_DisableRisingTrig_0_31(EXTI_InitStruct->Line_0_31);
 1084              		.loc 1 174 13
 1085 00b0 7B68     		ldr	r3, [r7, #4]
 1086 00b2 1B68     		ldr	r3, [r3]
 1087 00b4 1846     		mov	r0, r3
 1088 00b6 FFF7FEFF 		bl	LL_EXTI_DisableRisingTrig_0_31
 175:../../../libs/smtc-hal-mcu-stm32l4/third_party/STM32CubeL4/Drivers/STM32L4xx_HAL_Driver/Src/stm32l4xx_ll_exti.c ****             /* Then Enable Falling Trigger on provided Lines */
 176:../../../libs/smtc-hal-mcu-stm32l4/third_party/STM32CubeL4/Drivers/STM32L4xx_HAL_Driver/Src/stm32l4xx_ll_exti.c ****             LL_EXTI_EnableFallingTrig_0_31(EXTI_InitStruct->Line_0_31);
 1089              		.loc 1 176 13
 1090 00ba 7B68     		ldr	r3, [r7, #4]
 1091 00bc 1B68     		ldr	r3, [r3]
 1092 00be 1846     		mov	r0, r3
 1093 00c0 FFF7FEFF 		bl	LL_EXTI_EnableFallingTrig_0_31
 177:../../../libs/smtc-hal-mcu-stm32l4/third_party/STM32CubeL4/Drivers/STM32L4xx_HAL_Driver/Src/stm32l4xx_ll_exti.c ****             break;
 1094              		.loc 1 177 13
 1095 00c4 0FE0     		b	.L55
 1096              	.L61:
 178:../../../libs/smtc-hal-mcu-stm32l4/third_party/STM32CubeL4/Drivers/STM32L4xx_HAL_Driver/Src/stm32l4xx_ll_exti.c ****           case LL_EXTI_TRIGGER_RISING_FALLING:
 179:../../../libs/smtc-hal-mcu-stm32l4/third_party/STM32CubeL4/Drivers/STM32L4xx_HAL_Driver/Src/stm32l4xx_ll_exti.c ****             LL_EXTI_EnableRisingTrig_0_31(EXTI_InitStruct->Line_0_31);
 1097              		.loc 1 179 13
 1098 00c6 7B68     		ldr	r3, [r7, #4]
 1099 00c8 1B68     		ldr	r3, [r3]
 1100 00ca 1846     		mov	r0, r3
 1101 00cc FFF7FEFF 		bl	LL_EXTI_EnableRisingTrig_0_31
 180:../../../libs/smtc-hal-mcu-stm32l4/third_party/STM32CubeL4/Drivers/STM32L4xx_HAL_Driver/Src/stm32l4xx_ll_exti.c ****             LL_EXTI_EnableFallingTrig_0_31(EXTI_InitStruct->Line_0_31);
 1102              		.loc 1 180 13
 1103 00d0 7B68     		ldr	r3, [r7, #4]
 1104 00d2 1B68     		ldr	r3, [r3]
 1105 00d4 1846     		mov	r0, r3
 1106 00d6 FFF7FEFF 		bl	LL_EXTI_EnableFallingTrig_0_31
 181:../../../libs/smtc-hal-mcu-stm32l4/third_party/STM32CubeL4/Drivers/STM32L4xx_HAL_Driver/Src/stm32l4xx_ll_exti.c ****             break;
 1107              		.loc 1 181 13
 1108 00da 04E0     		b	.L55
 1109              	.L62:
 182:../../../libs/smtc-hal-mcu-stm32l4/third_party/STM32CubeL4/Drivers/STM32L4xx_HAL_Driver/Src/stm32l4xx_ll_exti.c ****           default:
 183:../../../libs/smtc-hal-mcu-stm32l4/third_party/STM32CubeL4/Drivers/STM32L4xx_HAL_Driver/Src/stm32l4xx_ll_exti.c ****             status |= 0x02u;
 1110              		.loc 1 183 20
 1111 00dc FB68     		ldr	r3, [r7, #12]
 1112 00de 43F00203 		orr	r3, r3, #2
ARM GAS  C:\msys64\tmp\cczBzbSO.s 			page 41


 1113 00e2 FB60     		str	r3, [r7, #12]
 184:../../../libs/smtc-hal-mcu-stm32l4/third_party/STM32CubeL4/Drivers/STM32L4xx_HAL_Driver/Src/stm32l4xx_ll_exti.c ****             break;
 1114              		.loc 1 184 13
 1115 00e4 00BF     		nop
 1116              	.L55:
 185:../../../libs/smtc-hal-mcu-stm32l4/third_party/STM32CubeL4/Drivers/STM32L4xx_HAL_Driver/Src/stm32l4xx_ll_exti.c ****         }
 186:../../../libs/smtc-hal-mcu-stm32l4/third_party/STM32CubeL4/Drivers/STM32L4xx_HAL_Driver/Src/stm32l4xx_ll_exti.c ****       }
 187:../../../libs/smtc-hal-mcu-stm32l4/third_party/STM32CubeL4/Drivers/STM32L4xx_HAL_Driver/Src/stm32l4xx_ll_exti.c ****     }
 188:../../../libs/smtc-hal-mcu-stm32l4/third_party/STM32CubeL4/Drivers/STM32L4xx_HAL_Driver/Src/stm32l4xx_ll_exti.c ****     /* Configure EXTI Lines in range from 32 to 63 */
 189:../../../libs/smtc-hal-mcu-stm32l4/third_party/STM32CubeL4/Drivers/STM32L4xx_HAL_Driver/Src/stm32l4xx_ll_exti.c ****     if (EXTI_InitStruct->Line_32_63 != LL_EXTI_LINE_NONE)
 1117              		.loc 1 189 24
 1118 00e6 7B68     		ldr	r3, [r7, #4]
 1119 00e8 5B68     		ldr	r3, [r3, #4]
 1120              		.loc 1 189 8
 1121 00ea 002B     		cmp	r3, #0
 1122 00ec 77D0     		beq	.L75
 190:../../../libs/smtc-hal-mcu-stm32l4/third_party/STM32CubeL4/Drivers/STM32L4xx_HAL_Driver/Src/stm32l4xx_ll_exti.c ****     {
 191:../../../libs/smtc-hal-mcu-stm32l4/third_party/STM32CubeL4/Drivers/STM32L4xx_HAL_Driver/Src/stm32l4xx_ll_exti.c ****       switch (EXTI_InitStruct->Mode)
 1123              		.loc 1 191 30
 1124 00ee 7B68     		ldr	r3, [r7, #4]
 1125 00f0 5B7A     		ldrb	r3, [r3, #9]	@ zero_extendqisi2
 1126              		.loc 1 191 7
 1127 00f2 022B     		cmp	r3, #2
 1128 00f4 1CD0     		beq	.L66
 1129 00f6 022B     		cmp	r3, #2
 1130 00f8 25DC     		bgt	.L67
 1131 00fa 002B     		cmp	r3, #0
 1132 00fc 02D0     		beq	.L68
 1133 00fe 012B     		cmp	r3, #1
 1134 0100 0BD0     		beq	.L69
 1135 0102 20E0     		b	.L67
 1136              	.L68:
 192:../../../libs/smtc-hal-mcu-stm32l4/third_party/STM32CubeL4/Drivers/STM32L4xx_HAL_Driver/Src/stm32l4xx_ll_exti.c ****       {
 193:../../../libs/smtc-hal-mcu-stm32l4/third_party/STM32CubeL4/Drivers/STM32L4xx_HAL_Driver/Src/stm32l4xx_ll_exti.c ****         case LL_EXTI_MODE_IT:
 194:../../../libs/smtc-hal-mcu-stm32l4/third_party/STM32CubeL4/Drivers/STM32L4xx_HAL_Driver/Src/stm32l4xx_ll_exti.c ****           /* First Disable Event on provided Lines */
 195:../../../libs/smtc-hal-mcu-stm32l4/third_party/STM32CubeL4/Drivers/STM32L4xx_HAL_Driver/Src/stm32l4xx_ll_exti.c ****           LL_EXTI_DisableEvent_32_63(EXTI_InitStruct->Line_32_63);
 1137              		.loc 1 195 11
 1138 0104 7B68     		ldr	r3, [r7, #4]
 1139 0106 5B68     		ldr	r3, [r3, #4]
 1140 0108 1846     		mov	r0, r3
 1141 010a FFF7FEFF 		bl	LL_EXTI_DisableEvent_32_63
 196:../../../libs/smtc-hal-mcu-stm32l4/third_party/STM32CubeL4/Drivers/STM32L4xx_HAL_Driver/Src/stm32l4xx_ll_exti.c ****           /* Then Enable IT on provided Lines */
 197:../../../libs/smtc-hal-mcu-stm32l4/third_party/STM32CubeL4/Drivers/STM32L4xx_HAL_Driver/Src/stm32l4xx_ll_exti.c ****           LL_EXTI_EnableIT_32_63(EXTI_InitStruct->Line_32_63);
 1142              		.loc 1 197 11
 1143 010e 7B68     		ldr	r3, [r7, #4]
 1144 0110 5B68     		ldr	r3, [r3, #4]
 1145 0112 1846     		mov	r0, r3
 1146 0114 FFF7FEFF 		bl	LL_EXTI_EnableIT_32_63
 198:../../../libs/smtc-hal-mcu-stm32l4/third_party/STM32CubeL4/Drivers/STM32L4xx_HAL_Driver/Src/stm32l4xx_ll_exti.c ****           break;
 1147              		.loc 1 198 11
 1148 0118 1AE0     		b	.L70
 1149              	.L69:
 199:../../../libs/smtc-hal-mcu-stm32l4/third_party/STM32CubeL4/Drivers/STM32L4xx_HAL_Driver/Src/stm32l4xx_ll_exti.c ****         case LL_EXTI_MODE_EVENT:
 200:../../../libs/smtc-hal-mcu-stm32l4/third_party/STM32CubeL4/Drivers/STM32L4xx_HAL_Driver/Src/stm32l4xx_ll_exti.c ****           /* First Disable IT on provided Lines */
 201:../../../libs/smtc-hal-mcu-stm32l4/third_party/STM32CubeL4/Drivers/STM32L4xx_HAL_Driver/Src/stm32l4xx_ll_exti.c ****           LL_EXTI_DisableIT_32_63(EXTI_InitStruct->Line_32_63);
 1150              		.loc 1 201 11
 1151 011a 7B68     		ldr	r3, [r7, #4]
ARM GAS  C:\msys64\tmp\cczBzbSO.s 			page 42


 1152 011c 5B68     		ldr	r3, [r3, #4]
 1153 011e 1846     		mov	r0, r3
 1154 0120 FFF7FEFF 		bl	LL_EXTI_DisableIT_32_63
 202:../../../libs/smtc-hal-mcu-stm32l4/third_party/STM32CubeL4/Drivers/STM32L4xx_HAL_Driver/Src/stm32l4xx_ll_exti.c ****           /* Then Enable Event on provided Lines */
 203:../../../libs/smtc-hal-mcu-stm32l4/third_party/STM32CubeL4/Drivers/STM32L4xx_HAL_Driver/Src/stm32l4xx_ll_exti.c ****           LL_EXTI_EnableEvent_32_63(EXTI_InitStruct->Line_32_63);
 1155              		.loc 1 203 11
 1156 0124 7B68     		ldr	r3, [r7, #4]
 1157 0126 5B68     		ldr	r3, [r3, #4]
 1158 0128 1846     		mov	r0, r3
 1159 012a FFF7FEFF 		bl	LL_EXTI_EnableEvent_32_63
 204:../../../libs/smtc-hal-mcu-stm32l4/third_party/STM32CubeL4/Drivers/STM32L4xx_HAL_Driver/Src/stm32l4xx_ll_exti.c ****           break;
 1160              		.loc 1 204 11
 1161 012e 0FE0     		b	.L70
 1162              	.L66:
 205:../../../libs/smtc-hal-mcu-stm32l4/third_party/STM32CubeL4/Drivers/STM32L4xx_HAL_Driver/Src/stm32l4xx_ll_exti.c ****         case LL_EXTI_MODE_IT_EVENT:
 206:../../../libs/smtc-hal-mcu-stm32l4/third_party/STM32CubeL4/Drivers/STM32L4xx_HAL_Driver/Src/stm32l4xx_ll_exti.c ****           /* Directly Enable IT & Event on provided Lines */
 207:../../../libs/smtc-hal-mcu-stm32l4/third_party/STM32CubeL4/Drivers/STM32L4xx_HAL_Driver/Src/stm32l4xx_ll_exti.c ****           LL_EXTI_EnableIT_32_63(EXTI_InitStruct->Line_32_63);
 1163              		.loc 1 207 11
 1164 0130 7B68     		ldr	r3, [r7, #4]
 1165 0132 5B68     		ldr	r3, [r3, #4]
 1166 0134 1846     		mov	r0, r3
 1167 0136 FFF7FEFF 		bl	LL_EXTI_EnableIT_32_63
 208:../../../libs/smtc-hal-mcu-stm32l4/third_party/STM32CubeL4/Drivers/STM32L4xx_HAL_Driver/Src/stm32l4xx_ll_exti.c ****           LL_EXTI_EnableEvent_32_63(EXTI_InitStruct->Line_32_63);
 1168              		.loc 1 208 11
 1169 013a 7B68     		ldr	r3, [r7, #4]
 1170 013c 5B68     		ldr	r3, [r3, #4]
 1171 013e 1846     		mov	r0, r3
 1172 0140 FFF7FEFF 		bl	LL_EXTI_EnableEvent_32_63
 209:../../../libs/smtc-hal-mcu-stm32l4/third_party/STM32CubeL4/Drivers/STM32L4xx_HAL_Driver/Src/stm32l4xx_ll_exti.c ****           break;
 1173              		.loc 1 209 11
 1174 0144 04E0     		b	.L70
 1175              	.L67:
 210:../../../libs/smtc-hal-mcu-stm32l4/third_party/STM32CubeL4/Drivers/STM32L4xx_HAL_Driver/Src/stm32l4xx_ll_exti.c ****         default:
 211:../../../libs/smtc-hal-mcu-stm32l4/third_party/STM32CubeL4/Drivers/STM32L4xx_HAL_Driver/Src/stm32l4xx_ll_exti.c ****           status |= 0x04u;
 1176              		.loc 1 211 18
 1177 0146 FB68     		ldr	r3, [r7, #12]
 1178 0148 43F00403 		orr	r3, r3, #4
 1179 014c FB60     		str	r3, [r7, #12]
 212:../../../libs/smtc-hal-mcu-stm32l4/third_party/STM32CubeL4/Drivers/STM32L4xx_HAL_Driver/Src/stm32l4xx_ll_exti.c ****           break;
 1180              		.loc 1 212 11
 1181 014e 00BF     		nop
 1182              	.L70:
 213:../../../libs/smtc-hal-mcu-stm32l4/third_party/STM32CubeL4/Drivers/STM32L4xx_HAL_Driver/Src/stm32l4xx_ll_exti.c ****       }
 214:../../../libs/smtc-hal-mcu-stm32l4/third_party/STM32CubeL4/Drivers/STM32L4xx_HAL_Driver/Src/stm32l4xx_ll_exti.c ****       if (EXTI_InitStruct->Trigger != LL_EXTI_TRIGGER_NONE)
 1183              		.loc 1 214 26
 1184 0150 7B68     		ldr	r3, [r7, #4]
 1185 0152 9B7A     		ldrb	r3, [r3, #10]	@ zero_extendqisi2
 1186              		.loc 1 214 10
 1187 0154 002B     		cmp	r3, #0
 1188 0156 42D0     		beq	.L75
 215:../../../libs/smtc-hal-mcu-stm32l4/third_party/STM32CubeL4/Drivers/STM32L4xx_HAL_Driver/Src/stm32l4xx_ll_exti.c ****       {
 216:../../../libs/smtc-hal-mcu-stm32l4/third_party/STM32CubeL4/Drivers/STM32L4xx_HAL_Driver/Src/stm32l4xx_ll_exti.c ****         switch (EXTI_InitStruct->Trigger)
 1189              		.loc 1 216 32
 1190 0158 7B68     		ldr	r3, [r7, #4]
 1191 015a 9B7A     		ldrb	r3, [r3, #10]	@ zero_extendqisi2
 1192              		.loc 1 216 9
 1193 015c 032B     		cmp	r3, #3
ARM GAS  C:\msys64\tmp\cczBzbSO.s 			page 43


 1194 015e 1CD0     		beq	.L71
 1195 0160 032B     		cmp	r3, #3
 1196 0162 25DC     		bgt	.L72
 1197 0164 012B     		cmp	r3, #1
 1198 0166 02D0     		beq	.L73
 1199 0168 022B     		cmp	r3, #2
 1200 016a 0BD0     		beq	.L74
 1201 016c 20E0     		b	.L72
 1202              	.L73:
 217:../../../libs/smtc-hal-mcu-stm32l4/third_party/STM32CubeL4/Drivers/STM32L4xx_HAL_Driver/Src/stm32l4xx_ll_exti.c ****         {
 218:../../../libs/smtc-hal-mcu-stm32l4/third_party/STM32CubeL4/Drivers/STM32L4xx_HAL_Driver/Src/stm32l4xx_ll_exti.c ****           case LL_EXTI_TRIGGER_RISING:
 219:../../../libs/smtc-hal-mcu-stm32l4/third_party/STM32CubeL4/Drivers/STM32L4xx_HAL_Driver/Src/stm32l4xx_ll_exti.c ****             /* First Disable Falling Trigger on provided Lines */
 220:../../../libs/smtc-hal-mcu-stm32l4/third_party/STM32CubeL4/Drivers/STM32L4xx_HAL_Driver/Src/stm32l4xx_ll_exti.c ****             LL_EXTI_DisableFallingTrig_32_63(EXTI_InitStruct->Line_32_63);
 1203              		.loc 1 220 13
 1204 016e 7B68     		ldr	r3, [r7, #4]
 1205 0170 5B68     		ldr	r3, [r3, #4]
 1206 0172 1846     		mov	r0, r3
 1207 0174 FFF7FEFF 		bl	LL_EXTI_DisableFallingTrig_32_63
 221:../../../libs/smtc-hal-mcu-stm32l4/third_party/STM32CubeL4/Drivers/STM32L4xx_HAL_Driver/Src/stm32l4xx_ll_exti.c ****             /* Then Enable IT on provided Lines */
 222:../../../libs/smtc-hal-mcu-stm32l4/third_party/STM32CubeL4/Drivers/STM32L4xx_HAL_Driver/Src/stm32l4xx_ll_exti.c ****             LL_EXTI_EnableRisingTrig_32_63(EXTI_InitStruct->Line_32_63);
 1208              		.loc 1 222 13
 1209 0178 7B68     		ldr	r3, [r7, #4]
 1210 017a 5B68     		ldr	r3, [r3, #4]
 1211 017c 1846     		mov	r0, r3
 1212 017e FFF7FEFF 		bl	LL_EXTI_EnableRisingTrig_32_63
 223:../../../libs/smtc-hal-mcu-stm32l4/third_party/STM32CubeL4/Drivers/STM32L4xx_HAL_Driver/Src/stm32l4xx_ll_exti.c ****             break;
 1213              		.loc 1 223 13
 1214 0182 2CE0     		b	.L75
 1215              	.L74:
 224:../../../libs/smtc-hal-mcu-stm32l4/third_party/STM32CubeL4/Drivers/STM32L4xx_HAL_Driver/Src/stm32l4xx_ll_exti.c ****           case LL_EXTI_TRIGGER_FALLING:
 225:../../../libs/smtc-hal-mcu-stm32l4/third_party/STM32CubeL4/Drivers/STM32L4xx_HAL_Driver/Src/stm32l4xx_ll_exti.c ****             /* First Disable Rising Trigger on provided Lines */
 226:../../../libs/smtc-hal-mcu-stm32l4/third_party/STM32CubeL4/Drivers/STM32L4xx_HAL_Driver/Src/stm32l4xx_ll_exti.c ****             LL_EXTI_DisableRisingTrig_32_63(EXTI_InitStruct->Line_32_63);
 1216              		.loc 1 226 13
 1217 0184 7B68     		ldr	r3, [r7, #4]
 1218 0186 5B68     		ldr	r3, [r3, #4]
 1219 0188 1846     		mov	r0, r3
 1220 018a FFF7FEFF 		bl	LL_EXTI_DisableRisingTrig_32_63
 227:../../../libs/smtc-hal-mcu-stm32l4/third_party/STM32CubeL4/Drivers/STM32L4xx_HAL_Driver/Src/stm32l4xx_ll_exti.c ****             /* Then Enable Falling Trigger on provided Lines */
 228:../../../libs/smtc-hal-mcu-stm32l4/third_party/STM32CubeL4/Drivers/STM32L4xx_HAL_Driver/Src/stm32l4xx_ll_exti.c ****             LL_EXTI_EnableFallingTrig_32_63(EXTI_InitStruct->Line_32_63);
 1221              		.loc 1 228 13
 1222 018e 7B68     		ldr	r3, [r7, #4]
 1223 0190 5B68     		ldr	r3, [r3, #4]
 1224 0192 1846     		mov	r0, r3
 1225 0194 FFF7FEFF 		bl	LL_EXTI_EnableFallingTrig_32_63
 229:../../../libs/smtc-hal-mcu-stm32l4/third_party/STM32CubeL4/Drivers/STM32L4xx_HAL_Driver/Src/stm32l4xx_ll_exti.c ****             break;
 1226              		.loc 1 229 13
 1227 0198 21E0     		b	.L75
 1228              	.L71:
 230:../../../libs/smtc-hal-mcu-stm32l4/third_party/STM32CubeL4/Drivers/STM32L4xx_HAL_Driver/Src/stm32l4xx_ll_exti.c ****           case LL_EXTI_TRIGGER_RISING_FALLING:
 231:../../../libs/smtc-hal-mcu-stm32l4/third_party/STM32CubeL4/Drivers/STM32L4xx_HAL_Driver/Src/stm32l4xx_ll_exti.c ****             LL_EXTI_EnableRisingTrig_32_63(EXTI_InitStruct->Line_32_63);
 1229              		.loc 1 231 13
 1230 019a 7B68     		ldr	r3, [r7, #4]
 1231 019c 5B68     		ldr	r3, [r3, #4]
 1232 019e 1846     		mov	r0, r3
 1233 01a0 FFF7FEFF 		bl	LL_EXTI_EnableRisingTrig_32_63
 232:../../../libs/smtc-hal-mcu-stm32l4/third_party/STM32CubeL4/Drivers/STM32L4xx_HAL_Driver/Src/stm32l4xx_ll_exti.c ****             LL_EXTI_EnableFallingTrig_32_63(EXTI_InitStruct->Line_32_63);
 1234              		.loc 1 232 13
ARM GAS  C:\msys64\tmp\cczBzbSO.s 			page 44


 1235 01a4 7B68     		ldr	r3, [r7, #4]
 1236 01a6 5B68     		ldr	r3, [r3, #4]
 1237 01a8 1846     		mov	r0, r3
 1238 01aa FFF7FEFF 		bl	LL_EXTI_EnableFallingTrig_32_63
 233:../../../libs/smtc-hal-mcu-stm32l4/third_party/STM32CubeL4/Drivers/STM32L4xx_HAL_Driver/Src/stm32l4xx_ll_exti.c ****             break;
 1239              		.loc 1 233 13
 1240 01ae 16E0     		b	.L75
 1241              	.L72:
 234:../../../libs/smtc-hal-mcu-stm32l4/third_party/STM32CubeL4/Drivers/STM32L4xx_HAL_Driver/Src/stm32l4xx_ll_exti.c ****           default:
 235:../../../libs/smtc-hal-mcu-stm32l4/third_party/STM32CubeL4/Drivers/STM32L4xx_HAL_Driver/Src/stm32l4xx_ll_exti.c ****             status = ERROR;
 1242              		.loc 1 235 20
 1243 01b0 0123     		movs	r3, #1
 1244 01b2 FB60     		str	r3, [r7, #12]
 236:../../../libs/smtc-hal-mcu-stm32l4/third_party/STM32CubeL4/Drivers/STM32L4xx_HAL_Driver/Src/stm32l4xx_ll_exti.c ****             break;
 1245              		.loc 1 236 13
 1246 01b4 13E0     		b	.L75
 1247              	.L54:
 237:../../../libs/smtc-hal-mcu-stm32l4/third_party/STM32CubeL4/Drivers/STM32L4xx_HAL_Driver/Src/stm32l4xx_ll_exti.c ****         }
 238:../../../libs/smtc-hal-mcu-stm32l4/third_party/STM32CubeL4/Drivers/STM32L4xx_HAL_Driver/Src/stm32l4xx_ll_exti.c ****       }
 239:../../../libs/smtc-hal-mcu-stm32l4/third_party/STM32CubeL4/Drivers/STM32L4xx_HAL_Driver/Src/stm32l4xx_ll_exti.c ****     }
 240:../../../libs/smtc-hal-mcu-stm32l4/third_party/STM32CubeL4/Drivers/STM32L4xx_HAL_Driver/Src/stm32l4xx_ll_exti.c ****   }
 241:../../../libs/smtc-hal-mcu-stm32l4/third_party/STM32CubeL4/Drivers/STM32L4xx_HAL_Driver/Src/stm32l4xx_ll_exti.c ****   /* DISABLE LineCommand */
 242:../../../libs/smtc-hal-mcu-stm32l4/third_party/STM32CubeL4/Drivers/STM32L4xx_HAL_Driver/Src/stm32l4xx_ll_exti.c ****   else
 243:../../../libs/smtc-hal-mcu-stm32l4/third_party/STM32CubeL4/Drivers/STM32L4xx_HAL_Driver/Src/stm32l4xx_ll_exti.c ****   {
 244:../../../libs/smtc-hal-mcu-stm32l4/third_party/STM32CubeL4/Drivers/STM32L4xx_HAL_Driver/Src/stm32l4xx_ll_exti.c ****     /* De-configure EXTI Lines in range from 0 to 31 */
 245:../../../libs/smtc-hal-mcu-stm32l4/third_party/STM32CubeL4/Drivers/STM32L4xx_HAL_Driver/Src/stm32l4xx_ll_exti.c ****     LL_EXTI_DisableIT_0_31(EXTI_InitStruct->Line_0_31);
 1248              		.loc 1 245 5
 1249 01b6 7B68     		ldr	r3, [r7, #4]
 1250 01b8 1B68     		ldr	r3, [r3]
 1251 01ba 1846     		mov	r0, r3
 1252 01bc FFF7FEFF 		bl	LL_EXTI_DisableIT_0_31
 246:../../../libs/smtc-hal-mcu-stm32l4/third_party/STM32CubeL4/Drivers/STM32L4xx_HAL_Driver/Src/stm32l4xx_ll_exti.c ****     LL_EXTI_DisableEvent_0_31(EXTI_InitStruct->Line_0_31);
 1253              		.loc 1 246 5
 1254 01c0 7B68     		ldr	r3, [r7, #4]
 1255 01c2 1B68     		ldr	r3, [r3]
 1256 01c4 1846     		mov	r0, r3
 1257 01c6 FFF7FEFF 		bl	LL_EXTI_DisableEvent_0_31
 247:../../../libs/smtc-hal-mcu-stm32l4/third_party/STM32CubeL4/Drivers/STM32L4xx_HAL_Driver/Src/stm32l4xx_ll_exti.c ****     /* De-configure EXTI Lines in range from 32 to 63 */
 248:../../../libs/smtc-hal-mcu-stm32l4/third_party/STM32CubeL4/Drivers/STM32L4xx_HAL_Driver/Src/stm32l4xx_ll_exti.c ****     LL_EXTI_DisableIT_32_63(EXTI_InitStruct->Line_32_63);
 1258              		.loc 1 248 5
 1259 01ca 7B68     		ldr	r3, [r7, #4]
 1260 01cc 5B68     		ldr	r3, [r3, #4]
 1261 01ce 1846     		mov	r0, r3
 1262 01d0 FFF7FEFF 		bl	LL_EXTI_DisableIT_32_63
