ARM GAS  C:\msys64\tmp\ccFuKh1Y.s 			page 1


   1              		.cpu cortex-m4
   2              		.arch armv7e-m
   3              		.fpu fpv4-sp-d16
   4              		.eabi_attribute 27, 1
   5              		.eabi_attribute 28, 1
   6              		.eabi_attribute 20, 1
   7              		.eabi_attribute 21, 1
   8              		.eabi_attribute 23, 3
   9              		.eabi_attribute 24, 1
  10              		.eabi_attribute 25, 1
  11              		.eabi_attribute 26, 1
  12              		.eabi_attribute 30, 6
  13              		.eabi_attribute 34, 1
  14              		.eabi_attribute 18, 4
  15              		.file	"lr11xx_wifi.c"
  16              		.text
  17              	.Ltext0:
  18              		.cfi_sections	.debug_frame
  19              		.file 1 "../../../../lr11xx/lr11xx_driver/src/lr11xx_wifi.c"
  20              		.section	.text.lr11xx_wifi_scan,"ax",%progbits
  21              		.align	1
  22              		.global	lr11xx_wifi_scan
  23              		.syntax unified
  24              		.thumb
  25              		.thumb_func
  27              	lr11xx_wifi_scan:
  28              	.LFB1:
   1:../../../../lr11xx/lr11xx_driver/src/lr11xx_wifi.c **** /*!
   2:../../../../lr11xx/lr11xx_driver/src/lr11xx_wifi.c ****  * @file      lr11xx_wifi.c
   3:../../../../lr11xx/lr11xx_driver/src/lr11xx_wifi.c ****  *
   4:../../../../lr11xx/lr11xx_driver/src/lr11xx_wifi.c ****  * @brief     Wi-Fi passive scan driver implementation for LR11XX
   5:../../../../lr11xx/lr11xx_driver/src/lr11xx_wifi.c ****  *
   6:../../../../lr11xx/lr11xx_driver/src/lr11xx_wifi.c ****  * The Clear BSD License
   7:../../../../lr11xx/lr11xx_driver/src/lr11xx_wifi.c ****  * Copyright Semtech Corporation 2021. All rights reserved.
   8:../../../../lr11xx/lr11xx_driver/src/lr11xx_wifi.c ****  *
   9:../../../../lr11xx/lr11xx_driver/src/lr11xx_wifi.c ****  * Redistribution and use in source and binary forms, with or without
  10:../../../../lr11xx/lr11xx_driver/src/lr11xx_wifi.c ****  * modification, are permitted (subject to the limitations in the disclaimer
  11:../../../../lr11xx/lr11xx_driver/src/lr11xx_wifi.c ****  * below) provided that the following conditions are met:
  12:../../../../lr11xx/lr11xx_driver/src/lr11xx_wifi.c ****  *     * Redistributions of source code must retain the above copyright
  13:../../../../lr11xx/lr11xx_driver/src/lr11xx_wifi.c ****  *       notice, this list of conditions and the following disclaimer.
  14:../../../../lr11xx/lr11xx_driver/src/lr11xx_wifi.c ****  *     * Redistributions in binary form must reproduce the above copyright
  15:../../../../lr11xx/lr11xx_driver/src/lr11xx_wifi.c ****  *       notice, this list of conditions and the following disclaimer in the
  16:../../../../lr11xx/lr11xx_driver/src/lr11xx_wifi.c ****  *       documentation and/or other materials provided with the distribution.
  17:../../../../lr11xx/lr11xx_driver/src/lr11xx_wifi.c ****  *     * Neither the name of the Semtech corporation nor the
  18:../../../../lr11xx/lr11xx_driver/src/lr11xx_wifi.c ****  *       names of its contributors may be used to endorse or promote products
  19:../../../../lr11xx/lr11xx_driver/src/lr11xx_wifi.c ****  *       derived from this software without specific prior written permission.
  20:../../../../lr11xx/lr11xx_driver/src/lr11xx_wifi.c ****  *
  21:../../../../lr11xx/lr11xx_driver/src/lr11xx_wifi.c ****  * NO EXPRESS OR IMPLIED LICENSES TO ANY PARTY'S PATENT RIGHTS ARE GRANTED BY
  22:../../../../lr11xx/lr11xx_driver/src/lr11xx_wifi.c ****  * THIS LICENSE. THIS SOFTWARE IS PROVIDED BY THE COPYRIGHT HOLDERS AND
  23:../../../../lr11xx/lr11xx_driver/src/lr11xx_wifi.c ****  * CONTRIBUTORS "AS IS" AND ANY EXPRESS OR IMPLIED WARRANTIES, INCLUDING, BUT
  24:../../../../lr11xx/lr11xx_driver/src/lr11xx_wifi.c ****  * NOT LIMITED TO, THE IMPLIED WARRANTIES OF MERCHANTABILITY AND FITNESS FOR A
  25:../../../../lr11xx/lr11xx_driver/src/lr11xx_wifi.c ****  * PARTICULAR PURPOSE ARE DISCLAIMED. IN NO EVENT SHALL SEMTECH CORPORATION BE
  26:../../../../lr11xx/lr11xx_driver/src/lr11xx_wifi.c ****  * LIABLE FOR ANY DIRECT, INDIRECT, INCIDENTAL, SPECIAL, EXEMPLARY, OR
  27:../../../../lr11xx/lr11xx_driver/src/lr11xx_wifi.c ****  * CONSEQUENTIAL DAMAGES (INCLUDING, BUT NOT LIMITED TO, PROCUREMENT OF
  28:../../../../lr11xx/lr11xx_driver/src/lr11xx_wifi.c ****  * SUBSTITUTE GOODS OR SERVICES; LOSS OF USE, DATA, OR PROFITS; OR BUSINESS
  29:../../../../lr11xx/lr11xx_driver/src/lr11xx_wifi.c ****  * INTERRUPTION) HOWEVER CAUSED AND ON ANY THEORY OF LIABILITY, WHETHER IN
  30:../../../../lr11xx/lr11xx_driver/src/lr11xx_wifi.c ****  * CONTRACT, STRICT LIABILITY, OR TORT (INCLUDING NEGLIGENCE OR OTHERWISE)
ARM GAS  C:\msys64\tmp\ccFuKh1Y.s 			page 2


  31:../../../../lr11xx/lr11xx_driver/src/lr11xx_wifi.c ****  * ARISING IN ANY WAY OUT OF THE USE OF THIS SOFTWARE, EVEN IF ADVISED OF THE
  32:../../../../lr11xx/lr11xx_driver/src/lr11xx_wifi.c ****  * POSSIBILITY OF SUCH DAMAGE.
  33:../../../../lr11xx/lr11xx_driver/src/lr11xx_wifi.c ****  */
  34:../../../../lr11xx/lr11xx_driver/src/lr11xx_wifi.c **** 
  35:../../../../lr11xx/lr11xx_driver/src/lr11xx_wifi.c **** /*
  36:../../../../lr11xx/lr11xx_driver/src/lr11xx_wifi.c ****  * -----------------------------------------------------------------------------
  37:../../../../lr11xx/lr11xx_driver/src/lr11xx_wifi.c ****  * --- DEPENDENCIES ------------------------------------------------------------
  38:../../../../lr11xx/lr11xx_driver/src/lr11xx_wifi.c ****  */
  39:../../../../lr11xx/lr11xx_driver/src/lr11xx_wifi.c **** 
  40:../../../../lr11xx/lr11xx_driver/src/lr11xx_wifi.c **** #include "lr11xx_wifi.h"
  41:../../../../lr11xx/lr11xx_driver/src/lr11xx_wifi.c **** #include "lr11xx_system_types.h"
  42:../../../../lr11xx/lr11xx_driver/src/lr11xx_wifi.c **** #include "lr11xx_hal.h"
  43:../../../../lr11xx/lr11xx_driver/src/lr11xx_wifi.c **** 
  44:../../../../lr11xx/lr11xx_driver/src/lr11xx_wifi.c **** /*
  45:../../../../lr11xx/lr11xx_driver/src/lr11xx_wifi.c ****  * -----------------------------------------------------------------------------
  46:../../../../lr11xx/lr11xx_driver/src/lr11xx_wifi.c ****  * --- PRIVATE MACROS-----------------------------------------------------------
  47:../../../../lr11xx/lr11xx_driver/src/lr11xx_wifi.c ****  */
  48:../../../../lr11xx/lr11xx_driver/src/lr11xx_wifi.c **** 
  49:../../../../lr11xx/lr11xx_driver/src/lr11xx_wifi.c **** #ifndef MIN
  50:../../../../lr11xx/lr11xx_driver/src/lr11xx_wifi.c **** #define MIN( a, b ) ( ( a > b ) ? b : a )
  51:../../../../lr11xx/lr11xx_driver/src/lr11xx_wifi.c **** #endif  // MIN
  52:../../../../lr11xx/lr11xx_driver/src/lr11xx_wifi.c **** 
  53:../../../../lr11xx/lr11xx_driver/src/lr11xx_wifi.c **** 
  54:../../../../lr11xx/lr11xx_driver/src/lr11xx_wifi.c **** /*!
  55:../../../../lr11xx/lr11xx_driver/src/lr11xx_wifi.c ****  * @brief Check if a value is inferior to another one - included
  56:../../../../lr11xx/lr11xx_driver/src/lr11xx_wifi.c ****  */
  57:../../../../lr11xx/lr11xx_driver/src/lr11xx_wifi.c **** #define IS_INFERIOR( value, max ) ( value <= max )
  58:../../../../lr11xx/lr11xx_driver/src/lr11xx_wifi.c **** 
  59:../../../../lr11xx/lr11xx_driver/src/lr11xx_wifi.c **** /*!
  60:../../../../lr11xx/lr11xx_driver/src/lr11xx_wifi.c ****  * @brief Check if a value is in between min and max - included
  61:../../../../lr11xx/lr11xx_driver/src/lr11xx_wifi.c ****  */
  62:../../../../lr11xx/lr11xx_driver/src/lr11xx_wifi.c **** #define IS_BETWEEN( value, min, max ) ( IS_INFERIOR(min, value) && IS_INFERIOR(value, max) )
  63:../../../../lr11xx/lr11xx_driver/src/lr11xx_wifi.c **** 
  64:../../../../lr11xx/lr11xx_driver/src/lr11xx_wifi.c **** /*!
  65:../../../../lr11xx/lr11xx_driver/src/lr11xx_wifi.c ****  * @brief Check if a value is in between 0x80 and 0xBF - included
  66:../../../../lr11xx/lr11xx_driver/src/lr11xx_wifi.c ****  */
  67:../../../../lr11xx/lr11xx_driver/src/lr11xx_wifi.c **** #define IS_BETWEEN_0x80_AND_0xBF( value ) IS_BETWEEN( value, 0x80, 0xBF )
  68:../../../../lr11xx/lr11xx_driver/src/lr11xx_wifi.c **** 
  69:../../../../lr11xx/lr11xx_driver/src/lr11xx_wifi.c **** /*
  70:../../../../lr11xx/lr11xx_driver/src/lr11xx_wifi.c ****  * -----------------------------------------------------------------------------
  71:../../../../lr11xx/lr11xx_driver/src/lr11xx_wifi.c ****  * --- PRIVATE CONSTANTS -------------------------------------------------------
  72:../../../../lr11xx/lr11xx_driver/src/lr11xx_wifi.c ****  */
  73:../../../../lr11xx/lr11xx_driver/src/lr11xx_wifi.c **** 
  74:../../../../lr11xx/lr11xx_driver/src/lr11xx_wifi.c **** #define LR11XX_WIFI_BASIC_COMPLETE_RESULT_SIZE ( 22 )
  75:../../../../lr11xx/lr11xx_driver/src/lr11xx_wifi.c **** #define LR11XX_WIFI_BASIC_MAC_TYPE_CHANNEL_RESULT_SIZE ( 9 )
  76:../../../../lr11xx/lr11xx_driver/src/lr11xx_wifi.c **** 
  77:../../../../lr11xx/lr11xx_driver/src/lr11xx_wifi.c **** #define LR11XX_WIFI_MAX_SIZE_PER_SPI( single_size ) \
  78:../../../../lr11xx/lr11xx_driver/src/lr11xx_wifi.c ****     ( single_size * ( LR11XX_WIFI_MAX_RESULT_PER_TRANSACTION( single_size ) ) )
  79:../../../../lr11xx/lr11xx_driver/src/lr11xx_wifi.c **** 
  80:../../../../lr11xx/lr11xx_driver/src/lr11xx_wifi.c **** #define LR11XX_WIFI_MAX_RESULT_PER_TRANSACTION( single_size ) \
  81:../../../../lr11xx/lr11xx_driver/src/lr11xx_wifi.c ****     ( MIN( ( LR11XX_WIFI_READ_RESULT_LIMIT ) / ( single_size ), LR11XX_WIFI_N_RESULTS_MAX_PER_CHUNK
  82:../../../../lr11xx/lr11xx_driver/src/lr11xx_wifi.c **** 
  83:../../../../lr11xx/lr11xx_driver/src/lr11xx_wifi.c **** #define LR11XX_WIFI_ALL_CUMULATIVE_TIMING_SIZE ( 16 )
  84:../../../../lr11xx/lr11xx_driver/src/lr11xx_wifi.c **** #define LR11XX_WIFI_VERSION_SIZE ( 2 )
  85:../../../../lr11xx/lr11xx_driver/src/lr11xx_wifi.c **** #define LR11XX_WIFI_READ_RESULT_LIMIT ( 1020 )
  86:../../../../lr11xx/lr11xx_driver/src/lr11xx_wifi.c **** #define LR11XX_WIFI_COUNTRY_RESULT_LENGTH_SIZE ( 1 )
  87:../../../../lr11xx/lr11xx_driver/src/lr11xx_wifi.c **** #define LR11XX_WIFI_EXTENDED_COMPLETE_RESULT_SIZE ( 79 )
ARM GAS  C:\msys64\tmp\ccFuKh1Y.s 			page 3


  88:../../../../lr11xx/lr11xx_driver/src/lr11xx_wifi.c **** #define LR11XX_WIFI_SCAN_SINGLE_COUNTRY_CODE_RESULT_SIZE ( 10 )
  89:../../../../lr11xx/lr11xx_driver/src/lr11xx_wifi.c **** #define LR11XX_WIFI_MAX_COUNTRY_CODE_RESULT_SIZE \
  90:../../../../lr11xx/lr11xx_driver/src/lr11xx_wifi.c ****     ( LR11XX_WIFI_MAX_COUNTRY_CODE * LR11XX_WIFI_SCAN_SINGLE_COUNTRY_CODE_RESULT_SIZE )
  91:../../../../lr11xx/lr11xx_driver/src/lr11xx_wifi.c **** 
  92:../../../../lr11xx/lr11xx_driver/src/lr11xx_wifi.c **** // Command length
  93:../../../../lr11xx/lr11xx_driver/src/lr11xx_wifi.c **** #define LR11XX_WIFI_SCAN_CMD_LENGTH ( 2 + 9 )
  94:../../../../lr11xx/lr11xx_driver/src/lr11xx_wifi.c **** #define LR11XX_WIFI_SEARCH_COUNTRY_CODE_CMD_LENGTH ( 2 + 7 )
  95:../../../../lr11xx/lr11xx_driver/src/lr11xx_wifi.c **** #define LR11XX_WIFI_SCAN_TIME_LIMIT_CMD_LENGTH ( 2 + 9 )
  96:../../../../lr11xx/lr11xx_driver/src/lr11xx_wifi.c **** #define LR11XX_WIFI_COUNTRY_CODE_TIME_LIMIT_CMD_LENGTH ( 2 + 7 )
  97:../../../../lr11xx/lr11xx_driver/src/lr11xx_wifi.c **** #define LR11XX_WIFI_GET_RESULT_SIZE_CMD_LENGTH ( 2 )
  98:../../../../lr11xx/lr11xx_driver/src/lr11xx_wifi.c **** #define LR11XX_WIFI_READ_RESULT_CMD_LENGTH ( 2 + 3 )
  99:../../../../lr11xx/lr11xx_driver/src/lr11xx_wifi.c **** #define LR11XX_WIFI_RESET_CUMUL_TIMING_CMD_LENGTH ( 2 )
 100:../../../../lr11xx/lr11xx_driver/src/lr11xx_wifi.c **** #define LR11XX_WIFI_READ_CUMUL_TIMING_CMD_LENGTH ( 2 )
 101:../../../../lr11xx/lr11xx_driver/src/lr11xx_wifi.c **** #define LR11XX_WIFI_GET_SIZE_COUNTRY_RESULT_CMD_LENGTH ( 2 )
 102:../../../../lr11xx/lr11xx_driver/src/lr11xx_wifi.c **** #define LR11XX_WIFI_READ_COUNTRY_CODE_CMD_LENGTH ( 2 + 2 )
 103:../../../../lr11xx/lr11xx_driver/src/lr11xx_wifi.c **** #define LR11XX_WIFI_CFG_TIMESTAMP_AP_PHONE_CMD_LENGTH ( 2 + 4 )
 104:../../../../lr11xx/lr11xx_driver/src/lr11xx_wifi.c **** #define LR11XX_WIFI_GET_VERSION_CMD_LENGTH ( 2 )
 105:../../../../lr11xx/lr11xx_driver/src/lr11xx_wifi.c **** 
 106:../../../../lr11xx/lr11xx_driver/src/lr11xx_wifi.c **** /*!
 107:../../../../lr11xx/lr11xx_driver/src/lr11xx_wifi.c ****  * @brief Wi-Fi scan power consumption in nA
 108:../../../../lr11xx/lr11xx_driver/src/lr11xx_wifi.c ****  *
 109:../../../../lr11xx/lr11xx_driver/src/lr11xx_wifi.c ****  * @note these numbers are given for information, it should be modified according to the used hardw
 110:../../../../lr11xx/lr11xx_driver/src/lr11xx_wifi.c ****  */
 111:../../../../lr11xx/lr11xx_driver/src/lr11xx_wifi.c **** #define LR11XX_WIFI_CORRELATION_NA ( 12000000ULL )
 112:../../../../lr11xx/lr11xx_driver/src/lr11xx_wifi.c **** #define LR11XX_WIFI_CAPTURE_NA ( 12000000ULL )
 113:../../../../lr11xx/lr11xx_driver/src/lr11xx_wifi.c **** #define LR11XX_WIFI_DEMODULATION_NA ( 4000000ULL )
 114:../../../../lr11xx/lr11xx_driver/src/lr11xx_wifi.c **** 
 115:../../../../lr11xx/lr11xx_driver/src/lr11xx_wifi.c **** /*
 116:../../../../lr11xx/lr11xx_driver/src/lr11xx_wifi.c ****  * -----------------------------------------------------------------------------
 117:../../../../lr11xx/lr11xx_driver/src/lr11xx_wifi.c ****  * --- PRIVATE TYPES -----------------------------------------------------------
 118:../../../../lr11xx/lr11xx_driver/src/lr11xx_wifi.c ****  */
 119:../../../../lr11xx/lr11xx_driver/src/lr11xx_wifi.c **** 
 120:../../../../lr11xx/lr11xx_driver/src/lr11xx_wifi.c **** /*!
 121:../../../../lr11xx/lr11xx_driver/src/lr11xx_wifi.c ****  * @brief Operating codes for Wi-Fi-related operations
 122:../../../../lr11xx/lr11xx_driver/src/lr11xx_wifi.c ****  */
 123:../../../../lr11xx/lr11xx_driver/src/lr11xx_wifi.c **** enum
 124:../../../../lr11xx/lr11xx_driver/src/lr11xx_wifi.c **** {
 125:../../../../lr11xx/lr11xx_driver/src/lr11xx_wifi.c ****     LR11XX_WIFI_SCAN_OC                         = 0x0300,
 126:../../../../lr11xx/lr11xx_driver/src/lr11xx_wifi.c ****     LR11XX_WIFI_SCAN_TIME_LIMIT                 = 0x0301,
 127:../../../../lr11xx/lr11xx_driver/src/lr11xx_wifi.c ****     LR11XX_WIFI_SEARCH_COUNTRY_CODE_OC          = 0x0302,
 128:../../../../lr11xx/lr11xx_driver/src/lr11xx_wifi.c ****     LR11XX_WIFI_COUNTRY_CODE_TIME_LIMIT_OC      = 0x0303,
 129:../../../../lr11xx/lr11xx_driver/src/lr11xx_wifi.c ****     LR11XX_WIFI_GET_RESULT_SIZE_OC              = 0x0305,
 130:../../../../lr11xx/lr11xx_driver/src/lr11xx_wifi.c ****     LR11XX_WIFI_READ_RESULT_OC                  = 0x0306,
 131:../../../../lr11xx/lr11xx_driver/src/lr11xx_wifi.c ****     LR11XX_WIFI_RESET_CUMUL_TIMING_OC           = 0x0307,
 132:../../../../lr11xx/lr11xx_driver/src/lr11xx_wifi.c ****     LR11XX_WIFI_READ_CUMUL_TIMING_OC            = 0x0308,
 133:../../../../lr11xx/lr11xx_driver/src/lr11xx_wifi.c ****     LR11XX_WIFI_GET_SIZE_COUNTRY_RESULT_OC      = 0x0309,
 134:../../../../lr11xx/lr11xx_driver/src/lr11xx_wifi.c ****     LR11XX_WIFI_READ_COUNTRY_CODE_OC            = 0x030A,
 135:../../../../lr11xx/lr11xx_driver/src/lr11xx_wifi.c ****     LR11XX_WIFI_CONFIGURE_TIMESTAMP_AP_PHONE_OC = 0x030B,
 136:../../../../lr11xx/lr11xx_driver/src/lr11xx_wifi.c ****     LR11XX_WIFI_GET_VERSION_OC                  = 0x0320,
 137:../../../../lr11xx/lr11xx_driver/src/lr11xx_wifi.c **** };
 138:../../../../lr11xx/lr11xx_driver/src/lr11xx_wifi.c **** 
 139:../../../../lr11xx/lr11xx_driver/src/lr11xx_wifi.c **** /*!
 140:../../../../lr11xx/lr11xx_driver/src/lr11xx_wifi.c ****  * @brief Wi-Fi scan results interface
 141:../../../../lr11xx/lr11xx_driver/src/lr11xx_wifi.c ****  */
 142:../../../../lr11xx/lr11xx_driver/src/lr11xx_wifi.c **** typedef union
 143:../../../../lr11xx/lr11xx_driver/src/lr11xx_wifi.c **** {
 144:../../../../lr11xx/lr11xx_driver/src/lr11xx_wifi.c ****     lr11xx_wifi_basic_complete_result_t*         basic_complete;
ARM GAS  C:\msys64\tmp\ccFuKh1Y.s 			page 4


 145:../../../../lr11xx/lr11xx_driver/src/lr11xx_wifi.c ****     lr11xx_wifi_basic_mac_type_channel_result_t* basic_mac_type_channel;
 146:../../../../lr11xx/lr11xx_driver/src/lr11xx_wifi.c ****     lr11xx_wifi_extended_full_result_t*          extended_complete;
 147:../../../../lr11xx/lr11xx_driver/src/lr11xx_wifi.c **** } lr11xx_wifi_result_interface_t;
 148:../../../../lr11xx/lr11xx_driver/src/lr11xx_wifi.c **** 
 149:../../../../lr11xx/lr11xx_driver/src/lr11xx_wifi.c **** /*
 150:../../../../lr11xx/lr11xx_driver/src/lr11xx_wifi.c ****  * -----------------------------------------------------------------------------
 151:../../../../lr11xx/lr11xx_driver/src/lr11xx_wifi.c ****  * --- PRIVATE VARIABLES -------------------------------------------------------
 152:../../../../lr11xx/lr11xx_driver/src/lr11xx_wifi.c ****  */
 153:../../../../lr11xx/lr11xx_driver/src/lr11xx_wifi.c **** 
 154:../../../../lr11xx/lr11xx_driver/src/lr11xx_wifi.c **** /*
 155:../../../../lr11xx/lr11xx_driver/src/lr11xx_wifi.c ****  * -----------------------------------------------------------------------------
 156:../../../../lr11xx/lr11xx_driver/src/lr11xx_wifi.c ****  * --- PRIVATE FUNCTIONS DECLARATION -------------------------------------------
 157:../../../../lr11xx/lr11xx_driver/src/lr11xx_wifi.c ****  */
 158:../../../../lr11xx/lr11xx_driver/src/lr11xx_wifi.c **** 
 159:../../../../lr11xx/lr11xx_driver/src/lr11xx_wifi.c **** /*!
 160:../../../../lr11xx/lr11xx_driver/src/lr11xx_wifi.c ****  * @brief Return a uint16 value by reading a buffer of uint8 from index.
 161:../../../../lr11xx/lr11xx_driver/src/lr11xx_wifi.c ****  *
 162:../../../../lr11xx/lr11xx_driver/src/lr11xx_wifi.c ****  * This function interpret the array MSB first. It is equivalent to:
 163:../../../../lr11xx/lr11xx_driver/src/lr11xx_wifi.c ****  * return array[index] * 256 + array[index+1]
 164:../../../../lr11xx/lr11xx_driver/src/lr11xx_wifi.c ****  *
 165:../../../../lr11xx/lr11xx_driver/src/lr11xx_wifi.c ****  * @returns The uint16 value
 166:../../../../lr11xx/lr11xx_driver/src/lr11xx_wifi.c ****  */
 167:../../../../lr11xx/lr11xx_driver/src/lr11xx_wifi.c **** static uint16_t uint16_from_array( const uint8_t* array, const uint16_t index );
 168:../../../../lr11xx/lr11xx_driver/src/lr11xx_wifi.c **** 
 169:../../../../lr11xx/lr11xx_driver/src/lr11xx_wifi.c **** /*!
 170:../../../../lr11xx/lr11xx_driver/src/lr11xx_wifi.c ****  * @brief Return a uint64 value by reading a buffer of uint8 from index.
 171:../../../../lr11xx/lr11xx_driver/src/lr11xx_wifi.c ****  *
 172:../../../../lr11xx/lr11xx_driver/src/lr11xx_wifi.c ****  * This function interpret the array MSB first.
 173:../../../../lr11xx/lr11xx_driver/src/lr11xx_wifi.c ****  *
 174:../../../../lr11xx/lr11xx_driver/src/lr11xx_wifi.c ****  * @returns The uint64 value
 175:../../../../lr11xx/lr11xx_driver/src/lr11xx_wifi.c ****  */
 176:../../../../lr11xx/lr11xx_driver/src/lr11xx_wifi.c **** static uint64_t uint64_from_array( const uint8_t* array, const uint16_t index );
 177:../../../../lr11xx/lr11xx_driver/src/lr11xx_wifi.c **** 
 178:../../../../lr11xx/lr11xx_driver/src/lr11xx_wifi.c **** /*!
 179:../../../../lr11xx/lr11xx_driver/src/lr11xx_wifi.c ****  * @brief Propagate the result buffer interpretation depending on the format_code selected
 180:../../../../lr11xx/lr11xx_driver/src/lr11xx_wifi.c ****  *
 181:../../../../lr11xx/lr11xx_driver/src/lr11xx_wifi.c ****  * @see interpret_basic_complete_result_from_buffer, interpret_basic_mac_type_channel_result_from_b
 182:../../../../lr11xx/lr11xx_driver/src/lr11xx_wifi.c ****  * interpret_extended_full_result_from_buffer
 183:../../../../lr11xx/lr11xx_driver/src/lr11xx_wifi.c ****  */
 184:../../../../lr11xx/lr11xx_driver/src/lr11xx_wifi.c **** static void generic_results_interpreter( const uint8_t n_result_to_parse, const uint8_t index_resul
 185:../../../../lr11xx/lr11xx_driver/src/lr11xx_wifi.c ****                                          const uint8_t* buffer, lr11xx_wifi_result_interface_t resu
 186:../../../../lr11xx/lr11xx_driver/src/lr11xx_wifi.c ****                                          const lr11xx_wifi_result_format_t format_code );
 187:../../../../lr11xx/lr11xx_driver/src/lr11xx_wifi.c **** 
 188:../../../../lr11xx/lr11xx_driver/src/lr11xx_wifi.c **** /*!
 189:../../../../lr11xx/lr11xx_driver/src/lr11xx_wifi.c ****  * @brief Parse basic complete result
 190:../../../../lr11xx/lr11xx_driver/src/lr11xx_wifi.c ****  */
 191:../../../../lr11xx/lr11xx_driver/src/lr11xx_wifi.c **** static void interpret_basic_complete_result_from_buffer( const uint8_t  nb_results,
 192:../../../../lr11xx/lr11xx_driver/src/lr11xx_wifi.c ****                                                          const uint8_t  index_result_start_writing,
 193:../../../../lr11xx/lr11xx_driver/src/lr11xx_wifi.c ****                                                          const uint8_t* buffer,
 194:../../../../lr11xx/lr11xx_driver/src/lr11xx_wifi.c ****                                                          lr11xx_wifi_basic_complete_result_t* resul
 195:../../../../lr11xx/lr11xx_driver/src/lr11xx_wifi.c **** 
 196:../../../../lr11xx/lr11xx_driver/src/lr11xx_wifi.c **** /*!
 197:../../../../lr11xx/lr11xx_driver/src/lr11xx_wifi.c ****  * @brief Parse basic MAC - type - channel result
 198:../../../../lr11xx/lr11xx_driver/src/lr11xx_wifi.c ****  */
 199:../../../../lr11xx/lr11xx_driver/src/lr11xx_wifi.c **** static void interpret_basic_mac_type_channel_result_from_buffer( const uint8_t  nb_results,
 200:../../../../lr11xx/lr11xx_driver/src/lr11xx_wifi.c ****                                                                  const uint8_t  index_result_start_
 201:../../../../lr11xx/lr11xx_driver/src/lr11xx_wifi.c ****                                                                  const uint8_t* buffer,
ARM GAS  C:\msys64\tmp\ccFuKh1Y.s 			page 5


 202:../../../../lr11xx/lr11xx_driver/src/lr11xx_wifi.c ****                                                                  lr11xx_wifi_basic_mac_type_channel
 203:../../../../lr11xx/lr11xx_driver/src/lr11xx_wifi.c **** 
 204:../../../../lr11xx/lr11xx_driver/src/lr11xx_wifi.c **** /*!
 205:../../../../lr11xx/lr11xx_driver/src/lr11xx_wifi.c ****  * @brief Parse extended full result
 206:../../../../lr11xx/lr11xx_driver/src/lr11xx_wifi.c ****  */
 207:../../../../lr11xx/lr11xx_driver/src/lr11xx_wifi.c **** static void interpret_extended_full_result_from_buffer( const uint8_t nb_results,
 208:../../../../lr11xx/lr11xx_driver/src/lr11xx_wifi.c ****                                                         const uint8_t index_result_start_writing, c
 209:../../../../lr11xx/lr11xx_driver/src/lr11xx_wifi.c ****                                                         lr11xx_wifi_extended_full_result_t* result 
 210:../../../../lr11xx/lr11xx_driver/src/lr11xx_wifi.c **** 
 211:../../../../lr11xx/lr11xx_driver/src/lr11xx_wifi.c **** /*!
 212:../../../../lr11xx/lr11xx_driver/src/lr11xx_wifi.c ****  * @brief Parse basic MAC - type - channel result
 213:../../../../lr11xx/lr11xx_driver/src/lr11xx_wifi.c ****  */
 214:../../../../lr11xx/lr11xx_driver/src/lr11xx_wifi.c **** static lr11xx_status_t fetch_and_aggregate_all_results( const void* context, const uint8_t index_re
 215:../../../../lr11xx/lr11xx_driver/src/lr11xx_wifi.c ****                                                         const uint8_t                     nb_result
 216:../../../../lr11xx/lr11xx_driver/src/lr11xx_wifi.c ****                                                         const uint8_t                     nb_result
 217:../../../../lr11xx/lr11xx_driver/src/lr11xx_wifi.c ****                                                         const lr11xx_wifi_result_format_t result_fo
 218:../../../../lr11xx/lr11xx_driver/src/lr11xx_wifi.c ****                                                         uint8_t*                          result_bu
 219:../../../../lr11xx/lr11xx_driver/src/lr11xx_wifi.c ****                                                         lr11xx_wifi_result_interface_t    result_st
 220:../../../../lr11xx/lr11xx_driver/src/lr11xx_wifi.c **** 
 221:../../../../lr11xx/lr11xx_driver/src/lr11xx_wifi.c **** /*!
 222:../../../../lr11xx/lr11xx_driver/src/lr11xx_wifi.c ****  * @brief Share the size of a result format
 223:../../../../lr11xx/lr11xx_driver/src/lr11xx_wifi.c ****  *
 224:../../../../lr11xx/lr11xx_driver/src/lr11xx_wifi.c ****  * @returns Size in byte of the format given as parameter
 225:../../../../lr11xx/lr11xx_driver/src/lr11xx_wifi.c ****  */
 226:../../../../lr11xx/lr11xx_driver/src/lr11xx_wifi.c **** static uint8_t lr11xx_wifi_get_result_size_from_format( const lr11xx_wifi_result_format_t format );
 227:../../../../lr11xx/lr11xx_driver/src/lr11xx_wifi.c **** 
 228:../../../../lr11xx/lr11xx_driver/src/lr11xx_wifi.c **** /*!
 229:../../../../lr11xx/lr11xx_driver/src/lr11xx_wifi.c ****  * @brief Fetch results from the radio after a successful Wi-Fi passive scan
 230:../../../../lr11xx/lr11xx_driver/src/lr11xx_wifi.c ****  *
 231:../../../../lr11xx/lr11xx_driver/src/lr11xx_wifi.c ****  * @returns Operation status
 232:../../../../lr11xx/lr11xx_driver/src/lr11xx_wifi.c ****  */
 233:../../../../lr11xx/lr11xx_driver/src/lr11xx_wifi.c **** static lr11xx_hal_status_t lr11xx_wifi_read_results_helper( const void* context, const uint8_t star
 234:../../../../lr11xx/lr11xx_driver/src/lr11xx_wifi.c ****                                                             const uint8_t n_elem, uint8_t* buffer,
 235:../../../../lr11xx/lr11xx_driver/src/lr11xx_wifi.c ****                                                             const lr11xx_wifi_result_format_t resul
 236:../../../../lr11xx/lr11xx_driver/src/lr11xx_wifi.c **** 
 237:../../../../lr11xx/lr11xx_driver/src/lr11xx_wifi.c **** /*!
 238:../../../../lr11xx/lr11xx_driver/src/lr11xx_wifi.c ****  * @brief Extract Wi-Fi MAC address from a buffer
 239:../../../../lr11xx/lr11xx_driver/src/lr11xx_wifi.c ****  */
 240:../../../../lr11xx/lr11xx_driver/src/lr11xx_wifi.c **** static void lr11xx_wifi_read_mac_address_from_buffer( const uint8_t* buffer, const uint16_t index_i
 241:../../../../lr11xx/lr11xx_driver/src/lr11xx_wifi.c ****                                                       lr11xx_wifi_mac_address_t mac_address );
 242:../../../../lr11xx/lr11xx_driver/src/lr11xx_wifi.c **** 
 243:../../../../lr11xx/lr11xx_driver/src/lr11xx_wifi.c **** /*!
 244:../../../../lr11xx/lr11xx_driver/src/lr11xx_wifi.c ****  * @brief Share the format code corresponding to a result format
 245:../../../../lr11xx/lr11xx_driver/src/lr11xx_wifi.c ****  *
 246:../../../../lr11xx/lr11xx_driver/src/lr11xx_wifi.c ****  * @returns Format code
 247:../../../../lr11xx/lr11xx_driver/src/lr11xx_wifi.c ****  */
 248:../../../../lr11xx/lr11xx_driver/src/lr11xx_wifi.c **** static uint8_t lr11xx_wifi_get_format_code( const lr11xx_wifi_result_format_t format );
 249:../../../../lr11xx/lr11xx_driver/src/lr11xx_wifi.c **** 
 250:../../../../lr11xx/lr11xx_driver/src/lr11xx_wifi.c **** /*
 251:../../../../lr11xx/lr11xx_driver/src/lr11xx_wifi.c ****  * -----------------------------------------------------------------------------
 252:../../../../lr11xx/lr11xx_driver/src/lr11xx_wifi.c ****  * --- PUBLIC FUNCTIONS DEFINITION ---------------------------------------------
 253:../../../../lr11xx/lr11xx_driver/src/lr11xx_wifi.c ****  */
 254:../../../../lr11xx/lr11xx_driver/src/lr11xx_wifi.c **** 
 255:../../../../lr11xx/lr11xx_driver/src/lr11xx_wifi.c **** lr11xx_status_t lr11xx_wifi_scan( const void* context, const lr11xx_wifi_signal_type_scan_t signal_
 256:../../../../lr11xx/lr11xx_driver/src/lr11xx_wifi.c ****                                   const lr11xx_wifi_channel_mask_t channels, const lr11xx_wifi_mode
 257:../../../../lr11xx/lr11xx_driver/src/lr11xx_wifi.c ****                                   const uint8_t max_results, const uint8_t nb_scan_per_channel,
 258:../../../../lr11xx/lr11xx_driver/src/lr11xx_wifi.c ****                                   const uint16_t timeout_in_ms, const bool abort_on_timeout )
ARM GAS  C:\msys64\tmp\ccFuKh1Y.s 			page 6


 259:../../../../lr11xx/lr11xx_driver/src/lr11xx_wifi.c **** {
  29              		.loc 1 259 1
  30              		.cfi_startproc
  31              		@ args = 16, pretend = 0, frame = 24
  32              		@ frame_needed = 1, uses_anonymous_args = 0
  33 0000 80B5     		push	{r7, lr}
  34              	.LCFI0:
  35              		.cfi_def_cfa_offset 8
  36              		.cfi_offset 7, -8
  37              		.cfi_offset 14, -4
  38 0002 88B0     		sub	sp, sp, #32
  39              	.LCFI1:
  40              		.cfi_def_cfa_offset 40
  41 0004 02AF     		add	r7, sp, #8
  42              	.LCFI2:
  43              		.cfi_def_cfa 7, 32
  44 0006 7860     		str	r0, [r7, #4]
  45 0008 0846     		mov	r0, r1
  46 000a 1146     		mov	r1, r2
  47 000c 1A46     		mov	r2, r3
  48 000e 0346     		mov	r3, r0
  49 0010 FB70     		strb	r3, [r7, #3]
  50 0012 0B46     		mov	r3, r1	@ movhi
  51 0014 3B80     		strh	r3, [r7]	@ movhi
  52 0016 1346     		mov	r3, r2
  53 0018 BB70     		strb	r3, [r7, #2]
 260:../../../../lr11xx/lr11xx_driver/src/lr11xx_wifi.c ****     const uint8_t cbuffer[LR11XX_WIFI_SCAN_CMD_LENGTH] = {
  54              		.loc 1 260 19
  55 001a 0323     		movs	r3, #3
  56 001c 3B73     		strb	r3, [r7, #12]
  57 001e 0023     		movs	r3, #0
  58 0020 7B73     		strb	r3, [r7, #13]
  59 0022 FB78     		ldrb	r3, [r7, #3]
  60 0024 BB73     		strb	r3, [r7, #14]
 261:../../../../lr11xx/lr11xx_driver/src/lr11xx_wifi.c ****         ( uint8_t ) ( LR11XX_WIFI_SCAN_OC >> 8 ),
 262:../../../../lr11xx/lr11xx_driver/src/lr11xx_wifi.c ****         ( uint8_t ) ( LR11XX_WIFI_SCAN_OC >> 0 ),
 263:../../../../lr11xx/lr11xx_driver/src/lr11xx_wifi.c ****         ( uint8_t ) signal_type,
 264:../../../../lr11xx/lr11xx_driver/src/lr11xx_wifi.c ****         ( uint8_t ) ( channels >> 8 ),
  61              		.loc 1 264 9
  62 0026 3B88     		ldrh	r3, [r7]
  63 0028 1B0A     		lsrs	r3, r3, #8
  64 002a 9BB2     		uxth	r3, r3
  65 002c DBB2     		uxtb	r3, r3
 260:../../../../lr11xx/lr11xx_driver/src/lr11xx_wifi.c ****     const uint8_t cbuffer[LR11XX_WIFI_SCAN_CMD_LENGTH] = {
  66              		.loc 1 260 19
  67 002e FB73     		strb	r3, [r7, #15]
 265:../../../../lr11xx/lr11xx_driver/src/lr11xx_wifi.c ****         ( uint8_t ) ( channels >> 0 ),
  68              		.loc 1 265 9
  69 0030 3B88     		ldrh	r3, [r7]	@ movhi
  70 0032 DBB2     		uxtb	r3, r3
 260:../../../../lr11xx/lr11xx_driver/src/lr11xx_wifi.c ****     const uint8_t cbuffer[LR11XX_WIFI_SCAN_CMD_LENGTH] = {
  71              		.loc 1 260 19
  72 0034 3B74     		strb	r3, [r7, #16]
  73 0036 BB78     		ldrb	r3, [r7, #2]
  74 0038 7B74     		strb	r3, [r7, #17]
  75 003a 97F82030 		ldrb	r3, [r7, #32]
  76 003e BB74     		strb	r3, [r7, #18]
ARM GAS  C:\msys64\tmp\ccFuKh1Y.s 			page 7


  77 0040 97F82430 		ldrb	r3, [r7, #36]
  78 0044 FB74     		strb	r3, [r7, #19]
 266:../../../../lr11xx/lr11xx_driver/src/lr11xx_wifi.c ****         ( uint8_t ) scan_mode,
 267:../../../../lr11xx/lr11xx_driver/src/lr11xx_wifi.c ****         max_results,
 268:../../../../lr11xx/lr11xx_driver/src/lr11xx_wifi.c ****         nb_scan_per_channel,
 269:../../../../lr11xx/lr11xx_driver/src/lr11xx_wifi.c ****         ( uint8_t ) ( timeout_in_ms >> 8 ),
  79              		.loc 1 269 9
  80 0046 3B8D     		ldrh	r3, [r7, #40]
  81 0048 1B0A     		lsrs	r3, r3, #8
  82 004a 9BB2     		uxth	r3, r3
  83 004c DBB2     		uxtb	r3, r3
 260:../../../../lr11xx/lr11xx_driver/src/lr11xx_wifi.c ****         ( uint8_t ) ( LR11XX_WIFI_SCAN_OC >> 8 ),
  84              		.loc 1 260 19
  85 004e 3B75     		strb	r3, [r7, #20]
 270:../../../../lr11xx/lr11xx_driver/src/lr11xx_wifi.c ****         ( uint8_t ) ( timeout_in_ms >> 0 ),
  86              		.loc 1 270 9
  87 0050 3B8D     		ldrh	r3, [r7, #40]	@ movhi
  88 0052 DBB2     		uxtb	r3, r3
 260:../../../../lr11xx/lr11xx_driver/src/lr11xx_wifi.c ****         ( uint8_t ) ( LR11XX_WIFI_SCAN_OC >> 8 ),
  89              		.loc 1 260 19
  90 0054 7B75     		strb	r3, [r7, #21]
 271:../../../../lr11xx/lr11xx_driver/src/lr11xx_wifi.c ****         ( uint8_t ) ( ( abort_on_timeout == true ) ? 1 : 0 ),
  91              		.loc 1 271 9
  92 0056 97F82C30 		ldrb	r3, [r7, #44]	@ zero_extendqisi2
  93 005a 002B     		cmp	r3, #0
  94 005c 01D0     		beq	.L2
  95              		.loc 1 271 9 is_stmt 0 discriminator 1
  96 005e 0123     		movs	r3, #1
  97 0060 00E0     		b	.L3
  98              	.L2:
  99              		.loc 1 271 9 discriminator 2
 100 0062 0023     		movs	r3, #0
 101              	.L3:
 260:../../../../lr11xx/lr11xx_driver/src/lr11xx_wifi.c ****         ( uint8_t ) ( LR11XX_WIFI_SCAN_OC >> 8 ),
 102              		.loc 1 260 19 is_stmt 1
 103 0064 BB75     		strb	r3, [r7, #22]
 272:../../../../lr11xx/lr11xx_driver/src/lr11xx_wifi.c ****     };
 273:../../../../lr11xx/lr11xx_driver/src/lr11xx_wifi.c **** 
 274:../../../../lr11xx/lr11xx_driver/src/lr11xx_wifi.c ****     return ( lr11xx_status_t ) lr11xx_hal_write( context, cbuffer, LR11XX_WIFI_SCAN_CMD_LENGTH, 0, 
 104              		.loc 1 274 32
 105 0066 07F10C01 		add	r1, r7, #12
 106 006a 0023     		movs	r3, #0
 107 006c 0093     		str	r3, [sp]
 108 006e 0023     		movs	r3, #0
 109 0070 0B22     		movs	r2, #11
 110 0072 7868     		ldr	r0, [r7, #4]
 111 0074 FFF7FEFF 		bl	lr11xx_hal_write
 112 0078 0346     		mov	r3, r0
 275:../../../../lr11xx/lr11xx_driver/src/lr11xx_wifi.c **** }
 113              		.loc 1 275 1
 114 007a 1846     		mov	r0, r3
 115 007c 1837     		adds	r7, r7, #24
 116              	.LCFI3:
 117              		.cfi_def_cfa_offset 8
 118 007e BD46     		mov	sp, r7
 119              	.LCFI4:
 120              		.cfi_def_cfa_register 13
ARM GAS  C:\msys64\tmp\ccFuKh1Y.s 			page 8


 121              		@ sp needed
 122 0080 80BD     		pop	{r7, pc}
 123              		.cfi_endproc
 124              	.LFE1:
 126              		.section	.text.lr11xx_wifi_search_country_code,"ax",%progbits
 127              		.align	1
 128              		.global	lr11xx_wifi_search_country_code
 129              		.syntax unified
 130              		.thumb
 131              		.thumb_func
 133              	lr11xx_wifi_search_country_code:
 134              	.LFB2:
 276:../../../../lr11xx/lr11xx_driver/src/lr11xx_wifi.c **** 
 277:../../../../lr11xx/lr11xx_driver/src/lr11xx_wifi.c **** lr11xx_status_t lr11xx_wifi_search_country_code( const void* context, const lr11xx_wifi_channel_mas
 278:../../../../lr11xx/lr11xx_driver/src/lr11xx_wifi.c ****                                                  const uint8_t nb_max_results, const uint8_t nb_sca
 279:../../../../lr11xx/lr11xx_driver/src/lr11xx_wifi.c ****                                                  const uint16_t timeout_in_ms, const bool abort_on_
 280:../../../../lr11xx/lr11xx_driver/src/lr11xx_wifi.c **** {
 135              		.loc 1 280 1
 136              		.cfi_startproc
 137              		@ args = 8, pretend = 0, frame = 24
 138              		@ frame_needed = 1, uses_anonymous_args = 0
 139 0000 80B5     		push	{r7, lr}
 140              	.LCFI5:
 141              		.cfi_def_cfa_offset 8
 142              		.cfi_offset 7, -8
 143              		.cfi_offset 14, -4
 144 0002 88B0     		sub	sp, sp, #32
 145              	.LCFI6:
 146              		.cfi_def_cfa_offset 40
 147 0004 02AF     		add	r7, sp, #8
 148              	.LCFI7:
 149              		.cfi_def_cfa 7, 32
 150 0006 7860     		str	r0, [r7, #4]
 151 0008 0846     		mov	r0, r1
 152 000a 1146     		mov	r1, r2
 153 000c 1A46     		mov	r2, r3
 154 000e 0346     		mov	r3, r0	@ movhi
 155 0010 7B80     		strh	r3, [r7, #2]	@ movhi
 156 0012 0B46     		mov	r3, r1
 157 0014 7B70     		strb	r3, [r7, #1]
 158 0016 1346     		mov	r3, r2
 159 0018 3B70     		strb	r3, [r7]
 281:../../../../lr11xx/lr11xx_driver/src/lr11xx_wifi.c ****     const uint8_t cbuffer[LR11XX_WIFI_SEARCH_COUNTRY_CODE_CMD_LENGTH] = {
 160              		.loc 1 281 19
 161 001a 0323     		movs	r3, #3
 162 001c 3B73     		strb	r3, [r7, #12]
 163 001e 0223     		movs	r3, #2
 164 0020 7B73     		strb	r3, [r7, #13]
 282:../../../../lr11xx/lr11xx_driver/src/lr11xx_wifi.c ****         ( uint8_t ) ( LR11XX_WIFI_SEARCH_COUNTRY_CODE_OC >> 8 ),
 283:../../../../lr11xx/lr11xx_driver/src/lr11xx_wifi.c ****         ( uint8_t ) ( LR11XX_WIFI_SEARCH_COUNTRY_CODE_OC >> 0 ),
 284:../../../../lr11xx/lr11xx_driver/src/lr11xx_wifi.c ****         ( uint8_t ) ( channels_mask >> 8 ),
 165              		.loc 1 284 9
 166 0022 7B88     		ldrh	r3, [r7, #2]
 167 0024 1B0A     		lsrs	r3, r3, #8
 168 0026 9BB2     		uxth	r3, r3
 169 0028 DBB2     		uxtb	r3, r3
 281:../../../../lr11xx/lr11xx_driver/src/lr11xx_wifi.c ****     const uint8_t cbuffer[LR11XX_WIFI_SEARCH_COUNTRY_CODE_CMD_LENGTH] = {
ARM GAS  C:\msys64\tmp\ccFuKh1Y.s 			page 9


 170              		.loc 1 281 19
 171 002a BB73     		strb	r3, [r7, #14]
 285:../../../../lr11xx/lr11xx_driver/src/lr11xx_wifi.c ****         ( uint8_t ) ( channels_mask >> 0 ),
 172              		.loc 1 285 9
 173 002c 7B88     		ldrh	r3, [r7, #2]	@ movhi
 174 002e DBB2     		uxtb	r3, r3
 281:../../../../lr11xx/lr11xx_driver/src/lr11xx_wifi.c ****     const uint8_t cbuffer[LR11XX_WIFI_SEARCH_COUNTRY_CODE_CMD_LENGTH] = {
 175              		.loc 1 281 19
 176 0030 FB73     		strb	r3, [r7, #15]
 177 0032 7B78     		ldrb	r3, [r7, #1]
 178 0034 3B74     		strb	r3, [r7, #16]
 179 0036 3B78     		ldrb	r3, [r7]
 180 0038 7B74     		strb	r3, [r7, #17]
 286:../../../../lr11xx/lr11xx_driver/src/lr11xx_wifi.c ****         nb_max_results,
 287:../../../../lr11xx/lr11xx_driver/src/lr11xx_wifi.c ****         nb_scan_per_channel,
 288:../../../../lr11xx/lr11xx_driver/src/lr11xx_wifi.c ****         ( uint8_t ) ( timeout_in_ms >> 8 ),
 181              		.loc 1 288 9
 182 003a 3B8C     		ldrh	r3, [r7, #32]
 183 003c 1B0A     		lsrs	r3, r3, #8
 184 003e 9BB2     		uxth	r3, r3
 185 0040 DBB2     		uxtb	r3, r3
 281:../../../../lr11xx/lr11xx_driver/src/lr11xx_wifi.c ****         ( uint8_t ) ( LR11XX_WIFI_SEARCH_COUNTRY_CODE_OC >> 8 ),
 186              		.loc 1 281 19
 187 0042 BB74     		strb	r3, [r7, #18]
 289:../../../../lr11xx/lr11xx_driver/src/lr11xx_wifi.c ****         ( uint8_t ) ( timeout_in_ms >> 0 ),
 188              		.loc 1 289 9
 189 0044 3B8C     		ldrh	r3, [r7, #32]	@ movhi
 190 0046 DBB2     		uxtb	r3, r3
 281:../../../../lr11xx/lr11xx_driver/src/lr11xx_wifi.c ****         ( uint8_t ) ( LR11XX_WIFI_SEARCH_COUNTRY_CODE_OC >> 8 ),
 191              		.loc 1 281 19
 192 0048 FB74     		strb	r3, [r7, #19]
 290:../../../../lr11xx/lr11xx_driver/src/lr11xx_wifi.c ****         ( uint8_t ) ( ( abort_on_timeout == true ) ? 1 : 0 ),
 193              		.loc 1 290 9
 194 004a 97F82430 		ldrb	r3, [r7, #36]	@ zero_extendqisi2
 195 004e 002B     		cmp	r3, #0
 196 0050 01D0     		beq	.L6
 197              		.loc 1 290 9 is_stmt 0 discriminator 1
 198 0052 0123     		movs	r3, #1
 199 0054 00E0     		b	.L7
 200              	.L6:
 201              		.loc 1 290 9 discriminator 2
 202 0056 0023     		movs	r3, #0
 203              	.L7:
 281:../../../../lr11xx/lr11xx_driver/src/lr11xx_wifi.c ****         ( uint8_t ) ( LR11XX_WIFI_SEARCH_COUNTRY_CODE_OC >> 8 ),
 204              		.loc 1 281 19 is_stmt 1
 205 0058 3B75     		strb	r3, [r7, #20]
 291:../../../../lr11xx/lr11xx_driver/src/lr11xx_wifi.c ****     };
 292:../../../../lr11xx/lr11xx_driver/src/lr11xx_wifi.c **** 
 293:../../../../lr11xx/lr11xx_driver/src/lr11xx_wifi.c ****     return ( lr11xx_status_t ) lr11xx_hal_write( context, cbuffer, LR11XX_WIFI_SEARCH_COUNTRY_CODE_
 206              		.loc 1 293 32
 207 005a 07F10C01 		add	r1, r7, #12
 208 005e 0023     		movs	r3, #0
 209 0060 0093     		str	r3, [sp]
 210 0062 0023     		movs	r3, #0
 211 0064 0922     		movs	r2, #9
 212 0066 7868     		ldr	r0, [r7, #4]
 213 0068 FFF7FEFF 		bl	lr11xx_hal_write
ARM GAS  C:\msys64\tmp\ccFuKh1Y.s 			page 10


 214 006c 0346     		mov	r3, r0
 294:../../../../lr11xx/lr11xx_driver/src/lr11xx_wifi.c **** }
 215              		.loc 1 294 1
 216 006e 1846     		mov	r0, r3
 217 0070 1837     		adds	r7, r7, #24
 218              	.LCFI8:
 219              		.cfi_def_cfa_offset 8
 220 0072 BD46     		mov	sp, r7
 221              	.LCFI9:
 222              		.cfi_def_cfa_register 13
 223              		@ sp needed
 224 0074 80BD     		pop	{r7, pc}
 225              		.cfi_endproc
 226              	.LFE2:
 228              		.section	.text.lr11xx_wifi_scan_time_limit,"ax",%progbits
 229              		.align	1
 230              		.global	lr11xx_wifi_scan_time_limit
 231              		.syntax unified
 232              		.thumb
 233              		.thumb_func
 235              	lr11xx_wifi_scan_time_limit:
 236              	.LFB3:
 295:../../../../lr11xx/lr11xx_driver/src/lr11xx_wifi.c **** 
 296:../../../../lr11xx/lr11xx_driver/src/lr11xx_wifi.c **** lr11xx_status_t lr11xx_wifi_scan_time_limit( const void* radio, const lr11xx_wifi_signal_type_scan_
 297:../../../../lr11xx/lr11xx_driver/src/lr11xx_wifi.c ****                                              const lr11xx_wifi_channel_mask_t channels,
 298:../../../../lr11xx/lr11xx_driver/src/lr11xx_wifi.c ****                                              const lr11xx_wifi_mode_t scan_mode, const uint8_t max_
 299:../../../../lr11xx/lr11xx_driver/src/lr11xx_wifi.c ****                                              const uint16_t timeout_per_channel_ms, const uint16_t 
 300:../../../../lr11xx/lr11xx_driver/src/lr11xx_wifi.c **** {
 237              		.loc 1 300 1
 238              		.cfi_startproc
 239              		@ args = 12, pretend = 0, frame = 24
 240              		@ frame_needed = 1, uses_anonymous_args = 0
 241 0000 80B5     		push	{r7, lr}
 242              	.LCFI10:
 243              		.cfi_def_cfa_offset 8
 244              		.cfi_offset 7, -8
 245              		.cfi_offset 14, -4
 246 0002 88B0     		sub	sp, sp, #32
 247              	.LCFI11:
 248              		.cfi_def_cfa_offset 40
 249 0004 02AF     		add	r7, sp, #8
 250              	.LCFI12:
 251              		.cfi_def_cfa 7, 32
 252 0006 7860     		str	r0, [r7, #4]
 253 0008 0846     		mov	r0, r1
 254 000a 1146     		mov	r1, r2
 255 000c 1A46     		mov	r2, r3
 256 000e 0346     		mov	r3, r0
 257 0010 FB70     		strb	r3, [r7, #3]
 258 0012 0B46     		mov	r3, r1	@ movhi
 259 0014 3B80     		strh	r3, [r7]	@ movhi
 260 0016 1346     		mov	r3, r2
 261 0018 BB70     		strb	r3, [r7, #2]
 301:../../../../lr11xx/lr11xx_driver/src/lr11xx_wifi.c ****     const uint8_t cbuffer[LR11XX_WIFI_SCAN_TIME_LIMIT_CMD_LENGTH] = {
 262              		.loc 1 301 19
 263 001a 0323     		movs	r3, #3
 264 001c 3B73     		strb	r3, [r7, #12]
ARM GAS  C:\msys64\tmp\ccFuKh1Y.s 			page 11


 265 001e 0123     		movs	r3, #1
 266 0020 7B73     		strb	r3, [r7, #13]
 267 0022 FB78     		ldrb	r3, [r7, #3]
 268 0024 BB73     		strb	r3, [r7, #14]
 302:../../../../lr11xx/lr11xx_driver/src/lr11xx_wifi.c ****         ( uint8_t ) ( LR11XX_WIFI_SCAN_TIME_LIMIT >> 8 ),
 303:../../../../lr11xx/lr11xx_driver/src/lr11xx_wifi.c ****         ( uint8_t ) ( LR11XX_WIFI_SCAN_TIME_LIMIT >> 0 ),
 304:../../../../lr11xx/lr11xx_driver/src/lr11xx_wifi.c ****         ( uint8_t ) signal_type,
 305:../../../../lr11xx/lr11xx_driver/src/lr11xx_wifi.c ****         ( uint8_t ) ( channels >> 8 ),
 269              		.loc 1 305 9
 270 0026 3B88     		ldrh	r3, [r7]
 271 0028 1B0A     		lsrs	r3, r3, #8
 272 002a 9BB2     		uxth	r3, r3
 273 002c DBB2     		uxtb	r3, r3
 301:../../../../lr11xx/lr11xx_driver/src/lr11xx_wifi.c ****     const uint8_t cbuffer[LR11XX_WIFI_SCAN_TIME_LIMIT_CMD_LENGTH] = {
 274              		.loc 1 301 19
 275 002e FB73     		strb	r3, [r7, #15]
 306:../../../../lr11xx/lr11xx_driver/src/lr11xx_wifi.c ****         ( uint8_t ) ( channels >> 0 ),
 276              		.loc 1 306 9
 277 0030 3B88     		ldrh	r3, [r7]	@ movhi
 278 0032 DBB2     		uxtb	r3, r3
 301:../../../../lr11xx/lr11xx_driver/src/lr11xx_wifi.c ****     const uint8_t cbuffer[LR11XX_WIFI_SCAN_TIME_LIMIT_CMD_LENGTH] = {
 279              		.loc 1 301 19
 280 0034 3B74     		strb	r3, [r7, #16]
 281 0036 BB78     		ldrb	r3, [r7, #2]
 282 0038 7B74     		strb	r3, [r7, #17]
 283 003a 97F82030 		ldrb	r3, [r7, #32]
 284 003e BB74     		strb	r3, [r7, #18]
 307:../../../../lr11xx/lr11xx_driver/src/lr11xx_wifi.c ****         ( uint8_t ) scan_mode,
 308:../../../../lr11xx/lr11xx_driver/src/lr11xx_wifi.c ****         max_results,
 309:../../../../lr11xx/lr11xx_driver/src/lr11xx_wifi.c ****         ( uint8_t ) ( timeout_per_channel_ms >> 8 ),
 285              		.loc 1 309 9
 286 0040 BB8C     		ldrh	r3, [r7, #36]
 287 0042 1B0A     		lsrs	r3, r3, #8
 288 0044 9BB2     		uxth	r3, r3
 289 0046 DBB2     		uxtb	r3, r3
 301:../../../../lr11xx/lr11xx_driver/src/lr11xx_wifi.c ****         ( uint8_t ) ( LR11XX_WIFI_SCAN_TIME_LIMIT >> 8 ),
 290              		.loc 1 301 19
 291 0048 FB74     		strb	r3, [r7, #19]
 310:../../../../lr11xx/lr11xx_driver/src/lr11xx_wifi.c ****         ( uint8_t ) ( timeout_per_channel_ms >> 0 ),
 292              		.loc 1 310 9
 293 004a BB8C     		ldrh	r3, [r7, #36]	@ movhi
 294 004c DBB2     		uxtb	r3, r3
 301:../../../../lr11xx/lr11xx_driver/src/lr11xx_wifi.c ****         ( uint8_t ) ( LR11XX_WIFI_SCAN_TIME_LIMIT >> 8 ),
 295              		.loc 1 301 19
 296 004e 3B75     		strb	r3, [r7, #20]
 311:../../../../lr11xx/lr11xx_driver/src/lr11xx_wifi.c ****         ( uint8_t ) ( timeout_per_scan_ms >> 8 ),
 297              		.loc 1 311 9
 298 0050 3B8D     		ldrh	r3, [r7, #40]
 299 0052 1B0A     		lsrs	r3, r3, #8
 300 0054 9BB2     		uxth	r3, r3
 301 0056 DBB2     		uxtb	r3, r3
 301:../../../../lr11xx/lr11xx_driver/src/lr11xx_wifi.c ****         ( uint8_t ) ( LR11XX_WIFI_SCAN_TIME_LIMIT >> 8 ),
 302              		.loc 1 301 19
 303 0058 7B75     		strb	r3, [r7, #21]
 312:../../../../lr11xx/lr11xx_driver/src/lr11xx_wifi.c ****         ( uint8_t ) ( timeout_per_scan_ms >> 0 ),
 304              		.loc 1 312 9
 305 005a 3B8D     		ldrh	r3, [r7, #40]	@ movhi
ARM GAS  C:\msys64\tmp\ccFuKh1Y.s 			page 12


 306 005c DBB2     		uxtb	r3, r3
 301:../../../../lr11xx/lr11xx_driver/src/lr11xx_wifi.c ****         ( uint8_t ) ( LR11XX_WIFI_SCAN_TIME_LIMIT >> 8 ),
 307              		.loc 1 301 19
 308 005e BB75     		strb	r3, [r7, #22]
 313:../../../../lr11xx/lr11xx_driver/src/lr11xx_wifi.c ****     };
 314:../../../../lr11xx/lr11xx_driver/src/lr11xx_wifi.c **** 
 315:../../../../lr11xx/lr11xx_driver/src/lr11xx_wifi.c ****     return ( lr11xx_status_t ) lr11xx_hal_write( radio, cbuffer, LR11XX_WIFI_SCAN_TIME_LIMIT_CMD_LE
 309              		.loc 1 315 32
 310 0060 07F10C01 		add	r1, r7, #12
 311 0064 0023     		movs	r3, #0
 312 0066 0093     		str	r3, [sp]
 313 0068 0023     		movs	r3, #0
 314 006a 0B22     		movs	r2, #11
 315 006c 7868     		ldr	r0, [r7, #4]
 316 006e FFF7FEFF 		bl	lr11xx_hal_write
 317 0072 0346     		mov	r3, r0
 316:../../../../lr11xx/lr11xx_driver/src/lr11xx_wifi.c **** }
 318              		.loc 1 316 1
 319 0074 1846     		mov	r0, r3
 320 0076 1837     		adds	r7, r7, #24
 321              	.LCFI13:
 322              		.cfi_def_cfa_offset 8
 323 0078 BD46     		mov	sp, r7
 324              	.LCFI14:
 325              		.cfi_def_cfa_register 13
 326              		@ sp needed
 327 007a 80BD     		pop	{r7, pc}
 328              		.cfi_endproc
 329              	.LFE3:
 331              		.section	.text.lr11xx_wifi_search_country_code_time_limit,"ax",%progbits
 332              		.align	1
 333              		.global	lr11xx_wifi_search_country_code_time_limit
 334              		.syntax unified
 335              		.thumb
 336              		.thumb_func
 338              	lr11xx_wifi_search_country_code_time_limit:
 339              	.LFB4:
 317:../../../../lr11xx/lr11xx_driver/src/lr11xx_wifi.c **** 
 318:../../../../lr11xx/lr11xx_driver/src/lr11xx_wifi.c **** lr11xx_status_t lr11xx_wifi_search_country_code_time_limit( const void*                      radio,
 319:../../../../lr11xx/lr11xx_driver/src/lr11xx_wifi.c ****                                                             const lr11xx_wifi_channel_mask_t channe
 320:../../../../lr11xx/lr11xx_driver/src/lr11xx_wifi.c ****                                                             const uint8_t                    max_re
 321:../../../../lr11xx/lr11xx_driver/src/lr11xx_wifi.c ****                                                             const uint16_t                   timeou
 322:../../../../lr11xx/lr11xx_driver/src/lr11xx_wifi.c ****                                                             const uint16_t                   timeou
 323:../../../../lr11xx/lr11xx_driver/src/lr11xx_wifi.c **** {
 340              		.loc 1 323 1
 341              		.cfi_startproc
 342              		@ args = 4, pretend = 0, frame = 32
 343              		@ frame_needed = 1, uses_anonymous_args = 0
 344 0000 80B5     		push	{r7, lr}
 345              	.LCFI15:
 346              		.cfi_def_cfa_offset 8
 347              		.cfi_offset 7, -8
 348              		.cfi_offset 14, -4
 349 0002 8AB0     		sub	sp, sp, #40
 350              	.LCFI16:
 351              		.cfi_def_cfa_offset 48
 352 0004 02AF     		add	r7, sp, #8
ARM GAS  C:\msys64\tmp\ccFuKh1Y.s 			page 13


 353              	.LCFI17:
 354              		.cfi_def_cfa 7, 40
 355 0006 F860     		str	r0, [r7, #12]
 356 0008 0846     		mov	r0, r1
 357 000a 1146     		mov	r1, r2
 358 000c 1A46     		mov	r2, r3
 359 000e 0346     		mov	r3, r0	@ movhi
 360 0010 7B81     		strh	r3, [r7, #10]	@ movhi
 361 0012 0B46     		mov	r3, r1
 362 0014 7B72     		strb	r3, [r7, #9]
 363 0016 1346     		mov	r3, r2	@ movhi
 364 0018 FB80     		strh	r3, [r7, #6]	@ movhi
 324:../../../../lr11xx/lr11xx_driver/src/lr11xx_wifi.c ****     const uint8_t cbuffer[LR11XX_WIFI_COUNTRY_CODE_TIME_LIMIT_CMD_LENGTH] = {
 365              		.loc 1 324 19
 366 001a 0323     		movs	r3, #3
 367 001c 3B75     		strb	r3, [r7, #20]
 368 001e 0323     		movs	r3, #3
 369 0020 7B75     		strb	r3, [r7, #21]
 325:../../../../lr11xx/lr11xx_driver/src/lr11xx_wifi.c ****         ( uint8_t ) ( LR11XX_WIFI_COUNTRY_CODE_TIME_LIMIT_OC >> 8 ),
 326:../../../../lr11xx/lr11xx_driver/src/lr11xx_wifi.c ****         ( uint8_t ) ( LR11XX_WIFI_COUNTRY_CODE_TIME_LIMIT_OC >> 0 ),
 327:../../../../lr11xx/lr11xx_driver/src/lr11xx_wifi.c ****         ( uint8_t ) ( channels >> 8 ),
 370              		.loc 1 327 9
 371 0022 7B89     		ldrh	r3, [r7, #10]
 372 0024 1B0A     		lsrs	r3, r3, #8
 373 0026 9BB2     		uxth	r3, r3
 374 0028 DBB2     		uxtb	r3, r3
 324:../../../../lr11xx/lr11xx_driver/src/lr11xx_wifi.c ****     const uint8_t cbuffer[LR11XX_WIFI_COUNTRY_CODE_TIME_LIMIT_CMD_LENGTH] = {
 375              		.loc 1 324 19
 376 002a BB75     		strb	r3, [r7, #22]
 328:../../../../lr11xx/lr11xx_driver/src/lr11xx_wifi.c ****         ( uint8_t ) ( channels >> 0 ),
 377              		.loc 1 328 9
 378 002c 7B89     		ldrh	r3, [r7, #10]	@ movhi
 379 002e DBB2     		uxtb	r3, r3
 324:../../../../lr11xx/lr11xx_driver/src/lr11xx_wifi.c ****     const uint8_t cbuffer[LR11XX_WIFI_COUNTRY_CODE_TIME_LIMIT_CMD_LENGTH] = {
 380              		.loc 1 324 19
 381 0030 FB75     		strb	r3, [r7, #23]
 382 0032 7B7A     		ldrb	r3, [r7, #9]
 383 0034 3B76     		strb	r3, [r7, #24]
 329:../../../../lr11xx/lr11xx_driver/src/lr11xx_wifi.c ****         ( uint8_t ) max_results,
 330:../../../../lr11xx/lr11xx_driver/src/lr11xx_wifi.c ****         ( uint8_t ) ( timeout_per_channel_ms >> 8 ),
 384              		.loc 1 330 9
 385 0036 FB88     		ldrh	r3, [r7, #6]
 386 0038 1B0A     		lsrs	r3, r3, #8
 387 003a 9BB2     		uxth	r3, r3
 388 003c DBB2     		uxtb	r3, r3
 324:../../../../lr11xx/lr11xx_driver/src/lr11xx_wifi.c ****         ( uint8_t ) ( LR11XX_WIFI_COUNTRY_CODE_TIME_LIMIT_OC >> 8 ),
 389              		.loc 1 324 19
 390 003e 7B76     		strb	r3, [r7, #25]
 331:../../../../lr11xx/lr11xx_driver/src/lr11xx_wifi.c ****         ( uint8_t ) ( timeout_per_channel_ms >> 0 ),
 391              		.loc 1 331 9
 392 0040 FB88     		ldrh	r3, [r7, #6]	@ movhi
 393 0042 DBB2     		uxtb	r3, r3
 324:../../../../lr11xx/lr11xx_driver/src/lr11xx_wifi.c ****         ( uint8_t ) ( LR11XX_WIFI_COUNTRY_CODE_TIME_LIMIT_OC >> 8 ),
 394              		.loc 1 324 19
 395 0044 BB76     		strb	r3, [r7, #26]
 332:../../../../lr11xx/lr11xx_driver/src/lr11xx_wifi.c ****         ( uint8_t ) ( timeout_per_scan_ms >> 8 ),
 396              		.loc 1 332 9
ARM GAS  C:\msys64\tmp\ccFuKh1Y.s 			page 14


 397 0046 3B8D     		ldrh	r3, [r7, #40]
 398 0048 1B0A     		lsrs	r3, r3, #8
 399 004a 9BB2     		uxth	r3, r3
 400 004c DBB2     		uxtb	r3, r3
 324:../../../../lr11xx/lr11xx_driver/src/lr11xx_wifi.c ****         ( uint8_t ) ( LR11XX_WIFI_COUNTRY_CODE_TIME_LIMIT_OC >> 8 ),
 401              		.loc 1 324 19
 402 004e FB76     		strb	r3, [r7, #27]
 333:../../../../lr11xx/lr11xx_driver/src/lr11xx_wifi.c ****         ( uint8_t ) ( timeout_per_scan_ms >> 0 ),
 403              		.loc 1 333 9
 404 0050 3B8D     		ldrh	r3, [r7, #40]	@ movhi
 405 0052 DBB2     		uxtb	r3, r3
 324:../../../../lr11xx/lr11xx_driver/src/lr11xx_wifi.c ****         ( uint8_t ) ( LR11XX_WIFI_COUNTRY_CODE_TIME_LIMIT_OC >> 8 ),
 406              		.loc 1 324 19
 407 0054 3B77     		strb	r3, [r7, #28]
 334:../../../../lr11xx/lr11xx_driver/src/lr11xx_wifi.c ****     };
 335:../../../../lr11xx/lr11xx_driver/src/lr11xx_wifi.c **** 
 336:../../../../lr11xx/lr11xx_driver/src/lr11xx_wifi.c ****     return ( lr11xx_status_t ) lr11xx_hal_write( radio, cbuffer, LR11XX_WIFI_COUNTRY_CODE_TIME_LIMI
 408              		.loc 1 336 32
 409 0056 07F11401 		add	r1, r7, #20
 410 005a 0023     		movs	r3, #0
 411 005c 0093     		str	r3, [sp]
 412 005e 0023     		movs	r3, #0
 413 0060 0922     		movs	r2, #9
 414 0062 F868     		ldr	r0, [r7, #12]
 415 0064 FFF7FEFF 		bl	lr11xx_hal_write
 416 0068 0346     		mov	r3, r0
 337:../../../../lr11xx/lr11xx_driver/src/lr11xx_wifi.c **** }
 417              		.loc 1 337 1
 418 006a 1846     		mov	r0, r3
 419 006c 2037     		adds	r7, r7, #32
 420              	.LCFI18:
 421              		.cfi_def_cfa_offset 8
 422 006e BD46     		mov	sp, r7
 423              	.LCFI19:
 424              		.cfi_def_cfa_register 13
 425              		@ sp needed
 426 0070 80BD     		pop	{r7, pc}
 427              		.cfi_endproc
 428              	.LFE4:
 430              		.section	.text.lr11xx_wifi_get_nb_results,"ax",%progbits
 431              		.align	1
 432              		.global	lr11xx_wifi_get_nb_results
 433              		.syntax unified
 434              		.thumb
 435              		.thumb_func
 437              	lr11xx_wifi_get_nb_results:
 438              	.LFB5:
 338:../../../../lr11xx/lr11xx_driver/src/lr11xx_wifi.c **** 
 339:../../../../lr11xx/lr11xx_driver/src/lr11xx_wifi.c **** lr11xx_status_t lr11xx_wifi_get_nb_results( const void* context, uint8_t* nb_results )
 340:../../../../lr11xx/lr11xx_driver/src/lr11xx_wifi.c **** {
 439              		.loc 1 340 1
 440              		.cfi_startproc
 441              		@ args = 0, pretend = 0, frame = 16
 442              		@ frame_needed = 1, uses_anonymous_args = 0
 443 0000 80B5     		push	{r7, lr}
 444              	.LCFI20:
 445              		.cfi_def_cfa_offset 8
ARM GAS  C:\msys64\tmp\ccFuKh1Y.s 			page 15


 446              		.cfi_offset 7, -8
 447              		.cfi_offset 14, -4
 448 0002 86B0     		sub	sp, sp, #24
 449              	.LCFI21:
 450              		.cfi_def_cfa_offset 32
 451 0004 02AF     		add	r7, sp, #8
 452              	.LCFI22:
 453              		.cfi_def_cfa 7, 24
 454 0006 7860     		str	r0, [r7, #4]
 455 0008 3960     		str	r1, [r7]
 341:../../../../lr11xx/lr11xx_driver/src/lr11xx_wifi.c ****     const uint8_t cbuffer[LR11XX_WIFI_GET_RESULT_SIZE_CMD_LENGTH] = {
 456              		.loc 1 341 19
 457 000a 40F20353 		movw	r3, #1283
 458 000e BB81     		strh	r3, [r7, #12]	@ movhi
 342:../../../../lr11xx/lr11xx_driver/src/lr11xx_wifi.c ****         ( uint8_t ) ( LR11XX_WIFI_GET_RESULT_SIZE_OC >> 8 ),
 343:../../../../lr11xx/lr11xx_driver/src/lr11xx_wifi.c ****         ( uint8_t ) ( LR11XX_WIFI_GET_RESULT_SIZE_OC >> 0 ),
 344:../../../../lr11xx/lr11xx_driver/src/lr11xx_wifi.c ****     };
 345:../../../../lr11xx/lr11xx_driver/src/lr11xx_wifi.c **** 
 346:../../../../lr11xx/lr11xx_driver/src/lr11xx_wifi.c ****     return ( lr11xx_status_t ) lr11xx_hal_read( context, cbuffer, LR11XX_WIFI_GET_RESULT_SIZE_CMD_L
 459              		.loc 1 346 32
 460 0010 07F10C01 		add	r1, r7, #12
 461 0014 0123     		movs	r3, #1
 462 0016 0093     		str	r3, [sp]
 463 0018 3B68     		ldr	r3, [r7]
 464 001a 0222     		movs	r2, #2
 465 001c 7868     		ldr	r0, [r7, #4]
 466 001e FFF7FEFF 		bl	lr11xx_hal_read
 467 0022 0346     		mov	r3, r0
 347:../../../../lr11xx/lr11xx_driver/src/lr11xx_wifi.c ****                                                 sizeof( *nb_results ) );
 348:../../../../lr11xx/lr11xx_driver/src/lr11xx_wifi.c **** }
 468              		.loc 1 348 1
 469 0024 1846     		mov	r0, r3
 470 0026 1037     		adds	r7, r7, #16
 471              	.LCFI23:
 472              		.cfi_def_cfa_offset 8
 473 0028 BD46     		mov	sp, r7
 474              	.LCFI24:
 475              		.cfi_def_cfa_register 13
 476              		@ sp needed
 477 002a 80BD     		pop	{r7, pc}
 478              		.cfi_endproc
 479              	.LFE5:
 481              		.section	.text.lr11xx_wifi_read_basic_complete_results,"ax",%progbits
 482              		.align	1
 483              		.global	lr11xx_wifi_read_basic_complete_results
 484              		.syntax unified
 485              		.thumb
 486              		.thumb_func
 488              	lr11xx_wifi_read_basic_complete_results:
 489              	.LFB6:
 349:../../../../lr11xx/lr11xx_driver/src/lr11xx_wifi.c **** 
 350:../../../../lr11xx/lr11xx_driver/src/lr11xx_wifi.c **** lr11xx_status_t lr11xx_wifi_read_basic_complete_results( const void* context, const uint8_t start_r
 351:../../../../lr11xx/lr11xx_driver/src/lr11xx_wifi.c ****                                                          const uint8_t                        nb_re
 352:../../../../lr11xx/lr11xx_driver/src/lr11xx_wifi.c ****                                                          lr11xx_wifi_basic_complete_result_t* resul
 353:../../../../lr11xx/lr11xx_driver/src/lr11xx_wifi.c **** {
 490              		.loc 1 353 1
 491              		.cfi_startproc
ARM GAS  C:\msys64\tmp\ccFuKh1Y.s 			page 16


 492              		@ args = 0, pretend = 0, frame = 728
 493              		@ frame_needed = 1, uses_anonymous_args = 0
 494 0000 90B5     		push	{r4, r7, lr}
 495              	.LCFI25:
 496              		.cfi_def_cfa_offset 12
 497              		.cfi_offset 4, -12
 498              		.cfi_offset 7, -8
 499              		.cfi_offset 14, -4
 500 0002 ADF53B7D 		sub	sp, sp, #748
 501              	.LCFI26:
 502              		.cfi_def_cfa_offset 760
 503 0006 04AF     		add	r7, sp, #16
 504              	.LCFI27:
 505              		.cfi_def_cfa 7, 744
 506 0008 07F53674 		add	r4, r7, #728
 507 000c A4F53374 		sub	r4, r4, #716
 508 0010 2060     		str	r0, [r4]
 509 0012 0846     		mov	r0, r1
 510 0014 1146     		mov	r1, r2
 511 0016 07F53672 		add	r2, r7, #728
 512 001a A2F53572 		sub	r2, r2, #724
 513 001e 1360     		str	r3, [r2]
 514 0020 07F53673 		add	r3, r7, #728
 515 0024 A3F2CD23 		subw	r3, r3, #717
 516 0028 0246     		mov	r2, r0
 517 002a 1A70     		strb	r2, [r3]
 518 002c 07F53673 		add	r3, r7, #728
 519 0030 A3F2CE23 		subw	r3, r3, #718
 520 0034 0A46     		mov	r2, r1
 521 0036 1A70     		strb	r2, [r3]
 354:../../../../lr11xx/lr11xx_driver/src/lr11xx_wifi.c ****     uint8_t       result_buffer[LR11XX_WIFI_MAX_SIZE_PER_SPI( LR11XX_WIFI_BASIC_COMPLETE_RESULT_SIZ
 522              		.loc 1 354 19
 523 0038 07F53673 		add	r3, r7, #728
 524 003c A3F53173 		sub	r3, r3, #708
 525 0040 1846     		mov	r0, r3
 526 0042 4FF43073 		mov	r3, #704
 527 0046 1A46     		mov	r2, r3
 528 0048 0021     		movs	r1, #0
 529 004a FFF7FEFF 		bl	memset
 355:../../../../lr11xx/lr11xx_driver/src/lr11xx_wifi.c ****     const uint8_t nb_results_per_chunk_max =
 530              		.loc 1 355 19
 531 004e 2023     		movs	r3, #32
 532 0050 87F8D732 		strb	r3, [r7, #727]
 356:../../../../lr11xx/lr11xx_driver/src/lr11xx_wifi.c ****         LR11XX_WIFI_MAX_RESULT_PER_TRANSACTION( LR11XX_WIFI_BASIC_COMPLETE_RESULT_SIZE );
 357:../../../../lr11xx/lr11xx_driver/src/lr11xx_wifi.c **** 
 358:../../../../lr11xx/lr11xx_driver/src/lr11xx_wifi.c ****     lr11xx_wifi_result_interface_t result_interface = { 0 };
 533              		.loc 1 358 36
 534 0054 07F53673 		add	r3, r7, #728
 535 0058 A3F53273 		sub	r3, r3, #712
 536 005c 0022     		movs	r2, #0
 537 005e 1A60     		str	r2, [r3]
 359:../../../../lr11xx/lr11xx_driver/src/lr11xx_wifi.c ****     result_interface.basic_complete                 = results;
 538              		.loc 1 359 53
 539 0060 07F53673 		add	r3, r7, #728
 540 0064 A3F53273 		sub	r3, r3, #712
 541 0068 07F53672 		add	r2, r7, #728
 542 006c A2F53572 		sub	r2, r2, #724
ARM GAS  C:\msys64\tmp\ccFuKh1Y.s 			page 17


 543 0070 1268     		ldr	r2, [r2]
 544 0072 1A60     		str	r2, [r3]
 360:../../../../lr11xx/lr11xx_driver/src/lr11xx_wifi.c **** 
 361:../../../../lr11xx/lr11xx_driver/src/lr11xx_wifi.c ****     return fetch_and_aggregate_all_results( context, start_result_index, nb_results, nb_results_per
 545              		.loc 1 361 12
 546 0074 97F8D742 		ldrb	r4, [r7, #727]	@ zero_extendqisi2
 547 0078 07F53673 		add	r3, r7, #728
 548 007c A3F2CE23 		subw	r3, r3, #718
 549 0080 1A78     		ldrb	r2, [r3]	@ zero_extendqisi2
 550 0082 07F53673 		add	r3, r7, #728
 551 0086 A3F2CD23 		subw	r3, r3, #717
 552 008a 1978     		ldrb	r1, [r3]	@ zero_extendqisi2
 553 008c 07F53673 		add	r3, r7, #728
 554 0090 A3F53370 		sub	r0, r3, #716
 555 0094 07F53673 		add	r3, r7, #728
 556 0098 A3F53273 		sub	r3, r3, #712
 557 009c 1B68     		ldr	r3, [r3]
 558 009e 0293     		str	r3, [sp, #8]
 559 00a0 07F11403 		add	r3, r7, #20
 560 00a4 0193     		str	r3, [sp, #4]
 561 00a6 0023     		movs	r3, #0
 562 00a8 0093     		str	r3, [sp]
 563 00aa 2346     		mov	r3, r4
 564 00ac 0068     		ldr	r0, [r0]
 565 00ae FFF7FEFF 		bl	fetch_and_aggregate_all_results
 566 00b2 0346     		mov	r3, r0
 362:../../../../lr11xx/lr11xx_driver/src/lr11xx_wifi.c ****                                             LR11XX_WIFI_RESULT_FORMAT_BASIC_COMPLETE, result_buffer
 363:../../../../lr11xx/lr11xx_driver/src/lr11xx_wifi.c **** }
 567              		.loc 1 363 1
 568 00b4 1846     		mov	r0, r3
 569 00b6 07F53777 		add	r7, r7, #732
 570              	.LCFI28:
 571              		.cfi_def_cfa_offset 12
 572 00ba BD46     		mov	sp, r7
 573              	.LCFI29:
 574              		.cfi_def_cfa_register 13
 575              		@ sp needed
 576 00bc 90BD     		pop	{r4, r7, pc}
 577              		.cfi_endproc
 578              	.LFE6:
 580              		.section	.text.lr11xx_wifi_read_basic_mac_type_channel_results,"ax",%progbits
 581              		.align	1
 582              		.global	lr11xx_wifi_read_basic_mac_type_channel_results
 583              		.syntax unified
 584              		.thumb
 585              		.thumb_func
 587              	lr11xx_wifi_read_basic_mac_type_channel_results:
 588              	.LFB7:
 364:../../../../lr11xx/lr11xx_driver/src/lr11xx_wifi.c **** 
 365:../../../../lr11xx/lr11xx_driver/src/lr11xx_wifi.c **** lr11xx_status_t lr11xx_wifi_read_basic_mac_type_channel_results( const void* context, const uint8_t
 366:../../../../lr11xx/lr11xx_driver/src/lr11xx_wifi.c ****                                                                  const uint8_t nb_results,
 367:../../../../lr11xx/lr11xx_driver/src/lr11xx_wifi.c ****                                                                  lr11xx_wifi_basic_mac_type_channel
 368:../../../../lr11xx/lr11xx_driver/src/lr11xx_wifi.c **** {
 589              		.loc 1 368 1
 590              		.cfi_startproc
 591              		@ args = 0, pretend = 0, frame = 312
 592              		@ frame_needed = 1, uses_anonymous_args = 0
ARM GAS  C:\msys64\tmp\ccFuKh1Y.s 			page 18


 593 0000 90B5     		push	{r4, r7, lr}
 594              	.LCFI30:
 595              		.cfi_def_cfa_offset 12
 596              		.cfi_offset 4, -12
 597              		.cfi_offset 7, -8
 598              		.cfi_offset 14, -4
 599 0002 D3B0     		sub	sp, sp, #332
 600              	.LCFI31:
 601              		.cfi_def_cfa_offset 344
 602 0004 04AF     		add	r7, sp, #16
 603              	.LCFI32:
 604              		.cfi_def_cfa 7, 328
 605 0006 07F59C74 		add	r4, r7, #312
 606 000a A4F59674 		sub	r4, r4, #300
 607 000e 2060     		str	r0, [r4]
 608 0010 0846     		mov	r0, r1
 609 0012 1146     		mov	r1, r2
 610 0014 07F59C72 		add	r2, r7, #312
 611 0018 A2F59A72 		sub	r2, r2, #308
 612 001c 1360     		str	r3, [r2]
 613 001e 07F59C73 		add	r3, r7, #312
 614 0022 A3F22D13 		subw	r3, r3, #301
 615 0026 0246     		mov	r2, r0
 616 0028 1A70     		strb	r2, [r3]
 617 002a 07F59C73 		add	r3, r7, #312
 618 002e A3F59773 		sub	r3, r3, #302
 619 0032 0A46     		mov	r2, r1
 620 0034 1A70     		strb	r2, [r3]
 369:../../../../lr11xx/lr11xx_driver/src/lr11xx_wifi.c ****     uint8_t       result_buffer[LR11XX_WIFI_MAX_SIZE_PER_SPI( LR11XX_WIFI_BASIC_MAC_TYPE_CHANNEL_RE
 621              		.loc 1 369 19
 622 0036 07F59C73 		add	r3, r7, #312
 623 003a A3F59273 		sub	r3, r3, #292
 624 003e 1846     		mov	r0, r3
 625 0040 4FF49073 		mov	r3, #288
 626 0044 1A46     		mov	r2, r3
 627 0046 0021     		movs	r1, #0
 628 0048 FFF7FEFF 		bl	memset
 370:../../../../lr11xx/lr11xx_driver/src/lr11xx_wifi.c ****     const uint8_t nb_results_per_chunk_max =
 629              		.loc 1 370 19
 630 004c 2023     		movs	r3, #32
 631 004e 87F83731 		strb	r3, [r7, #311]
 371:../../../../lr11xx/lr11xx_driver/src/lr11xx_wifi.c ****         LR11XX_WIFI_MAX_RESULT_PER_TRANSACTION( LR11XX_WIFI_BASIC_MAC_TYPE_CHANNEL_RESULT_SIZE );
 372:../../../../lr11xx/lr11xx_driver/src/lr11xx_wifi.c **** 
 373:../../../../lr11xx/lr11xx_driver/src/lr11xx_wifi.c ****     lr11xx_wifi_result_interface_t result_interface = { 0 };
 632              		.loc 1 373 36
 633 0052 07F59C73 		add	r3, r7, #312
 634 0056 A3F59473 		sub	r3, r3, #296
 635 005a 0022     		movs	r2, #0
 636 005c 1A60     		str	r2, [r3]
 374:../../../../lr11xx/lr11xx_driver/src/lr11xx_wifi.c ****     result_interface.basic_mac_type_channel         = results;
 637              		.loc 1 374 53
 638 005e 07F59C73 		add	r3, r7, #312
 639 0062 A3F59473 		sub	r3, r3, #296
 640 0066 07F59C72 		add	r2, r7, #312
 641 006a A2F59A72 		sub	r2, r2, #308
 642 006e 1268     		ldr	r2, [r2]
 643 0070 1A60     		str	r2, [r3]
ARM GAS  C:\msys64\tmp\ccFuKh1Y.s 			page 19


 375:../../../../lr11xx/lr11xx_driver/src/lr11xx_wifi.c **** 
 376:../../../../lr11xx/lr11xx_driver/src/lr11xx_wifi.c ****     return fetch_and_aggregate_all_results( context, start_result_index, nb_results, nb_results_per
 644              		.loc 1 376 12
 645 0072 97F83741 		ldrb	r4, [r7, #311]	@ zero_extendqisi2
 646 0076 07F59C73 		add	r3, r7, #312
 647 007a A3F59773 		sub	r3, r3, #302
 648 007e 1A78     		ldrb	r2, [r3]	@ zero_extendqisi2
 649 0080 07F59C73 		add	r3, r7, #312
 650 0084 A3F22D13 		subw	r3, r3, #301
 651 0088 1978     		ldrb	r1, [r3]	@ zero_extendqisi2
 652 008a 07F59C73 		add	r3, r7, #312
 653 008e A3F59670 		sub	r0, r3, #300
 654 0092 07F59C73 		add	r3, r7, #312
 655 0096 A3F59473 		sub	r3, r3, #296
 656 009a 1B68     		ldr	r3, [r3]
 657 009c 0293     		str	r3, [sp, #8]
 658 009e 07F11403 		add	r3, r7, #20
 659 00a2 0193     		str	r3, [sp, #4]
 660 00a4 0123     		movs	r3, #1
 661 00a6 0093     		str	r3, [sp]
 662 00a8 2346     		mov	r3, r4
 663 00aa 0068     		ldr	r0, [r0]
 664 00ac FFF7FEFF 		bl	fetch_and_aggregate_all_results
 665 00b0 0346     		mov	r3, r0
 377:../../../../lr11xx/lr11xx_driver/src/lr11xx_wifi.c ****                                             LR11XX_WIFI_RESULT_FORMAT_BASIC_MAC_TYPE_CHANNEL, resul
 378:../../../../lr11xx/lr11xx_driver/src/lr11xx_wifi.c ****                                             result_interface );
 379:../../../../lr11xx/lr11xx_driver/src/lr11xx_wifi.c **** }
 666              		.loc 1 379 1
 667 00b2 1846     		mov	r0, r3
 668 00b4 07F59E77 		add	r7, r7, #316
 669              	.LCFI33:
 670              		.cfi_def_cfa_offset 12
 671 00b8 BD46     		mov	sp, r7
 672              	.LCFI34:
 673              		.cfi_def_cfa_register 13
 674              		@ sp needed
 675 00ba 90BD     		pop	{r4, r7, pc}
 676              		.cfi_endproc
 677              	.LFE7:
 679              		.section	.text.lr11xx_wifi_read_extended_full_results,"ax",%progbits
 680              		.align	1
 681              		.global	lr11xx_wifi_read_extended_full_results
 682              		.syntax unified
 683              		.thumb
 684              		.thumb_func
 686              	lr11xx_wifi_read_extended_full_results:
 687              	.LFB8:
 380:../../../../lr11xx/lr11xx_driver/src/lr11xx_wifi.c **** 
 381:../../../../lr11xx/lr11xx_driver/src/lr11xx_wifi.c **** lr11xx_status_t lr11xx_wifi_read_extended_full_results( const void* radio, const uint8_t start_resu
 382:../../../../lr11xx/lr11xx_driver/src/lr11xx_wifi.c ****                                                         const uint8_t                       nb_resu
 383:../../../../lr11xx/lr11xx_driver/src/lr11xx_wifi.c ****                                                         lr11xx_wifi_extended_full_result_t* results
 384:../../../../lr11xx/lr11xx_driver/src/lr11xx_wifi.c **** {
 688              		.loc 1 384 1
 689              		.cfi_startproc
 690              		@ args = 0, pretend = 0, frame = 976
 691              		@ frame_needed = 1, uses_anonymous_args = 0
 692 0000 90B5     		push	{r4, r7, lr}
ARM GAS  C:\msys64\tmp\ccFuKh1Y.s 			page 20


 693              	.LCFI35:
 694              		.cfi_def_cfa_offset 12
 695              		.cfi_offset 4, -12
 696              		.cfi_offset 7, -8
 697              		.cfi_offset 14, -4
 698 0002 ADF5797D 		sub	sp, sp, #996
 699              	.LCFI36:
 700              		.cfi_def_cfa_offset 1008
 701 0006 04AF     		add	r7, sp, #16
 702              	.LCFI37:
 703              		.cfi_def_cfa 7, 992
 704 0008 07F57474 		add	r4, r7, #976
 705 000c A4F57174 		sub	r4, r4, #964
 706 0010 2060     		str	r0, [r4]
 707 0012 0846     		mov	r0, r1
 708 0014 1146     		mov	r1, r2
 709 0016 07F57472 		add	r2, r7, #976
 710 001a A2F57372 		sub	r2, r2, #972
 711 001e 1360     		str	r3, [r2]
 712 0020 07F57473 		add	r3, r7, #976
 713 0024 A3F2C533 		subw	r3, r3, #965
 714 0028 0246     		mov	r2, r0
 715 002a 1A70     		strb	r2, [r3]
 716 002c 07F57473 		add	r3, r7, #976
 717 0030 A3F2C633 		subw	r3, r3, #966
 718 0034 0A46     		mov	r2, r1
 719 0036 1A70     		strb	r2, [r3]
 385:../../../../lr11xx/lr11xx_driver/src/lr11xx_wifi.c ****     uint8_t       result_buffer[LR11XX_WIFI_MAX_SIZE_PER_SPI( LR11XX_WIFI_EXTENDED_COMPLETE_RESULT_
 720              		.loc 1 385 19
 721 0038 07F57473 		add	r3, r7, #976
 722 003c A3F56E73 		sub	r3, r3, #952
 723 0040 1846     		mov	r0, r3
 724 0042 4FF46D73 		mov	r3, #948
 725 0046 1A46     		mov	r2, r3
 726 0048 0021     		movs	r1, #0
 727 004a FFF7FEFF 		bl	memset
 386:../../../../lr11xx/lr11xx_driver/src/lr11xx_wifi.c ****     const uint8_t nb_results_per_chunk_max =
 728              		.loc 1 386 19
 729 004e 0C23     		movs	r3, #12
 730 0050 87F8CF33 		strb	r3, [r7, #975]
 387:../../../../lr11xx/lr11xx_driver/src/lr11xx_wifi.c ****         LR11XX_WIFI_MAX_RESULT_PER_TRANSACTION( LR11XX_WIFI_EXTENDED_COMPLETE_RESULT_SIZE );
 388:../../../../lr11xx/lr11xx_driver/src/lr11xx_wifi.c **** 
 389:../../../../lr11xx/lr11xx_driver/src/lr11xx_wifi.c ****     lr11xx_wifi_result_interface_t result_interface = { 0 };
 731              		.loc 1 389 36
 732 0054 07F57473 		add	r3, r7, #976
 733 0058 A3F56F73 		sub	r3, r3, #956
 734 005c 0022     		movs	r2, #0
 735 005e 1A60     		str	r2, [r3]
 390:../../../../lr11xx/lr11xx_driver/src/lr11xx_wifi.c ****     result_interface.extended_complete              = results;
 736              		.loc 1 390 53
 737 0060 07F57473 		add	r3, r7, #976
 738 0064 A3F56F73 		sub	r3, r3, #956
 739 0068 07F57472 		add	r2, r7, #976
 740 006c A2F57372 		sub	r2, r2, #972
 741 0070 1268     		ldr	r2, [r2]
 742 0072 1A60     		str	r2, [r3]
 391:../../../../lr11xx/lr11xx_driver/src/lr11xx_wifi.c **** 
ARM GAS  C:\msys64\tmp\ccFuKh1Y.s 			page 21


 392:../../../../lr11xx/lr11xx_driver/src/lr11xx_wifi.c ****     return fetch_and_aggregate_all_results( radio, start_result_index, nb_results, nb_results_per_c
 743              		.loc 1 392 12
 744 0074 97F8CF43 		ldrb	r4, [r7, #975]	@ zero_extendqisi2
 745 0078 07F57473 		add	r3, r7, #976
 746 007c A3F2C633 		subw	r3, r3, #966
 747 0080 1A78     		ldrb	r2, [r3]	@ zero_extendqisi2
 748 0082 07F57473 		add	r3, r7, #976
 749 0086 A3F2C533 		subw	r3, r3, #965
 750 008a 1978     		ldrb	r1, [r3]	@ zero_extendqisi2
 751 008c 07F57473 		add	r3, r7, #976
 752 0090 A3F57170 		sub	r0, r3, #964
 753 0094 07F57473 		add	r3, r7, #976
 754 0098 A3F56F73 		sub	r3, r3, #956
 755 009c 1B68     		ldr	r3, [r3]
 756 009e 0293     		str	r3, [sp, #8]
 757 00a0 07F11803 		add	r3, r7, #24
 758 00a4 0193     		str	r3, [sp, #4]
 759 00a6 0223     		movs	r3, #2
 760 00a8 0093     		str	r3, [sp]
 761 00aa 2346     		mov	r3, r4
 762 00ac 0068     		ldr	r0, [r0]
 763 00ae FFF7FEFF 		bl	fetch_and_aggregate_all_results
 764 00b2 0346     		mov	r3, r0
 393:../../../../lr11xx/lr11xx_driver/src/lr11xx_wifi.c ****                                             LR11XX_WIFI_RESULT_FORMAT_EXTENDED_FULL, result_buffer,
 394:../../../../lr11xx/lr11xx_driver/src/lr11xx_wifi.c **** }
 765              		.loc 1 394 1
 766 00b4 1846     		mov	r0, r3
 767 00b6 07F57577 		add	r7, r7, #980
 768              	.LCFI38:
 769              		.cfi_def_cfa_offset 12
 770 00ba BD46     		mov	sp, r7
 771              	.LCFI39:
 772              		.cfi_def_cfa_register 13
 773              		@ sp needed
 774 00bc 90BD     		pop	{r4, r7, pc}
 775              		.cfi_endproc
 776              	.LFE8:
 778              		.section	.text.lr11xx_wifi_reset_cumulative_timing,"ax",%progbits
 779              		.align	1
 780              		.global	lr11xx_wifi_reset_cumulative_timing
 781              		.syntax unified
 782              		.thumb
 783              		.thumb_func
 785              	lr11xx_wifi_reset_cumulative_timing:
 786              	.LFB9:
 395:../../../../lr11xx/lr11xx_driver/src/lr11xx_wifi.c **** 
 396:../../../../lr11xx/lr11xx_driver/src/lr11xx_wifi.c **** lr11xx_status_t lr11xx_wifi_reset_cumulative_timing( const void* context )
 397:../../../../lr11xx/lr11xx_driver/src/lr11xx_wifi.c **** {
 787              		.loc 1 397 1
 788              		.cfi_startproc
 789              		@ args = 0, pretend = 0, frame = 16
 790              		@ frame_needed = 1, uses_anonymous_args = 0
 791 0000 80B5     		push	{r7, lr}
 792              	.LCFI40:
 793              		.cfi_def_cfa_offset 8
 794              		.cfi_offset 7, -8
 795              		.cfi_offset 14, -4
ARM GAS  C:\msys64\tmp\ccFuKh1Y.s 			page 22


 796 0002 86B0     		sub	sp, sp, #24
 797              	.LCFI41:
 798              		.cfi_def_cfa_offset 32
 799 0004 02AF     		add	r7, sp, #8
 800              	.LCFI42:
 801              		.cfi_def_cfa 7, 24
 802 0006 7860     		str	r0, [r7, #4]
 398:../../../../lr11xx/lr11xx_driver/src/lr11xx_wifi.c ****     const uint8_t cbuffer[LR11XX_WIFI_RESET_CUMUL_TIMING_CMD_LENGTH] = {
 803              		.loc 1 398 19
 804 0008 40F20373 		movw	r3, #1795
 805 000c BB81     		strh	r3, [r7, #12]	@ movhi
 399:../../../../lr11xx/lr11xx_driver/src/lr11xx_wifi.c ****         ( uint8_t ) ( LR11XX_WIFI_RESET_CUMUL_TIMING_OC >> 8 ),
 400:../../../../lr11xx/lr11xx_driver/src/lr11xx_wifi.c ****         ( uint8_t ) ( LR11XX_WIFI_RESET_CUMUL_TIMING_OC >> 0 ),
 401:../../../../lr11xx/lr11xx_driver/src/lr11xx_wifi.c ****     };
 402:../../../../lr11xx/lr11xx_driver/src/lr11xx_wifi.c **** 
 403:../../../../lr11xx/lr11xx_driver/src/lr11xx_wifi.c ****     return ( lr11xx_status_t ) lr11xx_hal_write( context, cbuffer, LR11XX_WIFI_RESET_CUMUL_TIMING_C
 806              		.loc 1 403 32
 807 000e 07F10C01 		add	r1, r7, #12
 808 0012 0023     		movs	r3, #0
 809 0014 0093     		str	r3, [sp]
 810 0016 0023     		movs	r3, #0
 811 0018 0222     		movs	r2, #2
 812 001a 7868     		ldr	r0, [r7, #4]
 813 001c FFF7FEFF 		bl	lr11xx_hal_write
 814 0020 0346     		mov	r3, r0
 404:../../../../lr11xx/lr11xx_driver/src/lr11xx_wifi.c **** }
 815              		.loc 1 404 1
 816 0022 1846     		mov	r0, r3
 817 0024 1037     		adds	r7, r7, #16
 818              	.LCFI43:
 819              		.cfi_def_cfa_offset 8
 820 0026 BD46     		mov	sp, r7
 821              	.LCFI44:
 822              		.cfi_def_cfa_register 13
 823              		@ sp needed
 824 0028 80BD     		pop	{r7, pc}
 825              		.cfi_endproc
 826              	.LFE9:
 828              		.section	.text.lr11xx_wifi_read_cumulative_timing,"ax",%progbits
 829              		.align	1
 830              		.global	lr11xx_wifi_read_cumulative_timing
 831              		.syntax unified
 832              		.thumb
 833              		.thumb_func
 835              	lr11xx_wifi_read_cumulative_timing:
 836              	.LFB10:
 405:../../../../lr11xx/lr11xx_driver/src/lr11xx_wifi.c **** 
 406:../../../../lr11xx/lr11xx_driver/src/lr11xx_wifi.c **** lr11xx_status_t lr11xx_wifi_read_cumulative_timing( const void* context, lr11xx_wifi_cumulative_tim
 407:../../../../lr11xx/lr11xx_driver/src/lr11xx_wifi.c **** {
 837              		.loc 1 407 1
 838              		.cfi_startproc
 839              		@ args = 0, pretend = 0, frame = 32
 840              		@ frame_needed = 1, uses_anonymous_args = 0
 841 0000 80B5     		push	{r7, lr}
 842              	.LCFI45:
 843              		.cfi_def_cfa_offset 8
 844              		.cfi_offset 7, -8
ARM GAS  C:\msys64\tmp\ccFuKh1Y.s 			page 23


 845              		.cfi_offset 14, -4
 846 0002 8AB0     		sub	sp, sp, #40
 847              	.LCFI46:
 848              		.cfi_def_cfa_offset 48
 849 0004 02AF     		add	r7, sp, #8
 850              	.LCFI47:
 851              		.cfi_def_cfa 7, 40
 852 0006 7860     		str	r0, [r7, #4]
 853 0008 3960     		str	r1, [r7]
 408:../../../../lr11xx/lr11xx_driver/src/lr11xx_wifi.c ****     const uint8_t cbuffer[LR11XX_WIFI_READ_CUMUL_TIMING_CMD_LENGTH] = {
 854              		.loc 1 408 19
 855 000a 40F60303 		movw	r3, #2051
 856 000e BB83     		strh	r3, [r7, #28]	@ movhi
 409:../../../../lr11xx/lr11xx_driver/src/lr11xx_wifi.c ****         ( uint8_t ) ( LR11XX_WIFI_READ_CUMUL_TIMING_OC >> 8 ),
 410:../../../../lr11xx/lr11xx_driver/src/lr11xx_wifi.c ****         ( uint8_t ) ( LR11XX_WIFI_READ_CUMUL_TIMING_OC >> 0 ),
 411:../../../../lr11xx/lr11xx_driver/src/lr11xx_wifi.c ****     };
 412:../../../../lr11xx/lr11xx_driver/src/lr11xx_wifi.c ****     uint8_t buffer_out[LR11XX_WIFI_ALL_CUMULATIVE_TIMING_SIZE] = { 0 };
 857              		.loc 1 412 13
 858 0010 07F10C03 		add	r3, r7, #12
 859 0014 0022     		movs	r2, #0
 860 0016 1A60     		str	r2, [r3]
 861 0018 5A60     		str	r2, [r3, #4]
 862 001a 9A60     		str	r2, [r3, #8]
 863 001c DA60     		str	r2, [r3, #12]
 413:../../../../lr11xx/lr11xx_driver/src/lr11xx_wifi.c **** 
 414:../../../../lr11xx/lr11xx_driver/src/lr11xx_wifi.c ****     const lr11xx_hal_status_t hal_status = lr11xx_hal_read( context, cbuffer, LR11XX_WIFI_READ_CUMU
 864              		.loc 1 414 44
 865 001e 07F10C03 		add	r3, r7, #12
 866 0022 07F11C01 		add	r1, r7, #28
 867 0026 1022     		movs	r2, #16
 868 0028 0092     		str	r2, [sp]
 869 002a 0222     		movs	r2, #2
 870 002c 7868     		ldr	r0, [r7, #4]
 871 002e FFF7FEFF 		bl	lr11xx_hal_read
 872 0032 0346     		mov	r3, r0
 873 0034 FB77     		strb	r3, [r7, #31]
 415:../../../../lr11xx/lr11xx_driver/src/lr11xx_wifi.c ****                                                             buffer_out, LR11XX_WIFI_ALL_CUMULATIVE_
 416:../../../../lr11xx/lr11xx_driver/src/lr11xx_wifi.c **** 
 417:../../../../lr11xx/lr11xx_driver/src/lr11xx_wifi.c ****     if( hal_status == LR11XX_HAL_STATUS_OK )
 874              		.loc 1 417 7
 875 0036 FB7F     		ldrb	r3, [r7, #31]	@ zero_extendqisi2
 876 0038 002B     		cmp	r3, #0
 877 003a 33D1     		bne	.L24
 418:../../../../lr11xx/lr11xx_driver/src/lr11xx_wifi.c ****     {
 419:../../../../lr11xx/lr11xx_driver/src/lr11xx_wifi.c ****         timing->rx_detection_us =
 420:../../../../lr11xx/lr11xx_driver/src/lr11xx_wifi.c ****             ( buffer_out[0] << 24 ) + ( buffer_out[1] << 16 ) + ( buffer_out[2] << 8 ) + buffer_out
 878              		.loc 1 420 25
 879 003c 3B7B     		ldrb	r3, [r7, #12]	@ zero_extendqisi2
 880              		.loc 1 420 29
 881 003e 1A06     		lsls	r2, r3, #24
 882              		.loc 1 420 51
 883 0040 7B7B     		ldrb	r3, [r7, #13]	@ zero_extendqisi2
 884              		.loc 1 420 55
 885 0042 1B04     		lsls	r3, r3, #16
 886              		.loc 1 420 37
 887 0044 1A44     		add	r2, r2, r3
 888              		.loc 1 420 77
ARM GAS  C:\msys64\tmp\ccFuKh1Y.s 			page 24


 889 0046 BB7B     		ldrb	r3, [r7, #14]	@ zero_extendqisi2
 890              		.loc 1 420 81
 891 0048 1B02     		lsls	r3, r3, #8
 892              		.loc 1 420 63
 893 004a 1344     		add	r3, r3, r2
 894              		.loc 1 420 100
 895 004c FA7B     		ldrb	r2, [r7, #15]	@ zero_extendqisi2
 896              		.loc 1 420 88
 897 004e 1344     		add	r3, r3, r2
 898 0050 1A46     		mov	r2, r3
 419:../../../../lr11xx/lr11xx_driver/src/lr11xx_wifi.c ****             ( buffer_out[0] << 24 ) + ( buffer_out[1] << 16 ) + ( buffer_out[2] << 8 ) + buffer_out
 899              		.loc 1 419 33
 900 0052 3B68     		ldr	r3, [r7]
 901 0054 1A60     		str	r2, [r3]
 421:../../../../lr11xx/lr11xx_driver/src/lr11xx_wifi.c ****         timing->rx_correlation_us =
 422:../../../../lr11xx/lr11xx_driver/src/lr11xx_wifi.c ****             ( buffer_out[4] << 24 ) + ( buffer_out[5] << 16 ) + ( buffer_out[6] << 8 ) + buffer_out
 902              		.loc 1 422 25
 903 0056 3B7C     		ldrb	r3, [r7, #16]	@ zero_extendqisi2
 904              		.loc 1 422 29
 905 0058 1A06     		lsls	r2, r3, #24
 906              		.loc 1 422 51
 907 005a 7B7C     		ldrb	r3, [r7, #17]	@ zero_extendqisi2
 908              		.loc 1 422 55
 909 005c 1B04     		lsls	r3, r3, #16
 910              		.loc 1 422 37
 911 005e 1A44     		add	r2, r2, r3
 912              		.loc 1 422 77
 913 0060 BB7C     		ldrb	r3, [r7, #18]	@ zero_extendqisi2
 914              		.loc 1 422 81
 915 0062 1B02     		lsls	r3, r3, #8
 916              		.loc 1 422 63
 917 0064 1344     		add	r3, r3, r2
 918              		.loc 1 422 100
 919 0066 FA7C     		ldrb	r2, [r7, #19]	@ zero_extendqisi2
 920              		.loc 1 422 88
 921 0068 1344     		add	r3, r3, r2
 922 006a 1A46     		mov	r2, r3
 421:../../../../lr11xx/lr11xx_driver/src/lr11xx_wifi.c ****         timing->rx_correlation_us =
 923              		.loc 1 421 35
 924 006c 3B68     		ldr	r3, [r7]
 925 006e 5A60     		str	r2, [r3, #4]
 423:../../../../lr11xx/lr11xx_driver/src/lr11xx_wifi.c ****         timing->rx_capture_us =
 424:../../../../lr11xx/lr11xx_driver/src/lr11xx_wifi.c ****             ( buffer_out[8] << 24 ) + ( buffer_out[9] << 16 ) + ( buffer_out[10] << 8 ) + buffer_ou
 926              		.loc 1 424 25
 927 0070 3B7D     		ldrb	r3, [r7, #20]	@ zero_extendqisi2
 928              		.loc 1 424 29
 929 0072 1A06     		lsls	r2, r3, #24
 930              		.loc 1 424 51
 931 0074 7B7D     		ldrb	r3, [r7, #21]	@ zero_extendqisi2
 932              		.loc 1 424 55
 933 0076 1B04     		lsls	r3, r3, #16
 934              		.loc 1 424 37
 935 0078 1A44     		add	r2, r2, r3
 936              		.loc 1 424 77
 937 007a BB7D     		ldrb	r3, [r7, #22]	@ zero_extendqisi2
 938              		.loc 1 424 82
 939 007c 1B02     		lsls	r3, r3, #8
ARM GAS  C:\msys64\tmp\ccFuKh1Y.s 			page 25


 940              		.loc 1 424 63
 941 007e 1344     		add	r3, r3, r2
 942              		.loc 1 424 101
 943 0080 FA7D     		ldrb	r2, [r7, #23]	@ zero_extendqisi2
 944              		.loc 1 424 89
 945 0082 1344     		add	r3, r3, r2
 946 0084 1A46     		mov	r2, r3
 423:../../../../lr11xx/lr11xx_driver/src/lr11xx_wifi.c ****         timing->rx_capture_us =
 947              		.loc 1 423 31
 948 0086 3B68     		ldr	r3, [r7]
 949 0088 9A60     		str	r2, [r3, #8]
 425:../../../../lr11xx/lr11xx_driver/src/lr11xx_wifi.c ****         timing->demodulation_us =
 426:../../../../lr11xx/lr11xx_driver/src/lr11xx_wifi.c ****             ( buffer_out[12] << 24 ) + ( buffer_out[13] << 16 ) + ( buffer_out[14] << 8 ) + buffer_
 950              		.loc 1 426 25
 951 008a 3B7E     		ldrb	r3, [r7, #24]	@ zero_extendqisi2
 952              		.loc 1 426 30
 953 008c 1A06     		lsls	r2, r3, #24
 954              		.loc 1 426 52
 955 008e 7B7E     		ldrb	r3, [r7, #25]	@ zero_extendqisi2
 956              		.loc 1 426 57
 957 0090 1B04     		lsls	r3, r3, #16
 958              		.loc 1 426 38
 959 0092 1A44     		add	r2, r2, r3
 960              		.loc 1 426 79
 961 0094 BB7E     		ldrb	r3, [r7, #26]	@ zero_extendqisi2
 962              		.loc 1 426 84
 963 0096 1B02     		lsls	r3, r3, #8
 964              		.loc 1 426 65
 965 0098 1344     		add	r3, r3, r2
 966              		.loc 1 426 103
 967 009a FA7E     		ldrb	r2, [r7, #27]	@ zero_extendqisi2
 968              		.loc 1 426 91
 969 009c 1344     		add	r3, r3, r2
 970 009e 1A46     		mov	r2, r3
 425:../../../../lr11xx/lr11xx_driver/src/lr11xx_wifi.c ****         timing->demodulation_us =
 971              		.loc 1 425 33
 972 00a0 3B68     		ldr	r3, [r7]
 973 00a2 DA60     		str	r2, [r3, #12]
 974              	.L24:
 427:../../../../lr11xx/lr11xx_driver/src/lr11xx_wifi.c ****     }
 428:../../../../lr11xx/lr11xx_driver/src/lr11xx_wifi.c ****     return ( lr11xx_status_t ) hal_status;
 975              		.loc 1 428 12
 976 00a4 FB7F     		ldrb	r3, [r7, #31]	@ zero_extendqisi2
 429:../../../../lr11xx/lr11xx_driver/src/lr11xx_wifi.c **** }
 977              		.loc 1 429 1
 978 00a6 1846     		mov	r0, r3
 979 00a8 2037     		adds	r7, r7, #32
 980              	.LCFI48:
 981              		.cfi_def_cfa_offset 8
 982 00aa BD46     		mov	sp, r7
 983              	.LCFI49:
 984              		.cfi_def_cfa_register 13
 985              		@ sp needed
 986 00ac 80BD     		pop	{r7, pc}
 987              		.cfi_endproc
 988              	.LFE10:
 990              		.section	.text.lr11xx_wifi_get_nb_country_code_results,"ax",%progbits
ARM GAS  C:\msys64\tmp\ccFuKh1Y.s 			page 26


 991              		.align	1
 992              		.global	lr11xx_wifi_get_nb_country_code_results
 993              		.syntax unified
 994              		.thumb
 995              		.thumb_func
 997              	lr11xx_wifi_get_nb_country_code_results:
 998              	.LFB11:
 430:../../../../lr11xx/lr11xx_driver/src/lr11xx_wifi.c **** 
 431:../../../../lr11xx/lr11xx_driver/src/lr11xx_wifi.c **** lr11xx_status_t lr11xx_wifi_get_nb_country_code_results( const void* context, uint8_t* country_resu
 432:../../../../lr11xx/lr11xx_driver/src/lr11xx_wifi.c **** {
 999              		.loc 1 432 1
 1000              		.cfi_startproc
 1001              		@ args = 0, pretend = 0, frame = 16
 1002              		@ frame_needed = 1, uses_anonymous_args = 0
 1003 0000 80B5     		push	{r7, lr}
 1004              	.LCFI50:
 1005              		.cfi_def_cfa_offset 8
 1006              		.cfi_offset 7, -8
 1007              		.cfi_offset 14, -4
 1008 0002 86B0     		sub	sp, sp, #24
 1009              	.LCFI51:
 1010              		.cfi_def_cfa_offset 32
 1011 0004 02AF     		add	r7, sp, #8
 1012              	.LCFI52:
 1013              		.cfi_def_cfa 7, 24
 1014 0006 7860     		str	r0, [r7, #4]
 1015 0008 3960     		str	r1, [r7]
 433:../../../../lr11xx/lr11xx_driver/src/lr11xx_wifi.c ****     const uint8_t cbuffer[LR11XX_WIFI_GET_SIZE_COUNTRY_RESULT_CMD_LENGTH] = {
 1016              		.loc 1 433 19
 1017 000a 40F60313 		movw	r3, #2307
 1018 000e BB81     		strh	r3, [r7, #12]	@ movhi
 434:../../../../lr11xx/lr11xx_driver/src/lr11xx_wifi.c ****         ( uint8_t ) ( LR11XX_WIFI_GET_SIZE_COUNTRY_RESULT_OC >> 8 ),
 435:../../../../lr11xx/lr11xx_driver/src/lr11xx_wifi.c ****         ( uint8_t ) ( LR11XX_WIFI_GET_SIZE_COUNTRY_RESULT_OC >> 0 ),
 436:../../../../lr11xx/lr11xx_driver/src/lr11xx_wifi.c ****     };
 437:../../../../lr11xx/lr11xx_driver/src/lr11xx_wifi.c ****     uint8_t rbuffer[LR11XX_WIFI_COUNTRY_RESULT_LENGTH_SIZE] = { 0 };
 1019              		.loc 1 437 13
 1020 0010 0023     		movs	r3, #0
 1021 0012 3B72     		strb	r3, [r7, #8]
 438:../../../../lr11xx/lr11xx_driver/src/lr11xx_wifi.c **** 
 439:../../../../lr11xx/lr11xx_driver/src/lr11xx_wifi.c ****     const lr11xx_hal_status_t hal_status =
 440:../../../../lr11xx/lr11xx_driver/src/lr11xx_wifi.c ****         lr11xx_hal_read( context, cbuffer, LR11XX_WIFI_GET_SIZE_COUNTRY_RESULT_CMD_LENGTH, rbuffer,
 1022              		.loc 1 440 9
 1023 0014 07F10803 		add	r3, r7, #8
 1024 0018 07F10C01 		add	r1, r7, #12
 1025 001c 0122     		movs	r2, #1
 1026 001e 0092     		str	r2, [sp]
 1027 0020 0222     		movs	r2, #2
 1028 0022 7868     		ldr	r0, [r7, #4]
 1029 0024 FFF7FEFF 		bl	lr11xx_hal_read
 1030 0028 0346     		mov	r3, r0
 1031 002a FB73     		strb	r3, [r7, #15]
 441:../../../../lr11xx/lr11xx_driver/src/lr11xx_wifi.c ****                          LR11XX_WIFI_COUNTRY_RESULT_LENGTH_SIZE );
 442:../../../../lr11xx/lr11xx_driver/src/lr11xx_wifi.c ****     if( hal_status == LR11XX_HAL_STATUS_OK )
 1032              		.loc 1 442 7
 1033 002c FB7B     		ldrb	r3, [r7, #15]	@ zero_extendqisi2
 1034 002e 002B     		cmp	r3, #0
 1035 0030 02D1     		bne	.L27
ARM GAS  C:\msys64\tmp\ccFuKh1Y.s 			page 27


 443:../../../../lr11xx/lr11xx_driver/src/lr11xx_wifi.c ****     {
 444:../../../../lr11xx/lr11xx_driver/src/lr11xx_wifi.c ****         ( *country_result_size ) = rbuffer[0];
 1036              		.loc 1 444 43
 1037 0032 3A7A     		ldrb	r2, [r7, #8]	@ zero_extendqisi2
 1038              		.loc 1 444 34
 1039 0034 3B68     		ldr	r3, [r7]
 1040 0036 1A70     		strb	r2, [r3]
 1041              	.L27:
 445:../../../../lr11xx/lr11xx_driver/src/lr11xx_wifi.c ****     }
 446:../../../../lr11xx/lr11xx_driver/src/lr11xx_wifi.c ****     return ( lr11xx_status_t ) hal_status;
 1042              		.loc 1 446 12
 1043 0038 FB7B     		ldrb	r3, [r7, #15]	@ zero_extendqisi2
 447:../../../../lr11xx/lr11xx_driver/src/lr11xx_wifi.c **** }
 1044              		.loc 1 447 1
 1045 003a 1846     		mov	r0, r3
 1046 003c 1037     		adds	r7, r7, #16
 1047              	.LCFI53:
 1048              		.cfi_def_cfa_offset 8
 1049 003e BD46     		mov	sp, r7
 1050              	.LCFI54:
 1051              		.cfi_def_cfa_register 13
 1052              		@ sp needed
 1053 0040 80BD     		pop	{r7, pc}
 1054              		.cfi_endproc
 1055              	.LFE11:
 1057              		.section	.text.lr11xx_wifi_read_country_code_results,"ax",%progbits
 1058              		.align	1
 1059              		.global	lr11xx_wifi_read_country_code_results
 1060              		.syntax unified
 1061              		.thumb
 1062              		.thumb_func
 1064              	lr11xx_wifi_read_country_code_results:
 1065              	.LFB12:
 448:../../../../lr11xx/lr11xx_driver/src/lr11xx_wifi.c **** 
 449:../../../../lr11xx/lr11xx_driver/src/lr11xx_wifi.c **** lr11xx_status_t lr11xx_wifi_read_country_code_results( const void* context, const uint8_t start_res
 450:../../../../lr11xx/lr11xx_driver/src/lr11xx_wifi.c ****                                                        const uint8_t               nb_country_resul
 451:../../../../lr11xx/lr11xx_driver/src/lr11xx_wifi.c ****                                                        lr11xx_wifi_country_code_t* country_code_res
 452:../../../../lr11xx/lr11xx_driver/src/lr11xx_wifi.c **** {
 1066              		.loc 1 452 1
 1067              		.cfi_startproc
 1068              		@ args = 0, pretend = 0, frame = 352
 1069              		@ frame_needed = 1, uses_anonymous_args = 0
 1070 0000 90B5     		push	{r4, r7, lr}
 1071              	.LCFI55:
 1072              		.cfi_def_cfa_offset 12
 1073              		.cfi_offset 4, -12
 1074              		.cfi_offset 7, -8
 1075              		.cfi_offset 14, -4
 1076 0002 DBB0     		sub	sp, sp, #364
 1077              	.LCFI56:
 1078              		.cfi_def_cfa_offset 376
 1079 0004 02AF     		add	r7, sp, #8
 1080              	.LCFI57:
 1081              		.cfi_def_cfa 7, 368
 1082 0006 07F5B074 		add	r4, r7, #352
 1083 000a A4F5AA74 		sub	r4, r4, #340
 1084 000e 2060     		str	r0, [r4]
ARM GAS  C:\msys64\tmp\ccFuKh1Y.s 			page 28


 1085 0010 0846     		mov	r0, r1
 1086 0012 1146     		mov	r1, r2
 1087 0014 07F5B072 		add	r2, r7, #352
 1088 0018 A2F5AE72 		sub	r2, r2, #348
 1089 001c 1360     		str	r3, [r2]
 1090 001e 07F5B073 		add	r3, r7, #352
 1091 0022 A3F25513 		subw	r3, r3, #341
 1092 0026 0246     		mov	r2, r0
 1093 0028 1A70     		strb	r2, [r3]
 1094 002a 07F5B073 		add	r3, r7, #352
 1095 002e A3F5AB73 		sub	r3, r3, #342
 1096 0032 0A46     		mov	r2, r1
 1097 0034 1A70     		strb	r2, [r3]
 453:../../../../lr11xx/lr11xx_driver/src/lr11xx_wifi.c ****     const uint8_t cbuffer[LR11XX_WIFI_READ_COUNTRY_CODE_CMD_LENGTH] = {
 1098              		.loc 1 453 19
 1099 0036 0323     		movs	r3, #3
 1100 0038 87F85031 		strb	r3, [r7, #336]
 1101 003c 0A23     		movs	r3, #10
 1102 003e 87F85131 		strb	r3, [r7, #337]
 1103 0042 07F5B073 		add	r3, r7, #352
 1104 0046 A3F25513 		subw	r3, r3, #341
 1105 004a 1B78     		ldrb	r3, [r3]
 1106 004c 87F85231 		strb	r3, [r7, #338]
 1107 0050 07F5B073 		add	r3, r7, #352
 1108 0054 A3F5AB73 		sub	r3, r3, #342
 1109 0058 1B78     		ldrb	r3, [r3]
 1110 005a 87F85331 		strb	r3, [r7, #339]
 454:../../../../lr11xx/lr11xx_driver/src/lr11xx_wifi.c ****         ( uint8_t ) ( LR11XX_WIFI_READ_COUNTRY_CODE_OC >> 8 ),
 455:../../../../lr11xx/lr11xx_driver/src/lr11xx_wifi.c ****         ( uint8_t ) ( LR11XX_WIFI_READ_COUNTRY_CODE_OC >> 0 ),
 456:../../../../lr11xx/lr11xx_driver/src/lr11xx_wifi.c ****         start_result_index,
 457:../../../../lr11xx/lr11xx_driver/src/lr11xx_wifi.c ****         nb_country_results,
 458:../../../../lr11xx/lr11xx_driver/src/lr11xx_wifi.c ****     };
 459:../../../../lr11xx/lr11xx_driver/src/lr11xx_wifi.c ****     uint8_t        rbuffer[LR11XX_WIFI_MAX_COUNTRY_CODE_RESULT_SIZE] = { 0 };
 1111              		.loc 1 459 20
 1112 005e 07F5B073 		add	r3, r7, #352
 1113 0062 A3F5A873 		sub	r3, r3, #336
 1114 0066 1846     		mov	r0, r3
 1115 0068 4FF4A073 		mov	r3, #320
 1116 006c 1A46     		mov	r2, r3
 1117 006e 0021     		movs	r1, #0
 1118 0070 FFF7FEFF 		bl	memset
 460:../../../../lr11xx/lr11xx_driver/src/lr11xx_wifi.c ****     const uint16_t country_code_result_size_to_read =
 1119              		.loc 1 460 20
 1120 0074 07F5B073 		add	r3, r7, #352
 1121 0078 A3F5AB73 		sub	r3, r3, #342
 1122 007c 1B78     		ldrb	r3, [r3]	@ zero_extendqisi2
 1123 007e 9BB2     		uxth	r3, r3
 1124 0080 1A46     		mov	r2, r3	@ movhi
 1125 0082 9200     		lsls	r2, r2, #2
 1126 0084 1344     		add	r3, r3, r2
 1127 0086 5B00     		lsls	r3, r3, #1
 1128 0088 A7F85C31 		strh	r3, [r7, #348]	@ movhi
 461:../../../../lr11xx/lr11xx_driver/src/lr11xx_wifi.c ****         nb_country_results * LR11XX_WIFI_SCAN_SINGLE_COUNTRY_CODE_RESULT_SIZE;
 462:../../../../lr11xx/lr11xx_driver/src/lr11xx_wifi.c **** 
 463:../../../../lr11xx/lr11xx_driver/src/lr11xx_wifi.c ****     const lr11xx_hal_status_t hal_status = lr11xx_hal_read( context, cbuffer, LR11XX_WIFI_READ_COUN
 1129              		.loc 1 463 44
 1130 008c 07F11002 		add	r2, r7, #16
ARM GAS  C:\msys64\tmp\ccFuKh1Y.s 			page 29


 1131 0090 07F5A871 		add	r1, r7, #336
 1132 0094 07F5B073 		add	r3, r7, #352
 1133 0098 A3F5AA70 		sub	r0, r3, #340
 1134 009c B7F85C31 		ldrh	r3, [r7, #348]
 1135 00a0 0093     		str	r3, [sp]
 1136 00a2 1346     		mov	r3, r2
 1137 00a4 0422     		movs	r2, #4
 1138 00a6 0068     		ldr	r0, [r0]
 1139 00a8 FFF7FEFF 		bl	lr11xx_hal_read
 1140 00ac 0346     		mov	r3, r0
 1141 00ae 87F85B31 		strb	r3, [r7, #347]
 464:../../../../lr11xx/lr11xx_driver/src/lr11xx_wifi.c ****                                                             rbuffer, country_code_result_size_to_re
 465:../../../../lr11xx/lr11xx_driver/src/lr11xx_wifi.c **** 
 466:../../../../lr11xx/lr11xx_driver/src/lr11xx_wifi.c ****     if( hal_status == LR11XX_HAL_STATUS_OK )
 1142              		.loc 1 466 7
 1143 00b2 97F85B31 		ldrb	r3, [r7, #347]	@ zero_extendqisi2
 1144 00b6 002B     		cmp	r3, #0
 1145 00b8 74D1     		bne	.L30
 1146              	.LBB2:
 467:../../../../lr11xx/lr11xx_driver/src/lr11xx_wifi.c ****     {
 468:../../../../lr11xx/lr11xx_driver/src/lr11xx_wifi.c ****         for( uint8_t result_index = 0; result_index < nb_country_results; result_index++ )
 1147              		.loc 1 468 22
 1148 00ba 0023     		movs	r3, #0
 1149 00bc 87F85F31 		strb	r3, [r7, #351]
 1150              		.loc 1 468 9
 1151 00c0 67E0     		b	.L31
 1152              	.L34:
 1153              	.LBB3:
 469:../../../../lr11xx/lr11xx_driver/src/lr11xx_wifi.c ****         {
 470:../../../../lr11xx/lr11xx_driver/src/lr11xx_wifi.c ****             const uint8_t               local_index = result_index * LR11XX_WIFI_SCAN_SINGLE_COUNTR
 1154              		.loc 1 470 41
 1155 00c2 97F85F31 		ldrb	r3, [r7, #351]
 1156 00c6 1A46     		mov	r2, r3
 1157 00c8 9200     		lsls	r2, r2, #2
 1158 00ca 1344     		add	r3, r3, r2
 1159 00cc 5B00     		lsls	r3, r3, #1
 1160 00ce 87F85A31 		strb	r3, [r7, #346]
 471:../../../../lr11xx/lr11xx_driver/src/lr11xx_wifi.c ****             lr11xx_wifi_country_code_t* local_country_code_result = &country_code_results[result_in
 1161              		.loc 1 471 90
 1162 00d2 97F85F21 		ldrb	r2, [r7, #351]	@ zero_extendqisi2
 1163 00d6 1346     		mov	r3, r2
 1164 00d8 9B00     		lsls	r3, r3, #2
 1165 00da 1344     		add	r3, r3, r2
 1166 00dc 5B00     		lsls	r3, r3, #1
 1167 00de 1A46     		mov	r2, r3
 1168              		.loc 1 471 41
 1169 00e0 07F5B073 		add	r3, r7, #352
 1170 00e4 A3F5AE73 		sub	r3, r3, #348
 1171 00e8 1B68     		ldr	r3, [r3]
 1172 00ea 1344     		add	r3, r3, r2
 1173 00ec C7F85431 		str	r3, [r7, #340]
 472:../../../../lr11xx/lr11xx_driver/src/lr11xx_wifi.c **** 
 473:../../../../lr11xx/lr11xx_driver/src/lr11xx_wifi.c ****             local_country_code_result->country_code[0]   = rbuffer[local_index + 0];
 1174              		.loc 1 473 80
 1175 00f0 97F85A31 		ldrb	r3, [r7, #346]	@ zero_extendqisi2
 1176              		.loc 1 473 67
 1177 00f4 07F5B072 		add	r2, r7, #352
ARM GAS  C:\msys64\tmp\ccFuKh1Y.s 			page 30


 1178 00f8 A2F5A872 		sub	r2, r2, #336
 1179 00fc D25C     		ldrb	r2, [r2, r3]	@ zero_extendqisi2
 1180              		.loc 1 473 58
 1181 00fe D7F85431 		ldr	r3, [r7, #340]
 1182 0102 1A70     		strb	r2, [r3]
 474:../../../../lr11xx/lr11xx_driver/src/lr11xx_wifi.c ****             local_country_code_result->country_code[1]   = rbuffer[local_index + 1];
 1183              		.loc 1 474 80
 1184 0104 97F85A31 		ldrb	r3, [r7, #346]	@ zero_extendqisi2
 1185 0108 0133     		adds	r3, r3, #1
 1186              		.loc 1 474 67
 1187 010a 07F5B072 		add	r2, r7, #352
 1188 010e A2F5A872 		sub	r2, r2, #336
 1189 0112 D25C     		ldrb	r2, [r2, r3]	@ zero_extendqisi2
 1190              		.loc 1 474 58
 1191 0114 D7F85431 		ldr	r3, [r7, #340]
 1192 0118 5A70     		strb	r2, [r3, #1]
 475:../../../../lr11xx/lr11xx_driver/src/lr11xx_wifi.c ****             local_country_code_result->io_regulation     = rbuffer[local_index + 2];
 1193              		.loc 1 475 80
 1194 011a 97F85A31 		ldrb	r3, [r7, #346]	@ zero_extendqisi2
 1195 011e 0233     		adds	r3, r3, #2
 1196              		.loc 1 475 67
 1197 0120 07F5B072 		add	r2, r7, #352
 1198 0124 A2F5A872 		sub	r2, r2, #336
 1199 0128 D25C     		ldrb	r2, [r2, r3]	@ zero_extendqisi2
 1200              		.loc 1 475 58
 1201 012a D7F85431 		ldr	r3, [r7, #340]
 1202 012e 9A70     		strb	r2, [r3, #2]
 476:../../../../lr11xx/lr11xx_driver/src/lr11xx_wifi.c ****             local_country_code_result->channel_info_byte = rbuffer[local_index + 3];
 1203              		.loc 1 476 80
 1204 0130 97F85A31 		ldrb	r3, [r7, #346]	@ zero_extendqisi2
 1205 0134 0333     		adds	r3, r3, #3
 1206              		.loc 1 476 67
 1207 0136 07F5B072 		add	r2, r7, #352
 1208 013a A2F5A872 		sub	r2, r2, #336
 1209 013e D25C     		ldrb	r2, [r2, r3]	@ zero_extendqisi2
 1210              		.loc 1 476 58
 1211 0140 D7F85431 		ldr	r3, [r7, #340]
 1212 0144 DA70     		strb	r2, [r3, #3]
 1213              	.LBB4:
 477:../../../../lr11xx/lr11xx_driver/src/lr11xx_wifi.c **** 
 478:../../../../lr11xx/lr11xx_driver/src/lr11xx_wifi.c ****             for( uint8_t field_mac_index = 0; field_mac_index < LR11XX_WIFI_MAC_ADDRESS_LENGTH; fie
 1214              		.loc 1 478 26
 1215 0146 0023     		movs	r3, #0
 1216 0148 87F85E31 		strb	r3, [r7, #350]
 1217              		.loc 1 478 13
 1218 014c 18E0     		b	.L32
 1219              	.L33:
 479:../../../../lr11xx/lr11xx_driver/src/lr11xx_wifi.c ****             {
 480:../../../../lr11xx/lr11xx_driver/src/lr11xx_wifi.c ****                 local_country_code_result->mac_address[field_mac_index] =
 481:../../../../lr11xx/lr11xx_driver/src/lr11xx_wifi.c ****                     rbuffer[local_index + ( LR11XX_WIFI_MAC_ADDRESS_LENGTH - field_mac_index - 1 ) 
 1220              		.loc 1 481 41
 1221 014e 97F85A21 		ldrb	r2, [r7, #346]	@ zero_extendqisi2
 1222              		.loc 1 481 94
 1223 0152 97F85E31 		ldrb	r3, [r7, #350]	@ zero_extendqisi2
 1224 0156 C3F10503 		rsb	r3, r3, #5
 1225              		.loc 1 481 41
 1226 015a 1344     		add	r3, r3, r2
ARM GAS  C:\msys64\tmp\ccFuKh1Y.s 			page 31


 1227              		.loc 1 481 100
 1228 015c 1A1D     		adds	r2, r3, #4
 480:../../../../lr11xx/lr11xx_driver/src/lr11xx_wifi.c ****                     rbuffer[local_index + ( LR11XX_WIFI_MAC_ADDRESS_LENGTH - field_mac_index - 1 ) 
 1229              		.loc 1 480 55
 1230 015e 97F85E31 		ldrb	r3, [r7, #350]	@ zero_extendqisi2
 1231              		.loc 1 481 28
 1232 0162 07F5B071 		add	r1, r7, #352
 1233 0166 A1F5A871 		sub	r1, r1, #336
 1234 016a 895C     		ldrb	r1, [r1, r2]	@ zero_extendqisi2
 480:../../../../lr11xx/lr11xx_driver/src/lr11xx_wifi.c ****                     rbuffer[local_index + ( LR11XX_WIFI_MAC_ADDRESS_LENGTH - field_mac_index - 1 ) 
 1235              		.loc 1 480 73
 1236 016c D7F85421 		ldr	r2, [r7, #340]
 1237 0170 1344     		add	r3, r3, r2
 1238 0172 0A46     		mov	r2, r1
 1239 0174 1A71     		strb	r2, [r3, #4]
 478:../../../../lr11xx/lr11xx_driver/src/lr11xx_wifi.c ****             {
 1240              		.loc 1 478 112 discriminator 3
 1241 0176 97F85E31 		ldrb	r3, [r7, #350]	@ zero_extendqisi2
 1242 017a 0133     		adds	r3, r3, #1
 1243 017c 87F85E31 		strb	r3, [r7, #350]
 1244              	.L32:
 478:../../../../lr11xx/lr11xx_driver/src/lr11xx_wifi.c ****             {
 1245              		.loc 1 478 63 discriminator 1
 1246 0180 97F85E31 		ldrb	r3, [r7, #350]	@ zero_extendqisi2
 1247 0184 052B     		cmp	r3, #5
 1248 0186 E2D9     		bls	.L33
 1249              	.LBE4:
 1250              	.LBE3:
 468:../../../../lr11xx/lr11xx_driver/src/lr11xx_wifi.c ****         {
 1251              		.loc 1 468 87 discriminator 2
 1252 0188 97F85F31 		ldrb	r3, [r7, #351]	@ zero_extendqisi2
 1253 018c 0133     		adds	r3, r3, #1
 1254 018e 87F85F31 		strb	r3, [r7, #351]
 1255              	.L31:
 468:../../../../lr11xx/lr11xx_driver/src/lr11xx_wifi.c ****         {
 1256              		.loc 1 468 53 discriminator 1
 1257 0192 07F5B073 		add	r3, r7, #352
 1258 0196 A3F5AB73 		sub	r3, r3, #342
 1259 019a 97F85F21 		ldrb	r2, [r7, #351]	@ zero_extendqisi2
 1260 019e 1B78     		ldrb	r3, [r3]	@ zero_extendqisi2
 1261 01a0 9A42     		cmp	r2, r3
 1262 01a2 8ED3     		bcc	.L34
 1263              	.L30:
 1264              	.LBE2:
 482:../../../../lr11xx/lr11xx_driver/src/lr11xx_wifi.c ****             }
 483:../../../../lr11xx/lr11xx_driver/src/lr11xx_wifi.c ****         }
 484:../../../../lr11xx/lr11xx_driver/src/lr11xx_wifi.c ****     }
 485:../../../../lr11xx/lr11xx_driver/src/lr11xx_wifi.c ****     return ( lr11xx_status_t ) hal_status;
 1265              		.loc 1 485 12
 1266 01a4 97F85B31 		ldrb	r3, [r7, #347]	@ zero_extendqisi2
 486:../../../../lr11xx/lr11xx_driver/src/lr11xx_wifi.c **** }
 1267              		.loc 1 486 1
 1268 01a8 1846     		mov	r0, r3
 1269 01aa 07F5B277 		add	r7, r7, #356
 1270              	.LCFI58:
 1271              		.cfi_def_cfa_offset 12
 1272 01ae BD46     		mov	sp, r7
ARM GAS  C:\msys64\tmp\ccFuKh1Y.s 			page 32


 1273              	.LCFI59:
 1274              		.cfi_def_cfa_register 13
 1275              		@ sp needed
 1276 01b0 90BD     		pop	{r4, r7, pc}
 1277              		.cfi_endproc
 1278              	.LFE12:
 1280              		.section	.text.lr11xx_wifi_cfg_timestamp_ap_phone,"ax",%progbits
 1281              		.align	1
 1282              		.global	lr11xx_wifi_cfg_timestamp_ap_phone
 1283              		.syntax unified
 1284              		.thumb
 1285              		.thumb_func
 1287              	lr11xx_wifi_cfg_timestamp_ap_phone:
 1288              	.LFB13:
 487:../../../../lr11xx/lr11xx_driver/src/lr11xx_wifi.c **** 
 488:../../../../lr11xx/lr11xx_driver/src/lr11xx_wifi.c **** lr11xx_status_t lr11xx_wifi_cfg_timestamp_ap_phone( const void* context, uint32_t timestamp_in_s )
 489:../../../../lr11xx/lr11xx_driver/src/lr11xx_wifi.c **** {
 1289              		.loc 1 489 1
 1290              		.cfi_startproc
 1291              		@ args = 0, pretend = 0, frame = 16
 1292              		@ frame_needed = 1, uses_anonymous_args = 0
 1293 0000 80B5     		push	{r7, lr}
 1294              	.LCFI60:
 1295              		.cfi_def_cfa_offset 8
 1296              		.cfi_offset 7, -8
 1297              		.cfi_offset 14, -4
 1298 0002 86B0     		sub	sp, sp, #24
 1299              	.LCFI61:
 1300              		.cfi_def_cfa_offset 32
 1301 0004 02AF     		add	r7, sp, #8
 1302              	.LCFI62:
 1303              		.cfi_def_cfa 7, 24
 1304 0006 7860     		str	r0, [r7, #4]
 1305 0008 3960     		str	r1, [r7]
 490:../../../../lr11xx/lr11xx_driver/src/lr11xx_wifi.c ****     const uint8_t cbuffer[LR11XX_WIFI_CFG_TIMESTAMP_AP_PHONE_CMD_LENGTH] = {
 1306              		.loc 1 490 19
 1307 000a 0323     		movs	r3, #3
 1308 000c 3B72     		strb	r3, [r7, #8]
 1309 000e 0B23     		movs	r3, #11
 1310 0010 7B72     		strb	r3, [r7, #9]
 491:../../../../lr11xx/lr11xx_driver/src/lr11xx_wifi.c ****         ( uint8_t ) ( LR11XX_WIFI_CONFIGURE_TIMESTAMP_AP_PHONE_OC >> 8 ),
 492:../../../../lr11xx/lr11xx_driver/src/lr11xx_wifi.c ****         ( uint8_t ) ( LR11XX_WIFI_CONFIGURE_TIMESTAMP_AP_PHONE_OC >> 0 ),
 493:../../../../lr11xx/lr11xx_driver/src/lr11xx_wifi.c ****         ( uint8_t ) ( timestamp_in_s >> 24 ),
 1311              		.loc 1 493 38
 1312 0012 3B68     		ldr	r3, [r7]
 1313 0014 1B0E     		lsrs	r3, r3, #24
 1314              		.loc 1 493 9
 1315 0016 DBB2     		uxtb	r3, r3
 490:../../../../lr11xx/lr11xx_driver/src/lr11xx_wifi.c ****     const uint8_t cbuffer[LR11XX_WIFI_CFG_TIMESTAMP_AP_PHONE_CMD_LENGTH] = {
 1316              		.loc 1 490 19
 1317 0018 BB72     		strb	r3, [r7, #10]
 494:../../../../lr11xx/lr11xx_driver/src/lr11xx_wifi.c ****         ( uint8_t ) ( timestamp_in_s >> 16 ),
 1318              		.loc 1 494 38
 1319 001a 3B68     		ldr	r3, [r7]
 1320 001c 1B0C     		lsrs	r3, r3, #16
 1321              		.loc 1 494 9
 1322 001e DBB2     		uxtb	r3, r3
ARM GAS  C:\msys64\tmp\ccFuKh1Y.s 			page 33


 490:../../../../lr11xx/lr11xx_driver/src/lr11xx_wifi.c ****     const uint8_t cbuffer[LR11XX_WIFI_CFG_TIMESTAMP_AP_PHONE_CMD_LENGTH] = {
 1323              		.loc 1 490 19
 1324 0020 FB72     		strb	r3, [r7, #11]
 495:../../../../lr11xx/lr11xx_driver/src/lr11xx_wifi.c ****         ( uint8_t ) ( timestamp_in_s >> 8 ),
 1325              		.loc 1 495 38
 1326 0022 3B68     		ldr	r3, [r7]
 1327 0024 1B0A     		lsrs	r3, r3, #8
 1328              		.loc 1 495 9
 1329 0026 DBB2     		uxtb	r3, r3
 490:../../../../lr11xx/lr11xx_driver/src/lr11xx_wifi.c ****         ( uint8_t ) ( LR11XX_WIFI_CONFIGURE_TIMESTAMP_AP_PHONE_OC >> 8 ),
 1330              		.loc 1 490 19
 1331 0028 3B73     		strb	r3, [r7, #12]
 496:../../../../lr11xx/lr11xx_driver/src/lr11xx_wifi.c ****         ( uint8_t ) ( timestamp_in_s >> 0 ),
 1332              		.loc 1 496 9
 1333 002a 3B68     		ldr	r3, [r7]
 1334 002c DBB2     		uxtb	r3, r3
 490:../../../../lr11xx/lr11xx_driver/src/lr11xx_wifi.c ****         ( uint8_t ) ( LR11XX_WIFI_CONFIGURE_TIMESTAMP_AP_PHONE_OC >> 8 ),
 1335              		.loc 1 490 19
 1336 002e 7B73     		strb	r3, [r7, #13]
 497:../../../../lr11xx/lr11xx_driver/src/lr11xx_wifi.c ****     };
 498:../../../../lr11xx/lr11xx_driver/src/lr11xx_wifi.c **** 
 499:../../../../lr11xx/lr11xx_driver/src/lr11xx_wifi.c ****     return ( lr11xx_status_t ) lr11xx_hal_write( context, cbuffer, LR11XX_WIFI_CFG_TIMESTAMP_AP_PHO
 1337              		.loc 1 499 32
 1338 0030 07F10801 		add	r1, r7, #8
 1339 0034 0023     		movs	r3, #0
 1340 0036 0093     		str	r3, [sp]
 1341 0038 0023     		movs	r3, #0
 1342 003a 0622     		movs	r2, #6
 1343 003c 7868     		ldr	r0, [r7, #4]
 1344 003e FFF7FEFF 		bl	lr11xx_hal_write
 1345 0042 0346     		mov	r3, r0
 500:../../../../lr11xx/lr11xx_driver/src/lr11xx_wifi.c ****                                                  0 );
 501:../../../../lr11xx/lr11xx_driver/src/lr11xx_wifi.c **** }
 1346              		.loc 1 501 1
 1347 0044 1846     		mov	r0, r3
 1348 0046 1037     		adds	r7, r7, #16
 1349              	.LCFI63:
 1350              		.cfi_def_cfa_offset 8
 1351 0048 BD46     		mov	sp, r7
 1352              	.LCFI64:
 1353              		.cfi_def_cfa_register 13
 1354              		@ sp needed
 1355 004a 80BD     		pop	{r7, pc}
 1356              		.cfi_endproc
 1357              	.LFE13:
 1359              		.section	.text.lr11xx_wifi_read_version,"ax",%progbits
 1360              		.align	1
 1361              		.global	lr11xx_wifi_read_version
 1362              		.syntax unified
 1363              		.thumb
 1364              		.thumb_func
 1366              	lr11xx_wifi_read_version:
 1367              	.LFB14:
 502:../../../../lr11xx/lr11xx_driver/src/lr11xx_wifi.c **** 
 503:../../../../lr11xx/lr11xx_driver/src/lr11xx_wifi.c **** lr11xx_status_t lr11xx_wifi_read_version( const void* context, lr11xx_wifi_version_t* wifi_version 
 504:../../../../lr11xx/lr11xx_driver/src/lr11xx_wifi.c **** {
 1368              		.loc 1 504 1
ARM GAS  C:\msys64\tmp\ccFuKh1Y.s 			page 34


 1369              		.cfi_startproc
 1370              		@ args = 0, pretend = 0, frame = 16
 1371              		@ frame_needed = 1, uses_anonymous_args = 0
 1372 0000 80B5     		push	{r7, lr}
 1373              	.LCFI65:
 1374              		.cfi_def_cfa_offset 8
 1375              		.cfi_offset 7, -8
 1376              		.cfi_offset 14, -4
 1377 0002 86B0     		sub	sp, sp, #24
 1378              	.LCFI66:
 1379              		.cfi_def_cfa_offset 32
 1380 0004 02AF     		add	r7, sp, #8
 1381              	.LCFI67:
 1382              		.cfi_def_cfa 7, 24
 1383 0006 7860     		str	r0, [r7, #4]
 1384 0008 3960     		str	r1, [r7]
 505:../../../../lr11xx/lr11xx_driver/src/lr11xx_wifi.c ****     const uint8_t cbuffer[LR11XX_WIFI_GET_VERSION_CMD_LENGTH] = {
 1385              		.loc 1 505 19
 1386 000a 42F20303 		movw	r3, #8195
 1387 000e BB81     		strh	r3, [r7, #12]	@ movhi
 506:../../../../lr11xx/lr11xx_driver/src/lr11xx_wifi.c ****         ( uint8_t ) ( LR11XX_WIFI_GET_VERSION_OC >> 8 ),
 507:../../../../lr11xx/lr11xx_driver/src/lr11xx_wifi.c ****         ( uint8_t ) ( LR11XX_WIFI_GET_VERSION_OC >> 0 ),
 508:../../../../lr11xx/lr11xx_driver/src/lr11xx_wifi.c ****     };
 509:../../../../lr11xx/lr11xx_driver/src/lr11xx_wifi.c ****     uint8_t                   rbuffer[LR11XX_WIFI_VERSION_SIZE] = { 0 };
 1388              		.loc 1 509 31
 1389 0010 0023     		movs	r3, #0
 1390 0012 3B81     		strh	r3, [r7, #8]	@ movhi
 510:../../../../lr11xx/lr11xx_driver/src/lr11xx_wifi.c ****     const lr11xx_hal_status_t hal_status =
 511:../../../../lr11xx/lr11xx_driver/src/lr11xx_wifi.c ****         lr11xx_hal_read( context, cbuffer, LR11XX_WIFI_GET_VERSION_CMD_LENGTH, rbuffer, LR11XX_WIFI
 1391              		.loc 1 511 9
 1392 0014 07F10803 		add	r3, r7, #8
 1393 0018 07F10C01 		add	r1, r7, #12
 1394 001c 0222     		movs	r2, #2
 1395 001e 0092     		str	r2, [sp]
 1396 0020 0222     		movs	r2, #2
 1397 0022 7868     		ldr	r0, [r7, #4]
 1398 0024 FFF7FEFF 		bl	lr11xx_hal_read
 1399 0028 0346     		mov	r3, r0
 1400 002a FB73     		strb	r3, [r7, #15]
 512:../../../../lr11xx/lr11xx_driver/src/lr11xx_wifi.c ****     if( hal_status == LR11XX_HAL_STATUS_OK )
 1401              		.loc 1 512 7
 1402 002c FB7B     		ldrb	r3, [r7, #15]	@ zero_extendqisi2
 1403 002e 002B     		cmp	r3, #0
 1404 0030 05D1     		bne	.L39
 513:../../../../lr11xx/lr11xx_driver/src/lr11xx_wifi.c ****     {
 514:../../../../lr11xx/lr11xx_driver/src/lr11xx_wifi.c ****         wifi_version->major = rbuffer[0];
 1405              		.loc 1 514 38
 1406 0032 3A7A     		ldrb	r2, [r7, #8]	@ zero_extendqisi2
 1407              		.loc 1 514 29
 1408 0034 3B68     		ldr	r3, [r7]
 1409 0036 1A70     		strb	r2, [r3]
 515:../../../../lr11xx/lr11xx_driver/src/lr11xx_wifi.c ****         wifi_version->minor = rbuffer[1];
 1410              		.loc 1 515 38
 1411 0038 7A7A     		ldrb	r2, [r7, #9]	@ zero_extendqisi2
 1412              		.loc 1 515 29
 1413 003a 3B68     		ldr	r3, [r7]
 1414 003c 5A70     		strb	r2, [r3, #1]
ARM GAS  C:\msys64\tmp\ccFuKh1Y.s 			page 35


 1415              	.L39:
 516:../../../../lr11xx/lr11xx_driver/src/lr11xx_wifi.c ****     }
 517:../../../../lr11xx/lr11xx_driver/src/lr11xx_wifi.c ****     return ( lr11xx_status_t ) hal_status;
 1416              		.loc 1 517 12
 1417 003e FB7B     		ldrb	r3, [r7, #15]	@ zero_extendqisi2
 518:../../../../lr11xx/lr11xx_driver/src/lr11xx_wifi.c **** }
 1418              		.loc 1 518 1
 1419 0040 1846     		mov	r0, r3
 1420 0042 1037     		adds	r7, r7, #16
 1421              	.LCFI68:
 1422              		.cfi_def_cfa_offset 8
 1423 0044 BD46     		mov	sp, r7
 1424              	.LCFI69:
 1425              		.cfi_def_cfa_register 13
 1426              		@ sp needed
 1427 0046 80BD     		pop	{r7, pc}
 1428              		.cfi_endproc
 1429              	.LFE14:
 1431              		.section	.text.lr11xx_wifi_get_nb_results_max_per_chunk,"ax",%progbits
 1432              		.align	1
 1433              		.global	lr11xx_wifi_get_nb_results_max_per_chunk
 1434              		.syntax unified
 1435              		.thumb
 1436              		.thumb_func
 1438              	lr11xx_wifi_get_nb_results_max_per_chunk:
 1439              	.LFB15:
 519:../../../../lr11xx/lr11xx_driver/src/lr11xx_wifi.c **** 
 520:../../../../lr11xx/lr11xx_driver/src/lr11xx_wifi.c **** uint8_t lr11xx_wifi_get_nb_results_max_per_chunk( void )
 521:../../../../lr11xx/lr11xx_driver/src/lr11xx_wifi.c **** {
 1440              		.loc 1 521 1
 1441              		.cfi_startproc
 1442              		@ args = 0, pretend = 0, frame = 0
 1443              		@ frame_needed = 1, uses_anonymous_args = 0
 1444              		@ link register save eliminated.
 1445 0000 80B4     		push	{r7}
 1446              	.LCFI70:
 1447              		.cfi_def_cfa_offset 4
 1448              		.cfi_offset 7, -4
 1449 0002 00AF     		add	r7, sp, #0
 1450              	.LCFI71:
 1451              		.cfi_def_cfa_register 7
 522:../../../../lr11xx/lr11xx_driver/src/lr11xx_wifi.c ****     return ( uint8_t ) LR11XX_WIFI_N_RESULTS_MAX_PER_CHUNK;
 1452              		.loc 1 522 12
 1453 0004 2023     		movs	r3, #32
 523:../../../../lr11xx/lr11xx_driver/src/lr11xx_wifi.c **** }
 1454              		.loc 1 523 1
 1455 0006 1846     		mov	r0, r3
 1456 0008 BD46     		mov	sp, r7
 1457              	.LCFI72:
 1458              		.cfi_def_cfa_register 13
 1459              		@ sp needed
 1460 000a 5DF8047B 		ldr	r7, [sp], #4
 1461              	.LCFI73:
 1462              		.cfi_restore 7
 1463              		.cfi_def_cfa_offset 0
 1464 000e 7047     		bx	lr
 1465              		.cfi_endproc
ARM GAS  C:\msys64\tmp\ccFuKh1Y.s 			page 36


 1466              	.LFE15:
 1468              		.section	.text.lr11xx_wifi_parse_channel_info,"ax",%progbits
 1469              		.align	1
 1470              		.global	lr11xx_wifi_parse_channel_info
 1471              		.syntax unified
 1472              		.thumb
 1473              		.thumb_func
 1475              	lr11xx_wifi_parse_channel_info:
 1476              	.LFB16:
 524:../../../../lr11xx/lr11xx_driver/src/lr11xx_wifi.c **** 
 525:../../../../lr11xx/lr11xx_driver/src/lr11xx_wifi.c **** void lr11xx_wifi_parse_channel_info( const lr11xx_wifi_channel_info_byte_t channel_info, lr11xx_wif
 526:../../../../lr11xx/lr11xx_driver/src/lr11xx_wifi.c ****                                      bool* rssi_validity, lr11xx_wifi_mac_origin_t* mac_origin_esti
 527:../../../../lr11xx/lr11xx_driver/src/lr11xx_wifi.c **** {
 1477              		.loc 1 527 1
 1478              		.cfi_startproc
 1479              		@ args = 0, pretend = 0, frame = 16
 1480              		@ frame_needed = 1, uses_anonymous_args = 0
 1481 0000 80B5     		push	{r7, lr}
 1482              	.LCFI74:
 1483              		.cfi_def_cfa_offset 8
 1484              		.cfi_offset 7, -8
 1485              		.cfi_offset 14, -4
 1486 0002 84B0     		sub	sp, sp, #16
 1487              	.LCFI75:
 1488              		.cfi_def_cfa_offset 24
 1489 0004 00AF     		add	r7, sp, #0
 1490              	.LCFI76:
 1491              		.cfi_def_cfa_register 7
 1492 0006 B960     		str	r1, [r7, #8]
 1493 0008 7A60     		str	r2, [r7, #4]
 1494 000a 3B60     		str	r3, [r7]
 1495 000c 0346     		mov	r3, r0
 1496 000e FB73     		strb	r3, [r7, #15]
 528:../../../../lr11xx/lr11xx_driver/src/lr11xx_wifi.c ****     ( *channel )               = lr11xx_wifi_extract_channel_from_info_byte( channel_info );
 1497              		.loc 1 528 34
 1498 0010 FB7B     		ldrb	r3, [r7, #15]	@ zero_extendqisi2
 1499 0012 1846     		mov	r0, r3
 1500 0014 FFF7FEFF 		bl	lr11xx_wifi_extract_channel_from_info_byte
 1501 0018 0346     		mov	r3, r0
 1502 001a 1A46     		mov	r2, r3
 1503              		.loc 1 528 32 discriminator 1
 1504 001c BB68     		ldr	r3, [r7, #8]
 1505 001e 1A70     		strb	r2, [r3]
 529:../../../../lr11xx/lr11xx_driver/src/lr11xx_wifi.c ****     ( *mac_origin_estimation ) = ( lr11xx_wifi_mac_origin_t ) ( ( channel_info & 0x30 ) >> 4 );
 1506              		.loc 1 529 89
 1507 0020 FB7B     		ldrb	r3, [r7, #15]	@ zero_extendqisi2
 1508 0022 1B11     		asrs	r3, r3, #4
 1509 0024 03F00303 		and	r3, r3, #3
 1510              		.loc 1 529 34
 1511 0028 DAB2     		uxtb	r2, r3
 1512              		.loc 1 529 32
 1513 002a 3B68     		ldr	r3, [r7]
 1514 002c 1A70     		strb	r2, [r3]
 530:../../../../lr11xx/lr11xx_driver/src/lr11xx_wifi.c ****     ( *rssi_validity )         = ( ( channel_info & 0x40 ) == 0 ) ? true : false;
 1515              		.loc 1 530 51
 1516 002e FB7B     		ldrb	r3, [r7, #15]	@ zero_extendqisi2
 1517 0030 03F04003 		and	r3, r3, #64
ARM GAS  C:\msys64\tmp\ccFuKh1Y.s 			page 37


 1518              		.loc 1 530 5
 1519 0034 002B     		cmp	r3, #0
 1520 0036 0CBF     		ite	eq
 1521 0038 0123     		moveq	r3, #1
 1522 003a 0023     		movne	r3, #0
 1523 003c DAB2     		uxtb	r2, r3
 1524              		.loc 1 530 32
 1525 003e 7B68     		ldr	r3, [r7, #4]
 1526 0040 1A70     		strb	r2, [r3]
 531:../../../../lr11xx/lr11xx_driver/src/lr11xx_wifi.c **** }
 1527              		.loc 1 531 1
 1528 0042 00BF     		nop
 1529 0044 1037     		adds	r7, r7, #16
 1530              	.LCFI77:
 1531              		.cfi_def_cfa_offset 8
 1532 0046 BD46     		mov	sp, r7
 1533              	.LCFI78:
 1534              		.cfi_def_cfa_register 13
 1535              		@ sp needed
 1536 0048 80BD     		pop	{r7, pc}
 1537              		.cfi_endproc
 1538              	.LFE16:
 1540              		.section	.text.lr11xx_wifi_extract_channel_from_info_byte,"ax",%progbits
 1541              		.align	1
 1542              		.global	lr11xx_wifi_extract_channel_from_info_byte
 1543              		.syntax unified
 1544              		.thumb
 1545              		.thumb_func
 1547              	lr11xx_wifi_extract_channel_from_info_byte:
 1548              	.LFB17:
 532:../../../../lr11xx/lr11xx_driver/src/lr11xx_wifi.c **** 
 533:../../../../lr11xx/lr11xx_driver/src/lr11xx_wifi.c **** lr11xx_wifi_channel_t lr11xx_wifi_extract_channel_from_info_byte( const lr11xx_wifi_channel_info_by
 534:../../../../lr11xx/lr11xx_driver/src/lr11xx_wifi.c **** {
 1549              		.loc 1 534 1
 1550              		.cfi_startproc
 1551              		@ args = 0, pretend = 0, frame = 8
 1552              		@ frame_needed = 1, uses_anonymous_args = 0
 1553              		@ link register save eliminated.
 1554 0000 80B4     		push	{r7}
 1555              	.LCFI79:
 1556              		.cfi_def_cfa_offset 4
 1557              		.cfi_offset 7, -4
 1558 0002 83B0     		sub	sp, sp, #12
 1559              	.LCFI80:
 1560              		.cfi_def_cfa_offset 16
 1561 0004 00AF     		add	r7, sp, #0
 1562              	.LCFI81:
 1563              		.cfi_def_cfa_register 7
 1564 0006 0346     		mov	r3, r0
 1565 0008 FB71     		strb	r3, [r7, #7]
 535:../../../../lr11xx/lr11xx_driver/src/lr11xx_wifi.c ****     return ( lr11xx_wifi_channel_t ) ( channel_info & 0x0F );
 1566              		.loc 1 535 12
 1567 000a FB79     		ldrb	r3, [r7, #7]
 1568 000c 03F00F03 		and	r3, r3, #15
 1569 0010 DBB2     		uxtb	r3, r3
 536:../../../../lr11xx/lr11xx_driver/src/lr11xx_wifi.c **** }
 1570              		.loc 1 536 1
ARM GAS  C:\msys64\tmp\ccFuKh1Y.s 			page 38


 1571 0012 1846     		mov	r0, r3
 1572 0014 0C37     		adds	r7, r7, #12
 1573              	.LCFI82:
 1574              		.cfi_def_cfa_offset 4
 1575 0016 BD46     		mov	sp, r7
 1576              	.LCFI83:
 1577              		.cfi_def_cfa_register 13
 1578              		@ sp needed
 1579 0018 5DF8047B 		ldr	r7, [sp], #4
 1580              	.LCFI84:
 1581              		.cfi_restore 7
 1582              		.cfi_def_cfa_offset 0
 1583 001c 7047     		bx	lr
 1584              		.cfi_endproc
 1585              	.LFE17:
 1587              		.section	.text.lr11xx_wifi_parse_frame_type_info,"ax",%progbits
 1588              		.align	1
 1589              		.global	lr11xx_wifi_parse_frame_type_info
 1590              		.syntax unified
 1591              		.thumb
 1592              		.thumb_func
 1594              	lr11xx_wifi_parse_frame_type_info:
 1595              	.LFB18:
 537:../../../../lr11xx/lr11xx_driver/src/lr11xx_wifi.c **** 
 538:../../../../lr11xx/lr11xx_driver/src/lr11xx_wifi.c **** void lr11xx_wifi_parse_frame_type_info( const lr11xx_wifi_frame_type_info_byte_t frame_type_info,
 539:../../../../lr11xx/lr11xx_driver/src/lr11xx_wifi.c ****                                         lr11xx_wifi_frame_type_t*                frame_type,
 540:../../../../lr11xx/lr11xx_driver/src/lr11xx_wifi.c ****                                         lr11xx_wifi_frame_sub_type_t* frame_sub_type, bool* to_ds, 
 541:../../../../lr11xx/lr11xx_driver/src/lr11xx_wifi.c **** {
 1596              		.loc 1 541 1
 1597              		.cfi_startproc
 1598              		@ args = 4, pretend = 0, frame = 16
 1599              		@ frame_needed = 1, uses_anonymous_args = 0
 1600              		@ link register save eliminated.
 1601 0000 80B4     		push	{r7}
 1602              	.LCFI85:
 1603              		.cfi_def_cfa_offset 4
 1604              		.cfi_offset 7, -4
 1605 0002 85B0     		sub	sp, sp, #20
 1606              	.LCFI86:
 1607              		.cfi_def_cfa_offset 24
 1608 0004 00AF     		add	r7, sp, #0
 1609              	.LCFI87:
 1610              		.cfi_def_cfa_register 7
 1611 0006 B960     		str	r1, [r7, #8]
 1612 0008 7A60     		str	r2, [r7, #4]
 1613 000a 3B60     		str	r3, [r7]
 1614 000c 0346     		mov	r3, r0
 1615 000e FB73     		strb	r3, [r7, #15]
 542:../../../../lr11xx/lr11xx_driver/src/lr11xx_wifi.c ****     ( *frame_type )     = ( lr11xx_wifi_frame_type_t ) ( ( frame_type_info >> 6 ) & 0x03 );
 1616              		.loc 1 542 25
 1617 0010 FB7B     		ldrb	r3, [r7, #15]	@ zero_extendqisi2
 1618 0012 9B09     		lsrs	r3, r3, #6
 1619 0014 DAB2     		uxtb	r2, r3
 1620 0016 BB68     		ldr	r3, [r7, #8]
 1621 0018 1A70     		strb	r2, [r3]
 543:../../../../lr11xx/lr11xx_driver/src/lr11xx_wifi.c ****     ( *frame_sub_type ) = ( lr11xx_wifi_frame_sub_type_t ) ( ( frame_type_info >> 2 ) & 0x0F );
 1622              		.loc 1 543 27
ARM GAS  C:\msys64\tmp\ccFuKh1Y.s 			page 39


 1623 001a FB7B     		ldrb	r3, [r7, #15]	@ zero_extendqisi2
 1624 001c 9B08     		lsrs	r3, r3, #2
 1625 001e DBB2     		uxtb	r3, r3
 1626 0020 03F00F03 		and	r3, r3, #15
 1627 0024 DAB2     		uxtb	r2, r3
 1628              		.loc 1 543 25
 1629 0026 7B68     		ldr	r3, [r7, #4]
 1630 0028 1A70     		strb	r2, [r3]
 544:../../../../lr11xx/lr11xx_driver/src/lr11xx_wifi.c ****     ( *to_ds )          = ( bool ) ( ( frame_type_info >> 1 ) & 0x01 );
 1631              		.loc 1 544 63
 1632 002a FB7B     		ldrb	r3, [r7, #15]	@ zero_extendqisi2
 1633 002c 5B08     		lsrs	r3, r3, #1
 1634 002e DBB2     		uxtb	r3, r3
 1635 0030 03F00103 		and	r3, r3, #1
 1636              		.loc 1 544 27
 1637 0034 002B     		cmp	r3, #0
 1638 0036 14BF     		ite	ne
 1639 0038 0123     		movne	r3, #1
 1640 003a 0023     		moveq	r3, #0
 1641 003c DAB2     		uxtb	r2, r3
 1642              		.loc 1 544 25
 1643 003e 3B68     		ldr	r3, [r7]
 1644 0040 1A70     		strb	r2, [r3]
 545:../../../../lr11xx/lr11xx_driver/src/lr11xx_wifi.c ****     ( *from_ds )        = ( bool ) ( frame_type_info & 0x01 );
 1645              		.loc 1 545 54
 1646 0042 FB7B     		ldrb	r3, [r7, #15]	@ zero_extendqisi2
 1647 0044 03F00103 		and	r3, r3, #1
 1648              		.loc 1 545 27
 1649 0048 002B     		cmp	r3, #0
 1650 004a 14BF     		ite	ne
 1651 004c 0123     		movne	r3, #1
 1652 004e 0023     		moveq	r3, #0
 1653 0050 DAB2     		uxtb	r2, r3
 1654              		.loc 1 545 25
 1655 0052 BB69     		ldr	r3, [r7, #24]
 1656 0054 1A70     		strb	r2, [r3]
 546:../../../../lr11xx/lr11xx_driver/src/lr11xx_wifi.c **** }
 1657              		.loc 1 546 1
 1658 0056 00BF     		nop
 1659 0058 1437     		adds	r7, r7, #20
 1660              	.LCFI88:
 1661              		.cfi_def_cfa_offset 4
 1662 005a BD46     		mov	sp, r7
 1663              	.LCFI89:
 1664              		.cfi_def_cfa_register 13
 1665              		@ sp needed
 1666 005c 5DF8047B 		ldr	r7, [sp], #4
 1667              	.LCFI90:
 1668              		.cfi_restore 7
 1669              		.cfi_def_cfa_offset 0
 1670 0060 7047     		bx	lr
 1671              		.cfi_endproc
 1672              	.LFE18:
 1674              		.section	.text.lr11xx_wifi_parse_data_rate_info,"ax",%progbits
 1675              		.align	1
 1676              		.global	lr11xx_wifi_parse_data_rate_info
 1677              		.syntax unified
ARM GAS  C:\msys64\tmp\ccFuKh1Y.s 			page 40


 1678              		.thumb
 1679              		.thumb_func
 1681              	lr11xx_wifi_parse_data_rate_info:
 1682              	.LFB19:
 547:../../../../lr11xx/lr11xx_driver/src/lr11xx_wifi.c **** 
 548:../../../../lr11xx/lr11xx_driver/src/lr11xx_wifi.c **** void lr11xx_wifi_parse_data_rate_info( const lr11xx_wifi_datarate_info_byte_t data_rate_info,
 549:../../../../lr11xx/lr11xx_driver/src/lr11xx_wifi.c ****                                        lr11xx_wifi_signal_type_result_t*      wifi_signal_type,
 550:../../../../lr11xx/lr11xx_driver/src/lr11xx_wifi.c ****                                        lr11xx_wifi_datarate_t*                wifi_data_rate )
 551:../../../../lr11xx/lr11xx_driver/src/lr11xx_wifi.c **** {
 1683              		.loc 1 551 1
 1684              		.cfi_startproc
 1685              		@ args = 0, pretend = 0, frame = 16
 1686              		@ frame_needed = 1, uses_anonymous_args = 0
 1687 0000 80B5     		push	{r7, lr}
 1688              	.LCFI91:
 1689              		.cfi_def_cfa_offset 8
 1690              		.cfi_offset 7, -8
 1691              		.cfi_offset 14, -4
 1692 0002 84B0     		sub	sp, sp, #16
 1693              	.LCFI92:
 1694              		.cfi_def_cfa_offset 24
 1695 0004 00AF     		add	r7, sp, #0
 1696              	.LCFI93:
 1697              		.cfi_def_cfa_register 7
 1698 0006 0346     		mov	r3, r0
 1699 0008 B960     		str	r1, [r7, #8]
 1700 000a 7A60     		str	r2, [r7, #4]
 1701 000c FB73     		strb	r3, [r7, #15]
 552:../../../../lr11xx/lr11xx_driver/src/lr11xx_wifi.c ****     ( *wifi_signal_type ) = lr11xx_wifi_extract_signal_type_from_data_rate_info( data_rate_info );
 1702              		.loc 1 552 29
 1703 000e FB7B     		ldrb	r3, [r7, #15]	@ zero_extendqisi2
 1704 0010 1846     		mov	r0, r3
 1705 0012 FFF7FEFF 		bl	lr11xx_wifi_extract_signal_type_from_data_rate_info
 1706 0016 0346     		mov	r3, r0
 1707 0018 1A46     		mov	r2, r3
 1708              		.loc 1 552 27 discriminator 1
 1709 001a BB68     		ldr	r3, [r7, #8]
 1710 001c 1A70     		strb	r2, [r3]
 553:../../../../lr11xx/lr11xx_driver/src/lr11xx_wifi.c ****     ( *wifi_data_rate )   = ( lr11xx_wifi_datarate_t ) ( data_rate_info >> 2 );
 1711              		.loc 1 553 27
 1712 001e FB7B     		ldrb	r3, [r7, #15]	@ zero_extendqisi2
 1713 0020 9B08     		lsrs	r3, r3, #2
 1714 0022 DAB2     		uxtb	r2, r3
 1715 0024 7B68     		ldr	r3, [r7, #4]
 1716 0026 1A70     		strb	r2, [r3]
 554:../../../../lr11xx/lr11xx_driver/src/lr11xx_wifi.c **** }
 1717              		.loc 1 554 1
 1718 0028 00BF     		nop
 1719 002a 1037     		adds	r7, r7, #16
 1720              	.LCFI94:
 1721              		.cfi_def_cfa_offset 8
 1722 002c BD46     		mov	sp, r7
 1723              	.LCFI95:
 1724              		.cfi_def_cfa_register 13
 1725              		@ sp needed
 1726 002e 80BD     		pop	{r7, pc}
 1727              		.cfi_endproc
ARM GAS  C:\msys64\tmp\ccFuKh1Y.s 			page 41


 1728              	.LFE19:
 1730              		.section	.text.lr11xx_wifi_extract_signal_type_from_data_rate_info,"ax",%progbits
 1731              		.align	1
 1732              		.global	lr11xx_wifi_extract_signal_type_from_data_rate_info
 1733              		.syntax unified
 1734              		.thumb
 1735              		.thumb_func
 1737              	lr11xx_wifi_extract_signal_type_from_data_rate_info:
 1738              	.LFB20:
 555:../../../../lr11xx/lr11xx_driver/src/lr11xx_wifi.c **** 
 556:../../../../lr11xx/lr11xx_driver/src/lr11xx_wifi.c **** lr11xx_wifi_signal_type_result_t lr11xx_wifi_extract_signal_type_from_data_rate_info(
 557:../../../../lr11xx/lr11xx_driver/src/lr11xx_wifi.c ****     const lr11xx_wifi_datarate_info_byte_t data_rate_info )
 558:../../../../lr11xx/lr11xx_driver/src/lr11xx_wifi.c **** {
 1739              		.loc 1 558 1
 1740              		.cfi_startproc
 1741              		@ args = 0, pretend = 0, frame = 8
 1742              		@ frame_needed = 1, uses_anonymous_args = 0
 1743              		@ link register save eliminated.
 1744 0000 80B4     		push	{r7}
 1745              	.LCFI96:
 1746              		.cfi_def_cfa_offset 4
 1747              		.cfi_offset 7, -4
 1748 0002 83B0     		sub	sp, sp, #12
 1749              	.LCFI97:
 1750              		.cfi_def_cfa_offset 16
 1751 0004 00AF     		add	r7, sp, #0
 1752              	.LCFI98:
 1753              		.cfi_def_cfa_register 7
 1754 0006 0346     		mov	r3, r0
 1755 0008 FB71     		strb	r3, [r7, #7]
 559:../../../../lr11xx/lr11xx_driver/src/lr11xx_wifi.c ****     return ( lr11xx_wifi_signal_type_result_t ) ( data_rate_info & 0x03 );
 1756              		.loc 1 559 12
 1757 000a FB79     		ldrb	r3, [r7, #7]
 1758 000c 03F00303 		and	r3, r3, #3
 1759 0010 DBB2     		uxtb	r3, r3
 560:../../../../lr11xx/lr11xx_driver/src/lr11xx_wifi.c **** }
 1760              		.loc 1 560 1
 1761 0012 1846     		mov	r0, r3
 1762 0014 0C37     		adds	r7, r7, #12
 1763              	.LCFI99:
 1764              		.cfi_def_cfa_offset 4
 1765 0016 BD46     		mov	sp, r7
 1766              	.LCFI100:
 1767              		.cfi_def_cfa_register 13
 1768              		@ sp needed
 1769 0018 5DF8047B 		ldr	r7, [sp], #4
 1770              	.LCFI101:
 1771              		.cfi_restore 7
 1772              		.cfi_def_cfa_offset 0
 1773 001c 7047     		bx	lr
 1774              		.cfi_endproc
 1775              	.LFE20:
 1777              		.section	.text.lr11xx_wifi_get_consumption_nah,"ax",%progbits
 1778              		.align	1
 1779              		.global	lr11xx_wifi_get_consumption_nah
 1780              		.syntax unified
 1781              		.thumb
ARM GAS  C:\msys64\tmp\ccFuKh1Y.s 			page 42


 1782              		.thumb_func
 1784              	lr11xx_wifi_get_consumption_nah:
 1785              	.LFB21:
 561:../../../../lr11xx/lr11xx_driver/src/lr11xx_wifi.c **** 
 562:../../../../lr11xx/lr11xx_driver/src/lr11xx_wifi.c **** uint32_t lr11xx_wifi_get_consumption_nah( lr11xx_system_reg_mode_t regulator, lr11xx_wifi_cumulativ
 563:../../../../lr11xx/lr11xx_driver/src/lr11xx_wifi.c **** {
 1786              		.loc 1 563 1
 1787              		.cfi_startproc
 1788              		@ args = 20, pretend = 16, frame = 16
 1789              		@ frame_needed = 1, uses_anonymous_args = 0
 1790 0000 84B0     		sub	sp, sp, #16
 1791              	.LCFI102:
 1792              		.cfi_def_cfa_offset 16
 1793 0002 B0B5     		push	{r4, r5, r7, lr}
 1794              	.LCFI103:
 1795              		.cfi_def_cfa_offset 32
 1796              		.cfi_offset 4, -32
 1797              		.cfi_offset 5, -28
 1798              		.cfi_offset 7, -24
 1799              		.cfi_offset 14, -20
 1800 0004 84B0     		sub	sp, sp, #16
 1801              	.LCFI104:
 1802              		.cfi_def_cfa_offset 48
 1803 0006 00AF     		add	r7, sp, #0
 1804              	.LCFI105:
 1805              		.cfi_def_cfa_register 7
 1806 0008 0446     		mov	r4, r0
 1807 000a 07F12400 		add	r0, r7, #36
 1808 000e 80E80E00 		stm	r0, {r1, r2, r3}
 1809 0012 2346     		mov	r3, r4
 1810 0014 FB71     		strb	r3, [r7, #7]
 564:../../../../lr11xx/lr11xx_driver/src/lr11xx_wifi.c ****     float wifi_scan_consumption_nah = 0;
 1811              		.loc 1 564 11
 1812 0016 4FF00003 		mov	r3, #0
 1813 001a FB60     		str	r3, [r7, #12]	@ float
 565:../../../../lr11xx/lr11xx_driver/src/lr11xx_wifi.c **** 
 566:../../../../lr11xx/lr11xx_driver/src/lr11xx_wifi.c ****     wifi_scan_consumption_nah = ( ( float ) timing.rx_capture_us * LR11XX_WIFI_CAPTURE_NA ) +
 1814              		.loc 1 566 51
 1815 001c FB6A     		ldr	r3, [r7, #44]
 1816              		.loc 1 566 35
 1817 001e 07EE903A 		vmov	s15, r3	@ int
 1818 0022 F8EE677A 		vcvt.f32.u32	s15, s15
 1819              		.loc 1 566 66
 1820 0026 9FED347A 		vldr.32	s14, .L53+8
 1821 002a 27EE877A 		vmul.f32	s14, s15, s14
 567:../../../../lr11xx/lr11xx_driver/src/lr11xx_wifi.c ****                                 ( ( float ) timing.demodulation_us * LR11XX_WIFI_DEMODULATION_NA ) 
 1822              		.loc 1 567 51
 1823 002e 3B6B     		ldr	r3, [r7, #48]
 1824              		.loc 1 567 35
 1825 0030 07EE903A 		vmov	s15, r3	@ int
 1826 0034 F8EE677A 		vcvt.f32.u32	s15, s15
 1827              		.loc 1 567 68
 1828 0038 DFED306A 		vldr.32	s13, .L53+12
 1829 003c 67EEA67A 		vmul.f32	s15, s15, s13
 566:../../../../lr11xx/lr11xx_driver/src/lr11xx_wifi.c ****                                 ( ( float ) timing.demodulation_us * LR11XX_WIFI_DEMODULATION_NA ) 
 1830              		.loc 1 566 93
 1831 0040 37EE277A 		vadd.f32	s14, s14, s15
ARM GAS  C:\msys64\tmp\ccFuKh1Y.s 			page 43


 568:../../../../lr11xx/lr11xx_driver/src/lr11xx_wifi.c ****                                 ( ( float ) timing.rx_correlation_us * LR11XX_WIFI_CORRELATION_NA )
 1832              		.loc 1 568 51
 1833 0044 BB6A     		ldr	r3, [r7, #40]
 1834              		.loc 1 568 35
 1835 0046 07EE903A 		vmov	s15, r3	@ int
 1836 004a F8EE677A 		vcvt.f32.u32	s15, s15
 1837              		.loc 1 568 70
 1838 004e DFED2A6A 		vldr.32	s13, .L53+8
 1839 0052 67EEA67A 		vmul.f32	s15, s15, s13
 566:../../../../lr11xx/lr11xx_driver/src/lr11xx_wifi.c ****                                 ( ( float ) timing.demodulation_us * LR11XX_WIFI_DEMODULATION_NA ) 
 1840              		.loc 1 566 31
 1841 0056 77EE277A 		vadd.f32	s15, s14, s15
 1842 005a C7ED037A 		vstr.32	s15, [r7, #12]
 569:../../../../lr11xx/lr11xx_driver/src/lr11xx_wifi.c **** 
 570:../../../../lr11xx/lr11xx_driver/src/lr11xx_wifi.c ****     wifi_scan_consumption_nah = wifi_scan_consumption_nah /
 1843              		.loc 1 570 59
 1844 005e F868     		ldr	r0, [r7, #12]	@ float
 1845 0060 FFF7FEFF 		bl	__aeabi_f2d
 1846 0064 0446     		mov	r4, r0
 1847 0066 0D46     		mov	r5, r1
 571:../../../../lr11xx/lr11xx_driver/src/lr11xx_wifi.c ****                                 ( 3600000000.0 - ( ( float ) timing.rx_capture_us + ( float ) timin
 1848              		.loc 1 571 68
 1849 0068 FB6A     		ldr	r3, [r7, #44]
 1850              		.loc 1 571 52
 1851 006a 07EE903A 		vmov	s15, r3	@ int
 1852 006e B8EE677A 		vcvt.f32.u32	s14, s15
 1853              		.loc 1 571 101
 1854 0072 3B6B     		ldr	r3, [r7, #48]
 1855              		.loc 1 571 85
 1856 0074 07EE903A 		vmov	s15, r3	@ int
 1857 0078 F8EE677A 		vcvt.f32.u32	s15, s15
 1858              		.loc 1 571 83
 1859 007c 37EE277A 		vadd.f32	s14, s14, s15
 572:../../../../lr11xx/lr11xx_driver/src/lr11xx_wifi.c ****                                                    ( float ) timing.rx_correlation_us ) );
 1860              		.loc 1 572 68
 1861 0080 BB6A     		ldr	r3, [r7, #40]
 1862              		.loc 1 572 52
 1863 0082 07EE903A 		vmov	s15, r3	@ int
 1864 0086 F8EE677A 		vcvt.f32.u32	s15, s15
 571:../../../../lr11xx/lr11xx_driver/src/lr11xx_wifi.c ****                                 ( 3600000000.0 - ( ( float ) timing.rx_capture_us + ( float ) timin
 1865              		.loc 1 571 118
 1866 008a 77EE277A 		vadd.f32	s15, s14, s15
 1867 008e 17EE900A 		vmov	r0, s15
 1868 0092 FFF7FEFF 		bl	__aeabi_f2d
 1869 0096 0246     		mov	r2, r0
 1870 0098 0B46     		mov	r3, r1
 571:../../../../lr11xx/lr11xx_driver/src/lr11xx_wifi.c ****                                 ( 3600000000.0 - ( ( float ) timing.rx_capture_us + ( float ) timin
 1871              		.loc 1 571 48
 1872 009a 15A1     		adr	r1, .L53
 1873 009c D1E90001 		ldrd	r0, [r1]
 1874 00a0 FFF7FEFF 		bl	__aeabi_dsub
 1875 00a4 0246     		mov	r2, r0
 1876 00a6 0B46     		mov	r3, r1
 570:../../../../lr11xx/lr11xx_driver/src/lr11xx_wifi.c ****                                 ( 3600000000.0 - ( ( float ) timing.rx_capture_us + ( float ) timin
 1877              		.loc 1 570 59
 1878 00a8 2046     		mov	r0, r4
 1879 00aa 2946     		mov	r1, r5
ARM GAS  C:\msys64\tmp\ccFuKh1Y.s 			page 44


 1880 00ac FFF7FEFF 		bl	__aeabi_ddiv
 1881 00b0 0246     		mov	r2, r0
 1882 00b2 0B46     		mov	r3, r1
 570:../../../../lr11xx/lr11xx_driver/src/lr11xx_wifi.c ****                                 ( 3600000000.0 - ( ( float ) timing.rx_capture_us + ( float ) timin
 1883              		.loc 1 570 31
 1884 00b4 1046     		mov	r0, r2
 1885 00b6 1946     		mov	r1, r3
 1886 00b8 FFF7FEFF 		bl	__aeabi_d2f
 1887 00bc 0346     		mov	r3, r0	@ float
 1888 00be FB60     		str	r3, [r7, #12]	@ float
 573:../../../../lr11xx/lr11xx_driver/src/lr11xx_wifi.c **** 
 574:../../../../lr11xx/lr11xx_driver/src/lr11xx_wifi.c ****     if( regulator == LR11XX_SYSTEM_REG_MODE_LDO )
 1889              		.loc 1 574 7
 1890 00c0 FB79     		ldrb	r3, [r7, #7]	@ zero_extendqisi2
 1891 00c2 002B     		cmp	r3, #0
 1892 00c4 05D1     		bne	.L51
 575:../../../../lr11xx/lr11xx_driver/src/lr11xx_wifi.c ****     {
 576:../../../../lr11xx/lr11xx_driver/src/lr11xx_wifi.c ****         wifi_scan_consumption_nah *= 2.0;
 1893              		.loc 1 576 35
 1894 00c6 D7ED037A 		vldr.32	s15, [r7, #12]
 1895 00ca 77EEA77A 		vadd.f32	s15, s15, s15
 1896 00ce C7ED037A 		vstr.32	s15, [r7, #12]
 1897              	.L51:
 577:../../../../lr11xx/lr11xx_driver/src/lr11xx_wifi.c ****     }
 578:../../../../lr11xx/lr11xx_driver/src/lr11xx_wifi.c **** 
 579:../../../../lr11xx/lr11xx_driver/src/lr11xx_wifi.c ****     return ( uint32_t ) wifi_scan_consumption_nah;
 1898              		.loc 1 579 12
 1899 00d2 D7ED037A 		vldr.32	s15, [r7, #12]
 1900 00d6 FCEEE77A 		vcvt.u32.f32	s15, s15
 1901              		.loc 1 579 12 is_stmt 0 discriminator 1
 1902 00da 17EE903A 		vmov	r3, s15	@ int
 580:../../../../lr11xx/lr11xx_driver/src/lr11xx_wifi.c **** }
 1903              		.loc 1 580 1 is_stmt 1
 1904 00de 1846     		mov	r0, r3
 1905 00e0 1037     		adds	r7, r7, #16
 1906              	.LCFI106:
 1907              		.cfi_def_cfa_offset 32
 1908 00e2 BD46     		mov	sp, r7
 1909              	.LCFI107:
 1910              		.cfi_def_cfa_register 13
 1911              		@ sp needed
 1912 00e4 BDE8B040 		pop	{r4, r5, r7, lr}
 1913              	.LCFI108:
 1914              		.cfi_restore 14
 1915              		.cfi_restore 7
 1916              		.cfi_restore 5
 1917              		.cfi_restore 4
 1918              		.cfi_def_cfa_offset 16
 1919 00e8 04B0     		add	sp, sp, #16
 1920              	.LCFI109:
 1921              		.cfi_def_cfa_offset 0
 1922 00ea 7047     		bx	lr
 1923              	.L54:
 1924 00ec AFF30080 		.align	3
 1925              	.L53:
 1926 00f0 00000080 		.word	-2147483648
 1927 00f4 74D2EA41 		.word	1105908340
ARM GAS  C:\msys64\tmp\ccFuKh1Y.s 			page 45


 1928 00f8 001B374B 		.word	1261902592
 1929 00fc 0024744A 		.word	1249125376
 1930              		.cfi_endproc
 1931              	.LFE21:
 1933              		.section	.text.lr11xx_wifi_read_results_helper,"ax",%progbits
 1934              		.align	1
 1935              		.syntax unified
 1936              		.thumb
 1937              		.thumb_func
 1939              	lr11xx_wifi_read_results_helper:
 1940              	.LFB22:
 581:../../../../lr11xx/lr11xx_driver/src/lr11xx_wifi.c **** 
 582:../../../../lr11xx/lr11xx_driver/src/lr11xx_wifi.c **** /*
 583:../../../../lr11xx/lr11xx_driver/src/lr11xx_wifi.c ****  * -----------------------------------------------------------------------------
 584:../../../../lr11xx/lr11xx_driver/src/lr11xx_wifi.c ****  * --- PRIVATE FUNCTIONS DEFINITION --------------------------------------------
 585:../../../../lr11xx/lr11xx_driver/src/lr11xx_wifi.c ****  */
 586:../../../../lr11xx/lr11xx_driver/src/lr11xx_wifi.c **** 
 587:../../../../lr11xx/lr11xx_driver/src/lr11xx_wifi.c **** static lr11xx_hal_status_t lr11xx_wifi_read_results_helper( const void* context, const uint8_t star
 588:../../../../lr11xx/lr11xx_driver/src/lr11xx_wifi.c ****                                                             const uint8_t n_elem, uint8_t* buffer,
 589:../../../../lr11xx/lr11xx_driver/src/lr11xx_wifi.c ****                                                             const lr11xx_wifi_result_format_t resul
 590:../../../../lr11xx/lr11xx_driver/src/lr11xx_wifi.c **** {
 1941              		.loc 1 590 1
 1942              		.cfi_startproc
 1943              		@ args = 4, pretend = 0, frame = 32
 1944              		@ frame_needed = 1, uses_anonymous_args = 0
 1945 0000 80B5     		push	{r7, lr}
 1946              	.LCFI110:
 1947              		.cfi_def_cfa_offset 8
 1948              		.cfi_offset 7, -8
 1949              		.cfi_offset 14, -4
 1950 0002 8AB0     		sub	sp, sp, #40
 1951              	.LCFI111:
 1952              		.cfi_def_cfa_offset 48
 1953 0004 02AF     		add	r7, sp, #8
 1954              	.LCFI112:
 1955              		.cfi_def_cfa 7, 40
 1956 0006 F860     		str	r0, [r7, #12]
 1957 0008 7B60     		str	r3, [r7, #4]
 1958 000a 0B46     		mov	r3, r1
 1959 000c FB72     		strb	r3, [r7, #11]
 1960 000e 1346     		mov	r3, r2
 1961 0010 BB72     		strb	r3, [r7, #10]
 591:../../../../lr11xx/lr11xx_driver/src/lr11xx_wifi.c ****     const uint8_t  size_single_elem   = lr11xx_wifi_get_result_size_from_format( result_format );
 1962              		.loc 1 591 41
 1963 0012 97F82830 		ldrb	r3, [r7, #40]	@ zero_extendqisi2
 1964 0016 1846     		mov	r0, r3
 1965 0018 FFF7FEFF 		bl	lr11xx_wifi_get_result_size_from_format
 1966 001c 0346     		mov	r3, r0
 1967 001e FB77     		strb	r3, [r7, #31]
 592:../../../../lr11xx/lr11xx_driver/src/lr11xx_wifi.c ****     const uint8_t  result_format_code = lr11xx_wifi_get_format_code( result_format );
 1968              		.loc 1 592 41
 1969 0020 97F82830 		ldrb	r3, [r7, #40]	@ zero_extendqisi2
 1970 0024 1846     		mov	r0, r3
 1971 0026 FFF7FEFF 		bl	lr11xx_wifi_get_format_code
 1972 002a 0346     		mov	r3, r0
 1973 002c BB77     		strb	r3, [r7, #30]
 593:../../../../lr11xx/lr11xx_driver/src/lr11xx_wifi.c ****     const uint8_t  cbuffer[LR11XX_WIFI_READ_RESULT_CMD_LENGTH] = { ( uint8_t ) ( LR11XX_WIFI_READ_R
ARM GAS  C:\msys64\tmp\ccFuKh1Y.s 			page 46


 1974              		.loc 1 593 20
 1975 002e 0323     		movs	r3, #3
 1976 0030 3B75     		strb	r3, [r7, #20]
 1977 0032 0623     		movs	r3, #6
 1978 0034 7B75     		strb	r3, [r7, #21]
 1979 0036 FB7A     		ldrb	r3, [r7, #11]
 1980 0038 BB75     		strb	r3, [r7, #22]
 1981 003a BB7A     		ldrb	r3, [r7, #10]
 1982 003c FB75     		strb	r3, [r7, #23]
 1983 003e BB7F     		ldrb	r3, [r7, #30]
 1984 0040 3B76     		strb	r3, [r7, #24]
 594:../../../../lr11xx/lr11xx_driver/src/lr11xx_wifi.c ****                                                                   ( uint8_t ) ( LR11XX_WIFI_READ_RE
 595:../../../../lr11xx/lr11xx_driver/src/lr11xx_wifi.c ****                                                                   start_index, n_elem, result_forma
 596:../../../../lr11xx/lr11xx_driver/src/lr11xx_wifi.c ****     const uint16_t size_total                                  = n_elem * size_single_elem;
 1985              		.loc 1 596 73
 1986 0042 BB7A     		ldrb	r3, [r7, #10]	@ zero_extendqisi2
 1987 0044 9AB2     		uxth	r2, r3
 1988 0046 FB7F     		ldrb	r3, [r7, #31]	@ zero_extendqisi2
 1989 0048 9BB2     		uxth	r3, r3
 1990              		.loc 1 596 20
 1991 004a 12FB03F3 		smulbb	r3, r2, r3
 1992 004e BB83     		strh	r3, [r7, #28]	@ movhi
 597:../../../../lr11xx/lr11xx_driver/src/lr11xx_wifi.c ****     return lr11xx_hal_read( context, cbuffer, LR11XX_WIFI_READ_RESULT_CMD_LENGTH, buffer, size_tota
 1993              		.loc 1 597 12
 1994 0050 07F11401 		add	r1, r7, #20
 1995 0054 BB8B     		ldrh	r3, [r7, #28]
 1996 0056 0093     		str	r3, [sp]
 1997 0058 7B68     		ldr	r3, [r7, #4]
 1998 005a 0522     		movs	r2, #5
 1999 005c F868     		ldr	r0, [r7, #12]
 2000 005e FFF7FEFF 		bl	lr11xx_hal_read
 2001 0062 0346     		mov	r3, r0
 598:../../../../lr11xx/lr11xx_driver/src/lr11xx_wifi.c **** }
 2002              		.loc 1 598 1
 2003 0064 1846     		mov	r0, r3
 2004 0066 2037     		adds	r7, r7, #32
 2005              	.LCFI113:
 2006              		.cfi_def_cfa_offset 8
 2007 0068 BD46     		mov	sp, r7
 2008              	.LCFI114:
 2009              		.cfi_def_cfa_register 13
 2010              		@ sp needed
 2011 006a 80BD     		pop	{r7, pc}
 2012              		.cfi_endproc
 2013              	.LFE22:
 2015              		.section	.text.uint16_from_array,"ax",%progbits
 2016              		.align	1
 2017              		.syntax unified
 2018              		.thumb
 2019              		.thumb_func
 2021              	uint16_from_array:
 2022              	.LFB23:
 599:../../../../lr11xx/lr11xx_driver/src/lr11xx_wifi.c **** 
 600:../../../../lr11xx/lr11xx_driver/src/lr11xx_wifi.c **** static uint16_t uint16_from_array( const uint8_t* array, const uint16_t index )
 601:../../../../lr11xx/lr11xx_driver/src/lr11xx_wifi.c **** {
 2023              		.loc 1 601 1
 2024              		.cfi_startproc
ARM GAS  C:\msys64\tmp\ccFuKh1Y.s 			page 47


 2025              		@ args = 0, pretend = 0, frame = 8
 2026              		@ frame_needed = 1, uses_anonymous_args = 0
 2027              		@ link register save eliminated.
 2028 0000 80B4     		push	{r7}
 2029              	.LCFI115:
 2030              		.cfi_def_cfa_offset 4
 2031              		.cfi_offset 7, -4
 2032 0002 83B0     		sub	sp, sp, #12
 2033              	.LCFI116:
 2034              		.cfi_def_cfa_offset 16
 2035 0004 00AF     		add	r7, sp, #0
 2036              	.LCFI117:
 2037              		.cfi_def_cfa_register 7
 2038 0006 7860     		str	r0, [r7, #4]
 2039 0008 0B46     		mov	r3, r1
 2040 000a 7B80     		strh	r3, [r7, #2]	@ movhi
 602:../../../../lr11xx/lr11xx_driver/src/lr11xx_wifi.c ****     return ( uint16_t ) ( array[index] << 8 ) + ( ( uint16_t ) ( array[index + 1] ) );
 2041              		.loc 1 602 32
 2042 000c 7B88     		ldrh	r3, [r7, #2]
 2043 000e 7A68     		ldr	r2, [r7, #4]
 2044 0010 1344     		add	r3, r3, r2
 2045 0012 1B78     		ldrb	r3, [r3]	@ zero_extendqisi2
 2046              		.loc 1 602 12
 2047 0014 1B02     		lsls	r3, r3, #8
 2048 0016 9BB2     		uxth	r3, r3
 2049              		.loc 1 602 71
 2050 0018 7A88     		ldrh	r2, [r7, #2]
 2051 001a 0132     		adds	r2, r2, #1
 2052 001c 7968     		ldr	r1, [r7, #4]
 2053 001e 0A44     		add	r2, r2, r1
 2054 0020 1278     		ldrb	r2, [r2]	@ zero_extendqisi2
 2055              		.loc 1 602 47
 2056 0022 1344     		add	r3, r3, r2
 2057 0024 9BB2     		uxth	r3, r3
 603:../../../../lr11xx/lr11xx_driver/src/lr11xx_wifi.c **** }
 2058              		.loc 1 603 1
 2059 0026 1846     		mov	r0, r3
 2060 0028 0C37     		adds	r7, r7, #12
 2061              	.LCFI118:
 2062              		.cfi_def_cfa_offset 4
 2063 002a BD46     		mov	sp, r7
 2064              	.LCFI119:
 2065              		.cfi_def_cfa_register 13
 2066              		@ sp needed
 2067 002c 5DF8047B 		ldr	r7, [sp], #4
 2068              	.LCFI120:
 2069              		.cfi_restore 7
 2070              		.cfi_def_cfa_offset 0
 2071 0030 7047     		bx	lr
 2072              		.cfi_endproc
 2073              	.LFE23:
 2075              		.section	.text.uint64_from_array,"ax",%progbits
 2076              		.align	1
 2077              		.syntax unified
 2078              		.thumb
 2079              		.thumb_func
 2081              	uint64_from_array:
ARM GAS  C:\msys64\tmp\ccFuKh1Y.s 			page 48


 2082              	.LFB24:
 604:../../../../lr11xx/lr11xx_driver/src/lr11xx_wifi.c **** 
 605:../../../../lr11xx/lr11xx_driver/src/lr11xx_wifi.c **** static uint64_t uint64_from_array( const uint8_t* array, const uint16_t index )
 606:../../../../lr11xx/lr11xx_driver/src/lr11xx_wifi.c **** {
 2083              		.loc 1 606 1
 2084              		.cfi_startproc
 2085              		@ args = 0, pretend = 0, frame = 112
 2086              		@ frame_needed = 1, uses_anonymous_args = 0
 2087              		@ link register save eliminated.
 2088 0000 2DE9F00F 		push	{r4, r5, r6, r7, r8, r9, r10, fp}
 2089              	.LCFI121:
 2090              		.cfi_def_cfa_offset 32
 2091              		.cfi_offset 4, -32
 2092              		.cfi_offset 5, -28
 2093              		.cfi_offset 6, -24
 2094              		.cfi_offset 7, -20
 2095              		.cfi_offset 8, -16
 2096              		.cfi_offset 9, -12
 2097              		.cfi_offset 10, -8
 2098              		.cfi_offset 11, -4
 2099 0004 9CB0     		sub	sp, sp, #112
 2100              	.LCFI122:
 2101              		.cfi_def_cfa_offset 144
 2102 0006 00AF     		add	r7, sp, #0
 2103              	.LCFI123:
 2104              		.cfi_def_cfa_register 7
 2105 0008 F866     		str	r0, [r7, #108]
 2106 000a 0B46     		mov	r3, r1
 2107 000c A7F86A30 		strh	r3, [r7, #106]	@ movhi
 607:../../../../lr11xx/lr11xx_driver/src/lr11xx_wifi.c ****     return ( ( uint64_t ) ( array[index] ) << 56 ) + ( ( uint64_t ) ( array[index + 1] ) << 48 ) +
 2108              		.loc 1 607 34
 2109 0010 B7F86A20 		ldrh	r2, [r7, #106]
 2110 0014 FB6E     		ldr	r3, [r7, #108]
 2111 0016 1344     		add	r3, r3, r2
 2112 0018 1B78     		ldrb	r3, [r3]	@ zero_extendqisi2
 2113              		.loc 1 607 14
 2114 001a DBB2     		uxtb	r3, r3
 2115 001c 0022     		movs	r2, #0
 2116 001e 3B66     		str	r3, [r7, #96]
 2117 0020 7A66     		str	r2, [r7, #100]
 2118              		.loc 1 607 44
 2119 0022 4FF00000 		mov	r0, #0
 2120 0026 4FF00001 		mov	r1, #0
 2121 002a 3B6E     		ldr	r3, [r7, #96]
 2122 002c 1906     		lsls	r1, r3, #24
 2123 002e 0020     		movs	r0, #0
 2124              		.loc 1 607 76
 2125 0030 B7F86A30 		ldrh	r3, [r7, #106]
 2126 0034 5A1C     		adds	r2, r3, #1
 2127 0036 FB6E     		ldr	r3, [r7, #108]
 2128 0038 1344     		add	r3, r3, r2
 2129 003a 1B78     		ldrb	r3, [r3]	@ zero_extendqisi2
 2130              		.loc 1 607 56
 2131 003c DBB2     		uxtb	r3, r3
 2132 003e 0022     		movs	r2, #0
 2133 0040 BB65     		str	r3, [r7, #88]
 2134 0042 FA65     		str	r2, [r7, #92]
ARM GAS  C:\msys64\tmp\ccFuKh1Y.s 			page 49


 2135              		.loc 1 607 90
 2136 0044 4FF00002 		mov	r2, #0
 2137 0048 4FF00003 		mov	r3, #0
 2138 004c BE6D     		ldr	r6, [r7, #88]
 2139 004e 3304     		lsls	r3, r6, #16
 2140 0050 0022     		movs	r2, #0
 2141              		.loc 1 607 52
 2142 0052 8418     		adds	r4, r0, r2
 2143 0054 41EB0305 		adc	r5, r1, r3
 608:../../../../lr11xx/lr11xx_driver/src/lr11xx_wifi.c ****            ( ( uint64_t ) ( array[index + 2] ) << 40 ) + ( ( uint64_t ) ( array[index + 3] ) << 32 
 2144              		.loc 1 608 34
 2145 0058 B7F86A30 		ldrh	r3, [r7, #106]
 2146 005c 9A1C     		adds	r2, r3, #2
 2147 005e FB6E     		ldr	r3, [r7, #108]
 2148 0060 1344     		add	r3, r3, r2
 2149 0062 1B78     		ldrb	r3, [r3]	@ zero_extendqisi2
 2150              		.loc 1 608 14
 2151 0064 DBB2     		uxtb	r3, r3
 2152 0066 0022     		movs	r2, #0
 2153 0068 3B65     		str	r3, [r7, #80]
 2154 006a 7A65     		str	r2, [r7, #84]
 2155              		.loc 1 608 48
 2156 006c 4FF00002 		mov	r2, #0
 2157 0070 4FF00003 		mov	r3, #0
 2158 0074 396D     		ldr	r1, [r7, #80]
 2159 0076 0B02     		lsls	r3, r1, #8
 2160 0078 0022     		movs	r2, #0
 607:../../../../lr11xx/lr11xx_driver/src/lr11xx_wifi.c ****     return ( ( uint64_t ) ( array[index] ) << 56 ) + ( ( uint64_t ) ( array[index + 1] ) << 48 ) +
 2161              		.loc 1 607 98
 2162 007a 14EB0208 		adds	r8, r4, r2
 2163 007e 45EB0309 		adc	r9, r5, r3
 2164              		.loc 1 608 80
 2165 0082 B7F86A30 		ldrh	r3, [r7, #106]
 2166 0086 DA1C     		adds	r2, r3, #3
 2167 0088 FB6E     		ldr	r3, [r7, #108]
 2168 008a 1344     		add	r3, r3, r2
 2169 008c 1B78     		ldrb	r3, [r3]	@ zero_extendqisi2
 2170              		.loc 1 608 60
 2171 008e DBB2     		uxtb	r3, r3
 2172 0090 0022     		movs	r2, #0
 2173 0092 BB64     		str	r3, [r7, #72]
 2174 0094 FA64     		str	r2, [r7, #76]
 2175              		.loc 1 608 94
 2176 0096 4FF00002 		mov	r2, #0
 2177 009a 4FF00003 		mov	r3, #0
 2178 009e B96C     		ldr	r1, [r7, #72]
 2179 00a0 0B00     		movs	r3, r1
 2180 00a2 0022     		movs	r2, #0
 2181              		.loc 1 608 56
 2182 00a4 18EB0201 		adds	r1, r8, r2
 2183 00a8 3964     		str	r1, [r7, #64]
 2184 00aa 49EB0303 		adc	r3, r9, r3
 2185 00ae 7B64     		str	r3, [r7, #68]
 609:../../../../lr11xx/lr11xx_driver/src/lr11xx_wifi.c ****            ( ( uint64_t ) ( array[index + 4] ) << 24 ) + ( ( uint64_t ) ( array[index + 5] ) << 16 
 2186              		.loc 1 609 34
 2187 00b0 B7F86A30 		ldrh	r3, [r7, #106]
 2188 00b4 1A1D     		adds	r2, r3, #4
ARM GAS  C:\msys64\tmp\ccFuKh1Y.s 			page 50


 2189 00b6 FB6E     		ldr	r3, [r7, #108]
 2190 00b8 1344     		add	r3, r3, r2
 2191 00ba 1B78     		ldrb	r3, [r3]	@ zero_extendqisi2
 2192              		.loc 1 609 14
 2193 00bc DBB2     		uxtb	r3, r3
 2194 00be 0022     		movs	r2, #0
 2195 00c0 BB63     		str	r3, [r7, #56]
 2196 00c2 FA63     		str	r2, [r7, #60]
 2197              		.loc 1 609 48
 2198 00c4 D7E90E12 		ldrd	r1, [r7, #56]
 2199 00c8 0B46     		mov	r3, r1
 2200 00ca 4FEA132B 		lsr	fp, r3, #8
 2201 00ce 0B46     		mov	r3, r1
 2202 00d0 4FEA036A 		lsl	r10, r3, #24
 608:../../../../lr11xx/lr11xx_driver/src/lr11xx_wifi.c ****            ( ( uint64_t ) ( array[index + 2] ) << 40 ) + ( ( uint64_t ) ( array[index + 3] ) << 32 
 2203              		.loc 1 608 102
 2204 00d4 D7E91012 		ldrd	r1, [r7, #64]
 2205 00d8 0B46     		mov	r3, r1
 2206 00da 13EB0A03 		adds	r3, r3, r10
 2207 00de 3B63     		str	r3, [r7, #48]
 2208 00e0 1346     		mov	r3, r2
 2209 00e2 43EB0B03 		adc	r3, r3, fp
 2210 00e6 7B63     		str	r3, [r7, #52]
 2211              		.loc 1 609 80
 2212 00e8 B7F86A30 		ldrh	r3, [r7, #106]
 2213 00ec 5A1D     		adds	r2, r3, #5
 2214 00ee FB6E     		ldr	r3, [r7, #108]
 2215 00f0 1344     		add	r3, r3, r2
 2216 00f2 1B78     		ldrb	r3, [r3]	@ zero_extendqisi2
 2217              		.loc 1 609 60
 2218 00f4 DBB2     		uxtb	r3, r3
 2219 00f6 0022     		movs	r2, #0
 2220 00f8 BB62     		str	r3, [r7, #40]
 2221 00fa FA62     		str	r2, [r7, #44]
 2222              		.loc 1 609 94
 2223 00fc 4FF00002 		mov	r2, #0
 2224 0100 4FF00003 		mov	r3, #0
 2225 0104 D7E90A45 		ldrd	r4, [r7, #40]
 2226 0108 2946     		mov	r1, r5
 2227 010a 0B04     		lsls	r3, r1, #16
 2228 010c 2146     		mov	r1, r4
 2229 010e 43EA1143 		orr	r3, r3, r1, lsr #16
 2230 0112 2146     		mov	r1, r4
 2231 0114 0A04     		lsls	r2, r1, #16
 2232              		.loc 1 609 56
 2233 0116 D7E90C45 		ldrd	r4, [r7, #48]
 2234 011a 2146     		mov	r1, r4
 2235 011c 8918     		adds	r1, r1, r2
 2236 011e 3962     		str	r1, [r7, #32]
 2237 0120 2946     		mov	r1, r5
 2238 0122 43EB0101 		adc	r1, r3, r1
 2239 0126 7962     		str	r1, [r7, #36]
 610:../../../../lr11xx/lr11xx_driver/src/lr11xx_wifi.c ****            ( ( uint64_t ) ( array[index + 6] ) << 8 ) + ( uint64_t ) ( array[index + 7] );
 2240              		.loc 1 610 34
 2241 0128 B7F86A30 		ldrh	r3, [r7, #106]
 2242 012c 0633     		adds	r3, r3, #6
 2243 012e FA6E     		ldr	r2, [r7, #108]
ARM GAS  C:\msys64\tmp\ccFuKh1Y.s 			page 51


 2244 0130 1344     		add	r3, r3, r2
 2245 0132 1B78     		ldrb	r3, [r3]	@ zero_extendqisi2
 2246              		.loc 1 610 14
 2247 0134 DBB2     		uxtb	r3, r3
 2248 0136 0022     		movs	r2, #0
 2249 0138 BB61     		str	r3, [r7, #24]
 2250 013a FA61     		str	r2, [r7, #28]
 2251              		.loc 1 610 48
 2252 013c 4FF00002 		mov	r2, #0
 2253 0140 4FF00003 		mov	r3, #0
 2254 0144 D7E90645 		ldrd	r4, [r7, #24]
 2255 0148 2946     		mov	r1, r5
 2256 014a 0B02     		lsls	r3, r1, #8
 2257 014c 2146     		mov	r1, r4
 2258 014e 43EA1163 		orr	r3, r3, r1, lsr #24
 2259 0152 2146     		mov	r1, r4
 2260 0154 0A02     		lsls	r2, r1, #8
 609:../../../../lr11xx/lr11xx_driver/src/lr11xx_wifi.c ****            ( ( uint64_t ) ( array[index + 4] ) << 24 ) + ( ( uint64_t ) ( array[index + 5] ) << 16 
 2261              		.loc 1 609 102
 2262 0156 D7E90845 		ldrd	r4, [r7, #32]
 2263 015a 2146     		mov	r1, r4
 2264 015c 8918     		adds	r1, r1, r2
 2265 015e 3961     		str	r1, [r7, #16]
 2266 0160 2946     		mov	r1, r5
 2267 0162 43EB0101 		adc	r1, r3, r1
 2268 0166 7961     		str	r1, [r7, #20]
 2269              		.loc 1 610 77
 2270 0168 B7F86A30 		ldrh	r3, [r7, #106]
 2271 016c 0733     		adds	r3, r3, #7
 2272 016e FA6E     		ldr	r2, [r7, #108]
 2273 0170 1344     		add	r3, r3, r2
 2274 0172 1B78     		ldrb	r3, [r3]	@ zero_extendqisi2
 2275              		.loc 1 610 57
 2276 0174 DBB2     		uxtb	r3, r3
 2277 0176 0022     		movs	r2, #0
 2278 0178 BB60     		str	r3, [r7, #8]
 2279 017a FA60     		str	r2, [r7, #12]
 2280              		.loc 1 610 55
 2281 017c D7E90445 		ldrd	r4, [r7, #16]
 2282 0180 2346     		mov	r3, r4
 2283 0182 D7E90201 		ldrd	r0, [r7, #8]
 2284 0186 0246     		mov	r2, r0
 2285 0188 9B18     		adds	r3, r3, r2
 2286 018a 3B60     		str	r3, [r7]
 2287 018c 0B46     		mov	r3, r1
 2288 018e 2A46     		mov	r2, r5
 2289 0190 42EB0303 		adc	r3, r2, r3
 2290 0194 7B60     		str	r3, [r7, #4]
 2291              		.loc 1 610 55 is_stmt 0 discriminator 1
 2292 0196 D7E90023 		ldrd	r2, [r7]
 611:../../../../lr11xx/lr11xx_driver/src/lr11xx_wifi.c **** }
 2293              		.loc 1 611 1 is_stmt 1
 2294 019a 1046     		mov	r0, r2
 2295 019c 1946     		mov	r1, r3
 2296 019e 7037     		adds	r7, r7, #112
 2297              	.LCFI124:
 2298              		.cfi_def_cfa_offset 32
ARM GAS  C:\msys64\tmp\ccFuKh1Y.s 			page 52


 2299 01a0 BD46     		mov	sp, r7
 2300              	.LCFI125:
 2301              		.cfi_def_cfa_register 13
 2302              		@ sp needed
 2303 01a2 BDE8F00F 		pop	{r4, r5, r6, r7, r8, r9, r10, fp}
 2304              	.LCFI126:
 2305              		.cfi_restore 11
 2306              		.cfi_restore 10
 2307              		.cfi_restore 9
 2308              		.cfi_restore 8
 2309              		.cfi_restore 7
 2310              		.cfi_restore 6
 2311              		.cfi_restore 5
 2312              		.cfi_restore 4
 2313              		.cfi_def_cfa_offset 0
 2314 01a6 7047     		bx	lr
 2315              		.cfi_endproc
 2316              	.LFE24:
 2318              		.section	.text.lr11xx_wifi_read_mac_address_from_buffer,"ax",%progbits
 2319              		.align	1
 2320              		.syntax unified
 2321              		.thumb
 2322              		.thumb_func
 2324              	lr11xx_wifi_read_mac_address_from_buffer:
 2325              	.LFB25:
 612:../../../../lr11xx/lr11xx_driver/src/lr11xx_wifi.c **** 
 613:../../../../lr11xx/lr11xx_driver/src/lr11xx_wifi.c **** static void lr11xx_wifi_read_mac_address_from_buffer( const uint8_t* buffer, const uint16_t index_i
 614:../../../../lr11xx/lr11xx_driver/src/lr11xx_wifi.c ****                                                       lr11xx_wifi_mac_address_t mac_address )
 615:../../../../lr11xx/lr11xx_driver/src/lr11xx_wifi.c **** {
 2326              		.loc 1 615 1
 2327              		.cfi_startproc
 2328              		@ args = 0, pretend = 0, frame = 24
 2329              		@ frame_needed = 1, uses_anonymous_args = 0
 2330              		@ link register save eliminated.
 2331 0000 80B4     		push	{r7}
 2332              	.LCFI127:
 2333              		.cfi_def_cfa_offset 4
 2334              		.cfi_offset 7, -4
 2335 0002 87B0     		sub	sp, sp, #28
 2336              	.LCFI128:
 2337              		.cfi_def_cfa_offset 32
 2338 0004 00AF     		add	r7, sp, #0
 2339              	.LCFI129:
 2340              		.cfi_def_cfa_register 7
 2341 0006 F860     		str	r0, [r7, #12]
 2342 0008 0B46     		mov	r3, r1
 2343 000a 7A60     		str	r2, [r7, #4]
 2344 000c 7B81     		strh	r3, [r7, #10]	@ movhi
 2345              	.LBB5:
 616:../../../../lr11xx/lr11xx_driver/src/lr11xx_wifi.c ****     for( uint8_t field_mac_index = 0; field_mac_index < LR11XX_WIFI_MAC_ADDRESS_LENGTH; field_mac_i
 2346              		.loc 1 616 18
 2347 000e 0023     		movs	r3, #0
 2348 0010 FB75     		strb	r3, [r7, #23]
 2349              		.loc 1 616 5
 2350 0012 0DE0     		b	.L62
 2351              	.L63:
 617:../../../../lr11xx/lr11xx_driver/src/lr11xx_wifi.c ****     {
ARM GAS  C:\msys64\tmp\ccFuKh1Y.s 			page 53


 618:../../../../lr11xx/lr11xx_driver/src/lr11xx_wifi.c ****         mac_address[field_mac_index] = buffer[index_in_buffer + field_mac_index];
 2352              		.loc 1 618 63
 2353 0014 7A89     		ldrh	r2, [r7, #10]
 2354 0016 FB7D     		ldrb	r3, [r7, #23]	@ zero_extendqisi2
 2355 0018 1344     		add	r3, r3, r2
 2356 001a 1A46     		mov	r2, r3
 2357              		.loc 1 618 46
 2358 001c FB68     		ldr	r3, [r7, #12]
 2359 001e 1A44     		add	r2, r2, r3
 2360              		.loc 1 618 20
 2361 0020 FB7D     		ldrb	r3, [r7, #23]	@ zero_extendqisi2
 2362 0022 7968     		ldr	r1, [r7, #4]
 2363 0024 0B44     		add	r3, r3, r1
 2364              		.loc 1 618 46
 2365 0026 1278     		ldrb	r2, [r2]	@ zero_extendqisi2
 2366              		.loc 1 618 38
 2367 0028 1A70     		strb	r2, [r3]
 616:../../../../lr11xx/lr11xx_driver/src/lr11xx_wifi.c ****     for( uint8_t field_mac_index = 0; field_mac_index < LR11XX_WIFI_MAC_ADDRESS_LENGTH; field_mac_i
 2368              		.loc 1 616 104 discriminator 3
 2369 002a FB7D     		ldrb	r3, [r7, #23]	@ zero_extendqisi2
 2370 002c 0133     		adds	r3, r3, #1
 2371 002e FB75     		strb	r3, [r7, #23]
 2372              	.L62:
 616:../../../../lr11xx/lr11xx_driver/src/lr11xx_wifi.c ****     for( uint8_t field_mac_index = 0; field_mac_index < LR11XX_WIFI_MAC_ADDRESS_LENGTH; field_mac_i
 2373              		.loc 1 616 55 discriminator 1
 2374 0030 FB7D     		ldrb	r3, [r7, #23]	@ zero_extendqisi2
 2375 0032 052B     		cmp	r3, #5
 2376 0034 EED9     		bls	.L63
 2377              	.LBE5:
 619:../../../../lr11xx/lr11xx_driver/src/lr11xx_wifi.c ****     }
 620:../../../../lr11xx/lr11xx_driver/src/lr11xx_wifi.c **** }
 2378              		.loc 1 620 1
 2379 0036 00BF     		nop
 2380 0038 00BF     		nop
 2381 003a 1C37     		adds	r7, r7, #28
 2382              	.LCFI130:
 2383              		.cfi_def_cfa_offset 4
 2384 003c BD46     		mov	sp, r7
 2385              	.LCFI131:
 2386              		.cfi_def_cfa_register 13
 2387              		@ sp needed
 2388 003e 5DF8047B 		ldr	r7, [sp], #4
 2389              	.LCFI132:
 2390              		.cfi_restore 7
 2391              		.cfi_def_cfa_offset 0
 2392 0042 7047     		bx	lr
 2393              		.cfi_endproc
 2394              	.LFE25:
 2396              		.section	.text.lr11xx_wifi_get_format_code,"ax",%progbits
 2397              		.align	1
 2398              		.syntax unified
 2399              		.thumb
 2400              		.thumb_func
 2402              	lr11xx_wifi_get_format_code:
 2403              	.LFB26:
 621:../../../../lr11xx/lr11xx_driver/src/lr11xx_wifi.c **** 
 622:../../../../lr11xx/lr11xx_driver/src/lr11xx_wifi.c **** static uint8_t lr11xx_wifi_get_format_code( const lr11xx_wifi_result_format_t format )
ARM GAS  C:\msys64\tmp\ccFuKh1Y.s 			page 54


 623:../../../../lr11xx/lr11xx_driver/src/lr11xx_wifi.c **** {
 2404              		.loc 1 623 1
 2405              		.cfi_startproc
 2406              		@ args = 0, pretend = 0, frame = 16
 2407              		@ frame_needed = 1, uses_anonymous_args = 0
 2408              		@ link register save eliminated.
 2409 0000 80B4     		push	{r7}
 2410              	.LCFI133:
 2411              		.cfi_def_cfa_offset 4
 2412              		.cfi_offset 7, -4
 2413 0002 85B0     		sub	sp, sp, #20
 2414              	.LCFI134:
 2415              		.cfi_def_cfa_offset 24
 2416 0004 00AF     		add	r7, sp, #0
 2417              	.LCFI135:
 2418              		.cfi_def_cfa_register 7
 2419 0006 0346     		mov	r3, r0
 2420 0008 FB71     		strb	r3, [r7, #7]
 624:../../../../lr11xx/lr11xx_driver/src/lr11xx_wifi.c ****     uint8_t format_code = 0x00;
 2421              		.loc 1 624 13
 2422 000a 0023     		movs	r3, #0
 2423 000c FB73     		strb	r3, [r7, #15]
 625:../../../../lr11xx/lr11xx_driver/src/lr11xx_wifi.c ****     switch( format )
 2424              		.loc 1 625 5
 2425 000e FB79     		ldrb	r3, [r7, #7]	@ zero_extendqisi2
 2426 0010 022B     		cmp	r3, #2
 2427 0012 0CD0     		beq	.L65
 2428 0014 022B     		cmp	r3, #2
 2429 0016 0DDC     		bgt	.L66
 2430 0018 002B     		cmp	r3, #0
 2431 001a 02D0     		beq	.L67
 2432 001c 012B     		cmp	r3, #1
 2433 001e 03D0     		beq	.L68
 2434 0020 08E0     		b	.L66
 2435              	.L67:
 626:../../../../lr11xx/lr11xx_driver/src/lr11xx_wifi.c ****     {
 627:../../../../lr11xx/lr11xx_driver/src/lr11xx_wifi.c ****     case LR11XX_WIFI_RESULT_FORMAT_BASIC_COMPLETE:
 628:../../../../lr11xx/lr11xx_driver/src/lr11xx_wifi.c ****     {
 629:../../../../lr11xx/lr11xx_driver/src/lr11xx_wifi.c ****         format_code = 0x01;
 2436              		.loc 1 629 21
 2437 0022 0123     		movs	r3, #1
 2438 0024 FB73     		strb	r3, [r7, #15]
 630:../../../../lr11xx/lr11xx_driver/src/lr11xx_wifi.c ****         break;
 2439              		.loc 1 630 9
 2440 0026 05E0     		b	.L66
 2441              	.L68:
 631:../../../../lr11xx/lr11xx_driver/src/lr11xx_wifi.c ****     }
 632:../../../../lr11xx/lr11xx_driver/src/lr11xx_wifi.c ****     case LR11XX_WIFI_RESULT_FORMAT_BASIC_MAC_TYPE_CHANNEL:
 633:../../../../lr11xx/lr11xx_driver/src/lr11xx_wifi.c ****     {
 634:../../../../lr11xx/lr11xx_driver/src/lr11xx_wifi.c ****         format_code = 0x04;
 2442              		.loc 1 634 21
 2443 0028 0423     		movs	r3, #4
 2444 002a FB73     		strb	r3, [r7, #15]
 635:../../../../lr11xx/lr11xx_driver/src/lr11xx_wifi.c ****         break;
 2445              		.loc 1 635 9
 2446 002c 02E0     		b	.L66
 2447              	.L65:
ARM GAS  C:\msys64\tmp\ccFuKh1Y.s 			page 55


 636:../../../../lr11xx/lr11xx_driver/src/lr11xx_wifi.c ****     }
 637:../../../../lr11xx/lr11xx_driver/src/lr11xx_wifi.c ****     case LR11XX_WIFI_RESULT_FORMAT_EXTENDED_FULL:
 638:../../../../lr11xx/lr11xx_driver/src/lr11xx_wifi.c ****     {
 639:../../../../lr11xx/lr11xx_driver/src/lr11xx_wifi.c ****         format_code = 0x01;
 2448              		.loc 1 639 21
 2449 002e 0123     		movs	r3, #1
 2450 0030 FB73     		strb	r3, [r7, #15]
 640:../../../../lr11xx/lr11xx_driver/src/lr11xx_wifi.c ****         break;
 2451              		.loc 1 640 9
 2452 0032 00BF     		nop
 2453              	.L66:
 641:../../../../lr11xx/lr11xx_driver/src/lr11xx_wifi.c ****     }
 642:../../../../lr11xx/lr11xx_driver/src/lr11xx_wifi.c ****     }
 643:../../../../lr11xx/lr11xx_driver/src/lr11xx_wifi.c ****     return format_code;
 2454              		.loc 1 643 12
 2455 0034 FB7B     		ldrb	r3, [r7, #15]	@ zero_extendqisi2
 644:../../../../lr11xx/lr11xx_driver/src/lr11xx_wifi.c **** }
 2456              		.loc 1 644 1
 2457 0036 1846     		mov	r0, r3
 2458 0038 1437     		adds	r7, r7, #20
 2459              	.LCFI136:
 2460              		.cfi_def_cfa_offset 4
 2461 003a BD46     		mov	sp, r7
 2462              	.LCFI137:
 2463              		.cfi_def_cfa_register 13
 2464              		@ sp needed
 2465 003c 5DF8047B 		ldr	r7, [sp], #4
 2466              	.LCFI138:
 2467              		.cfi_restore 7
 2468              		.cfi_def_cfa_offset 0
 2469 0040 7047     		bx	lr
 2470              		.cfi_endproc
 2471              	.LFE26:
 2473              		.section	.text.lr11xx_wifi_get_result_size_from_format,"ax",%progbits
 2474              		.align	1
 2475              		.syntax unified
 2476              		.thumb
 2477              		.thumb_func
 2479              	lr11xx_wifi_get_result_size_from_format:
 2480              	.LFB27:
 645:../../../../lr11xx/lr11xx_driver/src/lr11xx_wifi.c **** 
 646:../../../../lr11xx/lr11xx_driver/src/lr11xx_wifi.c **** static uint8_t lr11xx_wifi_get_result_size_from_format( const lr11xx_wifi_result_format_t format )
 647:../../../../lr11xx/lr11xx_driver/src/lr11xx_wifi.c **** {
 2481              		.loc 1 647 1
 2482              		.cfi_startproc
 2483              		@ args = 0, pretend = 0, frame = 16
 2484              		@ frame_needed = 1, uses_anonymous_args = 0
 2485              		@ link register save eliminated.
 2486 0000 80B4     		push	{r7}
 2487              	.LCFI139:
 2488              		.cfi_def_cfa_offset 4
 2489              		.cfi_offset 7, -4
 2490 0002 85B0     		sub	sp, sp, #20
 2491              	.LCFI140:
 2492              		.cfi_def_cfa_offset 24
 2493 0004 00AF     		add	r7, sp, #0
 2494              	.LCFI141:
ARM GAS  C:\msys64\tmp\ccFuKh1Y.s 			page 56


 2495              		.cfi_def_cfa_register 7
 2496 0006 0346     		mov	r3, r0
 2497 0008 FB71     		strb	r3, [r7, #7]
 648:../../../../lr11xx/lr11xx_driver/src/lr11xx_wifi.c ****     uint8_t result_size = 0;
 2498              		.loc 1 648 13
 2499 000a 0023     		movs	r3, #0
 2500 000c FB73     		strb	r3, [r7, #15]
 649:../../../../lr11xx/lr11xx_driver/src/lr11xx_wifi.c ****     switch( format )
 2501              		.loc 1 649 5
 2502 000e FB79     		ldrb	r3, [r7, #7]	@ zero_extendqisi2
 2503 0010 022B     		cmp	r3, #2
 2504 0012 0CD0     		beq	.L71
 2505 0014 022B     		cmp	r3, #2
 2506 0016 0DDC     		bgt	.L72
 2507 0018 002B     		cmp	r3, #0
 2508 001a 02D0     		beq	.L73
 2509 001c 012B     		cmp	r3, #1
 2510 001e 03D0     		beq	.L74
 2511 0020 08E0     		b	.L72
 2512              	.L73:
 650:../../../../lr11xx/lr11xx_driver/src/lr11xx_wifi.c ****     {
 651:../../../../lr11xx/lr11xx_driver/src/lr11xx_wifi.c ****     case LR11XX_WIFI_RESULT_FORMAT_BASIC_COMPLETE:
 652:../../../../lr11xx/lr11xx_driver/src/lr11xx_wifi.c ****     {
 653:../../../../lr11xx/lr11xx_driver/src/lr11xx_wifi.c ****         result_size = LR11XX_WIFI_BASIC_COMPLETE_RESULT_SIZE;
 2513              		.loc 1 653 21
 2514 0022 1623     		movs	r3, #22
 2515 0024 FB73     		strb	r3, [r7, #15]
 654:../../../../lr11xx/lr11xx_driver/src/lr11xx_wifi.c ****         break;
 2516              		.loc 1 654 9
 2517 0026 05E0     		b	.L72
 2518              	.L74:
 655:../../../../lr11xx/lr11xx_driver/src/lr11xx_wifi.c ****     }
 656:../../../../lr11xx/lr11xx_driver/src/lr11xx_wifi.c ****     case LR11XX_WIFI_RESULT_FORMAT_BASIC_MAC_TYPE_CHANNEL:
 657:../../../../lr11xx/lr11xx_driver/src/lr11xx_wifi.c ****     {
 658:../../../../lr11xx/lr11xx_driver/src/lr11xx_wifi.c ****         result_size = LR11XX_WIFI_BASIC_MAC_TYPE_CHANNEL_RESULT_SIZE;
 2519              		.loc 1 658 21
 2520 0028 0923     		movs	r3, #9
 2521 002a FB73     		strb	r3, [r7, #15]
 659:../../../../lr11xx/lr11xx_driver/src/lr11xx_wifi.c ****         break;
 2522              		.loc 1 659 9
 2523 002c 02E0     		b	.L72
 2524              	.L71:
 660:../../../../lr11xx/lr11xx_driver/src/lr11xx_wifi.c ****     }
 661:../../../../lr11xx/lr11xx_driver/src/lr11xx_wifi.c ****     case LR11XX_WIFI_RESULT_FORMAT_EXTENDED_FULL:
 662:../../../../lr11xx/lr11xx_driver/src/lr11xx_wifi.c ****     {
 663:../../../../lr11xx/lr11xx_driver/src/lr11xx_wifi.c ****         result_size = LR11XX_WIFI_EXTENDED_COMPLETE_RESULT_SIZE;
 2525              		.loc 1 663 21
 2526 002e 4F23     		movs	r3, #79
 2527 0030 FB73     		strb	r3, [r7, #15]
 664:../../../../lr11xx/lr11xx_driver/src/lr11xx_wifi.c ****         break;
 2528              		.loc 1 664 9
 2529 0032 00BF     		nop
 2530              	.L72:
 665:../../../../lr11xx/lr11xx_driver/src/lr11xx_wifi.c ****     }
 666:../../../../lr11xx/lr11xx_driver/src/lr11xx_wifi.c ****     }
 667:../../../../lr11xx/lr11xx_driver/src/lr11xx_wifi.c ****     return result_size;
 2531              		.loc 1 667 12
ARM GAS  C:\msys64\tmp\ccFuKh1Y.s 			page 57


 2532 0034 FB7B     		ldrb	r3, [r7, #15]	@ zero_extendqisi2
 668:../../../../lr11xx/lr11xx_driver/src/lr11xx_wifi.c **** }
 2533              		.loc 1 668 1
 2534 0036 1846     		mov	r0, r3
 2535 0038 1437     		adds	r7, r7, #20
 2536              	.LCFI142:
 2537              		.cfi_def_cfa_offset 4
 2538 003a BD46     		mov	sp, r7
 2539              	.LCFI143:
 2540              		.cfi_def_cfa_register 13
 2541              		@ sp needed
 2542 003c 5DF8047B 		ldr	r7, [sp], #4
 2543              	.LCFI144:
 2544              		.cfi_restore 7
 2545              		.cfi_def_cfa_offset 0
 2546 0040 7047     		bx	lr
 2547              		.cfi_endproc
 2548              	.LFE27:
 2550              		.section	.text.fetch_and_aggregate_all_results,"ax",%progbits
 2551              		.align	1
 2552              		.syntax unified
 2553              		.thumb
 2554              		.thumb_func
 2556              	fetch_and_aggregate_all_results:
 2557              	.LFB28:
 669:../../../../lr11xx/lr11xx_driver/src/lr11xx_wifi.c **** 
 670:../../../../lr11xx/lr11xx_driver/src/lr11xx_wifi.c **** static lr11xx_status_t fetch_and_aggregate_all_results( const void* context, const uint8_t index_re
 671:../../../../lr11xx/lr11xx_driver/src/lr11xx_wifi.c ****                                                         const uint8_t                     nb_result
 672:../../../../lr11xx/lr11xx_driver/src/lr11xx_wifi.c ****                                                         const uint8_t                     nb_result
 673:../../../../lr11xx/lr11xx_driver/src/lr11xx_wifi.c ****                                                         const lr11xx_wifi_result_format_t result_fo
 674:../../../../lr11xx/lr11xx_driver/src/lr11xx_wifi.c ****                                                         uint8_t*                          result_bu
 675:../../../../lr11xx/lr11xx_driver/src/lr11xx_wifi.c ****                                                         lr11xx_wifi_result_interface_t    result_st
 676:../../../../lr11xx/lr11xx_driver/src/lr11xx_wifi.c **** {
 2558              		.loc 1 676 1
 2559              		.cfi_startproc
 2560              		@ args = 12, pretend = 0, frame = 24
 2561              		@ frame_needed = 1, uses_anonymous_args = 0
 2562 0000 90B5     		push	{r4, r7, lr}
 2563              	.LCFI145:
 2564              		.cfi_def_cfa_offset 12
 2565              		.cfi_offset 4, -12
 2566              		.cfi_offset 7, -8
 2567              		.cfi_offset 14, -4
 2568 0002 89B0     		sub	sp, sp, #36
 2569              	.LCFI146:
 2570              		.cfi_def_cfa_offset 48
 2571 0004 02AF     		add	r7, sp, #8
 2572              	.LCFI147:
 2573              		.cfi_def_cfa 7, 40
 2574 0006 7860     		str	r0, [r7, #4]
 2575 0008 0846     		mov	r0, r1
 2576 000a 1146     		mov	r1, r2
 2577 000c 1A46     		mov	r2, r3
 2578 000e 0346     		mov	r3, r0
 2579 0010 FB70     		strb	r3, [r7, #3]
 2580 0012 0B46     		mov	r3, r1
 2581 0014 BB70     		strb	r3, [r7, #2]
ARM GAS  C:\msys64\tmp\ccFuKh1Y.s 			page 58


 2582 0016 1346     		mov	r3, r2
 2583 0018 7B70     		strb	r3, [r7, #1]
 677:../../../../lr11xx/lr11xx_driver/src/lr11xx_wifi.c ****     uint8_t index_to_read              = index_result_start;
 2584              		.loc 1 677 13
 2585 001a FB78     		ldrb	r3, [r7, #3]
 2586 001c FB75     		strb	r3, [r7, #23]
 678:../../../../lr11xx/lr11xx_driver/src/lr11xx_wifi.c ****     uint8_t index_result_start_writing = 0;
 2587              		.loc 1 678 13
 2588 001e 0023     		movs	r3, #0
 2589 0020 BB75     		strb	r3, [r7, #22]
 679:../../../../lr11xx/lr11xx_driver/src/lr11xx_wifi.c ****     uint8_t remaining_results          = nb_results;
 2590              		.loc 1 679 13
 2591 0022 BB78     		ldrb	r3, [r7, #2]
 2592 0024 7B75     		strb	r3, [r7, #21]
 680:../../../../lr11xx/lr11xx_driver/src/lr11xx_wifi.c **** 
 681:../../../../lr11xx/lr11xx_driver/src/lr11xx_wifi.c ****     lr11xx_hal_status_t hal_status = LR11XX_HAL_STATUS_OK;
 2593              		.loc 1 681 25
 2594 0026 0023     		movs	r3, #0
 2595 0028 7B74     		strb	r3, [r7, #17]
 682:../../../../lr11xx/lr11xx_driver/src/lr11xx_wifi.c ****     while( remaining_results > 0 )
 2596              		.loc 1 682 10
 2597 002a 5EE0     		b	.L77
 2598              	.L84:
 2599              	.LBB6:
 683:../../../../lr11xx/lr11xx_driver/src/lr11xx_wifi.c ****     {
 684:../../../../lr11xx/lr11xx_driver/src/lr11xx_wifi.c ****         uint8_t results_to_read = MIN( remaining_results, nb_results_per_chunk_max );
 2600              		.loc 1 684 17
 2601 002c 7A7D     		ldrb	r2, [r7, #21]	@ zero_extendqisi2
 2602 002e 7B78     		ldrb	r3, [r7, #1]	@ zero_extendqisi2
 2603 0030 9342     		cmp	r3, r2
 2604 0032 28BF     		it	cs
 2605 0034 1346     		movcs	r3, r2
 2606 0036 3B74     		strb	r3, [r7, #16]
 685:../../../../lr11xx/lr11xx_driver/src/lr11xx_wifi.c **** 
 686:../../../../lr11xx/lr11xx_driver/src/lr11xx_wifi.c ****         lr11xx_hal_status_t local_hal_status = lr11xx_wifi_read_results_helper( context, index_to_r
 2607              		.loc 1 686 48
 2608 0038 3A7C     		ldrb	r2, [r7, #16]	@ zero_extendqisi2
 2609 003a F97D     		ldrb	r1, [r7, #23]	@ zero_extendqisi2
 2610 003c 97F82830 		ldrb	r3, [r7, #40]	@ zero_extendqisi2
 2611 0040 0093     		str	r3, [sp]
 2612 0042 FB6A     		ldr	r3, [r7, #44]
 2613 0044 7868     		ldr	r0, [r7, #4]
 2614 0046 FFF7FEFF 		bl	lr11xx_wifi_read_results_helper
 2615 004a 0346     		mov	r3, r0
 2616 004c FB73     		strb	r3, [r7, #15]
 687:../../../../lr11xx/lr11xx_driver/src/lr11xx_wifi.c ****                                                                                 result_buffer, resu
 688:../../../../lr11xx/lr11xx_driver/src/lr11xx_wifi.c ****         if( local_hal_status != LR11XX_HAL_STATUS_OK )
 2617              		.loc 1 688 11
 2618 004e FB7B     		ldrb	r3, [r7, #15]	@ zero_extendqisi2
 2619 0050 002B     		cmp	r3, #0
 2620 0052 01D0     		beq	.L78
 689:../../../../lr11xx/lr11xx_driver/src/lr11xx_wifi.c ****         {
 690:../../../../lr11xx/lr11xx_driver/src/lr11xx_wifi.c ****             return ( lr11xx_status_t ) local_hal_status;
 2621              		.loc 1 690 20
 2622 0054 FB7B     		ldrb	r3, [r7, #15]	@ zero_extendqisi2
 2623 0056 4CE0     		b	.L79
 2624              	.L78:
ARM GAS  C:\msys64\tmp\ccFuKh1Y.s 			page 59


 691:../../../../lr11xx/lr11xx_driver/src/lr11xx_wifi.c ****         }
 692:../../../../lr11xx/lr11xx_driver/src/lr11xx_wifi.c **** 
 693:../../../../lr11xx/lr11xx_driver/src/lr11xx_wifi.c ****         generic_results_interpreter( results_to_read, index_result_start_writing, result_buffer, re
 2625              		.loc 1 693 9
 2626 0058 B97D     		ldrb	r1, [r7, #22]	@ zero_extendqisi2
 2627 005a 387C     		ldrb	r0, [r7, #16]	@ zero_extendqisi2
 2628 005c 97F82830 		ldrb	r3, [r7, #40]	@ zero_extendqisi2
 2629 0060 0093     		str	r3, [sp]
 2630 0062 3B6B     		ldr	r3, [r7, #48]
 2631 0064 FA6A     		ldr	r2, [r7, #44]
 2632 0066 FFF7FEFF 		bl	generic_results_interpreter
 2633              	.LBB7:
 694:../../../../lr11xx/lr11xx_driver/src/lr11xx_wifi.c ****                                      result_format_code );
 695:../../../../lr11xx/lr11xx_driver/src/lr11xx_wifi.c **** 
 696:../../../../lr11xx/lr11xx_driver/src/lr11xx_wifi.c ****         // Reset the content of the result_buffer in case there are still results to fetch
 697:../../../../lr11xx/lr11xx_driver/src/lr11xx_wifi.c ****         {
 698:../../../../lr11xx/lr11xx_driver/src/lr11xx_wifi.c ****             const uint16_t result_buffer_size =
 699:../../../../lr11xx/lr11xx_driver/src/lr11xx_wifi.c ****                 LR11XX_WIFI_MAX_SIZE_PER_SPI( lr11xx_wifi_get_result_size_from_format( result_forma
 2634              		.loc 1 699 17
 2635 006a 97F82830 		ldrb	r3, [r7, #40]	@ zero_extendqisi2
 2636 006e 1846     		mov	r0, r3
 2637 0070 FFF7FEFF 		bl	lr11xx_wifi_get_result_size_from_format
 2638 0074 0346     		mov	r3, r0
 698:../../../../lr11xx/lr11xx_driver/src/lr11xx_wifi.c ****                 LR11XX_WIFI_MAX_SIZE_PER_SPI( lr11xx_wifi_get_result_size_from_format( result_forma
 2639              		.loc 1 698 28
 2640 0076 1C46     		mov	r4, r3
 2641              		.loc 1 699 17
 2642 0078 97F82830 		ldrb	r3, [r7, #40]	@ zero_extendqisi2
 2643 007c 1846     		mov	r0, r3
 2644 007e FFF7FEFF 		bl	lr11xx_wifi_get_result_size_from_format
 2645 0082 0346     		mov	r3, r0
 2646              		.loc 1 699 17 is_stmt 0 discriminator 1
 2647 0084 1A46     		mov	r2, r3
 2648 0086 4FF47F73 		mov	r3, #1020
 2649 008a 93FBF2F3 		sdiv	r3, r3, r2
 698:../../../../lr11xx/lr11xx_driver/src/lr11xx_wifi.c ****                 LR11XX_WIFI_MAX_SIZE_PER_SPI( lr11xx_wifi_get_result_size_from_format( result_forma
 2650              		.loc 1 698 28 is_stmt 1
 2651 008e 202B     		cmp	r3, #32
 2652 0090 0CDC     		bgt	.L80
 2653              		.loc 1 699 17
 2654 0092 97F82830 		ldrb	r3, [r7, #40]	@ zero_extendqisi2
 2655 0096 1846     		mov	r0, r3
 2656 0098 FFF7FEFF 		bl	lr11xx_wifi_get_result_size_from_format
 2657 009c 0346     		mov	r3, r0
 2658              		.loc 1 699 17 is_stmt 0 discriminator 1
 2659 009e 1A46     		mov	r2, r3
 2660 00a0 4FF47F73 		mov	r3, #1020
 2661 00a4 93FBF2F3 		sdiv	r3, r3, r2
 698:../../../../lr11xx/lr11xx_driver/src/lr11xx_wifi.c ****                 LR11XX_WIFI_MAX_SIZE_PER_SPI( lr11xx_wifi_get_result_size_from_format( result_forma
 2662              		.loc 1 698 28 is_stmt 1 discriminator 1
 2663 00a8 9BB2     		uxth	r3, r3
 2664 00aa 00E0     		b	.L81
 2665              	.L80:
 698:../../../../lr11xx/lr11xx_driver/src/lr11xx_wifi.c ****                 LR11XX_WIFI_MAX_SIZE_PER_SPI( lr11xx_wifi_get_result_size_from_format( result_forma
 2666              		.loc 1 698 28 is_stmt 0 discriminator 2
 2667 00ac 2023     		movs	r3, #32
 2668              	.L81:
ARM GAS  C:\msys64\tmp\ccFuKh1Y.s 			page 60


 698:../../../../lr11xx/lr11xx_driver/src/lr11xx_wifi.c ****                 LR11XX_WIFI_MAX_SIZE_PER_SPI( lr11xx_wifi_get_result_size_from_format( result_forma
 2669              		.loc 1 698 28 discriminator 4
 2670 00ae 13FB04F3 		smulbb	r3, r3, r4
 2671 00b2 BB81     		strh	r3, [r7, #12]	@ movhi
 2672              	.LBB8:
 700:../../../../lr11xx/lr11xx_driver/src/lr11xx_wifi.c ****             for( uint16_t index = 0; index < result_buffer_size; index++ )
 2673              		.loc 1 700 27 is_stmt 1
 2674 00b4 0023     		movs	r3, #0
 2675 00b6 7B82     		strh	r3, [r7, #18]	@ movhi
 2676              		.loc 1 700 13
 2677 00b8 07E0     		b	.L82
 2678              	.L83:
 701:../../../../lr11xx/lr11xx_driver/src/lr11xx_wifi.c ****             {
 702:../../../../lr11xx/lr11xx_driver/src/lr11xx_wifi.c ****                 result_buffer[index] = 0;
 2679              		.loc 1 702 30
 2680 00ba 7B8A     		ldrh	r3, [r7, #18]
 2681 00bc FA6A     		ldr	r2, [r7, #44]
 2682 00be 1344     		add	r3, r3, r2
 2683              		.loc 1 702 38
 2684 00c0 0022     		movs	r2, #0
 2685 00c2 1A70     		strb	r2, [r3]
 700:../../../../lr11xx/lr11xx_driver/src/lr11xx_wifi.c ****             for( uint16_t index = 0; index < result_buffer_size; index++ )
 2686              		.loc 1 700 71 discriminator 3
 2687 00c4 7B8A     		ldrh	r3, [r7, #18]
 2688 00c6 0133     		adds	r3, r3, #1
 2689 00c8 7B82     		strh	r3, [r7, #18]	@ movhi
 2690              	.L82:
 700:../../../../lr11xx/lr11xx_driver/src/lr11xx_wifi.c ****             for( uint16_t index = 0; index < result_buffer_size; index++ )
 2691              		.loc 1 700 44 discriminator 1
 2692 00ca 7A8A     		ldrh	r2, [r7, #18]
 2693 00cc BB89     		ldrh	r3, [r7, #12]
 2694 00ce 9A42     		cmp	r2, r3
 2695 00d0 F3D3     		bcc	.L83
 2696              	.LBE8:
 2697              	.LBE7:
 703:../../../../lr11xx/lr11xx_driver/src/lr11xx_wifi.c ****             }
 704:../../../../lr11xx/lr11xx_driver/src/lr11xx_wifi.c ****         }
 705:../../../../lr11xx/lr11xx_driver/src/lr11xx_wifi.c **** 
 706:../../../../lr11xx/lr11xx_driver/src/lr11xx_wifi.c ****         index_to_read += results_to_read;
 2698              		.loc 1 706 23
 2699 00d2 FA7D     		ldrb	r2, [r7, #23]
 2700 00d4 3B7C     		ldrb	r3, [r7, #16]
 2701 00d6 1344     		add	r3, r3, r2
 2702 00d8 FB75     		strb	r3, [r7, #23]
 707:../../../../lr11xx/lr11xx_driver/src/lr11xx_wifi.c ****         index_result_start_writing += results_to_read;
 2703              		.loc 1 707 36
 2704 00da BA7D     		ldrb	r2, [r7, #22]
 2705 00dc 3B7C     		ldrb	r3, [r7, #16]
 2706 00de 1344     		add	r3, r3, r2
 2707 00e0 BB75     		strb	r3, [r7, #22]
 708:../../../../lr11xx/lr11xx_driver/src/lr11xx_wifi.c ****         remaining_results -= results_to_read;
 2708              		.loc 1 708 27
 2709 00e2 7A7D     		ldrb	r2, [r7, #21]
 2710 00e4 3B7C     		ldrb	r3, [r7, #16]
 2711 00e6 D31A     		subs	r3, r2, r3
 2712 00e8 7B75     		strb	r3, [r7, #21]
 2713              	.L77:
ARM GAS  C:\msys64\tmp\ccFuKh1Y.s 			page 61


 2714              	.LBE6:
 682:../../../../lr11xx/lr11xx_driver/src/lr11xx_wifi.c ****     {
 2715              		.loc 1 682 30
 2716 00ea 7B7D     		ldrb	r3, [r7, #21]	@ zero_extendqisi2
 2717 00ec 002B     		cmp	r3, #0
 2718 00ee 9DD1     		bne	.L84
 709:../../../../lr11xx/lr11xx_driver/src/lr11xx_wifi.c ****     }
 710:../../../../lr11xx/lr11xx_driver/src/lr11xx_wifi.c ****     return ( lr11xx_status_t ) hal_status;
 2719              		.loc 1 710 12
 2720 00f0 7B7C     		ldrb	r3, [r7, #17]	@ zero_extendqisi2
 2721              	.L79:
 711:../../../../lr11xx/lr11xx_driver/src/lr11xx_wifi.c **** }
 2722              		.loc 1 711 1
 2723 00f2 1846     		mov	r0, r3
 2724 00f4 1C37     		adds	r7, r7, #28
 2725              	.LCFI148:
 2726              		.cfi_def_cfa_offset 12
 2727 00f6 BD46     		mov	sp, r7
 2728              	.LCFI149:
 2729              		.cfi_def_cfa_register 13
 2730              		@ sp needed
 2731 00f8 90BD     		pop	{r4, r7, pc}
 2732              		.cfi_endproc
 2733              	.LFE28:
 2735              		.section	.text.generic_results_interpreter,"ax",%progbits
 2736              		.align	1
 2737              		.syntax unified
 2738              		.thumb
 2739              		.thumb_func
 2741              	generic_results_interpreter:
 2742              	.LFB29:
 712:../../../../lr11xx/lr11xx_driver/src/lr11xx_wifi.c **** 
 713:../../../../lr11xx/lr11xx_driver/src/lr11xx_wifi.c **** static void generic_results_interpreter( const uint8_t n_result_to_parse, const uint8_t index_resul
 714:../../../../lr11xx/lr11xx_driver/src/lr11xx_wifi.c ****                                          const uint8_t* buffer, lr11xx_wifi_result_interface_t resu
 715:../../../../lr11xx/lr11xx_driver/src/lr11xx_wifi.c ****                                          const lr11xx_wifi_result_format_t format_code )
 716:../../../../lr11xx/lr11xx_driver/src/lr11xx_wifi.c **** {
 2743              		.loc 1 716 1
 2744              		.cfi_startproc
 2745              		@ args = 4, pretend = 0, frame = 16
 2746              		@ frame_needed = 1, uses_anonymous_args = 0
 2747 0000 80B5     		push	{r7, lr}
 2748              	.LCFI150:
 2749              		.cfi_def_cfa_offset 8
 2750              		.cfi_offset 7, -8
 2751              		.cfi_offset 14, -4
 2752 0002 84B0     		sub	sp, sp, #16
 2753              	.LCFI151:
 2754              		.cfi_def_cfa_offset 24
 2755 0004 00AF     		add	r7, sp, #0
 2756              	.LCFI152:
 2757              		.cfi_def_cfa_register 7
 2758 0006 BA60     		str	r2, [r7, #8]
 2759 0008 7B60     		str	r3, [r7, #4]
 2760 000a 0346     		mov	r3, r0
 2761 000c FB73     		strb	r3, [r7, #15]
 2762 000e 0B46     		mov	r3, r1
 2763 0010 BB73     		strb	r3, [r7, #14]
ARM GAS  C:\msys64\tmp\ccFuKh1Y.s 			page 62


 717:../../../../lr11xx/lr11xx_driver/src/lr11xx_wifi.c ****     switch( format_code )
 2764              		.loc 1 717 5
 2765 0012 3B7E     		ldrb	r3, [r7, #24]	@ zero_extendqisi2
 2766 0014 022B     		cmp	r3, #2
 2767 0016 14D0     		beq	.L86
 2768 0018 022B     		cmp	r3, #2
 2769 001a 19DC     		bgt	.L90
 2770 001c 002B     		cmp	r3, #0
 2771 001e 02D0     		beq	.L88
 2772 0020 012B     		cmp	r3, #1
 2773 0022 07D0     		beq	.L89
 718:../../../../lr11xx/lr11xx_driver/src/lr11xx_wifi.c ****     {
 719:../../../../lr11xx/lr11xx_driver/src/lr11xx_wifi.c ****     case LR11XX_WIFI_RESULT_FORMAT_BASIC_COMPLETE:
 720:../../../../lr11xx/lr11xx_driver/src/lr11xx_wifi.c ****     {
 721:../../../../lr11xx/lr11xx_driver/src/lr11xx_wifi.c ****         interpret_basic_complete_result_from_buffer( n_result_to_parse, index_result_start_writing,
 722:../../../../lr11xx/lr11xx_driver/src/lr11xx_wifi.c ****                                                      result_interface.basic_complete );
 723:../../../../lr11xx/lr11xx_driver/src/lr11xx_wifi.c ****         break;
 724:../../../../lr11xx/lr11xx_driver/src/lr11xx_wifi.c ****     }
 725:../../../../lr11xx/lr11xx_driver/src/lr11xx_wifi.c **** 
 726:../../../../lr11xx/lr11xx_driver/src/lr11xx_wifi.c ****     case LR11XX_WIFI_RESULT_FORMAT_BASIC_MAC_TYPE_CHANNEL:
 727:../../../../lr11xx/lr11xx_driver/src/lr11xx_wifi.c ****     {
 728:../../../../lr11xx/lr11xx_driver/src/lr11xx_wifi.c ****         interpret_basic_mac_type_channel_result_from_buffer( n_result_to_parse, index_result_start_
 729:../../../../lr11xx/lr11xx_driver/src/lr11xx_wifi.c ****                                                              result_interface.basic_mac_type_channe
 730:../../../../lr11xx/lr11xx_driver/src/lr11xx_wifi.c ****         break;
 731:../../../../lr11xx/lr11xx_driver/src/lr11xx_wifi.c ****     }
 732:../../../../lr11xx/lr11xx_driver/src/lr11xx_wifi.c **** 
 733:../../../../lr11xx/lr11xx_driver/src/lr11xx_wifi.c ****     case LR11XX_WIFI_RESULT_FORMAT_EXTENDED_FULL:
 734:../../../../lr11xx/lr11xx_driver/src/lr11xx_wifi.c ****     {
 735:../../../../lr11xx/lr11xx_driver/src/lr11xx_wifi.c ****         interpret_extended_full_result_from_buffer( n_result_to_parse, index_result_start_writing, 
 736:../../../../lr11xx/lr11xx_driver/src/lr11xx_wifi.c ****                                                     result_interface.extended_complete );
 737:../../../../lr11xx/lr11xx_driver/src/lr11xx_wifi.c ****         break;
 738:../../../../lr11xx/lr11xx_driver/src/lr11xx_wifi.c ****     }
 739:../../../../lr11xx/lr11xx_driver/src/lr11xx_wifi.c ****     }
 740:../../../../lr11xx/lr11xx_driver/src/lr11xx_wifi.c **** }
 2774              		.loc 1 740 1
 2775 0024 14E0     		b	.L90
 2776              	.L88:
 721:../../../../lr11xx/lr11xx_driver/src/lr11xx_wifi.c ****                                                      result_interface.basic_complete );
 2777              		.loc 1 721 9
 2778 0026 7B68     		ldr	r3, [r7, #4]
 2779 0028 B97B     		ldrb	r1, [r7, #14]	@ zero_extendqisi2
 2780 002a F87B     		ldrb	r0, [r7, #15]	@ zero_extendqisi2
 2781 002c BA68     		ldr	r2, [r7, #8]
 2782 002e FFF7FEFF 		bl	interpret_basic_complete_result_from_buffer
 723:../../../../lr11xx/lr11xx_driver/src/lr11xx_wifi.c ****     }
 2783              		.loc 1 723 9
 2784 0032 0DE0     		b	.L87
 2785              	.L89:
 728:../../../../lr11xx/lr11xx_driver/src/lr11xx_wifi.c ****                                                              result_interface.basic_mac_type_channe
 2786              		.loc 1 728 9
 2787 0034 7B68     		ldr	r3, [r7, #4]
 2788 0036 B97B     		ldrb	r1, [r7, #14]	@ zero_extendqisi2
 2789 0038 F87B     		ldrb	r0, [r7, #15]	@ zero_extendqisi2
 2790 003a BA68     		ldr	r2, [r7, #8]
 2791 003c FFF7FEFF 		bl	interpret_basic_mac_type_channel_result_from_buffer
 730:../../../../lr11xx/lr11xx_driver/src/lr11xx_wifi.c ****     }
 2792              		.loc 1 730 9
ARM GAS  C:\msys64\tmp\ccFuKh1Y.s 			page 63


 2793 0040 06E0     		b	.L87
 2794              	.L86:
 735:../../../../lr11xx/lr11xx_driver/src/lr11xx_wifi.c ****                                                     result_interface.extended_complete );
 2795              		.loc 1 735 9
 2796 0042 7B68     		ldr	r3, [r7, #4]
 2797 0044 B97B     		ldrb	r1, [r7, #14]	@ zero_extendqisi2
 2798 0046 F87B     		ldrb	r0, [r7, #15]	@ zero_extendqisi2
 2799 0048 BA68     		ldr	r2, [r7, #8]
 2800 004a FFF7FEFF 		bl	interpret_extended_full_result_from_buffer
 737:../../../../lr11xx/lr11xx_driver/src/lr11xx_wifi.c ****     }
 2801              		.loc 1 737 9
 2802 004e 00BF     		nop
 2803              	.L87:
 2804              	.L90:
 2805              		.loc 1 740 1
 2806 0050 00BF     		nop
 2807 0052 1037     		adds	r7, r7, #16
 2808              	.LCFI153:
 2809              		.cfi_def_cfa_offset 8
 2810 0054 BD46     		mov	sp, r7
 2811              	.LCFI154:
 2812              		.cfi_def_cfa_register 13
 2813              		@ sp needed
 2814 0056 80BD     		pop	{r7, pc}
 2815              		.cfi_endproc
 2816              	.LFE29:
 2818              		.section	.text.interpret_basic_complete_result_from_buffer,"ax",%progbits
 2819              		.align	1
 2820              		.syntax unified
 2821              		.thumb
 2822              		.thumb_func
 2824              	interpret_basic_complete_result_from_buffer:
 2825              	.LFB30:
 741:../../../../lr11xx/lr11xx_driver/src/lr11xx_wifi.c **** 
 742:../../../../lr11xx/lr11xx_driver/src/lr11xx_wifi.c **** static void interpret_basic_complete_result_from_buffer( const uint8_t  nb_results,
 743:../../../../lr11xx/lr11xx_driver/src/lr11xx_wifi.c ****                                                          const uint8_t  index_result_start_writing,
 744:../../../../lr11xx/lr11xx_driver/src/lr11xx_wifi.c ****                                                          const uint8_t* buffer,
 745:../../../../lr11xx/lr11xx_driver/src/lr11xx_wifi.c ****                                                          lr11xx_wifi_basic_complete_result_t* resul
 746:../../../../lr11xx/lr11xx_driver/src/lr11xx_wifi.c **** {
 2826              		.loc 1 746 1
 2827              		.cfi_startproc
 2828              		@ args = 0, pretend = 0, frame = 24
 2829              		@ frame_needed = 1, uses_anonymous_args = 0
 2830 0000 80B5     		push	{r7, lr}
 2831              	.LCFI155:
 2832              		.cfi_def_cfa_offset 8
 2833              		.cfi_offset 7, -8
 2834              		.cfi_offset 14, -4
 2835 0002 86B0     		sub	sp, sp, #24
 2836              	.LCFI156:
 2837              		.cfi_def_cfa_offset 32
 2838 0004 00AF     		add	r7, sp, #0
 2839              	.LCFI157:
 2840              		.cfi_def_cfa_register 7
 2841 0006 BA60     		str	r2, [r7, #8]
 2842 0008 7B60     		str	r3, [r7, #4]
 2843 000a 0346     		mov	r3, r0
ARM GAS  C:\msys64\tmp\ccFuKh1Y.s 			page 64


 2844 000c FB73     		strb	r3, [r7, #15]
 2845 000e 0B46     		mov	r3, r1
 2846 0010 BB73     		strb	r3, [r7, #14]
 2847              	.LBB9:
 747:../../../../lr11xx/lr11xx_driver/src/lr11xx_wifi.c ****     for( uint8_t result_index = 0; result_index < nb_results; result_index++ )
 2848              		.loc 1 747 18
 2849 0012 0023     		movs	r3, #0
 2850 0014 FB75     		strb	r3, [r7, #23]
 2851              		.loc 1 747 5
 2852 0016 59E0     		b	.L92
 2853              	.L93:
 2854              	.LBB10:
 748:../../../../lr11xx/lr11xx_driver/src/lr11xx_wifi.c ****     {
 749:../../../../lr11xx/lr11xx_driver/src/lr11xx_wifi.c ****         const uint16_t                       local_index_start = LR11XX_WIFI_BASIC_COMPLETE_RESULT_
 2855              		.loc 1 749 46
 2856 0018 FB7D     		ldrb	r3, [r7, #23]	@ zero_extendqisi2
 2857 001a 9BB2     		uxth	r3, r3
 2858 001c 1A46     		mov	r2, r3	@ movhi
 2859 001e 9200     		lsls	r2, r2, #2
 2860 0020 1A44     		add	r2, r2, r3
 2861 0022 5200     		lsls	r2, r2, #1
 2862 0024 1344     		add	r3, r3, r2
 2863 0026 5B00     		lsls	r3, r3, #1
 2864 0028 BB82     		strh	r3, [r7, #20]	@ movhi
 750:../../../../lr11xx/lr11xx_driver/src/lr11xx_wifi.c ****         lr11xx_wifi_basic_complete_result_t* local_wifi_result = &result[index_result_start_writing
 2865              		.loc 1 750 101
 2866 002a BA7B     		ldrb	r2, [r7, #14]	@ zero_extendqisi2
 2867 002c FB7D     		ldrb	r3, [r7, #23]	@ zero_extendqisi2
 2868 002e 1344     		add	r3, r3, r2
 2869              		.loc 1 750 73
 2870 0030 5B01     		lsls	r3, r3, #5
 2871              		.loc 1 750 46
 2872 0032 7A68     		ldr	r2, [r7, #4]
 2873 0034 1344     		add	r3, r3, r2
 2874 0036 3B61     		str	r3, [r7, #16]
 751:../../../../lr11xx/lr11xx_driver/src/lr11xx_wifi.c ****         local_wifi_result->data_rate_info_byte                 = buffer[local_index_start + 0];
 2875              		.loc 1 751 72
 2876 0038 BB8A     		ldrh	r3, [r7, #20]
 2877 003a BA68     		ldr	r2, [r7, #8]
 2878 003c 1344     		add	r3, r3, r2
 2879 003e 1A78     		ldrb	r2, [r3]	@ zero_extendqisi2
 2880              		.loc 1 751 64
 2881 0040 3B69     		ldr	r3, [r7, #16]
 2882 0042 1A70     		strb	r2, [r3]
 752:../../../../lr11xx/lr11xx_driver/src/lr11xx_wifi.c ****         local_wifi_result->channel_info_byte                   = buffer[local_index_start + 1];
 2883              		.loc 1 752 72
 2884 0044 BB8A     		ldrh	r3, [r7, #20]
 2885 0046 0133     		adds	r3, r3, #1
 2886 0048 BA68     		ldr	r2, [r7, #8]
 2887 004a 1344     		add	r3, r3, r2
 2888 004c 1A78     		ldrb	r2, [r3]	@ zero_extendqisi2
 2889              		.loc 1 752 64
 2890 004e 3B69     		ldr	r3, [r7, #16]
 2891 0050 5A70     		strb	r2, [r3, #1]
 753:../../../../lr11xx/lr11xx_driver/src/lr11xx_wifi.c ****         local_wifi_result->rssi                                = buffer[local_index_start + 2];
 2892              		.loc 1 753 72
 2893 0052 BB8A     		ldrh	r3, [r7, #20]
ARM GAS  C:\msys64\tmp\ccFuKh1Y.s 			page 65


 2894 0054 0233     		adds	r3, r3, #2
 2895 0056 BA68     		ldr	r2, [r7, #8]
 2896 0058 1344     		add	r3, r3, r2
 2897 005a 1B78     		ldrb	r3, [r3]	@ zero_extendqisi2
 2898 005c 5AB2     		sxtb	r2, r3
 2899              		.loc 1 753 64
 2900 005e 3B69     		ldr	r3, [r7, #16]
 2901 0060 9A70     		strb	r2, [r3, #2]
 754:../../../../lr11xx/lr11xx_driver/src/lr11xx_wifi.c ****         local_wifi_result->frame_type_info_byte                = buffer[local_index_start + 3];
 2902              		.loc 1 754 72
 2903 0062 BB8A     		ldrh	r3, [r7, #20]
 2904 0064 0333     		adds	r3, r3, #3
 2905 0066 BA68     		ldr	r2, [r7, #8]
 2906 0068 1344     		add	r3, r3, r2
 2907 006a 1A78     		ldrb	r2, [r3]	@ zero_extendqisi2
 2908              		.loc 1 754 64
 2909 006c 3B69     		ldr	r3, [r7, #16]
 2910 006e DA70     		strb	r2, [r3, #3]
 755:../../../../lr11xx/lr11xx_driver/src/lr11xx_wifi.c ****         lr11xx_wifi_read_mac_address_from_buffer( buffer, local_index_start + 4, local_wifi_result-
 2911              		.loc 1 755 9
 2912 0070 BB8A     		ldrh	r3, [r7, #20]	@ movhi
 2913 0072 0433     		adds	r3, r3, #4
 2914 0074 99B2     		uxth	r1, r3
 2915              		.loc 1 755 99
 2916 0076 3B69     		ldr	r3, [r7, #16]
 2917 0078 0433     		adds	r3, r3, #4
 2918              		.loc 1 755 9
 2919 007a 1A46     		mov	r2, r3
 2920 007c B868     		ldr	r0, [r7, #8]
 2921 007e FFF7FEFF 		bl	lr11xx_wifi_read_mac_address_from_buffer
 756:../../../../lr11xx/lr11xx_driver/src/lr11xx_wifi.c ****         local_wifi_result->phi_offset       = uint16_from_array( buffer, local_index_start + 10 );
 2922              		.loc 1 756 47
 2923 0082 BB8A     		ldrh	r3, [r7, #20]	@ movhi
 2924 0084 0A33     		adds	r3, r3, #10
 2925 0086 9BB2     		uxth	r3, r3
 2926 0088 1946     		mov	r1, r3
 2927 008a B868     		ldr	r0, [r7, #8]
 2928 008c FFF7FEFF 		bl	uint16_from_array
 2929 0090 0346     		mov	r3, r0
 2930              		.loc 1 756 47 is_stmt 0 discriminator 1
 2931 0092 1AB2     		sxth	r2, r3
 2932              		.loc 1 756 45 is_stmt 1 discriminator 1
 2933 0094 3B69     		ldr	r3, [r7, #16]
 2934 0096 5A81     		strh	r2, [r3, #10]	@ movhi
 757:../../../../lr11xx/lr11xx_driver/src/lr11xx_wifi.c ****         local_wifi_result->timestamp_us     = uint64_from_array( buffer, local_index_start + 12 );
 2935              		.loc 1 757 47
 2936 0098 BB8A     		ldrh	r3, [r7, #20]	@ movhi
 2937 009a 0C33     		adds	r3, r3, #12
 2938 009c 9BB2     		uxth	r3, r3
 2939 009e 1946     		mov	r1, r3
 2940 00a0 B868     		ldr	r0, [r7, #8]
 2941 00a2 FFF7FEFF 		bl	uint64_from_array
 2942 00a6 0246     		mov	r2, r0
 2943 00a8 0B46     		mov	r3, r1
 2944              		.loc 1 757 45 discriminator 1
 2945 00aa 3969     		ldr	r1, [r7, #16]
 2946 00ac C1E90423 		strd	r2, [r1, #16]
ARM GAS  C:\msys64\tmp\ccFuKh1Y.s 			page 66


 758:../../../../lr11xx/lr11xx_driver/src/lr11xx_wifi.c ****         local_wifi_result->beacon_period_tu = uint16_from_array( buffer, local_index_start + 20 );
 2947              		.loc 1 758 47
 2948 00b0 BB8A     		ldrh	r3, [r7, #20]	@ movhi
 2949 00b2 1433     		adds	r3, r3, #20
 2950 00b4 9BB2     		uxth	r3, r3
 2951 00b6 1946     		mov	r1, r3
 2952 00b8 B868     		ldr	r0, [r7, #8]
 2953 00ba FFF7FEFF 		bl	uint16_from_array
 2954 00be 0346     		mov	r3, r0
 2955 00c0 1A46     		mov	r2, r3
 2956              		.loc 1 758 45 discriminator 1
 2957 00c2 3B69     		ldr	r3, [r7, #16]
 2958 00c4 1A83     		strh	r2, [r3, #24]	@ movhi
 2959              	.LBE10:
 747:../../../../lr11xx/lr11xx_driver/src/lr11xx_wifi.c ****     {
 2960              		.loc 1 747 75 discriminator 3
 2961 00c6 FB7D     		ldrb	r3, [r7, #23]	@ zero_extendqisi2
 2962 00c8 0133     		adds	r3, r3, #1
 2963 00ca FB75     		strb	r3, [r7, #23]
 2964              	.L92:
 747:../../../../lr11xx/lr11xx_driver/src/lr11xx_wifi.c ****     {
 2965              		.loc 1 747 49 discriminator 1
 2966 00cc FA7D     		ldrb	r2, [r7, #23]	@ zero_extendqisi2
 2967 00ce FB7B     		ldrb	r3, [r7, #15]	@ zero_extendqisi2
 2968 00d0 9A42     		cmp	r2, r3
 2969 00d2 A1D3     		bcc	.L93
 2970              	.LBE9:
 759:../../../../lr11xx/lr11xx_driver/src/lr11xx_wifi.c ****     }
 760:../../../../lr11xx/lr11xx_driver/src/lr11xx_wifi.c **** }
 2971              		.loc 1 760 1
 2972 00d4 00BF     		nop
 2973 00d6 00BF     		nop
 2974 00d8 1837     		adds	r7, r7, #24
 2975              	.LCFI158:
 2976              		.cfi_def_cfa_offset 8
 2977 00da BD46     		mov	sp, r7
 2978              	.LCFI159:
 2979              		.cfi_def_cfa_register 13
 2980              		@ sp needed
 2981 00dc 80BD     		pop	{r7, pc}
 2982              		.cfi_endproc
 2983              	.LFE30:
 2985              		.section	.text.interpret_basic_mac_type_channel_result_from_buffer,"ax",%progbits
 2986              		.align	1
 2987              		.syntax unified
 2988              		.thumb
 2989              		.thumb_func
 2991              	interpret_basic_mac_type_channel_result_from_buffer:
 2992              	.LFB31:
 761:../../../../lr11xx/lr11xx_driver/src/lr11xx_wifi.c **** 
 762:../../../../lr11xx/lr11xx_driver/src/lr11xx_wifi.c **** static void interpret_basic_mac_type_channel_result_from_buffer( const uint8_t  nb_results,
 763:../../../../lr11xx/lr11xx_driver/src/lr11xx_wifi.c ****                                                                  const uint8_t  index_result_start_
 764:../../../../lr11xx/lr11xx_driver/src/lr11xx_wifi.c ****                                                                  const uint8_t* buffer,
 765:../../../../lr11xx/lr11xx_driver/src/lr11xx_wifi.c ****                                                                  lr11xx_wifi_basic_mac_type_channel
 766:../../../../lr11xx/lr11xx_driver/src/lr11xx_wifi.c **** {
 2993              		.loc 1 766 1
 2994              		.cfi_startproc
ARM GAS  C:\msys64\tmp\ccFuKh1Y.s 			page 67


 2995              		@ args = 0, pretend = 0, frame = 24
 2996              		@ frame_needed = 1, uses_anonymous_args = 0
 2997 0000 80B5     		push	{r7, lr}
 2998              	.LCFI160:
 2999              		.cfi_def_cfa_offset 8
 3000              		.cfi_offset 7, -8
 3001              		.cfi_offset 14, -4
 3002 0002 86B0     		sub	sp, sp, #24
 3003              	.LCFI161:
 3004              		.cfi_def_cfa_offset 32
 3005 0004 00AF     		add	r7, sp, #0
 3006              	.LCFI162:
 3007              		.cfi_def_cfa_register 7
 3008 0006 BA60     		str	r2, [r7, #8]
 3009 0008 7B60     		str	r3, [r7, #4]
 3010 000a 0346     		mov	r3, r0
 3011 000c FB73     		strb	r3, [r7, #15]
 3012 000e 0B46     		mov	r3, r1
 3013 0010 BB73     		strb	r3, [r7, #14]
 3014              	.LBB11:
 767:../../../../lr11xx/lr11xx_driver/src/lr11xx_wifi.c ****     for( uint8_t result_index = 0; result_index < nb_results; result_index++ )
 3015              		.loc 1 767 18
 3016 0012 0023     		movs	r3, #0
 3017 0014 FB75     		strb	r3, [r7, #23]
 3018              		.loc 1 767 5
 3019 0016 30E0     		b	.L95
 3020              	.L96:
 3021              	.LBB12:
 768:../../../../lr11xx/lr11xx_driver/src/lr11xx_wifi.c ****     {
 769:../../../../lr11xx/lr11xx_driver/src/lr11xx_wifi.c ****         const uint16_t local_index_start = LR11XX_WIFI_BASIC_MAC_TYPE_CHANNEL_RESULT_SIZE * result_
 3022              		.loc 1 769 24
 3023 0018 FB7D     		ldrb	r3, [r7, #23]	@ zero_extendqisi2
 3024 001a 9BB2     		uxth	r3, r3
 3025 001c 1A46     		mov	r2, r3	@ movhi
 3026 001e D200     		lsls	r2, r2, #3
 3027 0020 1344     		add	r3, r3, r2
 3028 0022 BB82     		strh	r3, [r7, #20]	@ movhi
 770:../../../../lr11xx/lr11xx_driver/src/lr11xx_wifi.c ****         lr11xx_wifi_basic_mac_type_channel_result_t* local_wifi_result =
 771:../../../../lr11xx/lr11xx_driver/src/lr11xx_wifi.c ****             &result[index_result_start_writing + result_index];
 3029              		.loc 1 771 48
 3030 0024 BA7B     		ldrb	r2, [r7, #14]	@ zero_extendqisi2
 3031 0026 FB7D     		ldrb	r3, [r7, #23]	@ zero_extendqisi2
 3032 0028 1344     		add	r3, r3, r2
 3033 002a 1A46     		mov	r2, r3
 3034              		.loc 1 771 20
 3035 002c 1346     		mov	r3, r2
 3036 002e DB00     		lsls	r3, r3, #3
 3037 0030 1344     		add	r3, r3, r2
 770:../../../../lr11xx/lr11xx_driver/src/lr11xx_wifi.c ****         lr11xx_wifi_basic_mac_type_channel_result_t* local_wifi_result =
 3038              		.loc 1 770 54
 3039 0032 7A68     		ldr	r2, [r7, #4]
 3040 0034 1344     		add	r3, r3, r2
 3041 0036 3B61     		str	r3, [r7, #16]
 772:../../../../lr11xx/lr11xx_driver/src/lr11xx_wifi.c ****         local_wifi_result->data_rate_info_byte = buffer[local_index_start + 0];
 3042              		.loc 1 772 56
 3043 0038 BB8A     		ldrh	r3, [r7, #20]
 3044 003a BA68     		ldr	r2, [r7, #8]
ARM GAS  C:\msys64\tmp\ccFuKh1Y.s 			page 68


 3045 003c 1344     		add	r3, r3, r2
 3046 003e 1A78     		ldrb	r2, [r3]	@ zero_extendqisi2
 3047              		.loc 1 772 48
 3048 0040 3B69     		ldr	r3, [r7, #16]
 3049 0042 1A70     		strb	r2, [r3]
 773:../../../../lr11xx/lr11xx_driver/src/lr11xx_wifi.c ****         local_wifi_result->channel_info_byte   = buffer[local_index_start + 1];
 3050              		.loc 1 773 56
 3051 0044 BB8A     		ldrh	r3, [r7, #20]
 3052 0046 0133     		adds	r3, r3, #1
 3053 0048 BA68     		ldr	r2, [r7, #8]
 3054 004a 1344     		add	r3, r3, r2
 3055 004c 1A78     		ldrb	r2, [r3]	@ zero_extendqisi2
 3056              		.loc 1 773 48
 3057 004e 3B69     		ldr	r3, [r7, #16]
 3058 0050 5A70     		strb	r2, [r3, #1]
 774:../../../../lr11xx/lr11xx_driver/src/lr11xx_wifi.c ****         local_wifi_result->rssi                = buffer[local_index_start + 2];
 3059              		.loc 1 774 56
 3060 0052 BB8A     		ldrh	r3, [r7, #20]
 3061 0054 0233     		adds	r3, r3, #2
 3062 0056 BA68     		ldr	r2, [r7, #8]
 3063 0058 1344     		add	r3, r3, r2
 3064 005a 1B78     		ldrb	r3, [r3]	@ zero_extendqisi2
 3065 005c 5AB2     		sxtb	r2, r3
 3066              		.loc 1 774 48
 3067 005e 3B69     		ldr	r3, [r7, #16]
 3068 0060 9A70     		strb	r2, [r3, #2]
 775:../../../../lr11xx/lr11xx_driver/src/lr11xx_wifi.c ****         lr11xx_wifi_read_mac_address_from_buffer( buffer, local_index_start + 3, local_wifi_result-
 3069              		.loc 1 775 9
 3070 0062 BB8A     		ldrh	r3, [r7, #20]	@ movhi
 3071 0064 0333     		adds	r3, r3, #3
 3072 0066 99B2     		uxth	r1, r3
 3073              		.loc 1 775 99
 3074 0068 3B69     		ldr	r3, [r7, #16]
 3075 006a 0333     		adds	r3, r3, #3
 3076              		.loc 1 775 9
 3077 006c 1A46     		mov	r2, r3
 3078 006e B868     		ldr	r0, [r7, #8]
 3079 0070 FFF7FEFF 		bl	lr11xx_wifi_read_mac_address_from_buffer
 3080              	.LBE12:
 767:../../../../lr11xx/lr11xx_driver/src/lr11xx_wifi.c ****     {
 3081              		.loc 1 767 75 discriminator 3
 3082 0074 FB7D     		ldrb	r3, [r7, #23]	@ zero_extendqisi2
 3083 0076 0133     		adds	r3, r3, #1
 3084 0078 FB75     		strb	r3, [r7, #23]
 3085              	.L95:
 767:../../../../lr11xx/lr11xx_driver/src/lr11xx_wifi.c ****     {
 3086              		.loc 1 767 49 discriminator 1
 3087 007a FA7D     		ldrb	r2, [r7, #23]	@ zero_extendqisi2
 3088 007c FB7B     		ldrb	r3, [r7, #15]	@ zero_extendqisi2
 3089 007e 9A42     		cmp	r2, r3
 3090 0080 CAD3     		bcc	.L96
 3091              	.LBE11:
 776:../../../../lr11xx/lr11xx_driver/src/lr11xx_wifi.c ****     }
 777:../../../../lr11xx/lr11xx_driver/src/lr11xx_wifi.c **** }
 3092              		.loc 1 777 1
 3093 0082 00BF     		nop
 3094 0084 00BF     		nop
ARM GAS  C:\msys64\tmp\ccFuKh1Y.s 			page 69


 3095 0086 1837     		adds	r7, r7, #24
 3096              	.LCFI163:
 3097              		.cfi_def_cfa_offset 8
 3098 0088 BD46     		mov	sp, r7
 3099              	.LCFI164:
 3100              		.cfi_def_cfa_register 13
 3101              		@ sp needed
 3102 008a 80BD     		pop	{r7, pc}
 3103              		.cfi_endproc
 3104              	.LFE31:
 3106              		.section	.text.interpret_extended_full_result_from_buffer,"ax",%progbits
 3107              		.align	1
 3108              		.syntax unified
 3109              		.thumb
 3110              		.thumb_func
 3112              	interpret_extended_full_result_from_buffer:
 3113              	.LFB32:
 778:../../../../lr11xx/lr11xx_driver/src/lr11xx_wifi.c **** 
 779:../../../../lr11xx/lr11xx_driver/src/lr11xx_wifi.c **** void interpret_extended_full_result_from_buffer( const uint8_t nb_results, const uint8_t index_resu
 780:../../../../lr11xx/lr11xx_driver/src/lr11xx_wifi.c ****                                                  const uint8_t* buffer, lr11xx_wifi_extended_full_r
 781:../../../../lr11xx/lr11xx_driver/src/lr11xx_wifi.c **** {
 3114              		.loc 1 781 1
 3115              		.cfi_startproc
 3116              		@ args = 0, pretend = 0, frame = 24
 3117              		@ frame_needed = 1, uses_anonymous_args = 0
 3118 0000 80B5     		push	{r7, lr}
 3119              	.LCFI165:
 3120              		.cfi_def_cfa_offset 8
 3121              		.cfi_offset 7, -8
 3122              		.cfi_offset 14, -4
 3123 0002 86B0     		sub	sp, sp, #24
 3124              	.LCFI166:
 3125              		.cfi_def_cfa_offset 32
 3126 0004 00AF     		add	r7, sp, #0
 3127              	.LCFI167:
 3128              		.cfi_def_cfa_register 7
 3129 0006 BA60     		str	r2, [r7, #8]
 3130 0008 7B60     		str	r3, [r7, #4]
 3131 000a 0346     		mov	r3, r0
 3132 000c FB73     		strb	r3, [r7, #15]
 3133 000e 0B46     		mov	r3, r1
 3134 0010 BB73     		strb	r3, [r7, #14]
 3135              	.LBB13:
 782:../../../../lr11xx/lr11xx_driver/src/lr11xx_wifi.c ****     for( uint8_t result_index = 0; result_index < nb_results; result_index++ )
 3136              		.loc 1 782 18
 3137 0012 0023     		movs	r3, #0
 3138 0014 FB75     		strb	r3, [r7, #23]
 3139              		.loc 1 782 5
 3140 0016 EAE0     		b	.L98
 3141              	.L101:
 3142              	.LBB14:
 783:../../../../lr11xx/lr11xx_driver/src/lr11xx_wifi.c ****     {
 784:../../../../lr11xx/lr11xx_driver/src/lr11xx_wifi.c ****         const uint16_t local_index_start = LR11XX_WIFI_EXTENDED_COMPLETE_RESULT_SIZE * result_index
 3143              		.loc 1 784 24
 3144 0018 FB7D     		ldrb	r3, [r7, #23]	@ zero_extendqisi2
 3145 001a 9BB2     		uxth	r3, r3
 3146 001c 1A46     		mov	r2, r3	@ movhi
ARM GAS  C:\msys64\tmp\ccFuKh1Y.s 			page 70


 3147 001e 9200     		lsls	r2, r2, #2
 3148 0020 1A44     		add	r2, r2, r3
 3149 0022 1201     		lsls	r2, r2, #4
 3150 0024 D31A     		subs	r3, r2, r3
 3151 0026 BB82     		strh	r3, [r7, #20]	@ movhi
 785:../../../../lr11xx/lr11xx_driver/src/lr11xx_wifi.c ****         lr11xx_wifi_extended_full_result_t* local_wifi_result = &result[index_result_start_writing 
 3152              		.loc 1 785 100
 3153 0028 BA7B     		ldrb	r2, [r7, #14]	@ zero_extendqisi2
 3154 002a FB7D     		ldrb	r3, [r7, #23]	@ zero_extendqisi2
 3155 002c 1344     		add	r3, r3, r2
 3156 002e 1A46     		mov	r2, r3
 3157              		.loc 1 785 72
 3158 0030 5823     		movs	r3, #88
 3159 0032 02FB03F3 		mul	r3, r2, r3
 3160              		.loc 1 785 45
 3161 0036 7A68     		ldr	r2, [r7, #4]
 3162 0038 1344     		add	r3, r3, r2
 3163 003a 3B61     		str	r3, [r7, #16]
 786:../../../../lr11xx/lr11xx_driver/src/lr11xx_wifi.c **** 
 787:../../../../lr11xx/lr11xx_driver/src/lr11xx_wifi.c ****         local_wifi_result->data_rate_info_byte = buffer[local_index_start + 0];
 3164              		.loc 1 787 56
 3165 003c BB8A     		ldrh	r3, [r7, #20]
 3166 003e BA68     		ldr	r2, [r7, #8]
 3167 0040 1344     		add	r3, r3, r2
 3168 0042 1A78     		ldrb	r2, [r3]	@ zero_extendqisi2
 3169              		.loc 1 787 48
 3170 0044 3B69     		ldr	r3, [r7, #16]
 3171 0046 1A70     		strb	r2, [r3]
 788:../../../../lr11xx/lr11xx_driver/src/lr11xx_wifi.c ****         local_wifi_result->channel_info_byte   = buffer[local_index_start + 1];
 3172              		.loc 1 788 56
 3173 0048 BB8A     		ldrh	r3, [r7, #20]
 3174 004a 0133     		adds	r3, r3, #1
 3175 004c BA68     		ldr	r2, [r7, #8]
 3176 004e 1344     		add	r3, r3, r2
 3177 0050 1A78     		ldrb	r2, [r3]	@ zero_extendqisi2
 3178              		.loc 1 788 48
 3179 0052 3B69     		ldr	r3, [r7, #16]
 3180 0054 5A70     		strb	r2, [r3, #1]
 789:../../../../lr11xx/lr11xx_driver/src/lr11xx_wifi.c ****         local_wifi_result->rssi                = buffer[local_index_start + 2];
 3181              		.loc 1 789 56
 3182 0056 BB8A     		ldrh	r3, [r7, #20]
 3183 0058 0233     		adds	r3, r3, #2
 3184 005a BA68     		ldr	r2, [r7, #8]
 3185 005c 1344     		add	r3, r3, r2
 3186 005e 1B78     		ldrb	r3, [r3]	@ zero_extendqisi2
 3187 0060 5AB2     		sxtb	r2, r3
 3188              		.loc 1 789 48
 3189 0062 3B69     		ldr	r3, [r7, #16]
 3190 0064 9A70     		strb	r2, [r3, #2]
 790:../../../../lr11xx/lr11xx_driver/src/lr11xx_wifi.c ****         local_wifi_result->rate                = buffer[local_index_start + 3];
 3191              		.loc 1 790 56
 3192 0066 BB8A     		ldrh	r3, [r7, #20]
 3193 0068 0333     		adds	r3, r3, #3
 3194 006a BA68     		ldr	r2, [r7, #8]
 3195 006c 1344     		add	r3, r3, r2
 3196 006e 1A78     		ldrb	r2, [r3]	@ zero_extendqisi2
 3197              		.loc 1 790 48
ARM GAS  C:\msys64\tmp\ccFuKh1Y.s 			page 71


 3198 0070 3B69     		ldr	r3, [r7, #16]
 3199 0072 DA70     		strb	r2, [r3, #3]
 791:../../../../lr11xx/lr11xx_driver/src/lr11xx_wifi.c ****         local_wifi_result->service             = uint16_from_array( buffer, local_index_start + 4 )
 3200              		.loc 1 791 50
 3201 0074 BB8A     		ldrh	r3, [r7, #20]	@ movhi
 3202 0076 0433     		adds	r3, r3, #4
 3203 0078 9BB2     		uxth	r3, r3
 3204 007a 1946     		mov	r1, r3
 3205 007c B868     		ldr	r0, [r7, #8]
 3206 007e FFF7FEFF 		bl	uint16_from_array
 3207 0082 0346     		mov	r3, r0
 3208 0084 1A46     		mov	r2, r3
 3209              		.loc 1 791 48 discriminator 1
 3210 0086 3B69     		ldr	r3, [r7, #16]
 3211 0088 9A80     		strh	r2, [r3, #4]	@ movhi
 792:../../../../lr11xx/lr11xx_driver/src/lr11xx_wifi.c ****         local_wifi_result->length              = uint16_from_array( buffer, local_index_start + 6 )
 3212              		.loc 1 792 50
 3213 008a BB8A     		ldrh	r3, [r7, #20]	@ movhi
 3214 008c 0633     		adds	r3, r3, #6
 3215 008e 9BB2     		uxth	r3, r3
 3216 0090 1946     		mov	r1, r3
 3217 0092 B868     		ldr	r0, [r7, #8]
 3218 0094 FFF7FEFF 		bl	uint16_from_array
 3219 0098 0346     		mov	r3, r0
 3220 009a 1A46     		mov	r2, r3
 3221              		.loc 1 792 48 discriminator 1
 3222 009c 3B69     		ldr	r3, [r7, #16]
 3223 009e DA80     		strh	r2, [r3, #6]	@ movhi
 793:../../../../lr11xx/lr11xx_driver/src/lr11xx_wifi.c ****         local_wifi_result->frame_control       = uint16_from_array( buffer, local_index_start + 8 )
 3224              		.loc 1 793 50
 3225 00a0 BB8A     		ldrh	r3, [r7, #20]	@ movhi
 3226 00a2 0833     		adds	r3, r3, #8
 3227 00a4 9BB2     		uxth	r3, r3
 3228 00a6 1946     		mov	r1, r3
 3229 00a8 B868     		ldr	r0, [r7, #8]
 3230 00aa FFF7FEFF 		bl	uint16_from_array
 3231 00ae 0346     		mov	r3, r0
 3232 00b0 1A46     		mov	r2, r3
 3233              		.loc 1 793 48 discriminator 1
 3234 00b2 3B69     		ldr	r3, [r7, #16]
 3235 00b4 1A81     		strh	r2, [r3, #8]	@ movhi
 794:../../../../lr11xx/lr11xx_driver/src/lr11xx_wifi.c ****         lr11xx_wifi_read_mac_address_from_buffer( buffer, local_index_start + 10, local_wifi_result
 3236              		.loc 1 794 9
 3237 00b6 BB8A     		ldrh	r3, [r7, #20]	@ movhi
 3238 00b8 0A33     		adds	r3, r3, #10
 3239 00ba 99B2     		uxth	r1, r3
 3240              		.loc 1 794 100
 3241 00bc 3B69     		ldr	r3, [r7, #16]
 3242 00be 0A33     		adds	r3, r3, #10
 3243              		.loc 1 794 9
 3244 00c0 1A46     		mov	r2, r3
 3245 00c2 B868     		ldr	r0, [r7, #8]
 3246 00c4 FFF7FEFF 		bl	lr11xx_wifi_read_mac_address_from_buffer
 795:../../../../lr11xx/lr11xx_driver/src/lr11xx_wifi.c ****         lr11xx_wifi_read_mac_address_from_buffer( buffer, local_index_start + 16, local_wifi_result
 3247              		.loc 1 795 9
 3248 00c8 BB8A     		ldrh	r3, [r7, #20]	@ movhi
 3249 00ca 1033     		adds	r3, r3, #16
ARM GAS  C:\msys64\tmp\ccFuKh1Y.s 			page 72


 3250 00cc 99B2     		uxth	r1, r3
 3251              		.loc 1 795 100
 3252 00ce 3B69     		ldr	r3, [r7, #16]
 3253 00d0 1033     		adds	r3, r3, #16
 3254              		.loc 1 795 9
 3255 00d2 1A46     		mov	r2, r3
 3256 00d4 B868     		ldr	r0, [r7, #8]
 3257 00d6 FFF7FEFF 		bl	lr11xx_wifi_read_mac_address_from_buffer
 796:../../../../lr11xx/lr11xx_driver/src/lr11xx_wifi.c ****         lr11xx_wifi_read_mac_address_from_buffer( buffer, local_index_start + 22, local_wifi_result
 3258              		.loc 1 796 9
 3259 00da BB8A     		ldrh	r3, [r7, #20]	@ movhi
 3260 00dc 1633     		adds	r3, r3, #22
 3261 00de 99B2     		uxth	r1, r3
 3262              		.loc 1 796 100
 3263 00e0 3B69     		ldr	r3, [r7, #16]
 3264 00e2 1633     		adds	r3, r3, #22
 3265              		.loc 1 796 9
 3266 00e4 1A46     		mov	r2, r3
 3267 00e6 B868     		ldr	r0, [r7, #8]
 3268 00e8 FFF7FEFF 		bl	lr11xx_wifi_read_mac_address_from_buffer
 797:../../../../lr11xx/lr11xx_driver/src/lr11xx_wifi.c ****         local_wifi_result->timestamp_us     = uint64_from_array( buffer, local_index_start + 28 );
 3269              		.loc 1 797 47
 3270 00ec BB8A     		ldrh	r3, [r7, #20]	@ movhi
 3271 00ee 1C33     		adds	r3, r3, #28
 3272 00f0 9BB2     		uxth	r3, r3
 3273 00f2 1946     		mov	r1, r3
 3274 00f4 B868     		ldr	r0, [r7, #8]
 3275 00f6 FFF7FEFF 		bl	uint64_from_array
 3276 00fa 0246     		mov	r2, r0
 3277 00fc 0B46     		mov	r3, r1
 3278              		.loc 1 797 45 discriminator 1
 3279 00fe 3969     		ldr	r1, [r7, #16]
 3280 0100 C1E90823 		strd	r2, [r1, #32]
 798:../../../../lr11xx/lr11xx_driver/src/lr11xx_wifi.c ****         local_wifi_result->beacon_period_tu = uint16_from_array( buffer, local_index_start + 36 );
 3281              		.loc 1 798 47
 3282 0104 BB8A     		ldrh	r3, [r7, #20]	@ movhi
 3283 0106 2433     		adds	r3, r3, #36
 3284 0108 9BB2     		uxth	r3, r3
 3285 010a 1946     		mov	r1, r3
 3286 010c B868     		ldr	r0, [r7, #8]
 3287 010e FFF7FEFF 		bl	uint16_from_array
 3288 0112 0346     		mov	r3, r0
 3289 0114 1A46     		mov	r2, r3
 3290              		.loc 1 798 45 discriminator 1
 3291 0116 3B69     		ldr	r3, [r7, #16]
 3292 0118 1A85     		strh	r2, [r3, #40]	@ movhi
 799:../../../../lr11xx/lr11xx_driver/src/lr11xx_wifi.c ****         local_wifi_result->seq_control      = uint16_from_array( buffer, local_index_start + 38 );
 3293              		.loc 1 799 47
 3294 011a BB8A     		ldrh	r3, [r7, #20]	@ movhi
 3295 011c 2633     		adds	r3, r3, #38
 3296 011e 9BB2     		uxth	r3, r3
 3297 0120 1946     		mov	r1, r3
 3298 0122 B868     		ldr	r0, [r7, #8]
 3299 0124 FFF7FEFF 		bl	uint16_from_array
 3300 0128 0346     		mov	r3, r0
 3301 012a 1A46     		mov	r2, r3
 3302              		.loc 1 799 45 discriminator 1
ARM GAS  C:\msys64\tmp\ccFuKh1Y.s 			page 73


 3303 012c 3B69     		ldr	r3, [r7, #16]
 3304 012e 5A85     		strh	r2, [r3, #42]	@ movhi
 3305              	.LBB15:
 800:../../../../lr11xx/lr11xx_driver/src/lr11xx_wifi.c ****         for( uint8_t ssid_index = 0; ssid_index < LR11XX_WIFI_RESULT_SSID_LENGTH; ssid_index++ )
 3306              		.loc 1 800 22
 3307 0130 0023     		movs	r3, #0
 3308 0132 BB75     		strb	r3, [r7, #22]
 3309              		.loc 1 800 9
 3310 0134 0FE0     		b	.L99
 3311              	.L100:
 801:../../../../lr11xx/lr11xx_driver/src/lr11xx_wifi.c ****         {
 802:../../../../lr11xx/lr11xx_driver/src/lr11xx_wifi.c ****             local_wifi_result->ssid_bytes[ssid_index] = buffer[local_index_start + ssid_index + 40]
 3312              		.loc 1 802 82
 3313 0136 BA8A     		ldrh	r2, [r7, #20]
 3314 0138 BB7D     		ldrb	r3, [r7, #22]	@ zero_extendqisi2
 3315 013a 1344     		add	r3, r3, r2
 3316              		.loc 1 802 63
 3317 013c 2833     		adds	r3, r3, #40
 3318 013e BA68     		ldr	r2, [r7, #8]
 3319 0140 1A44     		add	r2, r2, r3
 3320              		.loc 1 802 42
 3321 0142 BB7D     		ldrb	r3, [r7, #22]	@ zero_extendqisi2
 3322              		.loc 1 802 63
 3323 0144 1178     		ldrb	r1, [r2]	@ zero_extendqisi2
 3324              		.loc 1 802 55
 3325 0146 3A69     		ldr	r2, [r7, #16]
 3326 0148 1344     		add	r3, r3, r2
 3327 014a 0A46     		mov	r2, r1
 3328 014c 83F82C20 		strb	r2, [r3, #44]
 800:../../../../lr11xx/lr11xx_driver/src/lr11xx_wifi.c ****         for( uint8_t ssid_index = 0; ssid_index < LR11XX_WIFI_RESULT_SSID_LENGTH; ssid_index++ )
 3329              		.loc 1 800 93 discriminator 3
 3330 0150 BB7D     		ldrb	r3, [r7, #22]	@ zero_extendqisi2
 3331 0152 0133     		adds	r3, r3, #1
 3332 0154 BB75     		strb	r3, [r7, #22]
 3333              	.L99:
 800:../../../../lr11xx/lr11xx_driver/src/lr11xx_wifi.c ****         for( uint8_t ssid_index = 0; ssid_index < LR11XX_WIFI_RESULT_SSID_LENGTH; ssid_index++ )
 3334              		.loc 1 800 49 discriminator 1
 3335 0156 BB7D     		ldrb	r3, [r7, #22]	@ zero_extendqisi2
 3336 0158 1F2B     		cmp	r3, #31
 3337 015a ECD9     		bls	.L100
 3338              	.LBE15:
 803:../../../../lr11xx/lr11xx_driver/src/lr11xx_wifi.c ****         }
 804:../../../../lr11xx/lr11xx_driver/src/lr11xx_wifi.c ****         local_wifi_result->current_channel               = ( lr11xx_wifi_channel_t ) buffer[local_i
 3339              		.loc 1 804 92
 3340 015c BB8A     		ldrh	r3, [r7, #20]
 3341 015e 4833     		adds	r3, r3, #72
 3342 0160 BA68     		ldr	r2, [r7, #8]
 3343 0162 1344     		add	r3, r3, r2
 3344              		.loc 1 804 60
 3345 0164 1A78     		ldrb	r2, [r3]	@ zero_extendqisi2
 3346              		.loc 1 804 58
 3347 0166 3B69     		ldr	r3, [r7, #16]
 3348 0168 83F84C20 		strb	r2, [r3, #76]
 805:../../../../lr11xx/lr11xx_driver/src/lr11xx_wifi.c ****         local_wifi_result->country_code[0]               = buffer[local_index_start + 73];
 3349              		.loc 1 805 66
 3350 016c BB8A     		ldrh	r3, [r7, #20]
 3351 016e 4933     		adds	r3, r3, #73
ARM GAS  C:\msys64\tmp\ccFuKh1Y.s 			page 74


 3352 0170 BA68     		ldr	r2, [r7, #8]
 3353 0172 1344     		add	r3, r3, r2
 3354 0174 1A78     		ldrb	r2, [r3]	@ zero_extendqisi2
 3355              		.loc 1 805 58
 3356 0176 3B69     		ldr	r3, [r7, #16]
 3357 0178 83F84D20 		strb	r2, [r3, #77]
 806:../../../../lr11xx/lr11xx_driver/src/lr11xx_wifi.c ****         local_wifi_result->country_code[1]               = buffer[local_index_start + 74];
 3358              		.loc 1 806 66
 3359 017c BB8A     		ldrh	r3, [r7, #20]
 3360 017e 4A33     		adds	r3, r3, #74
 3361 0180 BA68     		ldr	r2, [r7, #8]
 3362 0182 1344     		add	r3, r3, r2
 3363 0184 1A78     		ldrb	r2, [r3]	@ zero_extendqisi2
 3364              		.loc 1 806 58
 3365 0186 3B69     		ldr	r3, [r7, #16]
 3366 0188 83F84E20 		strb	r2, [r3, #78]
 807:../../../../lr11xx/lr11xx_driver/src/lr11xx_wifi.c ****         local_wifi_result->io_regulation                 = buffer[local_index_start + 75];
 3367              		.loc 1 807 66
 3368 018c BB8A     		ldrh	r3, [r7, #20]
 3369 018e 4B33     		adds	r3, r3, #75
 3370 0190 BA68     		ldr	r2, [r7, #8]
 3371 0192 1344     		add	r3, r3, r2
 3372 0194 1A78     		ldrb	r2, [r3]	@ zero_extendqisi2
 3373              		.loc 1 807 58
 3374 0196 3B69     		ldr	r3, [r7, #16]
 3375 0198 83F84F20 		strb	r2, [r3, #79]
 808:../../../../lr11xx/lr11xx_driver/src/lr11xx_wifi.c ****         local_wifi_result->fcs_check_byte.is_fcs_checked = ( ( buffer[local_index_start + 76] & 0x0
 3376              		.loc 1 808 70
 3377 019c BB8A     		ldrh	r3, [r7, #20]
 3378 019e 4C33     		adds	r3, r3, #76
 3379 01a0 BA68     		ldr	r2, [r7, #8]
 3380 01a2 1344     		add	r3, r3, r2
 3381 01a4 1B78     		ldrb	r3, [r3]	@ zero_extendqisi2
 3382              		.loc 1 808 9
 3383 01a6 03F00103 		and	r3, r3, #1
 3384 01aa DAB2     		uxtb	r2, r3
 3385              		.loc 1 808 58
 3386 01ac 3B69     		ldr	r3, [r7, #16]
 3387 01ae 83F85120 		strb	r2, [r3, #81]
 809:../../../../lr11xx/lr11xx_driver/src/lr11xx_wifi.c ****         local_wifi_result->fcs_check_byte.is_fcs_ok      = ( ( buffer[local_index_start + 76] & 0x0
 3388              		.loc 1 809 70
 3389 01b2 BB8A     		ldrh	r3, [r7, #20]
 3390 01b4 4C33     		adds	r3, r3, #76
 3391 01b6 BA68     		ldr	r2, [r7, #8]
 3392 01b8 1344     		add	r3, r3, r2
 3393 01ba 1B78     		ldrb	r3, [r3]	@ zero_extendqisi2
 3394              		.loc 1 809 95
 3395 01bc 03F00203 		and	r3, r3, #2
 3396              		.loc 1 809 9
 3397 01c0 002B     		cmp	r3, #0
 3398 01c2 14BF     		ite	ne
 3399 01c4 0123     		movne	r3, #1
 3400 01c6 0023     		moveq	r3, #0
 3401 01c8 DAB2     		uxtb	r2, r3
 3402              		.loc 1 809 58
 3403 01ca 3B69     		ldr	r3, [r7, #16]
 3404 01cc 83F85020 		strb	r2, [r3, #80]
ARM GAS  C:\msys64\tmp\ccFuKh1Y.s 			page 75


 810:../../../../lr11xx/lr11xx_driver/src/lr11xx_wifi.c ****         local_wifi_result->phi_offset                    = uint16_from_array( buffer, local_index_s
 3405              		.loc 1 810 60
 3406 01d0 BB8A     		ldrh	r3, [r7, #20]	@ movhi
 3407 01d2 4D33     		adds	r3, r3, #77
 3408 01d4 9BB2     		uxth	r3, r3
 3409 01d6 1946     		mov	r1, r3
 3410 01d8 B868     		ldr	r0, [r7, #8]
 3411 01da FFF7FEFF 		bl	uint16_from_array
 3412 01de 0346     		mov	r3, r0
 3413              		.loc 1 810 60 is_stmt 0 discriminator 1
 3414 01e0 1AB2     		sxth	r2, r3
 3415              		.loc 1 810 58 is_stmt 1 discriminator 1
 3416 01e2 3B69     		ldr	r3, [r7, #16]
 3417 01e4 A3F85220 		strh	r2, [r3, #82]	@ movhi
 3418              	.LBE14:
 782:../../../../lr11xx/lr11xx_driver/src/lr11xx_wifi.c ****     {
 3419              		.loc 1 782 75 discriminator 2
 3420 01e8 FB7D     		ldrb	r3, [r7, #23]	@ zero_extendqisi2
 3421 01ea 0133     		adds	r3, r3, #1
 3422 01ec FB75     		strb	r3, [r7, #23]
 3423              	.L98:
 782:../../../../lr11xx/lr11xx_driver/src/lr11xx_wifi.c ****     {
 3424              		.loc 1 782 49 discriminator 1
 3425 01ee FA7D     		ldrb	r2, [r7, #23]	@ zero_extendqisi2
 3426 01f0 FB7B     		ldrb	r3, [r7, #15]	@ zero_extendqisi2
 3427 01f2 9A42     		cmp	r2, r3
 3428 01f4 FFF410AF 		bcc	.L101
 3429              	.LBE13:
 811:../../../../lr11xx/lr11xx_driver/src/lr11xx_wifi.c ****     }
 812:../../../../lr11xx/lr11xx_driver/src/lr11xx_wifi.c **** }
 3430              		.loc 1 812 1
 3431 01f8 00BF     		nop
 3432 01fa 00BF     		nop
 3433 01fc 1837     		adds	r7, r7, #24
 3434              	.LCFI168:
 3435              		.cfi_def_cfa_offset 8
 3436 01fe BD46     		mov	sp, r7
 3437              	.LCFI169:
 3438              		.cfi_def_cfa_register 13
 3439              		@ sp needed
 3440 0200 80BD     		pop	{r7, pc}
 3441              		.cfi_endproc
 3442              	.LFE32:
 3444              		.section	.text.lr11xx_wifi_is_well_formed_utf8_byte_sequence,"ax",%progbits
 3445              		.align	1
 3446              		.global	lr11xx_wifi_is_well_formed_utf8_byte_sequence
 3447              		.syntax unified
 3448              		.thumb
 3449              		.thumb_func
 3451              	lr11xx_wifi_is_well_formed_utf8_byte_sequence:
 3452              	.LFB33:
 813:../../../../lr11xx/lr11xx_driver/src/lr11xx_wifi.c **** 
 814:../../../../lr11xx/lr11xx_driver/src/lr11xx_wifi.c **** bool lr11xx_wifi_is_well_formed_utf8_byte_sequence( const uint8_t* buffer, const uint8_t length )
 815:../../../../lr11xx/lr11xx_driver/src/lr11xx_wifi.c **** {
 3453              		.loc 1 815 1
 3454              		.cfi_startproc
 3455              		@ args = 0, pretend = 0, frame = 16
ARM GAS  C:\msys64\tmp\ccFuKh1Y.s 			page 76


 3456              		@ frame_needed = 1, uses_anonymous_args = 0
 3457              		@ link register save eliminated.
 3458 0000 80B4     		push	{r7}
 3459              	.LCFI170:
 3460              		.cfi_def_cfa_offset 4
 3461              		.cfi_offset 7, -4
 3462 0002 85B0     		sub	sp, sp, #20
 3463              	.LCFI171:
 3464              		.cfi_def_cfa_offset 24
 3465 0004 00AF     		add	r7, sp, #0
 3466              	.LCFI172:
 3467              		.cfi_def_cfa_register 7
 3468 0006 7860     		str	r0, [r7, #4]
 3469 0008 0B46     		mov	r3, r1
 3470 000a FB70     		strb	r3, [r7, #3]
 816:../../../../lr11xx/lr11xx_driver/src/lr11xx_wifi.c ****     uint8_t index = 0;
 3471              		.loc 1 816 13
 3472 000c 0023     		movs	r3, #0
 3473 000e FB73     		strb	r3, [r7, #15]
 817:../../../../lr11xx/lr11xx_driver/src/lr11xx_wifi.c **** 
 818:../../../../lr11xx/lr11xx_driver/src/lr11xx_wifi.c ****     while( index < length )
 3474              		.loc 1 818 10
 3475 0010 92E1     		b	.L103
 3476              	.L115:
 819:../../../../lr11xx/lr11xx_driver/src/lr11xx_wifi.c ****     {
 820:../../../../lr11xx/lr11xx_driver/src/lr11xx_wifi.c ****         if( IS_INFERIOR( buffer[index], 0x7F ) )
 3477              		.loc 1 820 13
 3478 0012 FB7B     		ldrb	r3, [r7, #15]	@ zero_extendqisi2
 3479 0014 7A68     		ldr	r2, [r7, #4]
 3480 0016 1344     		add	r3, r3, r2
 3481 0018 1B78     		ldrb	r3, [r3]	@ zero_extendqisi2
 3482 001a 5BB2     		sxtb	r3, r3
 3483              		.loc 1 820 11
 3484 001c 002B     		cmp	r3, #0
 3485 001e 03DB     		blt	.L104
 821:../../../../lr11xx/lr11xx_driver/src/lr11xx_wifi.c ****         {
 822:../../../../lr11xx/lr11xx_driver/src/lr11xx_wifi.c ****             index += 1;
 3486              		.loc 1 822 19
 3487 0020 FB7B     		ldrb	r3, [r7, #15]
 3488 0022 0133     		adds	r3, r3, #1
 3489 0024 FB73     		strb	r3, [r7, #15]
 823:../../../../lr11xx/lr11xx_driver/src/lr11xx_wifi.c ****             continue;
 3490              		.loc 1 823 13
 3491 0026 87E1     		b	.L103
 3492              	.L104:
 824:../../../../lr11xx/lr11xx_driver/src/lr11xx_wifi.c ****         }
 825:../../../../lr11xx/lr11xx_driver/src/lr11xx_wifi.c **** 
 826:../../../../lr11xx/lr11xx_driver/src/lr11xx_wifi.c ****         if( length - index >= 2 )
 3493              		.loc 1 826 20
 3494 0028 FA78     		ldrb	r2, [r7, #3]	@ zero_extendqisi2
 3495 002a FB7B     		ldrb	r3, [r7, #15]	@ zero_extendqisi2
 3496 002c D31A     		subs	r3, r2, r3
 3497              		.loc 1 826 11
 3498 002e 012B     		cmp	r3, #1
 3499 0030 40F38081 		ble	.L106
 827:../../../../lr11xx/lr11xx_driver/src/lr11xx_wifi.c ****         {
 828:../../../../lr11xx/lr11xx_driver/src/lr11xx_wifi.c ****             if( IS_BETWEEN( buffer[index], 0xC2, 0xDF ) && IS_BETWEEN_0x80_AND_0xBF( buffer[index +
ARM GAS  C:\msys64\tmp\ccFuKh1Y.s 			page 77


 3500              		.loc 1 828 17
 3501 0034 FB7B     		ldrb	r3, [r7, #15]	@ zero_extendqisi2
 3502 0036 7A68     		ldr	r2, [r7, #4]
 3503 0038 1344     		add	r3, r3, r2
 3504 003a 1B78     		ldrb	r3, [r3]	@ zero_extendqisi2
 3505              		.loc 1 828 15
 3506 003c C12B     		cmp	r3, #193
 3507 003e 18D9     		bls	.L107
 3508              		.loc 1 828 17 discriminator 1
 3509 0040 FB7B     		ldrb	r3, [r7, #15]	@ zero_extendqisi2
 3510 0042 7A68     		ldr	r2, [r7, #4]
 3511 0044 1344     		add	r3, r3, r2
 3512 0046 1B78     		ldrb	r3, [r3]	@ zero_extendqisi2
 3513 0048 DF2B     		cmp	r3, #223
 3514 004a 12D8     		bhi	.L107
 3515              		.loc 1 828 60 discriminator 2
 3516 004c FB7B     		ldrb	r3, [r7, #15]	@ zero_extendqisi2
 3517 004e 0133     		adds	r3, r3, #1
 3518 0050 7A68     		ldr	r2, [r7, #4]
 3519 0052 1344     		add	r3, r3, r2
 3520 0054 1B78     		ldrb	r3, [r3]	@ zero_extendqisi2
 3521 0056 5BB2     		sxtb	r3, r3
 3522              		.loc 1 828 57 discriminator 2
 3523 0058 002B     		cmp	r3, #0
 3524 005a 0ADA     		bge	.L107
 3525              		.loc 1 828 60 discriminator 3
 3526 005c FB7B     		ldrb	r3, [r7, #15]	@ zero_extendqisi2
 3527 005e 0133     		adds	r3, r3, #1
 3528 0060 7A68     		ldr	r2, [r7, #4]
 3529 0062 1344     		add	r3, r3, r2
 3530 0064 1B78     		ldrb	r3, [r3]	@ zero_extendqisi2
 3531 0066 BF2B     		cmp	r3, #191
 3532 0068 03D8     		bhi	.L107
 829:../../../../lr11xx/lr11xx_driver/src/lr11xx_wifi.c ****             {
 830:../../../../lr11xx/lr11xx_driver/src/lr11xx_wifi.c ****                 index += 2;
 3533              		.loc 1 830 23
 3534 006a FB7B     		ldrb	r3, [r7, #15]
 3535 006c 0233     		adds	r3, r3, #2
 3536 006e FB73     		strb	r3, [r7, #15]
 831:../../../../lr11xx/lr11xx_driver/src/lr11xx_wifi.c ****                 continue;
 3537              		.loc 1 831 17
 3538 0070 62E1     		b	.L103
 3539              	.L107:
 832:../../../../lr11xx/lr11xx_driver/src/lr11xx_wifi.c ****             }
 833:../../../../lr11xx/lr11xx_driver/src/lr11xx_wifi.c **** 
 834:../../../../lr11xx/lr11xx_driver/src/lr11xx_wifi.c ****             if( length - index >= 3 )
 3540              		.loc 1 834 24
 3541 0072 FA78     		ldrb	r2, [r7, #3]	@ zero_extendqisi2
 3542 0074 FB7B     		ldrb	r3, [r7, #15]	@ zero_extendqisi2
 3543 0076 D31A     		subs	r3, r2, r3
 3544              		.loc 1 834 15
 3545 0078 022B     		cmp	r3, #2
 3546 007a 40F35B81 		ble	.L106
 835:../../../../lr11xx/lr11xx_driver/src/lr11xx_wifi.c ****             {
 836:../../../../lr11xx/lr11xx_driver/src/lr11xx_wifi.c ****                 if( ( buffer[index] == 0xE0 ) && IS_BETWEEN( buffer[index + 1], 0xA0, 0xBF ) &&
 3547              		.loc 1 836 29
 3548 007e FB7B     		ldrb	r3, [r7, #15]	@ zero_extendqisi2
ARM GAS  C:\msys64\tmp\ccFuKh1Y.s 			page 78


 3549 0080 7A68     		ldr	r2, [r7, #4]
 3550 0082 1344     		add	r3, r3, r2
 3551 0084 1B78     		ldrb	r3, [r3]	@ zero_extendqisi2
 3552              		.loc 1 836 19
 3553 0086 E02B     		cmp	r3, #224
 3554 0088 20D1     		bne	.L108
 3555              		.loc 1 836 50 discriminator 1
 3556 008a FB7B     		ldrb	r3, [r7, #15]	@ zero_extendqisi2
 3557 008c 0133     		adds	r3, r3, #1
 3558 008e 7A68     		ldr	r2, [r7, #4]
 3559 0090 1344     		add	r3, r3, r2
 3560 0092 1B78     		ldrb	r3, [r3]	@ zero_extendqisi2
 3561              		.loc 1 836 47 discriminator 1
 3562 0094 9F2B     		cmp	r3, #159
 3563 0096 19D9     		bls	.L108
 3564              		.loc 1 836 50 discriminator 2
 3565 0098 FB7B     		ldrb	r3, [r7, #15]	@ zero_extendqisi2
 3566 009a 0133     		adds	r3, r3, #1
 3567 009c 7A68     		ldr	r2, [r7, #4]
 3568 009e 1344     		add	r3, r3, r2
 3569 00a0 1B78     		ldrb	r3, [r3]	@ zero_extendqisi2
 3570 00a2 BF2B     		cmp	r3, #191
 3571 00a4 12D8     		bhi	.L108
 837:../../../../lr11xx/lr11xx_driver/src/lr11xx_wifi.c ****                     IS_BETWEEN_0x80_AND_0xBF( buffer[index + 2] ) )
 3572              		.loc 1 837 21
 3573 00a6 FB7B     		ldrb	r3, [r7, #15]	@ zero_extendqisi2
 3574 00a8 0233     		adds	r3, r3, #2
 3575 00aa 7A68     		ldr	r2, [r7, #4]
 3576 00ac 1344     		add	r3, r3, r2
 3577 00ae 1B78     		ldrb	r3, [r3]	@ zero_extendqisi2
 3578 00b0 5BB2     		sxtb	r3, r3
 836:../../../../lr11xx/lr11xx_driver/src/lr11xx_wifi.c ****                     IS_BETWEEN_0x80_AND_0xBF( buffer[index + 2] ) )
 3579              		.loc 1 836 94 discriminator 3
 3580 00b2 002B     		cmp	r3, #0
 3581 00b4 0ADA     		bge	.L108
 3582              		.loc 1 837 21
 3583 00b6 FB7B     		ldrb	r3, [r7, #15]	@ zero_extendqisi2
 3584 00b8 0233     		adds	r3, r3, #2
 3585 00ba 7A68     		ldr	r2, [r7, #4]
 3586 00bc 1344     		add	r3, r3, r2
 3587 00be 1B78     		ldrb	r3, [r3]	@ zero_extendqisi2
 3588 00c0 BF2B     		cmp	r3, #191
 3589 00c2 03D8     		bhi	.L108
 838:../../../../lr11xx/lr11xx_driver/src/lr11xx_wifi.c ****                 {
 839:../../../../lr11xx/lr11xx_driver/src/lr11xx_wifi.c ****                     index += 3;
 3590              		.loc 1 839 27
 3591 00c4 FB7B     		ldrb	r3, [r7, #15]
 3592 00c6 0333     		adds	r3, r3, #3
 3593 00c8 FB73     		strb	r3, [r7, #15]
 840:../../../../lr11xx/lr11xx_driver/src/lr11xx_wifi.c ****                     continue;
 3594              		.loc 1 840 21
 3595 00ca 35E1     		b	.L103
 3596              	.L108:
 841:../../../../lr11xx/lr11xx_driver/src/lr11xx_wifi.c ****                 }
 842:../../../../lr11xx/lr11xx_driver/src/lr11xx_wifi.c ****                 else if( IS_BETWEEN( buffer[index], 0xE1, 0xEC ) && IS_BETWEEN_0x80_AND_0xBF( buffe
 3597              		.loc 1 842 26
 3598 00cc FB7B     		ldrb	r3, [r7, #15]	@ zero_extendqisi2
ARM GAS  C:\msys64\tmp\ccFuKh1Y.s 			page 79


 3599 00ce 7A68     		ldr	r2, [r7, #4]
 3600 00d0 1344     		add	r3, r3, r2
 3601 00d2 1B78     		ldrb	r3, [r3]	@ zero_extendqisi2
 3602              		.loc 1 842 24
 3603 00d4 E02B     		cmp	r3, #224
 3604 00d6 27D9     		bls	.L109
 3605              		.loc 1 842 26 discriminator 1
 3606 00d8 FB7B     		ldrb	r3, [r7, #15]	@ zero_extendqisi2
 3607 00da 7A68     		ldr	r2, [r7, #4]
 3608 00dc 1344     		add	r3, r3, r2
 3609 00de 1B78     		ldrb	r3, [r3]	@ zero_extendqisi2
 3610 00e0 EC2B     		cmp	r3, #236
 3611 00e2 21D8     		bhi	.L109
 3612              		.loc 1 842 69 discriminator 2
 3613 00e4 FB7B     		ldrb	r3, [r7, #15]	@ zero_extendqisi2
 3614 00e6 0133     		adds	r3, r3, #1
 3615 00e8 7A68     		ldr	r2, [r7, #4]
 3616 00ea 1344     		add	r3, r3, r2
 3617 00ec 1B78     		ldrb	r3, [r3]	@ zero_extendqisi2
 3618 00ee 5BB2     		sxtb	r3, r3
 3619              		.loc 1 842 66 discriminator 2
 3620 00f0 002B     		cmp	r3, #0
 3621 00f2 19DA     		bge	.L109
 3622              		.loc 1 842 69 discriminator 3
 3623 00f4 FB7B     		ldrb	r3, [r7, #15]	@ zero_extendqisi2
 3624 00f6 0133     		adds	r3, r3, #1
 3625 00f8 7A68     		ldr	r2, [r7, #4]
 3626 00fa 1344     		add	r3, r3, r2
 3627 00fc 1B78     		ldrb	r3, [r3]	@ zero_extendqisi2
 3628 00fe BF2B     		cmp	r3, #191
 3629 0100 12D8     		bhi	.L109
 843:../../../../lr11xx/lr11xx_driver/src/lr11xx_wifi.c ****                          IS_BETWEEN_0x80_AND_0xBF( buffer[index + 2] ) )
 3630              		.loc 1 843 26
 3631 0102 FB7B     		ldrb	r3, [r7, #15]	@ zero_extendqisi2
 3632 0104 0233     		adds	r3, r3, #2
 3633 0106 7A68     		ldr	r2, [r7, #4]
 3634 0108 1344     		add	r3, r3, r2
 3635 010a 1B78     		ldrb	r3, [r3]	@ zero_extendqisi2
 3636 010c 5BB2     		sxtb	r3, r3
 842:../../../../lr11xx/lr11xx_driver/src/lr11xx_wifi.c ****                          IS_BETWEEN_0x80_AND_0xBF( buffer[index + 2] ) )
 3637              		.loc 1 842 115 discriminator 4
 3638 010e 002B     		cmp	r3, #0
 3639 0110 0ADA     		bge	.L109
 3640              		.loc 1 843 26
 3641 0112 FB7B     		ldrb	r3, [r7, #15]	@ zero_extendqisi2
 3642 0114 0233     		adds	r3, r3, #2
 3643 0116 7A68     		ldr	r2, [r7, #4]
 3644 0118 1344     		add	r3, r3, r2
 3645 011a 1B78     		ldrb	r3, [r3]	@ zero_extendqisi2
 3646 011c BF2B     		cmp	r3, #191
 3647 011e 03D8     		bhi	.L109
 844:../../../../lr11xx/lr11xx_driver/src/lr11xx_wifi.c ****                 {
 845:../../../../lr11xx/lr11xx_driver/src/lr11xx_wifi.c ****                     index += 3;
 3648              		.loc 1 845 27
 3649 0120 FB7B     		ldrb	r3, [r7, #15]
 3650 0122 0333     		adds	r3, r3, #3
 3651 0124 FB73     		strb	r3, [r7, #15]
ARM GAS  C:\msys64\tmp\ccFuKh1Y.s 			page 80


 846:../../../../lr11xx/lr11xx_driver/src/lr11xx_wifi.c ****                     continue;
 3652              		.loc 1 846 21
 3653 0126 07E1     		b	.L103
 3654              	.L109:
 847:../../../../lr11xx/lr11xx_driver/src/lr11xx_wifi.c ****                 }
 848:../../../../lr11xx/lr11xx_driver/src/lr11xx_wifi.c ****                 else if( ( buffer[index] == 0xED ) && IS_BETWEEN( buffer[index + 1], 0x80, 0x9F ) &
 3655              		.loc 1 848 34
 3656 0128 FB7B     		ldrb	r3, [r7, #15]	@ zero_extendqisi2
 3657 012a 7A68     		ldr	r2, [r7, #4]
 3658 012c 1344     		add	r3, r3, r2
 3659 012e 1B78     		ldrb	r3, [r3]	@ zero_extendqisi2
 3660              		.loc 1 848 24
 3661 0130 ED2B     		cmp	r3, #237
 3662 0132 21D1     		bne	.L110
 3663              		.loc 1 848 55 discriminator 1
 3664 0134 FB7B     		ldrb	r3, [r7, #15]	@ zero_extendqisi2
 3665 0136 0133     		adds	r3, r3, #1
 3666 0138 7A68     		ldr	r2, [r7, #4]
 3667 013a 1344     		add	r3, r3, r2
 3668 013c 1B78     		ldrb	r3, [r3]	@ zero_extendqisi2
 3669 013e 5BB2     		sxtb	r3, r3
 3670              		.loc 1 848 52 discriminator 1
 3671 0140 002B     		cmp	r3, #0
 3672 0142 19DA     		bge	.L110
 3673              		.loc 1 848 55 discriminator 2
 3674 0144 FB7B     		ldrb	r3, [r7, #15]	@ zero_extendqisi2
 3675 0146 0133     		adds	r3, r3, #1
 3676 0148 7A68     		ldr	r2, [r7, #4]
 3677 014a 1344     		add	r3, r3, r2
 3678 014c 1B78     		ldrb	r3, [r3]	@ zero_extendqisi2
 3679 014e 9F2B     		cmp	r3, #159
 3680 0150 12D8     		bhi	.L110
 849:../../../../lr11xx/lr11xx_driver/src/lr11xx_wifi.c ****                          IS_BETWEEN_0x80_AND_0xBF( buffer[index + 2] ) )
 3681              		.loc 1 849 26
 3682 0152 FB7B     		ldrb	r3, [r7, #15]	@ zero_extendqisi2
 3683 0154 0233     		adds	r3, r3, #2
 3684 0156 7A68     		ldr	r2, [r7, #4]
 3685 0158 1344     		add	r3, r3, r2
 3686 015a 1B78     		ldrb	r3, [r3]	@ zero_extendqisi2
 3687 015c 5BB2     		sxtb	r3, r3
 848:../../../../lr11xx/lr11xx_driver/src/lr11xx_wifi.c ****                          IS_BETWEEN_0x80_AND_0xBF( buffer[index + 2] ) )
 3688              		.loc 1 848 99 discriminator 3
 3689 015e 002B     		cmp	r3, #0
 3690 0160 0ADA     		bge	.L110
 3691              		.loc 1 849 26
 3692 0162 FB7B     		ldrb	r3, [r7, #15]	@ zero_extendqisi2
 3693 0164 0233     		adds	r3, r3, #2
 3694 0166 7A68     		ldr	r2, [r7, #4]
 3695 0168 1344     		add	r3, r3, r2
 3696 016a 1B78     		ldrb	r3, [r3]	@ zero_extendqisi2
 3697 016c BF2B     		cmp	r3, #191
 3698 016e 03D8     		bhi	.L110
 850:../../../../lr11xx/lr11xx_driver/src/lr11xx_wifi.c ****                 {
 851:../../../../lr11xx/lr11xx_driver/src/lr11xx_wifi.c ****                     index += 3;
 3699              		.loc 1 851 27
 3700 0170 FB7B     		ldrb	r3, [r7, #15]
 3701 0172 0333     		adds	r3, r3, #3
ARM GAS  C:\msys64\tmp\ccFuKh1Y.s 			page 81


 3702 0174 FB73     		strb	r3, [r7, #15]
 852:../../../../lr11xx/lr11xx_driver/src/lr11xx_wifi.c ****                     continue;
 3703              		.loc 1 852 21
 3704 0176 DFE0     		b	.L103
 3705              	.L110:
 853:../../../../lr11xx/lr11xx_driver/src/lr11xx_wifi.c ****                 }
 854:../../../../lr11xx/lr11xx_driver/src/lr11xx_wifi.c ****                 else if( IS_BETWEEN( buffer[index], 0xEE, 0xEF ) && IS_BETWEEN_0x80_AND_0xBF( buffe
 3706              		.loc 1 854 26
 3707 0178 FB7B     		ldrb	r3, [r7, #15]	@ zero_extendqisi2
 3708 017a 7A68     		ldr	r2, [r7, #4]
 3709 017c 1344     		add	r3, r3, r2
 3710 017e 1B78     		ldrb	r3, [r3]	@ zero_extendqisi2
 3711              		.loc 1 854 24
 3712 0180 ED2B     		cmp	r3, #237
 3713 0182 27D9     		bls	.L111
 3714              		.loc 1 854 26 discriminator 1
 3715 0184 FB7B     		ldrb	r3, [r7, #15]	@ zero_extendqisi2
 3716 0186 7A68     		ldr	r2, [r7, #4]
 3717 0188 1344     		add	r3, r3, r2
 3718 018a 1B78     		ldrb	r3, [r3]	@ zero_extendqisi2
 3719 018c EF2B     		cmp	r3, #239
 3720 018e 21D8     		bhi	.L111
 3721              		.loc 1 854 69 discriminator 2
 3722 0190 FB7B     		ldrb	r3, [r7, #15]	@ zero_extendqisi2
 3723 0192 0133     		adds	r3, r3, #1
 3724 0194 7A68     		ldr	r2, [r7, #4]
 3725 0196 1344     		add	r3, r3, r2
 3726 0198 1B78     		ldrb	r3, [r3]	@ zero_extendqisi2
 3727 019a 5BB2     		sxtb	r3, r3
 3728              		.loc 1 854 66 discriminator 2
 3729 019c 002B     		cmp	r3, #0
 3730 019e 19DA     		bge	.L111
 3731              		.loc 1 854 69 discriminator 3
 3732 01a0 FB7B     		ldrb	r3, [r7, #15]	@ zero_extendqisi2
 3733 01a2 0133     		adds	r3, r3, #1
 3734 01a4 7A68     		ldr	r2, [r7, #4]
 3735 01a6 1344     		add	r3, r3, r2
 3736 01a8 1B78     		ldrb	r3, [r3]	@ zero_extendqisi2
 3737 01aa BF2B     		cmp	r3, #191
 3738 01ac 12D8     		bhi	.L111
 855:../../../../lr11xx/lr11xx_driver/src/lr11xx_wifi.c ****                          IS_BETWEEN_0x80_AND_0xBF( buffer[index + 2] ) )
 3739              		.loc 1 855 26
 3740 01ae FB7B     		ldrb	r3, [r7, #15]	@ zero_extendqisi2
 3741 01b0 0233     		adds	r3, r3, #2
 3742 01b2 7A68     		ldr	r2, [r7, #4]
 3743 01b4 1344     		add	r3, r3, r2
 3744 01b6 1B78     		ldrb	r3, [r3]	@ zero_extendqisi2
 3745 01b8 5BB2     		sxtb	r3, r3
 854:../../../../lr11xx/lr11xx_driver/src/lr11xx_wifi.c ****                          IS_BETWEEN_0x80_AND_0xBF( buffer[index + 2] ) )
 3746              		.loc 1 854 115 discriminator 4
 3747 01ba 002B     		cmp	r3, #0
 3748 01bc 0ADA     		bge	.L111
 3749              		.loc 1 855 26
 3750 01be FB7B     		ldrb	r3, [r7, #15]	@ zero_extendqisi2
 3751 01c0 0233     		adds	r3, r3, #2
 3752 01c2 7A68     		ldr	r2, [r7, #4]
 3753 01c4 1344     		add	r3, r3, r2
ARM GAS  C:\msys64\tmp\ccFuKh1Y.s 			page 82


 3754 01c6 1B78     		ldrb	r3, [r3]	@ zero_extendqisi2
 3755 01c8 BF2B     		cmp	r3, #191
 3756 01ca 03D8     		bhi	.L111
 856:../../../../lr11xx/lr11xx_driver/src/lr11xx_wifi.c ****                 {
 857:../../../../lr11xx/lr11xx_driver/src/lr11xx_wifi.c ****                     index += 3;
 3757              		.loc 1 857 27
 3758 01cc FB7B     		ldrb	r3, [r7, #15]
 3759 01ce 0333     		adds	r3, r3, #3
 3760 01d0 FB73     		strb	r3, [r7, #15]
 858:../../../../lr11xx/lr11xx_driver/src/lr11xx_wifi.c ****                     continue;
 3761              		.loc 1 858 21
 3762 01d2 B1E0     		b	.L103
 3763              	.L111:
 859:../../../../lr11xx/lr11xx_driver/src/lr11xx_wifi.c ****                 }
 860:../../../../lr11xx/lr11xx_driver/src/lr11xx_wifi.c **** 
 861:../../../../lr11xx/lr11xx_driver/src/lr11xx_wifi.c ****                 if( length - index >= 4 )
 3764              		.loc 1 861 28
 3765 01d4 FA78     		ldrb	r2, [r7, #3]	@ zero_extendqisi2
 3766 01d6 FB7B     		ldrb	r3, [r7, #15]	@ zero_extendqisi2
 3767 01d8 D31A     		subs	r3, r2, r3
 3768              		.loc 1 861 19
 3769 01da 032B     		cmp	r3, #3
 3770 01dc 40F3AA80 		ble	.L106
 862:../../../../lr11xx/lr11xx_driver/src/lr11xx_wifi.c ****                 {
 863:../../../../lr11xx/lr11xx_driver/src/lr11xx_wifi.c ****                     if( ( buffer[index] == 0xF0 ) && IS_BETWEEN( buffer[index + 1], 0x90, 0xBF ) &&
 3771              		.loc 1 863 33
 3772 01e0 FB7B     		ldrb	r3, [r7, #15]	@ zero_extendqisi2
 3773 01e2 7A68     		ldr	r2, [r7, #4]
 3774 01e4 1344     		add	r3, r3, r2
 3775 01e6 1B78     		ldrb	r3, [r3]	@ zero_extendqisi2
 3776              		.loc 1 863 23
 3777 01e8 F02B     		cmp	r3, #240
 3778 01ea 2FD1     		bne	.L112
 3779              		.loc 1 863 54 discriminator 1
 3780 01ec FB7B     		ldrb	r3, [r7, #15]	@ zero_extendqisi2
