ARM GAS  C:\msys64\tmp\ccwHIjYg.s 			page 1


   1              		.cpu cortex-m4
   2              		.arch armv7e-m
   3              		.fpu fpv4-sp-d16
   4              		.eabi_attribute 27, 1
   5              		.eabi_attribute 28, 1
   6              		.eabi_attribute 20, 1
   7              		.eabi_attribute 21, 1
   8              		.eabi_attribute 23, 3
   9              		.eabi_attribute 24, 1
  10              		.eabi_attribute 25, 1
  11              		.eabi_attribute 26, 1
  12              		.eabi_attribute 30, 6
  13              		.eabi_attribute 34, 1
  14              		.eabi_attribute 18, 4
  15              		.file	"apps_common.c"
  16              		.text
  17              	.Ltext0:
  18              		.cfi_sections	.debug_frame
  19              		.file 1 "../../../../lr11xx/common/apps_common.c"
  20              		.section	.rodata.gfsk_sync_word,"a"
  21              		.align	2
  24              	gfsk_sync_word:
  25 0000 01234567 		.ascii	"\001#Eg\211\253\315\357"
  25      89ABCDEF 
  26              		.section	.text.apps_common_compute_lora_ldro,"ax",%progbits
  27              		.align	1
  28              		.syntax unified
  29              		.thumb
  30              		.thumb_func
  32              	apps_common_compute_lora_ldro:
  33              	.LFB239:
  34              		.file 2 "../../../../lr11xx/common/apps_common.h"
   1:../../../../lr11xx/common/apps_common.h **** /*!
   2:../../../../lr11xx/common/apps_common.h ****  * @file      apps_common.h
   3:../../../../lr11xx/common/apps_common.h ****  *
   4:../../../../lr11xx/common/apps_common.h ****  * @brief     Common functions shared by the examples
   5:../../../../lr11xx/common/apps_common.h ****  *
   6:../../../../lr11xx/common/apps_common.h ****  * @copyright
   7:../../../../lr11xx/common/apps_common.h ****  * The Clear BSD License
   8:../../../../lr11xx/common/apps_common.h ****  * Copyright Semtech Corporation 2022. All rights reserved.
   9:../../../../lr11xx/common/apps_common.h ****  *
  10:../../../../lr11xx/common/apps_common.h ****  * Redistribution and use in source and binary forms, with or without
  11:../../../../lr11xx/common/apps_common.h ****  * modification, are permitted (subject to the limitations in the disclaimer
  12:../../../../lr11xx/common/apps_common.h ****  * below) provided that the following conditions are met:
  13:../../../../lr11xx/common/apps_common.h ****  *     * Redistributions of source code must retain the above copyright
  14:../../../../lr11xx/common/apps_common.h ****  *       notice, this list of conditions and the following disclaimer.
  15:../../../../lr11xx/common/apps_common.h ****  *     * Redistributions in binary form must reproduce the above copyright
  16:../../../../lr11xx/common/apps_common.h ****  *       notice, this list of conditions and the following disclaimer in the
  17:../../../../lr11xx/common/apps_common.h ****  *       documentation and/or other materials provided with the distribution.
  18:../../../../lr11xx/common/apps_common.h ****  *     * Neither the name of the Semtech corporation nor the
  19:../../../../lr11xx/common/apps_common.h ****  *       names of its contributors may be used to endorse or promote products
  20:../../../../lr11xx/common/apps_common.h ****  *       derived from this software without specific prior written permission.
  21:../../../../lr11xx/common/apps_common.h ****  *
  22:../../../../lr11xx/common/apps_common.h ****  * NO EXPRESS OR IMPLIED LICENSES TO ANY PARTY'S PATENT RIGHTS ARE GRANTED BY
  23:../../../../lr11xx/common/apps_common.h ****  * THIS LICENSE. THIS SOFTWARE IS PROVIDED BY THE COPYRIGHT HOLDERS AND
  24:../../../../lr11xx/common/apps_common.h ****  * CONTRIBUTORS "AS IS" AND ANY EXPRESS OR IMPLIED WARRANTIES, INCLUDING, BUT
  25:../../../../lr11xx/common/apps_common.h ****  * NOT LIMITED TO, THE IMPLIED WARRANTIES OF MERCHANTABILITY AND FITNESS FOR A
ARM GAS  C:\msys64\tmp\ccwHIjYg.s 			page 2


  26:../../../../lr11xx/common/apps_common.h ****  * PARTICULAR PURPOSE ARE DISCLAIMED. IN NO EVENT SHALL SEMTECH CORPORATION BE
  27:../../../../lr11xx/common/apps_common.h ****  * LIABLE FOR ANY DIRECT, INDIRECT, INCIDENTAL, SPECIAL, EXEMPLARY, OR
  28:../../../../lr11xx/common/apps_common.h ****  * CONSEQUENTIAL DAMAGES (INCLUDING, BUT NOT LIMITED TO, PROCUREMENT OF
  29:../../../../lr11xx/common/apps_common.h ****  * SUBSTITUTE GOODS OR SERVICES; LOSS OF USE, DATA, OR PROFITS; OR BUSINESS
  30:../../../../lr11xx/common/apps_common.h ****  * INTERRUPTION) HOWEVER CAUSED AND ON ANY THEORY OF LIABILITY, WHETHER IN
  31:../../../../lr11xx/common/apps_common.h ****  * CONTRACT, STRICT LIABILITY, OR TORT (INCLUDING NEGLIGENCE OR OTHERWISE)
  32:../../../../lr11xx/common/apps_common.h ****  * ARISING IN ANY WAY OUT OF THE USE OF THIS SOFTWARE, EVEN IF ADVISED OF THE
  33:../../../../lr11xx/common/apps_common.h ****  * POSSIBILITY OF SUCH DAMAGE.
  34:../../../../lr11xx/common/apps_common.h ****  */
  35:../../../../lr11xx/common/apps_common.h **** 
  36:../../../../lr11xx/common/apps_common.h **** #ifndef APPS_COMMON_H
  37:../../../../lr11xx/common/apps_common.h **** #define APPS_COMMON_H
  38:../../../../lr11xx/common/apps_common.h **** 
  39:../../../../lr11xx/common/apps_common.h **** #ifdef __cplusplus
  40:../../../../lr11xx/common/apps_common.h **** extern "C" {
  41:../../../../lr11xx/common/apps_common.h **** #endif
  42:../../../../lr11xx/common/apps_common.h **** 
  43:../../../../lr11xx/common/apps_common.h **** /*
  44:../../../../lr11xx/common/apps_common.h ****  * -----------------------------------------------------------------------------
  45:../../../../lr11xx/common/apps_common.h ****  * --- DEPENDENCIES ------------------------------------------------------------
  46:../../../../lr11xx/common/apps_common.h ****  */
  47:../../../../lr11xx/common/apps_common.h **** 
  48:../../../../lr11xx/common/apps_common.h **** #include <stdint.h>
  49:../../../../lr11xx/common/apps_common.h **** #include "lr11xx_radio_types_str.h"
  50:../../../../lr11xx/common/apps_common.h **** #include "apps_configuration.h"
  51:../../../../lr11xx/common/apps_common.h **** #include "lr11xx_hal_context.h"
  52:../../../../lr11xx/common/apps_common.h **** #include "lr11xx_system_types.h"
  53:../../../../lr11xx/common/apps_common.h **** #include "lr11xx_radio_types.h"
  54:../../../../lr11xx/common/apps_common.h **** #include "lr11xx_radio.h"
  55:../../../../lr11xx/common/apps_common.h **** 
  56:../../../../lr11xx/common/apps_common.h **** /*
  57:../../../../lr11xx/common/apps_common.h ****  * -----------------------------------------------------------------------------
  58:../../../../lr11xx/common/apps_common.h ****  * --- PUBLIC MACROS -----------------------------------------------------------
  59:../../../../lr11xx/common/apps_common.h ****  */
  60:../../../../lr11xx/common/apps_common.h **** #define RX_CONTINUOUS 0xFFFFFF
  61:../../../../lr11xx/common/apps_common.h **** 
  62:../../../../lr11xx/common/apps_common.h **** /*
  63:../../../../lr11xx/common/apps_common.h ****  * -----------------------------------------------------------------------------
  64:../../../../lr11xx/common/apps_common.h ****  * --- PUBLIC CONSTANTS --------------------------------------------------------
  65:../../../../lr11xx/common/apps_common.h ****  */
  66:../../../../lr11xx/common/apps_common.h **** 
  67:../../../../lr11xx/common/apps_common.h **** #define LR1110_LATEST_FW_VERSION 0x0401
  68:../../../../lr11xx/common/apps_common.h **** #define LR1120_LATEST_FW_VERSION 0x0201
  69:../../../../lr11xx/common/apps_common.h **** #define LR1121_LATEST_FW_VERSION 0x0103
  70:../../../../lr11xx/common/apps_common.h **** 
  71:../../../../lr11xx/common/apps_common.h **** /*
  72:../../../../lr11xx/common/apps_common.h ****  * -----------------------------------------------------------------------------
  73:../../../../lr11xx/common/apps_common.h ****  * --- PUBLIC TYPES ------------------------------------------------------------
  74:../../../../lr11xx/common/apps_common.h ****  */
  75:../../../../lr11xx/common/apps_common.h **** 
  76:../../../../lr11xx/common/apps_common.h **** /*
  77:../../../../lr11xx/common/apps_common.h ****  * -----------------------------------------------------------------------------
  78:../../../../lr11xx/common/apps_common.h ****  * --- PUBLIC FUNCTIONS PROTOTYPES ---------------------------------------------
  79:../../../../lr11xx/common/apps_common.h ****  */
  80:../../../../lr11xx/common/apps_common.h **** 
  81:../../../../lr11xx/common/apps_common.h **** /*!
  82:../../../../lr11xx/common/apps_common.h ****  * @brief Interface to initialise and return the lr11xx_hal_context_t object corresponding to the b
ARM GAS  C:\msys64\tmp\ccwHIjYg.s 			page 3


  83:../../../../lr11xx/common/apps_common.h ****  *
  84:../../../../lr11xx/common/apps_common.h ****  * @warning It is up to the caller to ensure the context pointer stays valid for the life duration 
  85:../../../../lr11xx/common/apps_common.h ****  * lr11xx_hal_context_t created by this call
  86:../../../../lr11xx/common/apps_common.h ****  *
  87:../../../../lr11xx/common/apps_common.h ****  * @returns Pointer to the lr11xx_hal_context_t object of the board
  88:../../../../lr11xx/common/apps_common.h ****  */
  89:../../../../lr11xx/common/apps_common.h **** lr11xx_hal_context_t* apps_common_lr11xx_get_context( );
  90:../../../../lr11xx/common/apps_common.h **** 
  91:../../../../lr11xx/common/apps_common.h **** /*!
  92:../../../../lr11xx/common/apps_common.h ****  * @brief Initialize the system configuration of the transceiver
  93:../../../../lr11xx/common/apps_common.h ****  */
  94:../../../../lr11xx/common/apps_common.h **** void apps_common_shield_init( void );
  95:../../../../lr11xx/common/apps_common.h **** 
  96:../../../../lr11xx/common/apps_common.h **** /*!
  97:../../../../lr11xx/common/apps_common.h ****  * @brief Initialize the system configuration of the transceiver
  98:../../../../lr11xx/common/apps_common.h ****  *
  99:../../../../lr11xx/common/apps_common.h ****  * @param [in] context  Pointer to the radio context
 100:../../../../lr11xx/common/apps_common.h ****  */
 101:../../../../lr11xx/common/apps_common.h **** void apps_common_lr11xx_system_init( const lr11xx_hal_context_t* context );
 102:../../../../lr11xx/common/apps_common.h **** 
 103:../../../../lr11xx/common/apps_common.h **** /*!
 104:../../../../lr11xx/common/apps_common.h ****  * @brief Initialize the radio configuration of the transceiver
 105:../../../../lr11xx/common/apps_common.h ****  *
 106:../../../../lr11xx/common/apps_common.h ****  * @param [in] context  Pointer to the radio context
 107:../../../../lr11xx/common/apps_common.h ****  */
 108:../../../../lr11xx/common/apps_common.h **** void apps_common_lr11xx_radio_init( const void* context );
 109:../../../../lr11xx/common/apps_common.h **** 
 110:../../../../lr11xx/common/apps_common.h **** /*!
 111:../../../../lr11xx/common/apps_common.h ****  * @brief Initialize the radio configuration of the transceiver for dbpsk only
 112:../../../../lr11xx/common/apps_common.h ****  *
 113:../../../../lr11xx/common/apps_common.h ****  * @param [in] context  Pointer to the radio context
 114:../../../../lr11xx/common/apps_common.h ****  * @param [in] context  Length of the payload
 115:../../../../lr11xx/common/apps_common.h ****  */
 116:../../../../lr11xx/common/apps_common.h **** void apps_common_lr11xx_radio_dbpsk_init( const void* context, const uint8_t payload_len );
 117:../../../../lr11xx/common/apps_common.h **** 
 118:../../../../lr11xx/common/apps_common.h **** /*!
 119:../../../../lr11xx/common/apps_common.h ****  * @brief Initialize the radio configuration of the transceiver for RTToF only
 120:../../../../lr11xx/common/apps_common.h ****  *
 121:../../../../lr11xx/common/apps_common.h ****  * @param [in] context  Pointer to the radio context
 122:../../../../lr11xx/common/apps_common.h ****  */
 123:../../../../lr11xx/common/apps_common.h **** void apps_common_lr11xx_radio_rttof_init( const void* context );
 124:../../../../lr11xx/common/apps_common.h **** 
 125:../../../../lr11xx/common/apps_common.h **** /**
 126:../../../../lr11xx/common/apps_common.h ****  * @brief Fetch the version from the LR11xx and print it on the log interface
 127:../../../../lr11xx/common/apps_common.h ****  *
 128:../../../../lr11xx/common/apps_common.h ****  * @param [in] context  Pointer to the radio context
 129:../../../../lr11xx/common/apps_common.h ****  *
 130:../../../../lr11xx/common/apps_common.h ****  * @see apps_common_lr11xx_fetch_version, apps_common_lr11xx_print_version
 131:../../../../lr11xx/common/apps_common.h ****  */
 132:../../../../lr11xx/common/apps_common.h **** void apps_common_lr11xx_fetch_and_print_version( const lr11xx_hal_context_t* context );
 133:../../../../lr11xx/common/apps_common.h **** 
 134:../../../../lr11xx/common/apps_common.h **** /**
 135:../../../../lr11xx/common/apps_common.h ****  * @brief Fetch the version from the LR11xx
 136:../../../../lr11xx/common/apps_common.h ****  *
 137:../../../../lr11xx/common/apps_common.h ****  * @param [in] context  Pointer to the radio context
 138:../../../../lr11xx/common/apps_common.h ****  * @param [out] version  Version of the LR11XX
 139:../../../../lr11xx/common/apps_common.h ****  *
ARM GAS  C:\msys64\tmp\ccwHIjYg.s 			page 4


 140:../../../../lr11xx/common/apps_common.h ****  * @see apps_common_lr11xx_fetch_and_print_version, apps_common_lr11xx_print_version
 141:../../../../lr11xx/common/apps_common.h ****  */
 142:../../../../lr11xx/common/apps_common.h **** void apps_common_lr11xx_fetch_version( const lr11xx_hal_context_t* context, lr11xx_system_version_t
 143:../../../../lr11xx/common/apps_common.h **** 
 144:../../../../lr11xx/common/apps_common.h **** /**
 145:../../../../lr11xx/common/apps_common.h ****  * @brief Print the version from the LR11xx on the log interface
 146:../../../../lr11xx/common/apps_common.h ****  *
 147:../../../../lr11xx/common/apps_common.h ****  * @param [in] version  Version of the LR11XX
 148:../../../../lr11xx/common/apps_common.h ****  *
 149:../../../../lr11xx/common/apps_common.h ****  * @see apps_common_lr11xx_fetch_and_print_version, apps_common_lr11xx_fetch_version
 150:../../../../lr11xx/common/apps_common.h ****  */
 151:../../../../lr11xx/common/apps_common.h **** void apps_common_lr11xx_print_version( const lr11xx_system_version_t* version );
 152:../../../../lr11xx/common/apps_common.h **** 
 153:../../../../lr11xx/common/apps_common.h **** /**
 154:../../../../lr11xx/common/apps_common.h ****  * @brief Print the version of SDK and LR11XX driver
 155:../../../../lr11xx/common/apps_common.h ****  *
 156:../../../../lr11xx/common/apps_common.h ****  */
 157:../../../../lr11xx/common/apps_common.h **** void apps_common_print_sdk_driver_version( void );
 158:../../../../lr11xx/common/apps_common.h **** 
 159:../../../../lr11xx/common/apps_common.h **** void apps_common_lr11xx_handle_pre_tx( void );
 160:../../../../lr11xx/common/apps_common.h **** void apps_common_lr11xx_handle_post_tx( void );
 161:../../../../lr11xx/common/apps_common.h **** void apps_common_lr11xx_handle_pre_rx( void );
 162:../../../../lr11xx/common/apps_common.h **** void apps_common_lr11xx_handle_post_rx( void );
 163:../../../../lr11xx/common/apps_common.h **** void apps_common_lr11xx_handle_pre_gnss_scan( void );
 164:../../../../lr11xx/common/apps_common.h **** void apps_common_lr11xx_handle_post_gnss_scan( void );
 165:../../../../lr11xx/common/apps_common.h **** void apps_common_lr11xx_handle_pre_wifi_scan( void );
 166:../../../../lr11xx/common/apps_common.h **** void apps_common_lr11xx_handle_post_wifi_scan( void );
 167:../../../../lr11xx/common/apps_common.h **** 
 168:../../../../lr11xx/common/apps_common.h **** /*!
 169:../../../../lr11xx/common/apps_common.h ****  * @brief Interface to read bytes from rx buffer
 170:../../../../lr11xx/common/apps_common.h ****  *
 171:../../../../lr11xx/common/apps_common.h ****  * @param [in] context  Pointer to the radio context
 172:../../../../lr11xx/common/apps_common.h ****  * @param [in] buffer Pointer to a byte array to be filled with content from memory. Its size must 
 173:../../../../lr11xx/common/apps_common.h ****  * at least length bytes
 174:../../../../lr11xx/common/apps_common.h ****  * @param [in] buffer_length Length of the buffer to contain payload data
 175:../../../../lr11xx/common/apps_common.h ****  * @param [in] size Number of bytes to read from memory
 176:../../../../lr11xx/common/apps_common.h ****  */
 177:../../../../lr11xx/common/apps_common.h **** void apps_common_lr11xx_receive( const void* context, uint8_t* buffer, uint8_t buffer_length, uint8
 178:../../../../lr11xx/common/apps_common.h **** 
 179:../../../../lr11xx/common/apps_common.h **** /*!
 180:../../../../lr11xx/common/apps_common.h ****  * @brief Interface to lr11xx interrupt processing routine
 181:../../../../lr11xx/common/apps_common.h ****  *
 182:../../../../lr11xx/common/apps_common.h ****  * This function fetched the IRQ mask from the lr11xx and process the raised IRQ if the correspondi
 183:../../../../lr11xx/common/apps_common.h ****  * irq_filter.
 184:../../../../lr11xx/common/apps_common.h ****  * The argument irq_filter allows to not process an IRQ even if it is raised by the lr11xx.
 185:../../../../lr11xx/common/apps_common.h ****  *
 186:../../../../lr11xx/common/apps_common.h ****  * @warning This function must be called from the main loop of project to dispense all the lr11xx i
 187:../../../../lr11xx/common/apps_common.h ****  *
 188:../../../../lr11xx/common/apps_common.h ****  * @param [in] context  Pointer to the radio context
 189:../../../../lr11xx/common/apps_common.h ****  * @param [in] irq_filter_mask  Mask of IRQ to process
 190:../../../../lr11xx/common/apps_common.h ****  */
 191:../../../../lr11xx/common/apps_common.h **** void apps_common_lr11xx_irq_process( const void* context, lr11xx_system_irq_mask_t irq_filter_mask 
 192:../../../../lr11xx/common/apps_common.h **** 
 193:../../../../lr11xx/common/apps_common.h **** /*!
 194:../../../../lr11xx/common/apps_common.h ****  * @brief Computes time on air, packet type agnostic
 195:../../../../lr11xx/common/apps_common.h ****  */
 196:../../../../lr11xx/common/apps_common.h **** uint32_t get_time_on_air_in_ms( void );
ARM GAS  C:\msys64\tmp\ccwHIjYg.s 			page 5


 197:../../../../lr11xx/common/apps_common.h **** 
 198:../../../../lr11xx/common/apps_common.h **** /*!
 199:../../../../lr11xx/common/apps_common.h ****  * @brief A function to get the value for low data rate optimization setting
 200:../../../../lr11xx/common/apps_common.h ****  *
 201:../../../../lr11xx/common/apps_common.h ****  * @param [in] sf  LoRa Spreading Factor
 202:../../../../lr11xx/common/apps_common.h ****  * @param [in] bw  LoRa Bandwidth
 203:../../../../lr11xx/common/apps_common.h ****  */
 204:../../../../lr11xx/common/apps_common.h **** inline static uint8_t apps_common_compute_lora_ldro( const lr11xx_radio_lora_sf_t sf, const lr11xx_
 205:../../../../lr11xx/common/apps_common.h **** {
  35              		.loc 2 205 1
  36              		.cfi_startproc
  37              		@ args = 0, pretend = 0, frame = 8
  38              		@ frame_needed = 1, uses_anonymous_args = 0
  39              		@ link register save eliminated.
  40 0000 80B4     		push	{r7}
  41              	.LCFI0:
  42              		.cfi_def_cfa_offset 4
  43              		.cfi_offset 7, -4
  44 0002 83B0     		sub	sp, sp, #12
  45              	.LCFI1:
  46              		.cfi_def_cfa_offset 16
  47 0004 00AF     		add	r7, sp, #0
  48              	.LCFI2:
  49              		.cfi_def_cfa_register 7
  50 0006 0346     		mov	r3, r0
  51 0008 0A46     		mov	r2, r1
  52 000a FB71     		strb	r3, [r7, #7]
  53 000c 1346     		mov	r3, r2
  54 000e BB71     		strb	r3, [r7, #6]
 206:../../../../lr11xx/common/apps_common.h ****     switch( bw )
  55              		.loc 2 206 5
  56 0010 BB79     		ldrb	r3, [r7, #6]	@ zero_extendqisi2
  57 0012 013B     		subs	r3, r3, #1
  58 0014 0E2B     		cmp	r3, #14
  59 0016 53D8     		bhi	.L2
  60 0018 01A2     		adr	r2, .L4
  61 001a 52F823F0 		ldr	pc, [r2, r3, lsl #2]
  62 001e 00BF     		.p2align 2
  63              	.L4:
  64 0020 BD000000 		.word	.L6+1
  65 0024 BD000000 		.word	.L6+1
  66 0028 83000000 		.word	.L9+1
  67 002c 6F000000 		.word	.L3+1
  68 0030 61000000 		.word	.L8+1
  69 0034 5D000000 		.word	.L7+1
  70 0038 C1000000 		.word	.L2+1
  71 003c BD000000 		.word	.L6+1
  72 0040 BD000000 		.word	.L6+1
  73 0044 9D000000 		.word	.L5+1
  74 0048 C1000000 		.word	.L2+1
  75 004c C1000000 		.word	.L2+1
  76 0050 6F000000 		.word	.L3+1
  77 0054 6F000000 		.word	.L3+1
  78 0058 6F000000 		.word	.L3+1
  79              		.p2align 1
  80              	.L7:
 207:../../../../lr11xx/common/apps_common.h ****     {
ARM GAS  C:\msys64\tmp\ccwHIjYg.s 			page 6


 208:../../../../lr11xx/common/apps_common.h ****     case LR11XX_RADIO_LORA_BW_500:
 209:../../../../lr11xx/common/apps_common.h ****         return 0;
  81              		.loc 2 209 16
  82 005c 0023     		movs	r3, #0
  83 005e 30E0     		b	.L10
  84              	.L8:
 210:../../../../lr11xx/common/apps_common.h **** 
 211:../../../../lr11xx/common/apps_common.h ****     case LR11XX_RADIO_LORA_BW_250:
 212:../../../../lr11xx/common/apps_common.h ****         if( sf == LR11XX_RADIO_LORA_SF12 )
  85              		.loc 2 212 11
  86 0060 FB79     		ldrb	r3, [r7, #7]	@ zero_extendqisi2
  87 0062 0C2B     		cmp	r3, #12
  88 0064 01D1     		bne	.L11
 213:../../../../lr11xx/common/apps_common.h ****         {
 214:../../../../lr11xx/common/apps_common.h ****             return 1;
  89              		.loc 2 214 20
  90 0066 0123     		movs	r3, #1
  91 0068 2BE0     		b	.L10
  92              	.L11:
 215:../../../../lr11xx/common/apps_common.h ****         }
 216:../../../../lr11xx/common/apps_common.h ****         else
 217:../../../../lr11xx/common/apps_common.h ****         {
 218:../../../../lr11xx/common/apps_common.h ****             return 0;
  93              		.loc 2 218 20
  94 006a 0023     		movs	r3, #0
  95 006c 29E0     		b	.L10
  96              	.L3:
 219:../../../../lr11xx/common/apps_common.h ****         }
 220:../../../../lr11xx/common/apps_common.h **** 
 221:../../../../lr11xx/common/apps_common.h ****     case LR11XX_RADIO_LORA_BW_800:
 222:../../../../lr11xx/common/apps_common.h ****     case LR11XX_RADIO_LORA_BW_400:
 223:../../../../lr11xx/common/apps_common.h ****     case LR11XX_RADIO_LORA_BW_200:
 224:../../../../lr11xx/common/apps_common.h ****     case LR11XX_RADIO_LORA_BW_125:
 225:../../../../lr11xx/common/apps_common.h ****         if( ( sf == LR11XX_RADIO_LORA_SF12 ) || ( sf == LR11XX_RADIO_LORA_SF11 ) )
  97              		.loc 2 225 11
  98 006e FB79     		ldrb	r3, [r7, #7]	@ zero_extendqisi2
  99 0070 0C2B     		cmp	r3, #12
 100 0072 02D0     		beq	.L12
 101              		.loc 2 225 46 discriminator 1
 102 0074 FB79     		ldrb	r3, [r7, #7]	@ zero_extendqisi2
 103 0076 0B2B     		cmp	r3, #11
 104 0078 01D1     		bne	.L13
 105              	.L12:
 226:../../../../lr11xx/common/apps_common.h ****         {
 227:../../../../lr11xx/common/apps_common.h ****             return 1;
 106              		.loc 2 227 20
 107 007a 0123     		movs	r3, #1
 108 007c 21E0     		b	.L10
 109              	.L13:
 228:../../../../lr11xx/common/apps_common.h ****         }
 229:../../../../lr11xx/common/apps_common.h ****         else
 230:../../../../lr11xx/common/apps_common.h ****         {
 231:../../../../lr11xx/common/apps_common.h ****             return 0;
 110              		.loc 2 231 20
 111 007e 0023     		movs	r3, #0
 112 0080 1FE0     		b	.L10
 113              	.L9:
ARM GAS  C:\msys64\tmp\ccwHIjYg.s 			page 7


 232:../../../../lr11xx/common/apps_common.h ****         }
 233:../../../../lr11xx/common/apps_common.h **** 
 234:../../../../lr11xx/common/apps_common.h ****     case LR11XX_RADIO_LORA_BW_62:
 235:../../../../lr11xx/common/apps_common.h ****         if( ( sf == LR11XX_RADIO_LORA_SF12 ) || ( sf == LR11XX_RADIO_LORA_SF11 ) || ( sf == LR11XX_
 114              		.loc 2 235 11
 115 0082 FB79     		ldrb	r3, [r7, #7]	@ zero_extendqisi2
 116 0084 0C2B     		cmp	r3, #12
 117 0086 05D0     		beq	.L14
 118              		.loc 2 235 46 discriminator 1
 119 0088 FB79     		ldrb	r3, [r7, #7]	@ zero_extendqisi2
 120 008a 0B2B     		cmp	r3, #11
 121 008c 02D0     		beq	.L14
 122              		.loc 2 235 82 discriminator 2
 123 008e FB79     		ldrb	r3, [r7, #7]	@ zero_extendqisi2
 124 0090 0A2B     		cmp	r3, #10
 125 0092 01D1     		bne	.L15
 126              	.L14:
 236:../../../../lr11xx/common/apps_common.h ****         {
 237:../../../../lr11xx/common/apps_common.h ****             return 1;
 127              		.loc 2 237 20
 128 0094 0123     		movs	r3, #1
 129 0096 14E0     		b	.L10
 130              	.L15:
 238:../../../../lr11xx/common/apps_common.h ****         }
 239:../../../../lr11xx/common/apps_common.h ****         else
 240:../../../../lr11xx/common/apps_common.h ****         {
 241:../../../../lr11xx/common/apps_common.h ****             return 0;
 131              		.loc 2 241 20
 132 0098 0023     		movs	r3, #0
 133 009a 12E0     		b	.L10
 134              	.L5:
 242:../../../../lr11xx/common/apps_common.h ****         }
 243:../../../../lr11xx/common/apps_common.h **** 
 244:../../../../lr11xx/common/apps_common.h ****     case LR11XX_RADIO_LORA_BW_41:
 245:../../../../lr11xx/common/apps_common.h ****         if( ( sf == LR11XX_RADIO_LORA_SF12 ) || ( sf == LR11XX_RADIO_LORA_SF11 ) || ( sf == LR11XX_
 135              		.loc 2 245 11
 136 009c FB79     		ldrb	r3, [r7, #7]	@ zero_extendqisi2
 137 009e 0C2B     		cmp	r3, #12
 138 00a0 08D0     		beq	.L16
 139              		.loc 2 245 46 discriminator 1
 140 00a2 FB79     		ldrb	r3, [r7, #7]	@ zero_extendqisi2
 141 00a4 0B2B     		cmp	r3, #11
 142 00a6 05D0     		beq	.L16
 143              		.loc 2 245 82 discriminator 2
 144 00a8 FB79     		ldrb	r3, [r7, #7]	@ zero_extendqisi2
 145 00aa 0A2B     		cmp	r3, #10
 146 00ac 02D0     		beq	.L16
 147              		.loc 2 245 118 discriminator 3
 148 00ae FB79     		ldrb	r3, [r7, #7]	@ zero_extendqisi2
 149 00b0 092B     		cmp	r3, #9
 150 00b2 01D1     		bne	.L17
 151              	.L16:
 246:../../../../lr11xx/common/apps_common.h ****             ( sf == LR11XX_RADIO_LORA_SF9 ) )
 247:../../../../lr11xx/common/apps_common.h ****         {
 248:../../../../lr11xx/common/apps_common.h ****             return 1;
 152              		.loc 2 248 20
 153 00b4 0123     		movs	r3, #1
ARM GAS  C:\msys64\tmp\ccwHIjYg.s 			page 8


 154 00b6 04E0     		b	.L10
 155              	.L17:
 249:../../../../lr11xx/common/apps_common.h ****         }
 250:../../../../lr11xx/common/apps_common.h ****         else
 251:../../../../lr11xx/common/apps_common.h ****         {
 252:../../../../lr11xx/common/apps_common.h ****             return 0;
 156              		.loc 2 252 20
 157 00b8 0023     		movs	r3, #0
 158 00ba 02E0     		b	.L10
 159              	.L6:
 253:../../../../lr11xx/common/apps_common.h ****         }
 254:../../../../lr11xx/common/apps_common.h **** 
 255:../../../../lr11xx/common/apps_common.h ****     case LR11XX_RADIO_LORA_BW_31:
 256:../../../../lr11xx/common/apps_common.h ****     case LR11XX_RADIO_LORA_BW_20:
 257:../../../../lr11xx/common/apps_common.h ****     case LR11XX_RADIO_LORA_BW_15:
 258:../../../../lr11xx/common/apps_common.h ****     case LR11XX_RADIO_LORA_BW_10:
 259:../../../../lr11xx/common/apps_common.h ****         // case LR11XX_RADIO_LORA_BW_7:
 260:../../../../lr11xx/common/apps_common.h ****         return 1;
 160              		.loc 2 260 16
 161 00bc 0123     		movs	r3, #1
 162 00be 00E0     		b	.L10
 163              	.L2:
 261:../../../../lr11xx/common/apps_common.h **** 
 262:../../../../lr11xx/common/apps_common.h ****     default:
 263:../../../../lr11xx/common/apps_common.h ****         return 0;
 164              		.loc 2 263 16
 165 00c0 0023     		movs	r3, #0
 166              	.L10:
 264:../../../../lr11xx/common/apps_common.h ****     }
 265:../../../../lr11xx/common/apps_common.h **** }
 167              		.loc 2 265 1
 168 00c2 1846     		mov	r0, r3
 169 00c4 0C37     		adds	r7, r7, #12
 170              	.LCFI3:
 171              		.cfi_def_cfa_offset 4
 172 00c6 BD46     		mov	sp, r7
 173              	.LCFI4:
 174              		.cfi_def_cfa_register 13
 175              		@ sp needed
 176 00c8 5DF8047B 		ldr	r7, [sp], #4
 177              	.LCFI5:
 178              		.cfi_restore 7
 179              		.cfi_def_cfa_offset 0
 180 00cc 7047     		bx	lr
 181              		.cfi_endproc
 182              	.LFE239:
 184 00ce 00BF     		.section	.text.smtc_shield_lr11xx_get_pa_pwr_cfg,"ax",%progbits
 185              		.align	1
 186              		.syntax unified
 187              		.thumb
 188              		.thumb_func
 190              	smtc_shield_lr11xx_get_pa_pwr_cfg:
 191              	.LFB242:
 192              		.file 3 "../../../../libs/smtc-shields/lr11xx/inc/smtc_shield_lr11xx.h"
   1:../../../../libs/smtc-shields/lr11xx/inc/smtc_shield_lr11xx.h **** /**
   2:../../../../libs/smtc-shields/lr11xx/inc/smtc_shield_lr11xx.h ****  * @file      smtc_shield_lr11xx.h
   3:../../../../libs/smtc-shields/lr11xx/inc/smtc_shield_lr11xx.h ****  *
ARM GAS  C:\msys64\tmp\ccwHIjYg.s 			page 9


   4:../../../../libs/smtc-shields/lr11xx/inc/smtc_shield_lr11xx.h ****  * @brief     Semtech LR11xx shield interface
   5:../../../../libs/smtc-shields/lr11xx/inc/smtc_shield_lr11xx.h ****  *
   6:../../../../libs/smtc-shields/lr11xx/inc/smtc_shield_lr11xx.h ****  * The Clear BSD License
   7:../../../../libs/smtc-shields/lr11xx/inc/smtc_shield_lr11xx.h ****  * Copyright Semtech Corporation 2023. All rights reserved.
   8:../../../../libs/smtc-shields/lr11xx/inc/smtc_shield_lr11xx.h ****  *
   9:../../../../libs/smtc-shields/lr11xx/inc/smtc_shield_lr11xx.h ****  * Redistribution and use in source and binary forms, with or without
  10:../../../../libs/smtc-shields/lr11xx/inc/smtc_shield_lr11xx.h ****  * modification, are permitted (subject to the limitations in the disclaimer
  11:../../../../libs/smtc-shields/lr11xx/inc/smtc_shield_lr11xx.h ****  * below) provided that the following conditions are met:
  12:../../../../libs/smtc-shields/lr11xx/inc/smtc_shield_lr11xx.h ****  *     * Redistributions of source code must retain the above copyright
  13:../../../../libs/smtc-shields/lr11xx/inc/smtc_shield_lr11xx.h ****  *       notice, this list of conditions and the following disclaimer.
  14:../../../../libs/smtc-shields/lr11xx/inc/smtc_shield_lr11xx.h ****  *     * Redistributions in binary form must reproduce the above copyright
  15:../../../../libs/smtc-shields/lr11xx/inc/smtc_shield_lr11xx.h ****  *       notice, this list of conditions and the following disclaimer in the
  16:../../../../libs/smtc-shields/lr11xx/inc/smtc_shield_lr11xx.h ****  *       documentation and/or other materials provided with the distribution.
  17:../../../../libs/smtc-shields/lr11xx/inc/smtc_shield_lr11xx.h ****  *     * Neither the name of the Semtech corporation nor the
  18:../../../../libs/smtc-shields/lr11xx/inc/smtc_shield_lr11xx.h ****  *       names of its contributors may be used to endorse or promote products
  19:../../../../libs/smtc-shields/lr11xx/inc/smtc_shield_lr11xx.h ****  *       derived from this software without specific prior written permission.
  20:../../../../libs/smtc-shields/lr11xx/inc/smtc_shield_lr11xx.h ****  *
  21:../../../../libs/smtc-shields/lr11xx/inc/smtc_shield_lr11xx.h ****  * NO EXPRESS OR IMPLIED LICENSES TO ANY PARTY'S PATENT RIGHTS ARE GRANTED BY
  22:../../../../libs/smtc-shields/lr11xx/inc/smtc_shield_lr11xx.h ****  * THIS LICENSE. THIS SOFTWARE IS PROVIDED BY THE COPYRIGHT HOLDERS AND
  23:../../../../libs/smtc-shields/lr11xx/inc/smtc_shield_lr11xx.h ****  * CONTRIBUTORS "AS IS" AND ANY EXPRESS OR IMPLIED WARRANTIES, INCLUDING, BUT
  24:../../../../libs/smtc-shields/lr11xx/inc/smtc_shield_lr11xx.h ****  * NOT LIMITED TO, THE IMPLIED WARRANTIES OF MERCHANTABILITY AND FITNESS FOR A
  25:../../../../libs/smtc-shields/lr11xx/inc/smtc_shield_lr11xx.h ****  * PARTICULAR PURPOSE ARE DISCLAIMED. IN NO EVENT SHALL SEMTECH CORPORATION BE
  26:../../../../libs/smtc-shields/lr11xx/inc/smtc_shield_lr11xx.h ****  * LIABLE FOR ANY DIRECT, INDIRECT, INCIDENTAL, SPECIAL, EXEMPLARY, OR
  27:../../../../libs/smtc-shields/lr11xx/inc/smtc_shield_lr11xx.h ****  * CONSEQUENTIAL DAMAGES (INCLUDING, BUT NOT LIMITED TO, PROCUREMENT OF
  28:../../../../libs/smtc-shields/lr11xx/inc/smtc_shield_lr11xx.h ****  * SUBSTITUTE GOODS OR SERVICES; LOSS OF USE, DATA, OR PROFITS; OR BUSINESS
  29:../../../../libs/smtc-shields/lr11xx/inc/smtc_shield_lr11xx.h ****  * INTERRUPTION) HOWEVER CAUSED AND ON ANY THEORY OF LIABILITY, WHETHER IN
  30:../../../../libs/smtc-shields/lr11xx/inc/smtc_shield_lr11xx.h ****  * CONTRACT, STRICT LIABILITY, OR TORT (INCLUDING NEGLIGENCE OR OTHERWISE)
  31:../../../../libs/smtc-shields/lr11xx/inc/smtc_shield_lr11xx.h ****  * ARISING IN ANY WAY OUT OF THE USE OF THIS SOFTWARE, EVEN IF ADVISED OF THE
  32:../../../../libs/smtc-shields/lr11xx/inc/smtc_shield_lr11xx.h ****  * POSSIBILITY OF SUCH DAMAGE.
  33:../../../../libs/smtc-shields/lr11xx/inc/smtc_shield_lr11xx.h ****  */
  34:../../../../libs/smtc-shields/lr11xx/inc/smtc_shield_lr11xx.h **** 
  35:../../../../libs/smtc-shields/lr11xx/inc/smtc_shield_lr11xx.h **** #ifndef SMTC_SHIELD_LR11XX_H
  36:../../../../libs/smtc-shields/lr11xx/inc/smtc_shield_lr11xx.h **** #define SMTC_SHIELD_LR11XX_H
  37:../../../../libs/smtc-shields/lr11xx/inc/smtc_shield_lr11xx.h **** 
  38:../../../../libs/smtc-shields/lr11xx/inc/smtc_shield_lr11xx.h **** #ifdef __cplusplus
  39:../../../../libs/smtc-shields/lr11xx/inc/smtc_shield_lr11xx.h **** extern "C" {
  40:../../../../libs/smtc-shields/lr11xx/inc/smtc_shield_lr11xx.h **** #endif
  41:../../../../libs/smtc-shields/lr11xx/inc/smtc_shield_lr11xx.h **** 
  42:../../../../libs/smtc-shields/lr11xx/inc/smtc_shield_lr11xx.h **** /*
  43:../../../../libs/smtc-shields/lr11xx/inc/smtc_shield_lr11xx.h ****  * -----------------------------------------------------------------------------
  44:../../../../libs/smtc-shields/lr11xx/inc/smtc_shield_lr11xx.h ****  * --- DEPENDENCIES ------------------------------------------------------------
  45:../../../../libs/smtc-shields/lr11xx/inc/smtc_shield_lr11xx.h ****  */
  46:../../../../libs/smtc-shields/lr11xx/inc/smtc_shield_lr11xx.h **** 
  47:../../../../libs/smtc-shields/lr11xx/inc/smtc_shield_lr11xx.h **** #include <stdint.h>
  48:../../../../libs/smtc-shields/lr11xx/inc/smtc_shield_lr11xx.h **** #include <stddef.h>
  49:../../../../libs/smtc-shields/lr11xx/inc/smtc_shield_lr11xx.h **** #include "smtc_shield_lr11xx_types.h"
  50:../../../../libs/smtc-shields/lr11xx/inc/smtc_shield_lr11xx.h **** 
  51:../../../../libs/smtc-shields/lr11xx/inc/smtc_shield_lr11xx.h **** /*
  52:../../../../libs/smtc-shields/lr11xx/inc/smtc_shield_lr11xx.h ****  * -----------------------------------------------------------------------------
  53:../../../../libs/smtc-shields/lr11xx/inc/smtc_shield_lr11xx.h ****  * --- PUBLIC MACROS -----------------------------------------------------------
  54:../../../../libs/smtc-shields/lr11xx/inc/smtc_shield_lr11xx.h ****  */
  55:../../../../libs/smtc-shields/lr11xx/inc/smtc_shield_lr11xx.h **** 
  56:../../../../libs/smtc-shields/lr11xx/inc/smtc_shield_lr11xx.h **** /*
  57:../../../../libs/smtc-shields/lr11xx/inc/smtc_shield_lr11xx.h ****  * -----------------------------------------------------------------------------
  58:../../../../libs/smtc-shields/lr11xx/inc/smtc_shield_lr11xx.h ****  * --- PUBLIC CONSTANTS --------------------------------------------------------
  59:../../../../libs/smtc-shields/lr11xx/inc/smtc_shield_lr11xx.h ****  */
  60:../../../../libs/smtc-shields/lr11xx/inc/smtc_shield_lr11xx.h **** 
ARM GAS  C:\msys64\tmp\ccwHIjYg.s 			page 10


  61:../../../../libs/smtc-shields/lr11xx/inc/smtc_shield_lr11xx.h **** /*
  62:../../../../libs/smtc-shields/lr11xx/inc/smtc_shield_lr11xx.h ****  * -----------------------------------------------------------------------------
  63:../../../../libs/smtc-shields/lr11xx/inc/smtc_shield_lr11xx.h ****  * --- PUBLIC TYPES ------------------------------------------------------------
  64:../../../../libs/smtc-shields/lr11xx/inc/smtc_shield_lr11xx.h ****  */
  65:../../../../libs/smtc-shields/lr11xx/inc/smtc_shield_lr11xx.h **** 
  66:../../../../libs/smtc-shields/lr11xx/inc/smtc_shield_lr11xx.h **** /**
  67:../../../../libs/smtc-shields/lr11xx/inc/smtc_shield_lr11xx.h ****  * @brief Function pointer to abstract PA and power configuration getter
  68:../../../../libs/smtc-shields/lr11xx/inc/smtc_shield_lr11xx.h ****  */
  69:../../../../libs/smtc-shields/lr11xx/inc/smtc_shield_lr11xx.h **** typedef const smtc_shield_lr11xx_pa_pwr_cfg_t* ( *smtc_shield_lr11xx_get_pa_pwr_cfg_f )(
  70:../../../../libs/smtc-shields/lr11xx/inc/smtc_shield_lr11xx.h ****     const uint32_t rf_freq_in_hz, int8_t expected_output_pwr_in_dbm );
  71:../../../../libs/smtc-shields/lr11xx/inc/smtc_shield_lr11xx.h **** 
  72:../../../../libs/smtc-shields/lr11xx/inc/smtc_shield_lr11xx.h **** /**
  73:../../../../libs/smtc-shields/lr11xx/inc/smtc_shield_lr11xx.h ****  * @brief Function pointer to abstract RSSI calibration table getter
  74:../../../../libs/smtc-shields/lr11xx/inc/smtc_shield_lr11xx.h ****  */
  75:../../../../libs/smtc-shields/lr11xx/inc/smtc_shield_lr11xx.h **** typedef const lr11xx_radio_rssi_calibration_table_t* ( *smtc_shield_lr11xx_get_rssi_calibration_tab
  76:../../../../libs/smtc-shields/lr11xx/inc/smtc_shield_lr11xx.h ****     const uint32_t rf_freq_in_hz );
  77:../../../../libs/smtc-shields/lr11xx/inc/smtc_shield_lr11xx.h **** 
  78:../../../../libs/smtc-shields/lr11xx/inc/smtc_shield_lr11xx.h **** /**
  79:../../../../libs/smtc-shields/lr11xx/inc/smtc_shield_lr11xx.h ****  * @brief Function pointer to abstract RF switch configuration getter
  80:../../../../libs/smtc-shields/lr11xx/inc/smtc_shield_lr11xx.h ****  */
  81:../../../../libs/smtc-shields/lr11xx/inc/smtc_shield_lr11xx.h **** typedef const lr11xx_system_rfswitch_cfg_t* ( *smtc_shield_lr11xx_get_rf_switch_cfg_f )( void );
  82:../../../../libs/smtc-shields/lr11xx/inc/smtc_shield_lr11xx.h **** 
  83:../../../../libs/smtc-shields/lr11xx/inc/smtc_shield_lr11xx.h **** /**
  84:../../../../libs/smtc-shields/lr11xx/inc/smtc_shield_lr11xx.h ****  * @brief Function pointer to abstract regulator mode configuration getter
  85:../../../../libs/smtc-shields/lr11xx/inc/smtc_shield_lr11xx.h ****  */
  86:../../../../libs/smtc-shields/lr11xx/inc/smtc_shield_lr11xx.h **** typedef lr11xx_system_reg_mode_t ( *smtc_shield_lr11xx_get_reg_mode_f )( void );
  87:../../../../libs/smtc-shields/lr11xx/inc/smtc_shield_lr11xx.h **** 
  88:../../../../libs/smtc-shields/lr11xx/inc/smtc_shield_lr11xx.h **** /**
  89:../../../../libs/smtc-shields/lr11xx/inc/smtc_shield_lr11xx.h ****  * @brief Function pointer to abstract XOSC configuration getter
  90:../../../../libs/smtc-shields/lr11xx/inc/smtc_shield_lr11xx.h ****  */
  91:../../../../libs/smtc-shields/lr11xx/inc/smtc_shield_lr11xx.h **** typedef const smtc_shield_lr11xx_xosc_cfg_t* ( *smtc_shield_lr11xx_get_xosc_cfg_f )( void );
  92:../../../../libs/smtc-shields/lr11xx/inc/smtc_shield_lr11xx.h **** 
  93:../../../../libs/smtc-shields/lr11xx/inc/smtc_shield_lr11xx.h **** /**
  94:../../../../libs/smtc-shields/lr11xx/inc/smtc_shield_lr11xx.h ****  * @brief Function pointer to abstract LF clock configuration getter
  95:../../../../libs/smtc-shields/lr11xx/inc/smtc_shield_lr11xx.h ****  */
  96:../../../../libs/smtc-shields/lr11xx/inc/smtc_shield_lr11xx.h **** typedef const smtc_shield_lr11xx_lfclk_cfg_t* ( *smtc_shield_lr11xx_get_lfclk_cfg_f )( void );
  97:../../../../libs/smtc-shields/lr11xx/inc/smtc_shield_lr11xx.h **** 
  98:../../../../libs/smtc-shields/lr11xx/inc/smtc_shield_lr11xx.h **** /**
  99:../../../../libs/smtc-shields/lr11xx/inc/smtc_shield_lr11xx.h ****  * @brief Function pointer to abstract pinout getter
 100:../../../../libs/smtc-shields/lr11xx/inc/smtc_shield_lr11xx.h ****  */
 101:../../../../libs/smtc-shields/lr11xx/inc/smtc_shield_lr11xx.h **** typedef const smtc_shield_lr11xx_pinout_t* ( *smtc_shield_lr11xx_get_pinout_f )( void );
 102:../../../../libs/smtc-shields/lr11xx/inc/smtc_shield_lr11xx.h **** 
 103:../../../../libs/smtc-shields/lr11xx/inc/smtc_shield_lr11xx.h **** /**
 104:../../../../libs/smtc-shields/lr11xx/inc/smtc_shield_lr11xx.h ****  * @brief Function pointer to abstract RTToF recommented Tx/Rx delay indicator getter
 105:../../../../libs/smtc-shields/lr11xx/inc/smtc_shield_lr11xx.h ****  */
 106:../../../../libs/smtc-shields/lr11xx/inc/smtc_shield_lr11xx.h **** typedef bool ( *smtc_shield_lr11xx_get_rttof_recommended_rx_tx_delay_indicator_f )( uint32_t rf_fre
 107:../../../../libs/smtc-shields/lr11xx/inc/smtc_shield_lr11xx.h ****                                                                                     lr11xx_radio_lo
 108:../../../../libs/smtc-shields/lr11xx/inc/smtc_shield_lr11xx.h ****                                                                                     lr11xx_radio_lo
 109:../../../../libs/smtc-shields/lr11xx/inc/smtc_shield_lr11xx.h ****                                                                                     uint32_t* delay
 110:../../../../libs/smtc-shields/lr11xx/inc/smtc_shield_lr11xx.h **** 
 111:../../../../libs/smtc-shields/lr11xx/inc/smtc_shield_lr11xx.h **** typedef struct smtc_shield_lr11xx_s
 112:../../../../libs/smtc-shields/lr11xx/inc/smtc_shield_lr11xx.h **** {
 113:../../../../libs/smtc-shields/lr11xx/inc/smtc_shield_lr11xx.h ****     smtc_shield_lr11xx_get_pa_pwr_cfg_f                              get_pa_pwr_cfg;
 114:../../../../libs/smtc-shields/lr11xx/inc/smtc_shield_lr11xx.h ****     smtc_shield_lr11xx_get_rssi_calibration_table_f                  get_rssi_calibration_table;
 115:../../../../libs/smtc-shields/lr11xx/inc/smtc_shield_lr11xx.h ****     smtc_shield_lr11xx_get_rf_switch_cfg_f                           get_rf_switch_cfg;
 116:../../../../libs/smtc-shields/lr11xx/inc/smtc_shield_lr11xx.h ****     smtc_shield_lr11xx_get_reg_mode_f                                get_reg_mode;
 117:../../../../libs/smtc-shields/lr11xx/inc/smtc_shield_lr11xx.h ****     smtc_shield_lr11xx_get_xosc_cfg_f                                get_xosc_cfg;
ARM GAS  C:\msys64\tmp\ccwHIjYg.s 			page 11


 118:../../../../libs/smtc-shields/lr11xx/inc/smtc_shield_lr11xx.h ****     smtc_shield_lr11xx_get_lfclk_cfg_f                               get_lfclk_cfg;
 119:../../../../libs/smtc-shields/lr11xx/inc/smtc_shield_lr11xx.h ****     smtc_shield_lr11xx_get_pinout_f                                  get_pinout;
 120:../../../../libs/smtc-shields/lr11xx/inc/smtc_shield_lr11xx.h ****     smtc_shield_lr11xx_get_rttof_recommended_rx_tx_delay_indicator_f get_rttof_recommended_rx_tx_de
 121:../../../../libs/smtc-shields/lr11xx/inc/smtc_shield_lr11xx.h **** } smtc_shield_lr11xx_t;
 122:../../../../libs/smtc-shields/lr11xx/inc/smtc_shield_lr11xx.h **** 
 123:../../../../libs/smtc-shields/lr11xx/inc/smtc_shield_lr11xx.h **** /*
 124:../../../../libs/smtc-shields/lr11xx/inc/smtc_shield_lr11xx.h ****  * -----------------------------------------------------------------------------
 125:../../../../libs/smtc-shields/lr11xx/inc/smtc_shield_lr11xx.h ****  * --- PUBLIC FUNCTIONS PROTOTYPES ---------------------------------------------
 126:../../../../libs/smtc-shields/lr11xx/inc/smtc_shield_lr11xx.h ****  */
 127:../../../../libs/smtc-shields/lr11xx/inc/smtc_shield_lr11xx.h **** 
 128:../../../../libs/smtc-shields/lr11xx/inc/smtc_shield_lr11xx.h **** /**
 129:../../../../libs/smtc-shields/lr11xx/inc/smtc_shield_lr11xx.h ****  * @brief Return the PA (Power Amplifier) configuration
 130:../../../../libs/smtc-shields/lr11xx/inc/smtc_shield_lr11xx.h ****  *
 131:../../../../libs/smtc-shields/lr11xx/inc/smtc_shield_lr11xx.h ****  * @param [in] shield  Pointer to a shield data structure
 132:../../../../libs/smtc-shields/lr11xx/inc/smtc_shield_lr11xx.h ****  * @param [in] rf_freq_in_hz  RF frequency in Hertz
 133:../../../../libs/smtc-shields/lr11xx/inc/smtc_shield_lr11xx.h ****  * @param [in] expected_output_pwr_in_dbm  Expected output power in dBm
 134:../../../../libs/smtc-shields/lr11xx/inc/smtc_shield_lr11xx.h ****  *
 135:../../../../libs/smtc-shields/lr11xx/inc/smtc_shield_lr11xx.h ****  * @return A pointer to a PA configuration corresponding to the input configuration
 136:../../../../libs/smtc-shields/lr11xx/inc/smtc_shield_lr11xx.h ****  */
 137:../../../../libs/smtc-shields/lr11xx/inc/smtc_shield_lr11xx.h **** static inline const smtc_shield_lr11xx_pa_pwr_cfg_t* smtc_shield_lr11xx_get_pa_pwr_cfg(
 138:../../../../libs/smtc-shields/lr11xx/inc/smtc_shield_lr11xx.h ****     const smtc_shield_lr11xx_t* shield, const uint32_t rf_freq_in_hz, int8_t expected_output_pwr_in
 139:../../../../libs/smtc-shields/lr11xx/inc/smtc_shield_lr11xx.h **** {
 193              		.loc 3 139 1
 194              		.cfi_startproc
 195              		@ args = 0, pretend = 0, frame = 16
 196              		@ frame_needed = 1, uses_anonymous_args = 0
 197 0000 80B5     		push	{r7, lr}
 198              	.LCFI6:
 199              		.cfi_def_cfa_offset 8
 200              		.cfi_offset 7, -8
 201              		.cfi_offset 14, -4
 202 0002 84B0     		sub	sp, sp, #16
 203              	.LCFI7:
 204              		.cfi_def_cfa_offset 24
 205 0004 00AF     		add	r7, sp, #0
 206              	.LCFI8:
 207              		.cfi_def_cfa_register 7
 208 0006 F860     		str	r0, [r7, #12]
 209 0008 B960     		str	r1, [r7, #8]
 210 000a 1346     		mov	r3, r2
 211 000c FB71     		strb	r3, [r7, #7]
 140:../../../../libs/smtc-shields/lr11xx/inc/smtc_shield_lr11xx.h ****     return shield->get_pa_pwr_cfg( rf_freq_in_hz, expected_output_pwr_in_dbm );
 212              		.loc 3 140 18
 213 000e FB68     		ldr	r3, [r7, #12]
 214 0010 1B68     		ldr	r3, [r3]
 215              		.loc 3 140 12
 216 0012 97F90720 		ldrsb	r2, [r7, #7]
 217 0016 1146     		mov	r1, r2
 218 0018 B868     		ldr	r0, [r7, #8]
 219 001a 9847     		blx	r3
 220              	.LVL0:
 221 001c 0346     		mov	r3, r0
 141:../../../../libs/smtc-shields/lr11xx/inc/smtc_shield_lr11xx.h **** }
 222              		.loc 3 141 1
 223 001e 1846     		mov	r0, r3
 224 0020 1037     		adds	r7, r7, #16
 225              	.LCFI9:
ARM GAS  C:\msys64\tmp\ccwHIjYg.s 			page 12


 226              		.cfi_def_cfa_offset 8
 227 0022 BD46     		mov	sp, r7
 228              	.LCFI10:
 229              		.cfi_def_cfa_register 13
 230              		@ sp needed
 231 0024 80BD     		pop	{r7, pc}
 232              		.cfi_endproc
 233              	.LFE242:
 235              		.section	.text.smtc_shield_lr11xx_get_rssi_calibration_table,"ax",%progbits
 236              		.align	1
 237              		.syntax unified
 238              		.thumb
 239              		.thumb_func
 241              	smtc_shield_lr11xx_get_rssi_calibration_table:
 242              	.LFB243:
 142:../../../../libs/smtc-shields/lr11xx/inc/smtc_shield_lr11xx.h **** 
 143:../../../../libs/smtc-shields/lr11xx/inc/smtc_shield_lr11xx.h **** /**
 144:../../../../libs/smtc-shields/lr11xx/inc/smtc_shield_lr11xx.h ****  * @brief Return the RSSI calibration table
 145:../../../../libs/smtc-shields/lr11xx/inc/smtc_shield_lr11xx.h ****  *
 146:../../../../libs/smtc-shields/lr11xx/inc/smtc_shield_lr11xx.h ****  * @param [in] shield  Pointer to a shield data structure
 147:../../../../libs/smtc-shields/lr11xx/inc/smtc_shield_lr11xx.h ****  * @param [in] rf_freq_in_hz  RF frequency in Hertz
 148:../../../../libs/smtc-shields/lr11xx/inc/smtc_shield_lr11xx.h ****  *
 149:../../../../libs/smtc-shields/lr11xx/inc/smtc_shield_lr11xx.h ****  * @return A pointer to a RSSI calibration table corresponding to the input configuration
 150:../../../../libs/smtc-shields/lr11xx/inc/smtc_shield_lr11xx.h ****  */
 151:../../../../libs/smtc-shields/lr11xx/inc/smtc_shield_lr11xx.h **** static inline const lr11xx_radio_rssi_calibration_table_t* smtc_shield_lr11xx_get_rssi_calibration_
 152:../../../../libs/smtc-shields/lr11xx/inc/smtc_shield_lr11xx.h ****     const smtc_shield_lr11xx_t* shield, const uint32_t rf_freq_in_hz )
 153:../../../../libs/smtc-shields/lr11xx/inc/smtc_shield_lr11xx.h **** {
 243              		.loc 3 153 1
 244              		.cfi_startproc
 245              		@ args = 0, pretend = 0, frame = 8
 246              		@ frame_needed = 1, uses_anonymous_args = 0
 247 0000 80B5     		push	{r7, lr}
 248              	.LCFI11:
 249              		.cfi_def_cfa_offset 8
 250              		.cfi_offset 7, -8
 251              		.cfi_offset 14, -4
 252 0002 82B0     		sub	sp, sp, #8
 253              	.LCFI12:
 254              		.cfi_def_cfa_offset 16
 255 0004 00AF     		add	r7, sp, #0
 256              	.LCFI13:
 257              		.cfi_def_cfa_register 7
 258 0006 7860     		str	r0, [r7, #4]
 259 0008 3960     		str	r1, [r7]
 154:../../../../libs/smtc-shields/lr11xx/inc/smtc_shield_lr11xx.h ****     return shield->get_rssi_calibration_table( rf_freq_in_hz );
 260              		.loc 3 154 18
 261 000a 7B68     		ldr	r3, [r7, #4]
 262 000c 5B68     		ldr	r3, [r3, #4]
 263              		.loc 3 154 12
 264 000e 3868     		ldr	r0, [r7]
 265 0010 9847     		blx	r3
 266              	.LVL1:
 267 0012 0346     		mov	r3, r0
 155:../../../../libs/smtc-shields/lr11xx/inc/smtc_shield_lr11xx.h **** }
 268              		.loc 3 155 1
 269 0014 1846     		mov	r0, r3
 270 0016 0837     		adds	r7, r7, #8
ARM GAS  C:\msys64\tmp\ccwHIjYg.s 			page 13


 271              	.LCFI14:
 272              		.cfi_def_cfa_offset 8
 273 0018 BD46     		mov	sp, r7
 274              	.LCFI15:
 275              		.cfi_def_cfa_register 13
 276              		@ sp needed
 277 001a 80BD     		pop	{r7, pc}
 278              		.cfi_endproc
 279              	.LFE243:
 281              		.section	.text.smtc_shield_lr11xx_get_rf_switch_cfg,"ax",%progbits
 282              		.align	1
 283              		.syntax unified
 284              		.thumb
 285              		.thumb_func
 287              	smtc_shield_lr11xx_get_rf_switch_cfg:
 288              	.LFB244:
 156:../../../../libs/smtc-shields/lr11xx/inc/smtc_shield_lr11xx.h **** 
 157:../../../../libs/smtc-shields/lr11xx/inc/smtc_shield_lr11xx.h **** /**
 158:../../../../libs/smtc-shields/lr11xx/inc/smtc_shield_lr11xx.h ****  * @brief Return the RF switch configuration
 159:../../../../libs/smtc-shields/lr11xx/inc/smtc_shield_lr11xx.h ****  *
 160:../../../../libs/smtc-shields/lr11xx/inc/smtc_shield_lr11xx.h ****  * @param [in] shield  Pointer to a shield data structure
 161:../../../../libs/smtc-shields/lr11xx/inc/smtc_shield_lr11xx.h ****  *
 162:../../../../libs/smtc-shields/lr11xx/inc/smtc_shield_lr11xx.h ****  * @return RF switch configuration
 163:../../../../libs/smtc-shields/lr11xx/inc/smtc_shield_lr11xx.h ****  */
 164:../../../../libs/smtc-shields/lr11xx/inc/smtc_shield_lr11xx.h **** static inline const lr11xx_system_rfswitch_cfg_t* smtc_shield_lr11xx_get_rf_switch_cfg(
 165:../../../../libs/smtc-shields/lr11xx/inc/smtc_shield_lr11xx.h ****     const smtc_shield_lr11xx_t* shield )
 166:../../../../libs/smtc-shields/lr11xx/inc/smtc_shield_lr11xx.h **** {
 289              		.loc 3 166 1
 290              		.cfi_startproc
 291              		@ args = 0, pretend = 0, frame = 8
 292              		@ frame_needed = 1, uses_anonymous_args = 0
 293 0000 80B5     		push	{r7, lr}
 294              	.LCFI16:
 295              		.cfi_def_cfa_offset 8
 296              		.cfi_offset 7, -8
 297              		.cfi_offset 14, -4
 298 0002 82B0     		sub	sp, sp, #8
 299              	.LCFI17:
 300              		.cfi_def_cfa_offset 16
 301 0004 00AF     		add	r7, sp, #0
 302              	.LCFI18:
 303              		.cfi_def_cfa_register 7
 304 0006 7860     		str	r0, [r7, #4]
 167:../../../../libs/smtc-shields/lr11xx/inc/smtc_shield_lr11xx.h ****     return shield->get_rf_switch_cfg( );
 305              		.loc 3 167 18
 306 0008 7B68     		ldr	r3, [r7, #4]
 307 000a 9B68     		ldr	r3, [r3, #8]
 308              		.loc 3 167 12
 309 000c 9847     		blx	r3
 310              	.LVL2:
 311 000e 0346     		mov	r3, r0
 168:../../../../libs/smtc-shields/lr11xx/inc/smtc_shield_lr11xx.h **** }
 312              		.loc 3 168 1
 313 0010 1846     		mov	r0, r3
 314 0012 0837     		adds	r7, r7, #8
 315              	.LCFI19:
 316              		.cfi_def_cfa_offset 8
ARM GAS  C:\msys64\tmp\ccwHIjYg.s 			page 14


 317 0014 BD46     		mov	sp, r7
 318              	.LCFI20:
 319              		.cfi_def_cfa_register 13
 320              		@ sp needed
 321 0016 80BD     		pop	{r7, pc}
 322              		.cfi_endproc
 323              	.LFE244:
 325              		.section	.text.smtc_shield_lr11xx_get_reg_mode,"ax",%progbits
 326              		.align	1
 327              		.syntax unified
 328              		.thumb
 329              		.thumb_func
 331              	smtc_shield_lr11xx_get_reg_mode:
 332              	.LFB245:
 169:../../../../libs/smtc-shields/lr11xx/inc/smtc_shield_lr11xx.h **** 
 170:../../../../libs/smtc-shields/lr11xx/inc/smtc_shield_lr11xx.h **** /**
 171:../../../../libs/smtc-shields/lr11xx/inc/smtc_shield_lr11xx.h ****  * @brief Return the regulator mode
 172:../../../../libs/smtc-shields/lr11xx/inc/smtc_shield_lr11xx.h ****  *
 173:../../../../libs/smtc-shields/lr11xx/inc/smtc_shield_lr11xx.h ****  * @param [in] shield  Pointer to a shield data structure
 174:../../../../libs/smtc-shields/lr11xx/inc/smtc_shield_lr11xx.h ****  *
 175:../../../../libs/smtc-shields/lr11xx/inc/smtc_shield_lr11xx.h ****  * @return Regulator mode
 176:../../../../libs/smtc-shields/lr11xx/inc/smtc_shield_lr11xx.h ****  */
 177:../../../../libs/smtc-shields/lr11xx/inc/smtc_shield_lr11xx.h **** static inline lr11xx_system_reg_mode_t smtc_shield_lr11xx_get_reg_mode( const smtc_shield_lr11xx_t*
 178:../../../../libs/smtc-shields/lr11xx/inc/smtc_shield_lr11xx.h **** {
 333              		.loc 3 178 1
 334              		.cfi_startproc
 335              		@ args = 0, pretend = 0, frame = 8
 336              		@ frame_needed = 1, uses_anonymous_args = 0
 337 0000 80B5     		push	{r7, lr}
 338              	.LCFI21:
 339              		.cfi_def_cfa_offset 8
 340              		.cfi_offset 7, -8
 341              		.cfi_offset 14, -4
 342 0002 82B0     		sub	sp, sp, #8
 343              	.LCFI22:
 344              		.cfi_def_cfa_offset 16
 345 0004 00AF     		add	r7, sp, #0
 346              	.LCFI23:
 347              		.cfi_def_cfa_register 7
 348 0006 7860     		str	r0, [r7, #4]
 179:../../../../libs/smtc-shields/lr11xx/inc/smtc_shield_lr11xx.h ****     return shield->get_reg_mode( );
 349              		.loc 3 179 18
 350 0008 7B68     		ldr	r3, [r7, #4]
 351 000a DB68     		ldr	r3, [r3, #12]
 352              		.loc 3 179 12
 353 000c 9847     		blx	r3
 354              	.LVL3:
 355 000e 0346     		mov	r3, r0
 180:../../../../libs/smtc-shields/lr11xx/inc/smtc_shield_lr11xx.h **** }
 356              		.loc 3 180 1
 357 0010 1846     		mov	r0, r3
 358 0012 0837     		adds	r7, r7, #8
 359              	.LCFI24:
 360              		.cfi_def_cfa_offset 8
 361 0014 BD46     		mov	sp, r7
 362              	.LCFI25:
 363              		.cfi_def_cfa_register 13
ARM GAS  C:\msys64\tmp\ccwHIjYg.s 			page 15


 364              		@ sp needed
 365 0016 80BD     		pop	{r7, pc}
 366              		.cfi_endproc
 367              	.LFE245:
 369              		.section	.text.smtc_shield_lr11xx_get_xosc_cfg,"ax",%progbits
 370              		.align	1
 371              		.syntax unified
 372              		.thumb
 373              		.thumb_func
 375              	smtc_shield_lr11xx_get_xosc_cfg:
 376              	.LFB246:
 181:../../../../libs/smtc-shields/lr11xx/inc/smtc_shield_lr11xx.h **** 
 182:../../../../libs/smtc-shields/lr11xx/inc/smtc_shield_lr11xx.h **** /**
 183:../../../../libs/smtc-shields/lr11xx/inc/smtc_shield_lr11xx.h ****  * @brief Return the XOSC (eXternal OSCillator) configuration
 184:../../../../libs/smtc-shields/lr11xx/inc/smtc_shield_lr11xx.h ****  *
 185:../../../../libs/smtc-shields/lr11xx/inc/smtc_shield_lr11xx.h ****  * @param [in] shield  Pointer to a shield data structure
 186:../../../../libs/smtc-shields/lr11xx/inc/smtc_shield_lr11xx.h ****  *
 187:../../../../libs/smtc-shields/lr11xx/inc/smtc_shield_lr11xx.h ****  * @return XOSC configuration
 188:../../../../libs/smtc-shields/lr11xx/inc/smtc_shield_lr11xx.h ****  */
 189:../../../../libs/smtc-shields/lr11xx/inc/smtc_shield_lr11xx.h **** static inline const smtc_shield_lr11xx_xosc_cfg_t* smtc_shield_lr11xx_get_xosc_cfg( const smtc_shie
 190:../../../../libs/smtc-shields/lr11xx/inc/smtc_shield_lr11xx.h **** {
 377              		.loc 3 190 1
 378              		.cfi_startproc
 379              		@ args = 0, pretend = 0, frame = 8
 380              		@ frame_needed = 1, uses_anonymous_args = 0
 381 0000 80B5     		push	{r7, lr}
 382              	.LCFI26:
 383              		.cfi_def_cfa_offset 8
 384              		.cfi_offset 7, -8
 385              		.cfi_offset 14, -4
 386 0002 82B0     		sub	sp, sp, #8
 387              	.LCFI27:
 388              		.cfi_def_cfa_offset 16
 389 0004 00AF     		add	r7, sp, #0
 390              	.LCFI28:
 391              		.cfi_def_cfa_register 7
 392 0006 7860     		str	r0, [r7, #4]
 191:../../../../libs/smtc-shields/lr11xx/inc/smtc_shield_lr11xx.h ****     return shield->get_xosc_cfg( );
 393              		.loc 3 191 18
 394 0008 7B68     		ldr	r3, [r7, #4]
 395 000a 1B69     		ldr	r3, [r3, #16]
 396              		.loc 3 191 12
 397 000c 9847     		blx	r3
 398              	.LVL4:
 399 000e 0346     		mov	r3, r0
 192:../../../../libs/smtc-shields/lr11xx/inc/smtc_shield_lr11xx.h **** }
 400              		.loc 3 192 1
 401 0010 1846     		mov	r0, r3
 402 0012 0837     		adds	r7, r7, #8
 403              	.LCFI29:
 404              		.cfi_def_cfa_offset 8
 405 0014 BD46     		mov	sp, r7
 406              	.LCFI30:
 407              		.cfi_def_cfa_register 13
 408              		@ sp needed
 409 0016 80BD     		pop	{r7, pc}
 410              		.cfi_endproc
ARM GAS  C:\msys64\tmp\ccwHIjYg.s 			page 16


 411              	.LFE246:
 413              		.section	.text.smtc_shield_lr11xx_get_lfclk_cfg,"ax",%progbits
 414              		.align	1
 415              		.syntax unified
 416              		.thumb
 417              		.thumb_func
 419              	smtc_shield_lr11xx_get_lfclk_cfg:
 420              	.LFB247:
 193:../../../../libs/smtc-shields/lr11xx/inc/smtc_shield_lr11xx.h **** 
 194:../../../../libs/smtc-shields/lr11xx/inc/smtc_shield_lr11xx.h **** /**
 195:../../../../libs/smtc-shields/lr11xx/inc/smtc_shield_lr11xx.h ****  * @brief Return the 32kHz LFCLOCK (Low-Frequency Clock) configuration
 196:../../../../libs/smtc-shields/lr11xx/inc/smtc_shield_lr11xx.h ****  *
 197:../../../../libs/smtc-shields/lr11xx/inc/smtc_shield_lr11xx.h ****  * @param [in] shield  Pointer to a shield data structure
 198:../../../../libs/smtc-shields/lr11xx/inc/smtc_shield_lr11xx.h ****  *
 199:../../../../libs/smtc-shields/lr11xx/inc/smtc_shield_lr11xx.h ****  * @return LFCLOCK configuration
 200:../../../../libs/smtc-shields/lr11xx/inc/smtc_shield_lr11xx.h ****  */
 201:../../../../libs/smtc-shields/lr11xx/inc/smtc_shield_lr11xx.h **** static inline const smtc_shield_lr11xx_lfclk_cfg_t* smtc_shield_lr11xx_get_lfclk_cfg(
 202:../../../../libs/smtc-shields/lr11xx/inc/smtc_shield_lr11xx.h ****     const smtc_shield_lr11xx_t* shield )
 203:../../../../libs/smtc-shields/lr11xx/inc/smtc_shield_lr11xx.h **** {
 421              		.loc 3 203 1
 422              		.cfi_startproc
 423              		@ args = 0, pretend = 0, frame = 8
 424              		@ frame_needed = 1, uses_anonymous_args = 0
 425 0000 80B5     		push	{r7, lr}
 426              	.LCFI31:
 427              		.cfi_def_cfa_offset 8
 428              		.cfi_offset 7, -8
 429              		.cfi_offset 14, -4
 430 0002 82B0     		sub	sp, sp, #8
 431              	.LCFI32:
 432              		.cfi_def_cfa_offset 16
 433 0004 00AF     		add	r7, sp, #0
 434              	.LCFI33:
 435              		.cfi_def_cfa_register 7
 436 0006 7860     		str	r0, [r7, #4]
 204:../../../../libs/smtc-shields/lr11xx/inc/smtc_shield_lr11xx.h ****     return shield->get_lfclk_cfg( );
 437              		.loc 3 204 18
 438 0008 7B68     		ldr	r3, [r7, #4]
 439 000a 5B69     		ldr	r3, [r3, #20]
 440              		.loc 3 204 12
 441 000c 9847     		blx	r3
 442              	.LVL5:
 443 000e 0346     		mov	r3, r0
 205:../../../../libs/smtc-shields/lr11xx/inc/smtc_shield_lr11xx.h **** }
 444              		.loc 3 205 1
 445 0010 1846     		mov	r0, r3
 446 0012 0837     		adds	r7, r7, #8
 447              	.LCFI34:
 448              		.cfi_def_cfa_offset 8
 449 0014 BD46     		mov	sp, r7
 450              	.LCFI35:
 451              		.cfi_def_cfa_register 13
 452              		@ sp needed
 453 0016 80BD     		pop	{r7, pc}
 454              		.cfi_endproc
 455              	.LFE247:
 457              		.section	.text.smtc_shield_lr11xx_get_pinout,"ax",%progbits
ARM GAS  C:\msys64\tmp\ccwHIjYg.s 			page 17


 458              		.align	1
 459              		.syntax unified
 460              		.thumb
 461              		.thumb_func
 463              	smtc_shield_lr11xx_get_pinout:
 464              	.LFB248:
 206:../../../../libs/smtc-shields/lr11xx/inc/smtc_shield_lr11xx.h **** 
 207:../../../../libs/smtc-shields/lr11xx/inc/smtc_shield_lr11xx.h **** /**
 208:../../../../libs/smtc-shields/lr11xx/inc/smtc_shield_lr11xx.h ****  * @brief Return the board pinout configuration
 209:../../../../libs/smtc-shields/lr11xx/inc/smtc_shield_lr11xx.h ****  *
 210:../../../../libs/smtc-shields/lr11xx/inc/smtc_shield_lr11xx.h ****  * @param [in] shield  Pointer to a shield data structure
 211:../../../../libs/smtc-shields/lr11xx/inc/smtc_shield_lr11xx.h ****  *
 212:../../../../libs/smtc-shields/lr11xx/inc/smtc_shield_lr11xx.h ****  * @return Pinout configuration
 213:../../../../libs/smtc-shields/lr11xx/inc/smtc_shield_lr11xx.h ****  */
 214:../../../../libs/smtc-shields/lr11xx/inc/smtc_shield_lr11xx.h **** static inline const smtc_shield_lr11xx_pinout_t* smtc_shield_lr11xx_get_pinout( const smtc_shield_l
 215:../../../../libs/smtc-shields/lr11xx/inc/smtc_shield_lr11xx.h **** {
 465              		.loc 3 215 1
 466              		.cfi_startproc
 467              		@ args = 0, pretend = 0, frame = 8
 468              		@ frame_needed = 1, uses_anonymous_args = 0
 469 0000 80B5     		push	{r7, lr}
 470              	.LCFI36:
 471              		.cfi_def_cfa_offset 8
 472              		.cfi_offset 7, -8
 473              		.cfi_offset 14, -4
 474 0002 82B0     		sub	sp, sp, #8
 475              	.LCFI37:
 476              		.cfi_def_cfa_offset 16
 477 0004 00AF     		add	r7, sp, #0
 478              	.LCFI38:
 479              		.cfi_def_cfa_register 7
 480 0006 7860     		str	r0, [r7, #4]
 216:../../../../libs/smtc-shields/lr11xx/inc/smtc_shield_lr11xx.h ****     return shield->get_pinout( );
 481              		.loc 3 216 18
 482 0008 7B68     		ldr	r3, [r7, #4]
 483 000a 9B69     		ldr	r3, [r3, #24]
 484              		.loc 3 216 12
 485 000c 9847     		blx	r3
 486              	.LVL6:
 487 000e 0346     		mov	r3, r0
 217:../../../../libs/smtc-shields/lr11xx/inc/smtc_shield_lr11xx.h **** }
 488              		.loc 3 217 1
 489 0010 1846     		mov	r0, r3
 490 0012 0837     		adds	r7, r7, #8
 491              	.LCFI39:
 492              		.cfi_def_cfa_offset 8
 493 0014 BD46     		mov	sp, r7
 494              	.LCFI40:
 495              		.cfi_def_cfa_register 13
 496              		@ sp needed
 497 0016 80BD     		pop	{r7, pc}
 498              		.cfi_endproc
 499              	.LFE248:
 501              		.section	.text.smtc_shield_lr11xx_get_rttof_recommended_rx_tx_delay_indicator,"ax",%progbits
 502              		.align	1
 503              		.syntax unified
 504              		.thumb
ARM GAS  C:\msys64\tmp\ccwHIjYg.s 			page 18


 505              		.thumb_func
 507              	smtc_shield_lr11xx_get_rttof_recommended_rx_tx_delay_indicator:
 508              	.LFB249:
 218:../../../../libs/smtc-shields/lr11xx/inc/smtc_shield_lr11xx.h **** 
 219:../../../../libs/smtc-shields/lr11xx/inc/smtc_shield_lr11xx.h **** /**
 220:../../../../libs/smtc-shields/lr11xx/inc/smtc_shield_lr11xx.h ****  * @brief Return the RTToF recommended Rx/Tx delay indicator
 221:../../../../libs/smtc-shields/lr11xx/inc/smtc_shield_lr11xx.h ****  *
 222:../../../../libs/smtc-shields/lr11xx/inc/smtc_shield_lr11xx.h ****  * @param [in] shield  Pointer to a shield data structure
 223:../../../../libs/smtc-shields/lr11xx/inc/smtc_shield_lr11xx.h ****  * @param [in] rf_freq_in_hz Frequency to get the recommended delay indicator for
 224:../../../../libs/smtc-shields/lr11xx/inc/smtc_shield_lr11xx.h ****  * @param [in] bw Bandwidth to get the recommended delay indicator for
 225:../../../../libs/smtc-shields/lr11xx/inc/smtc_shield_lr11xx.h ****  * @param [in] sf Spreading factor to get the recommended delay indicator for
 226:../../../../libs/smtc-shields/lr11xx/inc/smtc_shield_lr11xx.h ****  * @param [out] delay_indicator Recommended delay indicator corresponding to sf/bw. Only valid if t
 227:../../../../libs/smtc-shields/lr11xx/inc/smtc_shield_lr11xx.h ****  * true
 228:../../../../libs/smtc-shields/lr11xx/inc/smtc_shield_lr11xx.h ****  *
 229:../../../../libs/smtc-shields/lr11xx/inc/smtc_shield_lr11xx.h ****  * @retval true The RTToF recommanded Rx/Tx delay indicator has been found and can be used
 230:../../../../libs/smtc-shields/lr11xx/inc/smtc_shield_lr11xx.h ****  * @retval false The RTToF recommanded Rx/Tx delay indicator has not been found and must not be use
 231:../../../../libs/smtc-shields/lr11xx/inc/smtc_shield_lr11xx.h ****  */
 232:../../../../libs/smtc-shields/lr11xx/inc/smtc_shield_lr11xx.h **** static inline bool smtc_shield_lr11xx_get_rttof_recommended_rx_tx_delay_indicator( const smtc_shiel
 233:../../../../libs/smtc-shields/lr11xx/inc/smtc_shield_lr11xx.h ****                                                                                    uint32_t        
 234:../../../../libs/smtc-shields/lr11xx/inc/smtc_shield_lr11xx.h ****                                                                                    lr11xx_radio_lor
 235:../../../../libs/smtc-shields/lr11xx/inc/smtc_shield_lr11xx.h ****                                                                                    lr11xx_radio_lor
 236:../../../../libs/smtc-shields/lr11xx/inc/smtc_shield_lr11xx.h ****                                                                                    uint32_t* delay_
 237:../../../../libs/smtc-shields/lr11xx/inc/smtc_shield_lr11xx.h **** {
 509              		.loc 3 237 1
 510              		.cfi_startproc
 511              		@ args = 4, pretend = 0, frame = 16
 512              		@ frame_needed = 1, uses_anonymous_args = 0
 513 0000 90B5     		push	{r4, r7, lr}
 514              	.LCFI41:
 515              		.cfi_def_cfa_offset 12
 516              		.cfi_offset 4, -12
 517              		.cfi_offset 7, -8
 518              		.cfi_offset 14, -4
 519 0002 85B0     		sub	sp, sp, #20
 520              	.LCFI42:
 521              		.cfi_def_cfa_offset 32
 522 0004 00AF     		add	r7, sp, #0
 523              	.LCFI43:
 524              		.cfi_def_cfa_register 7
 525 0006 F860     		str	r0, [r7, #12]
 526 0008 B960     		str	r1, [r7, #8]
 527 000a 1146     		mov	r1, r2
 528 000c 1A46     		mov	r2, r3
 529 000e 0B46     		mov	r3, r1
 530 0010 FB71     		strb	r3, [r7, #7]
 531 0012 1346     		mov	r3, r2
 532 0014 BB71     		strb	r3, [r7, #6]
 238:../../../../libs/smtc-shields/lr11xx/inc/smtc_shield_lr11xx.h ****     return shield->get_rttof_recommended_rx_tx_delay_indicator( rf_freq_in_hz, bw, sf, delay_indica
 533              		.loc 3 238 18
 534 0016 FB68     		ldr	r3, [r7, #12]
 535 0018 DC69     		ldr	r4, [r3, #28]
 536              		.loc 3 238 12
 537 001a BA79     		ldrb	r2, [r7, #6]	@ zero_extendqisi2
 538 001c F979     		ldrb	r1, [r7, #7]	@ zero_extendqisi2
 539 001e 3B6A     		ldr	r3, [r7, #32]
 540 0020 B868     		ldr	r0, [r7, #8]
 541 0022 A047     		blx	r4
ARM GAS  C:\msys64\tmp\ccwHIjYg.s 			page 19


 542              	.LVL7:
 543 0024 0346     		mov	r3, r0
 239:../../../../libs/smtc-shields/lr11xx/inc/smtc_shield_lr11xx.h **** }
 544              		.loc 3 239 1
 545 0026 1846     		mov	r0, r3
 546 0028 1437     		adds	r7, r7, #20
 547              	.LCFI44:
 548              		.cfi_def_cfa_offset 12
 549 002a BD46     		mov	sp, r7
 550              	.LCFI45:
 551              		.cfi_def_cfa_register 13
 552              		@ sp needed
 553 002c 90BD     		pop	{r4, r7, pc}
 554              		.cfi_endproc
 555              	.LFE249:
 557              		.section	.text.smtc_dbpsk_get_pld_len_in_bits,"ax",%progbits
 558              		.align	1
 559              		.syntax unified
 560              		.thumb
 561              		.thumb_func
 563              	smtc_dbpsk_get_pld_len_in_bits:
 564              	.LFB250:
 565              		.file 4 "../../../../libs/smtc_dbpsk_driver/src/smtc_dbpsk.h"
   1:../../../../libs/smtc_dbpsk_driver/src/smtc_dbpsk.h **** /**
   2:../../../../libs/smtc_dbpsk_driver/src/smtc_dbpsk.h ****  * \file
   3:../../../../libs/smtc_dbpsk_driver/src/smtc_dbpsk.h ****  *
   4:../../../../libs/smtc_dbpsk_driver/src/smtc_dbpsk.h ****  * \brief Generic DBPSK support library header
   5:../../../../libs/smtc_dbpsk_driver/src/smtc_dbpsk.h ****  */
   6:../../../../libs/smtc_dbpsk_driver/src/smtc_dbpsk.h **** 
   7:../../../../libs/smtc_dbpsk_driver/src/smtc_dbpsk.h **** /**
   8:../../../../libs/smtc_dbpsk_driver/src/smtc_dbpsk.h ****  * \file
   9:../../../../libs/smtc_dbpsk_driver/src/smtc_dbpsk.h ****  *
  10:../../../../libs/smtc_dbpsk_driver/src/smtc_dbpsk.h ****  * The Clear BSD License
  11:../../../../libs/smtc_dbpsk_driver/src/smtc_dbpsk.h ****  * Copyright Semtech Corporation 2022. All rights reserved.
  12:../../../../libs/smtc_dbpsk_driver/src/smtc_dbpsk.h ****  *
  13:../../../../libs/smtc_dbpsk_driver/src/smtc_dbpsk.h ****  * Redistribution and use in source and binary forms, with or without
  14:../../../../libs/smtc_dbpsk_driver/src/smtc_dbpsk.h ****  * modification, are permitted (subject to the limitations in the disclaimer
  15:../../../../libs/smtc_dbpsk_driver/src/smtc_dbpsk.h ****  * below) provided that the following conditions are met:
  16:../../../../libs/smtc_dbpsk_driver/src/smtc_dbpsk.h ****  *     * Redistributions of source code must retain the above copyright
  17:../../../../libs/smtc_dbpsk_driver/src/smtc_dbpsk.h ****  *       notice, this list of conditions and the following disclaimer.
  18:../../../../libs/smtc_dbpsk_driver/src/smtc_dbpsk.h ****  *     * Redistributions in binary form must reproduce the above copyright
  19:../../../../libs/smtc_dbpsk_driver/src/smtc_dbpsk.h ****  *       notice, this list of conditions and the following disclaimer in the
  20:../../../../libs/smtc_dbpsk_driver/src/smtc_dbpsk.h ****  *       documentation and/or other materials provided with the distribution.
  21:../../../../libs/smtc_dbpsk_driver/src/smtc_dbpsk.h ****  *     * Neither the name of the Semtech corporation nor the
  22:../../../../libs/smtc_dbpsk_driver/src/smtc_dbpsk.h ****  *       names of its contributors may be used to endorse or promote products
  23:../../../../libs/smtc_dbpsk_driver/src/smtc_dbpsk.h ****  *       derived from this software without specific prior written permission.
  24:../../../../libs/smtc_dbpsk_driver/src/smtc_dbpsk.h ****  *
  25:../../../../libs/smtc_dbpsk_driver/src/smtc_dbpsk.h ****  * NO EXPRESS OR IMPLIED LICENSES TO ANY PARTY'S PATENT RIGHTS ARE GRANTED BY
  26:../../../../libs/smtc_dbpsk_driver/src/smtc_dbpsk.h ****  * THIS LICENSE. THIS SOFTWARE IS PROVIDED BY THE COPYRIGHT HOLDERS AND
  27:../../../../libs/smtc_dbpsk_driver/src/smtc_dbpsk.h ****  * CONTRIBUTORS "AS IS" AND ANY EXPRESS OR IMPLIED WARRANTIES, INCLUDING, BUT
  28:../../../../libs/smtc_dbpsk_driver/src/smtc_dbpsk.h ****  * NOT LIMITED TO, THE IMPLIED WARRANTIES OF MERCHANTABILITY AND FITNESS FOR A
  29:../../../../libs/smtc_dbpsk_driver/src/smtc_dbpsk.h ****  * PARTICULAR PURPOSE ARE DISCLAIMED. IN NO EVENT SHALL SEMTECH CORPORATION BE
  30:../../../../libs/smtc_dbpsk_driver/src/smtc_dbpsk.h ****  * LIABLE FOR ANY DIRECT, INDIRECT, INCIDENTAL, SPECIAL, EXEMPLARY, OR
  31:../../../../libs/smtc_dbpsk_driver/src/smtc_dbpsk.h ****  * CONSEQUENTIAL DAMAGES (INCLUDING, BUT NOT LIMITED TO, PROCUREMENT OF
  32:../../../../libs/smtc_dbpsk_driver/src/smtc_dbpsk.h ****  * SUBSTITUTE GOODS OR SERVICES; LOSS OF USE, DATA, OR PROFITS; OR BUSINESS
  33:../../../../libs/smtc_dbpsk_driver/src/smtc_dbpsk.h ****  * INTERRUPTION) HOWEVER CAUSED AND ON ANY THEORY OF LIABILITY, WHETHER IN
  34:../../../../libs/smtc_dbpsk_driver/src/smtc_dbpsk.h ****  * CONTRACT, STRICT LIABILITY, OR TORT (INCLUDING NEGLIGENCE OR OTHERWISE)
ARM GAS  C:\msys64\tmp\ccwHIjYg.s 			page 20


  35:../../../../libs/smtc_dbpsk_driver/src/smtc_dbpsk.h ****  * ARISING IN ANY WAY OUT OF THE USE OF THIS SOFTWARE, EVEN IF ADVISED OF THE
  36:../../../../libs/smtc_dbpsk_driver/src/smtc_dbpsk.h ****  * POSSIBILITY OF SUCH DAMAGE.
  37:../../../../libs/smtc_dbpsk_driver/src/smtc_dbpsk.h ****  */
  38:../../../../libs/smtc_dbpsk_driver/src/smtc_dbpsk.h **** 
  39:../../../../libs/smtc_dbpsk_driver/src/smtc_dbpsk.h **** #ifndef SMTC_DBPSK_H
  40:../../../../libs/smtc_dbpsk_driver/src/smtc_dbpsk.h **** #define SMTC_DBPSK_H
  41:../../../../libs/smtc_dbpsk_driver/src/smtc_dbpsk.h **** 
  42:../../../../libs/smtc_dbpsk_driver/src/smtc_dbpsk.h **** /*
  43:../../../../libs/smtc_dbpsk_driver/src/smtc_dbpsk.h ****  * -----------------------------------------------------------------------------
  44:../../../../libs/smtc_dbpsk_driver/src/smtc_dbpsk.h ****  * --- DEPENDENCIES ------------------------------------------------------------
  45:../../../../libs/smtc_dbpsk_driver/src/smtc_dbpsk.h ****  */
  46:../../../../libs/smtc_dbpsk_driver/src/smtc_dbpsk.h **** 
  47:../../../../libs/smtc_dbpsk_driver/src/smtc_dbpsk.h **** #include <stdint.h>
  48:../../../../libs/smtc_dbpsk_driver/src/smtc_dbpsk.h **** 
  49:../../../../libs/smtc_dbpsk_driver/src/smtc_dbpsk.h **** #ifdef __cplusplus
  50:../../../../libs/smtc_dbpsk_driver/src/smtc_dbpsk.h **** extern "C" {
  51:../../../../libs/smtc_dbpsk_driver/src/smtc_dbpsk.h **** #endif
  52:../../../../libs/smtc_dbpsk_driver/src/smtc_dbpsk.h **** 
  53:../../../../libs/smtc_dbpsk_driver/src/smtc_dbpsk.h **** /*
  54:../../../../libs/smtc_dbpsk_driver/src/smtc_dbpsk.h ****  * -----------------------------------------------------------------------------
  55:../../../../libs/smtc_dbpsk_driver/src/smtc_dbpsk.h ****  * --- PUBLIC FUNCTION PROTOTYPES ----------------------------------------------
  56:../../../../libs/smtc_dbpsk_driver/src/smtc_dbpsk.h ****  */
  57:../../../../libs/smtc_dbpsk_driver/src/smtc_dbpsk.h **** 
  58:../../../../libs/smtc_dbpsk_driver/src/smtc_dbpsk.h **** /*!
  59:../../../../libs/smtc_dbpsk_driver/src/smtc_dbpsk.h ****  * \brief Perform differential encoding for DBPSK modulation.
  60:../../../../libs/smtc_dbpsk_driver/src/smtc_dbpsk.h ****  *
  61:../../../../libs/smtc_dbpsk_driver/src/smtc_dbpsk.h ****  * \param [in]  data_in              Buffer with input data
  62:../../../../libs/smtc_dbpsk_driver/src/smtc_dbpsk.h ****  * \param [in]  bpsk_pld_len_in_bits Length of the input BPSK frame, in bits
  63:../../../../libs/smtc_dbpsk_driver/src/smtc_dbpsk.h ****  * \param [out] data_out             Buffer for output data (can optionally be the same as data_in,
  64:../../../../libs/smtc_dbpsk_driver/src/smtc_dbpsk.h ****  * for bpsk_pld_len_in_bits + 2 bits)
  65:../../../../libs/smtc_dbpsk_driver/src/smtc_dbpsk.h ****  */
  66:../../../../libs/smtc_dbpsk_driver/src/smtc_dbpsk.h **** void smtc_dbpsk_encode_buffer( const uint8_t* data_in, int bpsk_pld_len_in_bits, uint8_t* data_out 
  67:../../../../libs/smtc_dbpsk_driver/src/smtc_dbpsk.h **** 
  68:../../../../libs/smtc_dbpsk_driver/src/smtc_dbpsk.h **** /*!
  69:../../../../libs/smtc_dbpsk_driver/src/smtc_dbpsk.h ****  * \brief Given the length of a BPSK frame, in bits, calculate the space necessary to hold the fram
  70:../../../../libs/smtc_dbpsk_driver/src/smtc_dbpsk.h ****  * encoding, in bits.
  71:../../../../libs/smtc_dbpsk_driver/src/smtc_dbpsk.h ****  *
  72:../../../../libs/smtc_dbpsk_driver/src/smtc_dbpsk.h ****  * \param [in]  bpsk_pld_len_in_bits Length of a BPSK frame, in bits
  73:../../../../libs/smtc_dbpsk_driver/src/smtc_dbpsk.h ****  * \returns                          Space required for DBPSK frame, after addition of start/stop b
  74:../../../../libs/smtc_dbpsk_driver/src/smtc_dbpsk.h ****  */
  75:../../../../libs/smtc_dbpsk_driver/src/smtc_dbpsk.h **** static inline int smtc_dbpsk_get_pld_len_in_bits( int bpsk_pld_len_in_bits )
  76:../../../../libs/smtc_dbpsk_driver/src/smtc_dbpsk.h **** {
 566              		.loc 4 76 1
 567              		.cfi_startproc
 568              		@ args = 0, pretend = 0, frame = 8
 569              		@ frame_needed = 1, uses_anonymous_args = 0
 570              		@ link register save eliminated.
 571 0000 80B4     		push	{r7}
 572              	.LCFI46:
 573              		.cfi_def_cfa_offset 4
 574              		.cfi_offset 7, -4
 575 0002 83B0     		sub	sp, sp, #12
 576              	.LCFI47:
 577              		.cfi_def_cfa_offset 16
 578 0004 00AF     		add	r7, sp, #0
 579              	.LCFI48:
 580              		.cfi_def_cfa_register 7
ARM GAS  C:\msys64\tmp\ccwHIjYg.s 			page 21


 581 0006 7860     		str	r0, [r7, #4]
  77:../../../../libs/smtc_dbpsk_driver/src/smtc_dbpsk.h ****     // Hold the last bit one extra bit-time
  78:../../../../libs/smtc_dbpsk_driver/src/smtc_dbpsk.h ****     return bpsk_pld_len_in_bits + 2;
 582              		.loc 4 78 33
 583 0008 7B68     		ldr	r3, [r7, #4]
 584 000a 0233     		adds	r3, r3, #2
  79:../../../../libs/smtc_dbpsk_driver/src/smtc_dbpsk.h **** }
 585              		.loc 4 79 1
 586 000c 1846     		mov	r0, r3
 587 000e 0C37     		adds	r7, r7, #12
 588              	.LCFI49:
 589              		.cfi_def_cfa_offset 4
 590 0010 BD46     		mov	sp, r7
 591              	.LCFI50:
 592              		.cfi_def_cfa_register 13
 593              		@ sp needed
 594 0012 5DF8047B 		ldr	r7, [sp], #4
 595              	.LCFI51:
 596              		.cfi_restore 7
 597              		.cfi_def_cfa_offset 0
 598 0016 7047     		bx	lr
 599              		.cfi_endproc
 600              	.LFE250:
 602              		.section	.text.smtc_dbpsk_get_pld_len_in_bytes,"ax",%progbits
 603              		.align	1
 604              		.syntax unified
 605              		.thumb
 606              		.thumb_func
 608              	smtc_dbpsk_get_pld_len_in_bytes:
 609              	.LFB251:
  80:../../../../libs/smtc_dbpsk_driver/src/smtc_dbpsk.h **** 
  81:../../../../libs/smtc_dbpsk_driver/src/smtc_dbpsk.h **** /*!
  82:../../../../libs/smtc_dbpsk_driver/src/smtc_dbpsk.h ****  * \brief Given the length of a BPSK frame, in bits, calculate the space necessary to hold the fram
  83:../../../../libs/smtc_dbpsk_driver/src/smtc_dbpsk.h ****  * encoding, in bytes.
  84:../../../../libs/smtc_dbpsk_driver/src/smtc_dbpsk.h ****  *
  85:../../../../libs/smtc_dbpsk_driver/src/smtc_dbpsk.h ****  * \param [in]  bpsk_pld_len_in_bits Length of a BPSK frame, in bits
  86:../../../../libs/smtc_dbpsk_driver/src/smtc_dbpsk.h ****  * \returns                          Space required for DBPSK frame, after addition of start/stop b
  87:../../../../libs/smtc_dbpsk_driver/src/smtc_dbpsk.h ****  */
  88:../../../../libs/smtc_dbpsk_driver/src/smtc_dbpsk.h **** static inline int smtc_dbpsk_get_pld_len_in_bytes( int bpsk_pld_len_in_bits )
  89:../../../../libs/smtc_dbpsk_driver/src/smtc_dbpsk.h **** {
 610              		.loc 4 89 1
 611              		.cfi_startproc
 612              		@ args = 0, pretend = 0, frame = 8
 613              		@ frame_needed = 1, uses_anonymous_args = 0
 614 0000 80B5     		push	{r7, lr}
 615              	.LCFI52:
 616              		.cfi_def_cfa_offset 8
 617              		.cfi_offset 7, -8
 618              		.cfi_offset 14, -4
 619 0002 82B0     		sub	sp, sp, #8
 620              	.LCFI53:
 621              		.cfi_def_cfa_offset 16
 622 0004 00AF     		add	r7, sp, #0
 623              	.LCFI54:
 624              		.cfi_def_cfa_register 7
 625 0006 7860     		str	r0, [r7, #4]
  90:../../../../libs/smtc_dbpsk_driver/src/smtc_dbpsk.h ****     return ( smtc_dbpsk_get_pld_len_in_bits( bpsk_pld_len_in_bits ) + 7 ) >> 3;
ARM GAS  C:\msys64\tmp\ccwHIjYg.s 			page 22


 626              		.loc 4 90 14
 627 0008 7868     		ldr	r0, [r7, #4]
 628 000a FFF7FEFF 		bl	smtc_dbpsk_get_pld_len_in_bits
 629 000e 0346     		mov	r3, r0
 630              		.loc 4 90 69 discriminator 1
 631 0010 0733     		adds	r3, r3, #7
 632              		.loc 4 90 75 discriminator 1
 633 0012 DB10     		asrs	r3, r3, #3
  91:../../../../libs/smtc_dbpsk_driver/src/smtc_dbpsk.h **** }
 634              		.loc 4 91 1
 635 0014 1846     		mov	r0, r3
 636 0016 0837     		adds	r7, r7, #8
 637              	.LCFI55:
 638              		.cfi_def_cfa_offset 8
 639 0018 BD46     		mov	sp, r7
 640              	.LCFI56:
 641              		.cfi_def_cfa_register 13
 642              		@ sp needed
 643 001a 80BD     		pop	{r7, pc}
 644              		.cfi_endproc
 645              	.LFE251:
 647              		.global	shield
 648              		.section	.data.shield,"aw"
 649              		.align	2
 652              	shield:
 653 0000 00000000 		.word	smtc_shield_lr1110mb1dis_get_pa_pwr_cfg
 654 0004 00000000 		.word	smtc_shield_lr1110mb1dis_get_rssi_calibration_table
 655 0008 00000000 		.word	smtc_shield_lr1110mb1dis_get_rf_switch_cfg
 656 000c 00000000 		.word	smtc_shield_lr1110mb1dis_get_reg_mode
 657 0010 00000000 		.word	smtc_shield_lr1110mb1dis_get_xosc_cfg
 658 0014 00000000 		.word	smtc_shield_lr1110mb1dis_get_lfclk_cfg
 659 0018 00000000 		.word	smtc_shield_lr1110mb1dis_get_pinout
 660 001c 00000000 		.word	smtc_shield_lr11x0_common_rttof_recommended_rx_tx_delay_indicator
 661              		.section	.data.lora_mod_params,"aw"
 662              		.align	2
 665              	lora_mod_params:
 666 0000 0A       		.byte	10
 667 0001 04       		.byte	4
 668 0002 01       		.byte	1
 669 0003 00       		.byte	0
 670              		.section	.rodata.lora_pkt_params,"a"
 671              		.align	2
 674              	lora_pkt_params:
 675 0000 0800     		.short	8
 676 0002 00       		.byte	0
 677 0003 14       		.byte	20
 678 0004 01       		.byte	1
 679 0005 00       		.byte	0
 680              		.section	.rodata.gfsk_mod_params,"a"
 681              		.align	2
 684              	gfsk_mod_params:
 685 0000 50C30000 		.word	50000
 686 0004 00       		.byte	0
 687 0005 0B       		.byte	11
 688 0006 0000     		.space	2
 689 0008 A8610000 		.word	25000
 690              		.section	.rodata.gfsk_pkt_params,"a"
ARM GAS  C:\msys64\tmp\ccwHIjYg.s 			page 23


 691              		.align	2
 694              	gfsk_pkt_params:
 695 0000 2000     		.short	32
 696 0002 05       		.byte	5
 697 0003 28       		.byte	40
 698 0004 00       		.byte	0
 699 0005 01       		.byte	1
 700 0006 14       		.byte	20
 701 0007 04       		.byte	4
 702 0008 00       		.byte	0
 703 0009 00       		.space	1
 704              		.section	.rodata.bpsk_mod_params,"a"
 705              		.align	2
 708              	bpsk_mod_params:
 709 0000 64000000 		.word	100
 710 0004 16       		.byte	22
 711 0005 000000   		.space	3
 712              		.section	.bss.bpsk_pkt_params,"aw",%nobits
 713              		.align	2
 716              	bpsk_pkt_params:
 717 0000 00000000 		.space	8
 717      00000000 
 718              		.section	.bss.context,"aw",%nobits
 719              		.align	2
 722              	context:
 723 0000 00000000 		.space	72
 723      00000000 
 723      00000000 
 723      00000000 
 723      00000000 
 724              		.section	.bss.irq_fired,"aw",%nobits
 727              	irq_fired:
 728 0000 00       		.space	1
 729              		.section	.bss.shield_pinout,"aw",%nobits
 730              		.align	2
 733              	shield_pinout:
 734 0000 00000000 		.space	4
 735              		.section	.bss.led_tx,"aw",%nobits
 736              		.align	2
 739              	led_tx:
 740 0000 00000000 		.space	12
 740      00000000 
 740      00000000 
 741              		.section	.bss.led_rx,"aw",%nobits
 742              		.align	2
 745              	led_rx:
 746 0000 00000000 		.space	12
 746      00000000 
 746      00000000 
 747              		.section	.bss.led_scan,"aw",%nobits
 748              		.align	2
 751              	led_scan:
 752 0000 00000000 		.space	12
 752      00000000 
 752      00000000 
 753              		.section	.bss.lna_ctrl,"aw",%nobits
 754              		.align	2
ARM GAS  C:\msys64\tmp\ccwHIjYg.s 			page 24


 757              	lna_ctrl:
 758 0000 00000000 		.space	12
 758      00000000 
 758      00000000 
 759              		.section	.text.apps_common_lr11xx_get_context,"ax",%progbits
 760              		.align	1
 761              		.global	apps_common_lr11xx_get_context
 762              		.syntax unified
 763              		.thumb
 764              		.thumb_func
 766              	apps_common_lr11xx_get_context:
 767              	.LFB252:
   1:../../../../lr11xx/common/apps_common.c **** /*!
   2:../../../../lr11xx/common/apps_common.c ****  * @file      apps_common.c
   3:../../../../lr11xx/common/apps_common.c ****  *
   4:../../../../lr11xx/common/apps_common.c ****  * @brief     Common functions shared by the examples
   5:../../../../lr11xx/common/apps_common.c ****  *
   6:../../../../lr11xx/common/apps_common.c ****  * @copyright
   7:../../../../lr11xx/common/apps_common.c ****  * The Clear BSD License
   8:../../../../lr11xx/common/apps_common.c ****  * Copyright Semtech Corporation 2022. All rights reserved.
   9:../../../../lr11xx/common/apps_common.c ****  *
  10:../../../../lr11xx/common/apps_common.c ****  * Redistribution and use in source and binary forms, with or without
  11:../../../../lr11xx/common/apps_common.c ****  * modification, are permitted (subject to the limitations in the disclaimer
  12:../../../../lr11xx/common/apps_common.c ****  * below) provided that the following conditions are met:
  13:../../../../lr11xx/common/apps_common.c ****  *     * Redistributions of source code must retain the above copyright
  14:../../../../lr11xx/common/apps_common.c ****  *       notice, this list of conditions and the following disclaimer.
  15:../../../../lr11xx/common/apps_common.c ****  *     * Redistributions in binary form must reproduce the above copyright
  16:../../../../lr11xx/common/apps_common.c ****  *       notice, this list of conditions and the following disclaimer in the
  17:../../../../lr11xx/common/apps_common.c ****  *       documentation and/or other materials provided with the distribution.
  18:../../../../lr11xx/common/apps_common.c ****  *     * Neither the name of the Semtech corporation nor the
  19:../../../../lr11xx/common/apps_common.c ****  *       names of its contributors may be used to endorse or promote products
  20:../../../../lr11xx/common/apps_common.c ****  *       derived from this software without specific prior written permission.
  21:../../../../lr11xx/common/apps_common.c ****  *
  22:../../../../lr11xx/common/apps_common.c ****  * NO EXPRESS OR IMPLIED LICENSES TO ANY PARTY'S PATENT RIGHTS ARE GRANTED BY
  23:../../../../lr11xx/common/apps_common.c ****  * THIS LICENSE. THIS SOFTWARE IS PROVIDED BY THE COPYRIGHT HOLDERS AND
  24:../../../../lr11xx/common/apps_common.c ****  * CONTRIBUTORS "AS IS" AND ANY EXPRESS OR IMPLIED WARRANTIES, INCLUDING, BUT
  25:../../../../lr11xx/common/apps_common.c ****  * NOT LIMITED TO, THE IMPLIED WARRANTIES OF MERCHANTABILITY AND FITNESS FOR A
  26:../../../../lr11xx/common/apps_common.c ****  * PARTICULAR PURPOSE ARE DISCLAIMED. IN NO EVENT SHALL SEMTECH CORPORATION BE
  27:../../../../lr11xx/common/apps_common.c ****  * LIABLE FOR ANY DIRECT, INDIRECT, INCIDENTAL, SPECIAL, EXEMPLARY, OR
  28:../../../../lr11xx/common/apps_common.c ****  * CONSEQUENTIAL DAMAGES (INCLUDING, BUT NOT LIMITED TO, PROCUREMENT OF
  29:../../../../lr11xx/common/apps_common.c ****  * SUBSTITUTE GOODS OR SERVICES; LOSS OF USE, DATA, OR PROFITS; OR BUSINESS
  30:../../../../lr11xx/common/apps_common.c ****  * INTERRUPTION) HOWEVER CAUSED AND ON ANY THEORY OF LIABILITY, WHETHER IN
  31:../../../../lr11xx/common/apps_common.c ****  * CONTRACT, STRICT LIABILITY, OR TORT (INCLUDING NEGLIGENCE OR OTHERWISE)
  32:../../../../lr11xx/common/apps_common.c ****  * ARISING IN ANY WAY OUT OF THE USE OF THIS SOFTWARE, EVEN IF ADVISED OF THE
  33:../../../../lr11xx/common/apps_common.c ****  * POSSIBILITY OF SUCH DAMAGE.
  34:../../../../lr11xx/common/apps_common.c ****  */
  35:../../../../lr11xx/common/apps_common.c **** 
  36:../../../../lr11xx/common/apps_common.c **** /*
  37:../../../../lr11xx/common/apps_common.c ****  * -----------------------------------------------------------------------------
  38:../../../../lr11xx/common/apps_common.c ****  * --- DEPENDENCIES ------------------------------------------------------------
  39:../../../../lr11xx/common/apps_common.c ****  */
  40:../../../../lr11xx/common/apps_common.c **** 
  41:../../../../lr11xx/common/apps_common.c **** #include <stdlib.h>
  42:../../../../lr11xx/common/apps_common.c **** #include <stdio.h>
  43:../../../../lr11xx/common/apps_common.c **** #include <string.h>
  44:../../../../lr11xx/common/apps_common.c **** #include "common_version.h"
  45:../../../../lr11xx/common/apps_common.c **** #include "apps_common.h"
ARM GAS  C:\msys64\tmp\ccwHIjYg.s 			page 25


  46:../../../../lr11xx/common/apps_common.c **** #include "lr11xx_regmem.h"
  47:../../../../lr11xx/common/apps_common.c **** #include "apps_utilities.h"
  48:../../../../lr11xx/common/apps_common.c **** #include "lr11xx_system.h"
  49:../../../../lr11xx/common/apps_common.c **** #include "lr11xx_radio.h"
  50:../../../../lr11xx/common/apps_common.c **** #include "lr11xx_driver_version.h"
  51:../../../../lr11xx/common/apps_common.c **** #include "lr11xx_rttof.h"
  52:../../../../lr11xx/common/apps_common.c **** #include "smtc_hal_dbg_trace.h"
  53:../../../../lr11xx/common/apps_common.c **** #include "smtc_shield_pinout_mapping.h"
  54:../../../../lr11xx/common/apps_common.c **** #include "smtc_shield_lr11xx.h"
  55:../../../../lr11xx/common/apps_common.c **** 
  56:../../../../lr11xx/common/apps_common.c **** #include "smtc_shield_lr1110mb1dis.h"
  57:../../../../lr11xx/common/apps_common.c **** #include "smtc_shield_lr1110mb1ipddis.h"
  58:../../../../lr11xx/common/apps_common.c **** #include "smtc_shield_lr1110mb1djs.h"
  59:../../../../lr11xx/common/apps_common.c **** #include "smtc_shield_lr1110mb1gis.h"
  60:../../../../lr11xx/common/apps_common.c **** #include "smtc_shield_lr1110mb1pis.h"
  61:../../../../lr11xx/common/apps_common.c **** #include "smtc_shield_lr1110mb1gjs.h"
  62:../../../../lr11xx/common/apps_common.c **** #include "smtc_shield_lr1120mb1dis.h"
  63:../../../../lr11xx/common/apps_common.c **** #include "smtc_shield_lr1120mb1ipddis.h"
  64:../../../../lr11xx/common/apps_common.c **** #include "smtc_shield_lr1120mb1djs.h"
  65:../../../../lr11xx/common/apps_common.c **** #include "smtc_shield_lr1120mb1gis.h"
  66:../../../../lr11xx/common/apps_common.c **** #include "smtc_shield_lr1120mb1pis.h"
  67:../../../../lr11xx/common/apps_common.c **** #include "smtc_shield_lr1120mb1gjs.h"
  68:../../../../lr11xx/common/apps_common.c **** #include "smtc_shield_lr1121mb1dis.h"
  69:../../../../lr11xx/common/apps_common.c **** #include "smtc_shield_lr1121mb1gis.h"
  70:../../../../lr11xx/common/apps_common.c **** 
  71:../../../../lr11xx/common/apps_common.c **** #include "smtc_dbpsk.h"
  72:../../../../lr11xx/common/apps_common.c **** 
  73:../../../../lr11xx/common/apps_common.c **** /*
  74:../../../../lr11xx/common/apps_common.c ****  * -----------------------------------------------------------------------------
  75:../../../../lr11xx/common/apps_common.c ****  * --- PRIVATE MACROS-----------------------------------------------------------
  76:../../../../lr11xx/common/apps_common.c ****  */
  77:../../../../lr11xx/common/apps_common.c **** 
  78:../../../../lr11xx/common/apps_common.c **** /*
  79:../../../../lr11xx/common/apps_common.c ****  * -----------------------------------------------------------------------------
  80:../../../../lr11xx/common/apps_common.c ****  * --- PRIVATE CONSTANTS -------------------------------------------------------
  81:../../../../lr11xx/common/apps_common.c ****  */
  82:../../../../lr11xx/common/apps_common.c **** 
  83:../../../../lr11xx/common/apps_common.c **** #ifdef LR1110MB1DIS
  84:../../../../lr11xx/common/apps_common.c **** smtc_shield_lr11xx_t shield = SMTC_SHIELD_LR1110MB1DIS_INSTANTIATE;
  85:../../../../lr11xx/common/apps_common.c **** #endif
  86:../../../../lr11xx/common/apps_common.c **** #ifdef LR1110MB1IPDDIS
  87:../../../../lr11xx/common/apps_common.c **** smtc_shield_lr11xx_t shield = SMTC_SHIELD_LR1110MB1IPDDIS_INSTANTIATE;
  88:../../../../lr11xx/common/apps_common.c **** #endif
  89:../../../../lr11xx/common/apps_common.c **** #ifdef LR1110MB1DJS
  90:../../../../lr11xx/common/apps_common.c **** smtc_shield_lr11xx_t shield = SMTC_SHIELD_LR1110MB1DJS_INSTANTIATE;
  91:../../../../lr11xx/common/apps_common.c **** #endif
  92:../../../../lr11xx/common/apps_common.c **** #ifdef LR1110MB1GIS
  93:../../../../lr11xx/common/apps_common.c **** smtc_shield_lr11xx_t shield = SMTC_SHIELD_LR1110MB1GIS_INSTANTIATE;
  94:../../../../lr11xx/common/apps_common.c **** #endif
  95:../../../../lr11xx/common/apps_common.c **** #ifdef LR1110MB1PIS
  96:../../../../lr11xx/common/apps_common.c **** smtc_shield_lr11xx_t shield = SMTC_SHIELD_LR1110MB1PIS_INSTANTIATE;
  97:../../../../lr11xx/common/apps_common.c **** #endif
  98:../../../../lr11xx/common/apps_common.c **** #ifdef LR1110MB1GJS
  99:../../../../lr11xx/common/apps_common.c **** smtc_shield_lr11xx_t shield = SMTC_SHIELD_LR1110MB1GJS_INSTANTIATE;
 100:../../../../lr11xx/common/apps_common.c **** #endif
 101:../../../../lr11xx/common/apps_common.c **** #ifdef LR1120MB1DIS
 102:../../../../lr11xx/common/apps_common.c **** smtc_shield_lr11xx_t shield = SMTC_SHIELD_LR1120MB1DIS_INSTANTIATE;
ARM GAS  C:\msys64\tmp\ccwHIjYg.s 			page 26


 103:../../../../lr11xx/common/apps_common.c **** #endif
 104:../../../../lr11xx/common/apps_common.c **** #ifdef LR1120MB1IPDDIS
 105:../../../../lr11xx/common/apps_common.c **** smtc_shield_lr11xx_t shield = SMTC_SHIELD_LR1120MB1IPDDIS_INSTANTIATE;
 106:../../../../lr11xx/common/apps_common.c **** #endif
 107:../../../../lr11xx/common/apps_common.c **** #ifdef LR1120MB1DJS
 108:../../../../lr11xx/common/apps_common.c **** smtc_shield_lr11xx_t shield = SMTC_SHIELD_LR1120MB1DJS_INSTANTIATE;
 109:../../../../lr11xx/common/apps_common.c **** #endif
 110:../../../../lr11xx/common/apps_common.c **** #ifdef LR1120MB1GIS
 111:../../../../lr11xx/common/apps_common.c **** smtc_shield_lr11xx_t shield = SMTC_SHIELD_LR1120MB1GIS_INSTANTIATE;
 112:../../../../lr11xx/common/apps_common.c **** #endif
 113:../../../../lr11xx/common/apps_common.c **** #ifdef LR1120MB1PIS
 114:../../../../lr11xx/common/apps_common.c **** smtc_shield_lr11xx_t shield = SMTC_SHIELD_LR1120MB1PIS_INSTANTIATE;
 115:../../../../lr11xx/common/apps_common.c **** #endif
 116:../../../../lr11xx/common/apps_common.c **** #ifdef LR1120MB1GJS
 117:../../../../lr11xx/common/apps_common.c **** smtc_shield_lr11xx_t shield = SMTC_SHIELD_LR1120MB1GJS_INSTANTIATE;
 118:../../../../lr11xx/common/apps_common.c **** #endif
 119:../../../../lr11xx/common/apps_common.c **** #ifdef LR1121MB1DIS
 120:../../../../lr11xx/common/apps_common.c **** smtc_shield_lr11xx_t shield = SMTC_SHIELD_LR1121MB1DIS_INSTANTIATE;
 121:../../../../lr11xx/common/apps_common.c **** #endif
 122:../../../../lr11xx/common/apps_common.c **** #ifdef LR1121MB1GIS
 123:../../../../lr11xx/common/apps_common.c **** smtc_shield_lr11xx_t shield = SMTC_SHIELD_LR1121MB1GIS_INSTANTIATE;
 124:../../../../lr11xx/common/apps_common.c **** #endif
 125:../../../../lr11xx/common/apps_common.c **** 
 126:../../../../lr11xx/common/apps_common.c **** static lr11xx_radio_mod_params_lora_t lora_mod_params = {
 127:../../../../lr11xx/common/apps_common.c ****     .sf   = LORA_SPREADING_FACTOR,
 128:../../../../lr11xx/common/apps_common.c ****     .bw   = LORA_BANDWIDTH,
 129:../../../../lr11xx/common/apps_common.c ****     .cr   = LORA_CODING_RATE,
 130:../../../../lr11xx/common/apps_common.c ****     .ldro = 0  // Will be initialized in radio init
 131:../../../../lr11xx/common/apps_common.c **** };
 132:../../../../lr11xx/common/apps_common.c **** 
 133:../../../../lr11xx/common/apps_common.c **** static const lr11xx_radio_pkt_params_lora_t lora_pkt_params = {
 134:../../../../lr11xx/common/apps_common.c ****     .preamble_len_in_symb = LORA_PREAMBLE_LENGTH,
 135:../../../../lr11xx/common/apps_common.c ****     .header_type          = LORA_PKT_LEN_MODE,
 136:../../../../lr11xx/common/apps_common.c ****     .pld_len_in_bytes     = PAYLOAD_LENGTH,
 137:../../../../lr11xx/common/apps_common.c ****     .crc                  = LORA_CRC,
 138:../../../../lr11xx/common/apps_common.c ****     .iq                   = LORA_IQ,
 139:../../../../lr11xx/common/apps_common.c **** };
 140:../../../../lr11xx/common/apps_common.c **** 
 141:../../../../lr11xx/common/apps_common.c **** static const lr11xx_radio_mod_params_gfsk_t gfsk_mod_params = {
 142:../../../../lr11xx/common/apps_common.c ****     .br_in_bps    = FSK_BITRATE,
 143:../../../../lr11xx/common/apps_common.c ****     .pulse_shape  = FSK_PULSE_SHAPE,
 144:../../../../lr11xx/common/apps_common.c ****     .bw_dsb_param = FSK_BANDWIDTH,
 145:../../../../lr11xx/common/apps_common.c ****     .fdev_in_hz   = FSK_FDEV,
 146:../../../../lr11xx/common/apps_common.c **** };
 147:../../../../lr11xx/common/apps_common.c **** 
 148:../../../../lr11xx/common/apps_common.c **** static const lr11xx_radio_pkt_params_gfsk_t gfsk_pkt_params = {
 149:../../../../lr11xx/common/apps_common.c ****     .preamble_len_in_bits  = FSK_PREAMBLE_LENGTH,
 150:../../../../lr11xx/common/apps_common.c ****     .preamble_detector     = FSK_PREAMBLE_DETECTOR,
 151:../../../../lr11xx/common/apps_common.c ****     .sync_word_len_in_bits = FSK_SYNCWORD_LENGTH,
 152:../../../../lr11xx/common/apps_common.c ****     .address_filtering     = FSK_ADDRESS_FILTERING,
 153:../../../../lr11xx/common/apps_common.c ****     .header_type           = FSK_HEADER_TYPE,
 154:../../../../lr11xx/common/apps_common.c ****     .pld_len_in_bytes      = PAYLOAD_LENGTH,
 155:../../../../lr11xx/common/apps_common.c ****     .crc_type              = FSK_CRC_TYPE,
 156:../../../../lr11xx/common/apps_common.c ****     .dc_free               = FSK_DC_FREE,
 157:../../../../lr11xx/common/apps_common.c **** };
 158:../../../../lr11xx/common/apps_common.c **** 
 159:../../../../lr11xx/common/apps_common.c **** static const lr11xx_radio_mod_params_bpsk_t bpsk_mod_params = {
ARM GAS  C:\msys64\tmp\ccwHIjYg.s 			page 27


 160:../../../../lr11xx/common/apps_common.c ****     .br_in_bps   = BPSK_BITRATE_IN_BPS,
 161:../../../../lr11xx/common/apps_common.c ****     .pulse_shape = LR11XX_RADIO_DBPSK_PULSE_SHAPE,
 162:../../../../lr11xx/common/apps_common.c **** };
 163:../../../../lr11xx/common/apps_common.c **** 
 164:../../../../lr11xx/common/apps_common.c **** static lr11xx_radio_pkt_params_bpsk_t bpsk_pkt_params = {
 165:../../../../lr11xx/common/apps_common.c ****     .pld_len_in_bytes = 0,  // Will be initialized in radio init
 166:../../../../lr11xx/common/apps_common.c ****     .ramp_up_delay    = 0,
 167:../../../../lr11xx/common/apps_common.c ****     .ramp_down_delay  = 0,
 168:../../../../lr11xx/common/apps_common.c ****     .pld_len_in_bits  = 0,  // Will be initialized in radio init
 169:../../../../lr11xx/common/apps_common.c **** };
 170:../../../../lr11xx/common/apps_common.c **** 
 171:../../../../lr11xx/common/apps_common.c **** /*
 172:../../../../lr11xx/common/apps_common.c ****  * -----------------------------------------------------------------------------
 173:../../../../lr11xx/common/apps_common.c ****  * --- PRIVATE TYPES -----------------------------------------------------------
 174:../../../../lr11xx/common/apps_common.c ****  */
 175:../../../../lr11xx/common/apps_common.c **** 
 176:../../../../lr11xx/common/apps_common.c **** /*
 177:../../../../lr11xx/common/apps_common.c ****  * -----------------------------------------------------------------------------
 178:../../../../lr11xx/common/apps_common.c ****  * --- PRIVATE VARIABLES -------------------------------------------------------
 179:../../../../lr11xx/common/apps_common.c ****  */
 180:../../../../lr11xx/common/apps_common.c **** 
 181:../../../../lr11xx/common/apps_common.c **** static lr11xx_hal_context_t context;
 182:../../../../lr11xx/common/apps_common.c **** 
 183:../../../../lr11xx/common/apps_common.c **** static volatile bool irq_fired = false;
 184:../../../../lr11xx/common/apps_common.c **** 
 185:../../../../lr11xx/common/apps_common.c **** static const smtc_shield_lr11xx_pinout_t* shield_pinout = 0;
 186:../../../../lr11xx/common/apps_common.c **** 
 187:../../../../lr11xx/common/apps_common.c **** static struct
 188:../../../../lr11xx/common/apps_common.c **** {
 189:../../../../lr11xx/common/apps_common.c ****     smtc_hal_mcu_gpio_cfg_t        cfg;
 190:../../../../lr11xx/common/apps_common.c ****     smtc_hal_mcu_gpio_output_cfg_t cfg_output;
 191:../../../../lr11xx/common/apps_common.c ****     smtc_hal_mcu_gpio_inst_t       inst;
 192:../../../../lr11xx/common/apps_common.c **** } led_tx;
 193:../../../../lr11xx/common/apps_common.c **** 
 194:../../../../lr11xx/common/apps_common.c **** static struct
 195:../../../../lr11xx/common/apps_common.c **** {
 196:../../../../lr11xx/common/apps_common.c ****     smtc_hal_mcu_gpio_cfg_t        cfg;
 197:../../../../lr11xx/common/apps_common.c ****     smtc_hal_mcu_gpio_output_cfg_t cfg_output;
 198:../../../../lr11xx/common/apps_common.c ****     smtc_hal_mcu_gpio_inst_t       inst;
 199:../../../../lr11xx/common/apps_common.c **** } led_rx;
 200:../../../../lr11xx/common/apps_common.c **** 
 201:../../../../lr11xx/common/apps_common.c **** static struct
 202:../../../../lr11xx/common/apps_common.c **** {
 203:../../../../lr11xx/common/apps_common.c ****     smtc_hal_mcu_gpio_cfg_t        cfg;
 204:../../../../lr11xx/common/apps_common.c ****     smtc_hal_mcu_gpio_output_cfg_t cfg_output;
 205:../../../../lr11xx/common/apps_common.c ****     smtc_hal_mcu_gpio_inst_t       inst;
 206:../../../../lr11xx/common/apps_common.c **** } led_scan;
 207:../../../../lr11xx/common/apps_common.c **** 
 208:../../../../lr11xx/common/apps_common.c **** static struct
 209:../../../../lr11xx/common/apps_common.c **** {
 210:../../../../lr11xx/common/apps_common.c ****     smtc_hal_mcu_gpio_cfg_t        cfg;
 211:../../../../lr11xx/common/apps_common.c ****     smtc_hal_mcu_gpio_output_cfg_t cfg_output;
 212:../../../../lr11xx/common/apps_common.c ****     smtc_hal_mcu_gpio_inst_t       inst;
 213:../../../../lr11xx/common/apps_common.c **** } lna_ctrl;
 214:../../../../lr11xx/common/apps_common.c **** 
 215:../../../../lr11xx/common/apps_common.c **** /*
 216:../../../../lr11xx/common/apps_common.c ****  * -----------------------------------------------------------------------------
ARM GAS  C:\msys64\tmp\ccwHIjYg.s 			page 28


 217:../../../../lr11xx/common/apps_common.c ****  * --- PRIVATE FUNCTIONS DECLARATION -------------------------------------------
 218:../../../../lr11xx/common/apps_common.c ****  */
 219:../../../../lr11xx/common/apps_common.c **** 
 220:../../../../lr11xx/common/apps_common.c **** /*!
 221:../../../../lr11xx/common/apps_common.c ****  * @brief Print the common configuration on the debug interface
 222:../../../../lr11xx/common/apps_common.c ****  */
 223:../../../../lr11xx/common/apps_common.c **** void print_common_configuration( void );
 224:../../../../lr11xx/common/apps_common.c **** 
 225:../../../../lr11xx/common/apps_common.c **** /*!
 226:../../../../lr11xx/common/apps_common.c ****  * @brief Print the LoRa configuration on the debug interface
 227:../../../../lr11xx/common/apps_common.c ****  */
 228:../../../../lr11xx/common/apps_common.c **** void print_lora_configuration( void );
 229:../../../../lr11xx/common/apps_common.c **** 
 230:../../../../lr11xx/common/apps_common.c **** /*!
 231:../../../../lr11xx/common/apps_common.c ****  * @brief Print the GFSK configuration on the debug interface
 232:../../../../lr11xx/common/apps_common.c ****  */
 233:../../../../lr11xx/common/apps_common.c **** void print_gfsk_configuration( void );
 234:../../../../lr11xx/common/apps_common.c **** 
 235:../../../../lr11xx/common/apps_common.c **** /*!
 236:../../../../lr11xx/common/apps_common.c ****  * @brief Print the LR11XX driver version
 237:../../../../lr11xx/common/apps_common.c ****  */
 238:../../../../lr11xx/common/apps_common.c **** static void print_driver_version( void );
 239:../../../../lr11xx/common/apps_common.c **** 
 240:../../../../lr11xx/common/apps_common.c **** void radio_on_dio_irq( void* context );
 241:../../../../lr11xx/common/apps_common.c **** void on_tx_done( void ) __attribute__( ( weak ) );
 242:../../../../lr11xx/common/apps_common.c **** void on_rx_done( void ) __attribute__( ( weak ) );
 243:../../../../lr11xx/common/apps_common.c **** void on_rx_timeout( void ) __attribute__( ( weak ) );
 244:../../../../lr11xx/common/apps_common.c **** void on_preamble_detected( void ) __attribute__( ( weak ) );
 245:../../../../lr11xx/common/apps_common.c **** void on_syncword_header_valid( void ) __attribute__( ( weak ) );
 246:../../../../lr11xx/common/apps_common.c **** void on_header_error( void ) __attribute__( ( weak ) );
 247:../../../../lr11xx/common/apps_common.c **** void on_fsk_len_error( void ) __attribute__( ( weak ) );
 248:../../../../lr11xx/common/apps_common.c **** void on_rx_crc_error( void ) __attribute__( ( weak ) );
 249:../../../../lr11xx/common/apps_common.c **** void on_cad_done_undetected( void ) __attribute__( ( weak ) );
 250:../../../../lr11xx/common/apps_common.c **** void on_cad_done_detected( void ) __attribute__( ( weak ) );
 251:../../../../lr11xx/common/apps_common.c **** void on_lora_rx_timestamp( void ) __attribute__( ( weak ) );
 252:../../../../lr11xx/common/apps_common.c **** void on_rttof_request_valid( void ) __attribute__( ( weak ) );
 253:../../../../lr11xx/common/apps_common.c **** void on_rttof_request_discarded( void ) __attribute__( ( weak ) );
 254:../../../../lr11xx/common/apps_common.c **** void on_rttof_response_done( void ) __attribute__( ( weak ) );
 255:../../../../lr11xx/common/apps_common.c **** void on_rttof_exchange_valid( void ) __attribute__( ( weak ) );
 256:../../../../lr11xx/common/apps_common.c **** void on_rttof_timeout( void ) __attribute__( ( weak ) );
 257:../../../../lr11xx/common/apps_common.c **** 
 258:../../../../lr11xx/common/apps_common.c **** void on_wifi_scan_done( void ) __attribute__( ( weak ) );
 259:../../../../lr11xx/common/apps_common.c **** void on_gnss_scan_done( void ) __attribute__( ( weak ) );
 260:../../../../lr11xx/common/apps_common.c **** 
 261:../../../../lr11xx/common/apps_common.c **** /*
 262:../../../../lr11xx/common/apps_common.c ****  * -----------------------------------------------------------------------------
 263:../../../../lr11xx/common/apps_common.c ****  * --- PUBLIC VARIABLES --------------------------------------------------------
 264:../../../../lr11xx/common/apps_common.c ****  */
 265:../../../../lr11xx/common/apps_common.c **** 
 266:../../../../lr11xx/common/apps_common.c **** /*
 267:../../../../lr11xx/common/apps_common.c ****  * -----------------------------------------------------------------------------
 268:../../../../lr11xx/common/apps_common.c ****  * --- PUBLIC FUNCTIONS DEFINITION ---------------------------------------------
 269:../../../../lr11xx/common/apps_common.c ****  */
 270:../../../../lr11xx/common/apps_common.c **** 
 271:../../../../lr11xx/common/apps_common.c **** lr11xx_hal_context_t* apps_common_lr11xx_get_context( )
 272:../../../../lr11xx/common/apps_common.c **** {
 768              		.loc 1 272 1
ARM GAS  C:\msys64\tmp\ccwHIjYg.s 			page 29


 769              		.cfi_startproc
 770              		@ args = 0, pretend = 0, frame = 0
 771              		@ frame_needed = 1, uses_anonymous_args = 0
 772 0000 80B5     		push	{r7, lr}
 773              	.LCFI57:
 774              		.cfi_def_cfa_offset 8
 775              		.cfi_offset 7, -8
 776              		.cfi_offset 14, -4
 777 0002 00AF     		add	r7, sp, #0
 778              	.LCFI58:
 779              		.cfi_def_cfa_register 7
 273:../../../../lr11xx/common/apps_common.c ****     context.busy.cfg                 = smtc_shield_pinout_mapping_get_gpio_cfg( SMTC_SHIELD_PINOUT_
 780              		.loc 1 273 40
 781 0004 0320     		movs	r0, #3
 782 0006 FFF7FEFF 		bl	smtc_shield_pinout_mapping_get_gpio_cfg
 783 000a 0346     		mov	r3, r0
 784              		.loc 1 273 38 discriminator 1
 785 000c 314A     		ldr	r2, .L40
 786 000e 5363     		str	r3, [r2, #52]
 274:../../../../lr11xx/common/apps_common.c ****     context.busy.cfg_input.pull_mode = SMTC_HAL_MCU_GPIO_PULL_MODE_NONE;
 787              		.loc 1 274 38
 788 0010 304B     		ldr	r3, .L40
 789 0012 0022     		movs	r2, #0
 790 0014 83F83820 		strb	r2, [r3, #56]
 275:../../../../lr11xx/common/apps_common.c ****     context.busy.cfg_input.irq_mode  = SMTC_HAL_MCU_GPIO_IRQ_MODE_OFF;
 791              		.loc 1 275 38
 792 0018 2E4B     		ldr	r3, .L40
 793 001a 0022     		movs	r2, #0
 794 001c 83F83920 		strb	r2, [r3, #57]
 276:../../../../lr11xx/common/apps_common.c ****     context.busy.cfg_input.callback  = NULL;
 795              		.loc 1 276 38
 796 0020 2C4B     		ldr	r3, .L40
 797 0022 0022     		movs	r2, #0
 798 0024 DA63     		str	r2, [r3, #60]
 277:../../../../lr11xx/common/apps_common.c **** 
 278:../../../../lr11xx/common/apps_common.c ****     context.irq.cfg                 = smtc_shield_pinout_mapping_get_gpio_cfg( SMTC_SHIELD_PINOUT_D
 799              		.loc 1 278 39
 800 0026 0520     		movs	r0, #5
 801 0028 FFF7FEFF 		bl	smtc_shield_pinout_mapping_get_gpio_cfg
 802 002c 0346     		mov	r3, r0
 803              		.loc 1 278 37 discriminator 1
 804 002e 294A     		ldr	r2, .L40
 805 0030 1362     		str	r3, [r2, #32]
 279:../../../../lr11xx/common/apps_common.c ****     context.irq.cfg_input.pull_mode = SMTC_HAL_MCU_GPIO_PULL_MODE_NONE;
 806              		.loc 1 279 37
 807 0032 284B     		ldr	r3, .L40
 808 0034 0022     		movs	r2, #0
 809 0036 83F82420 		strb	r2, [r3, #36]
 280:../../../../lr11xx/common/apps_common.c ****     context.irq.cfg_input.irq_mode  = SMTC_HAL_MCU_GPIO_IRQ_MODE_RISING;
 810              		.loc 1 280 37
 811 003a 264B     		ldr	r3, .L40
 812 003c 0122     		movs	r2, #1
 813 003e 83F82520 		strb	r2, [r3, #37]
 281:../../../../lr11xx/common/apps_common.c ****     context.irq.cfg_input.callback  = radio_on_dio_irq;
 814              		.loc 1 281 37
 815 0042 244B     		ldr	r3, .L40
 816 0044 244A     		ldr	r2, .L40+4
ARM GAS  C:\msys64\tmp\ccwHIjYg.s 			page 30


 817 0046 9A62     		str	r2, [r3, #40]
 282:../../../../lr11xx/common/apps_common.c ****     context.irq.cfg_input.context   = NULL;
 818              		.loc 1 282 37
 819 0048 224B     		ldr	r3, .L40
 820 004a 0022     		movs	r2, #0
 821 004c DA62     		str	r2, [r3, #44]
 283:../../../../lr11xx/common/apps_common.c **** 
 284:../../../../lr11xx/common/apps_common.c ****     context.nss.cfg                      = smtc_shield_pinout_mapping_get_gpio_cfg( SMTC_SHIELD_PIN
 822              		.loc 1 284 44
 823 004e 0720     		movs	r0, #7
 824 0050 FFF7FEFF 		bl	smtc_shield_pinout_mapping_get_gpio_cfg
 825 0054 0346     		mov	r3, r0
 826              		.loc 1 284 42 discriminator 1
 827 0056 1F4A     		ldr	r2, .L40
 828 0058 9360     		str	r3, [r2, #8]
 285:../../../../lr11xx/common/apps_common.c ****     context.nss.cfg_output.initial_state = SMTC_HAL_MCU_GPIO_STATE_HIGH;
 829              		.loc 1 285 42
 830 005a 1E4B     		ldr	r3, .L40
 831 005c 0122     		movs	r2, #1
 832 005e 1A73     		strb	r2, [r3, #12]
 286:../../../../lr11xx/common/apps_common.c ****     context.nss.cfg_output.mode          = SMTC_HAL_MCU_GPIO_OUTPUT_MODE_PUSH_PULL;
 833              		.loc 1 286 42
 834 0060 1C4B     		ldr	r3, .L40
 835 0062 0222     		movs	r2, #2
 836 0064 5A73     		strb	r2, [r3, #13]
 287:../../../../lr11xx/common/apps_common.c **** 
 288:../../../../lr11xx/common/apps_common.c ****     context.reset.cfg                      = smtc_shield_pinout_mapping_get_gpio_cfg( SMTC_SHIELD_P
 837              		.loc 1 288 46
 838 0066 1020     		movs	r0, #16
 839 0068 FFF7FEFF 		bl	smtc_shield_pinout_mapping_get_gpio_cfg
 840 006c 0346     		mov	r3, r0
 841              		.loc 1 288 44 discriminator 1
 842 006e 194A     		ldr	r2, .L40
 843 0070 5361     		str	r3, [r2, #20]
 289:../../../../lr11xx/common/apps_common.c ****     context.reset.cfg_output.initial_state = SMTC_HAL_MCU_GPIO_STATE_HIGH;
 844              		.loc 1 289 44
 845 0072 184B     		ldr	r3, .L40
 846 0074 0122     		movs	r2, #1
 847 0076 1A76     		strb	r2, [r3, #24]
 290:../../../../lr11xx/common/apps_common.c ****     context.reset.cfg_output.mode          = SMTC_HAL_MCU_GPIO_OUTPUT_MODE_PUSH_PULL;
 848              		.loc 1 290 44
 849 0078 164B     		ldr	r3, .L40
 850 007a 0222     		movs	r2, #2
 851 007c 5A76     		strb	r2, [r3, #25]
 291:../../../../lr11xx/common/apps_common.c **** 
 292:../../../../lr11xx/common/apps_common.c ****     context.spi.cfg.spi = SPI1;
 852              		.loc 1 292 25
 853 007e 154B     		ldr	r3, .L40
 854 0080 164A     		ldr	r2, .L40+8
 855 0082 1A60     		str	r2, [r3]
 293:../../../../lr11xx/common/apps_common.c **** 
 294:../../../../lr11xx/common/apps_common.c ****     smtc_hal_mcu_gpio_init_input( context.busy.cfg, &( context.busy.cfg_input ), &( context.busy.in
 856              		.loc 1 294 5
 857 0084 134B     		ldr	r3, .L40
 858 0086 5B6B     		ldr	r3, [r3, #52]
 859 0088 154A     		ldr	r2, .L40+12
 860 008a 1649     		ldr	r1, .L40+16
ARM GAS  C:\msys64\tmp\ccwHIjYg.s 			page 31


 861 008c 1846     		mov	r0, r3
 862 008e FFF7FEFF 		bl	smtc_hal_mcu_gpio_init_input
 295:../../../../lr11xx/common/apps_common.c ****     smtc_hal_mcu_gpio_init_input( context.irq.cfg, &( context.irq.cfg_input ), &( context.irq.inst 
 863              		.loc 1 295 5
 864 0092 104B     		ldr	r3, .L40
 865 0094 1B6A     		ldr	r3, [r3, #32]
 866 0096 144A     		ldr	r2, .L40+20
 867 0098 1449     		ldr	r1, .L40+24
 868 009a 1846     		mov	r0, r3
 869 009c FFF7FEFF 		bl	smtc_hal_mcu_gpio_init_input
 296:../../../../lr11xx/common/apps_common.c ****     smtc_hal_mcu_gpio_init_output( context.nss.cfg, &( context.nss.cfg_output ), &( context.nss.ins
 870              		.loc 1 296 5
 871 00a0 0C4B     		ldr	r3, .L40
 872 00a2 9B68     		ldr	r3, [r3, #8]
 873 00a4 124A     		ldr	r2, .L40+28
 874 00a6 1349     		ldr	r1, .L40+32
 875 00a8 1846     		mov	r0, r3
 876 00aa FFF7FEFF 		bl	smtc_hal_mcu_gpio_init_output
 297:../../../../lr11xx/common/apps_common.c ****     smtc_hal_mcu_gpio_init_output( context.reset.cfg, &( context.reset.cfg_output ), &( context.res
 877              		.loc 1 297 5
 878 00ae 094B     		ldr	r3, .L40
 879 00b0 5B69     		ldr	r3, [r3, #20]
 880 00b2 114A     		ldr	r2, .L40+36
 881 00b4 1149     		ldr	r1, .L40+40
 882 00b6 1846     		mov	r0, r3
 883 00b8 FFF7FEFF 		bl	smtc_hal_mcu_gpio_init_output
 298:../../../../lr11xx/common/apps_common.c **** 
 299:../../../../lr11xx/common/apps_common.c ****     smtc_hal_mcu_gpio_enable_irq( context.irq.inst );
 884              		.loc 1 299 5
 885 00bc 054B     		ldr	r3, .L40
 886 00be 1B6B     		ldr	r3, [r3, #48]
 887 00c0 1846     		mov	r0, r3
 888 00c2 FFF7FEFF 		bl	smtc_hal_mcu_gpio_enable_irq
 300:../../../../lr11xx/common/apps_common.c **** 
 301:../../../../lr11xx/common/apps_common.c ****     smtc_hal_mcu_spi_init( &( context.spi.cfg ), &( context.spi.inst ) );
 889              		.loc 1 301 5
 890 00c6 0E49     		ldr	r1, .L40+44
 891 00c8 0248     		ldr	r0, .L40
 892 00ca FFF7FEFF 		bl	smtc_hal_mcu_spi_init
 302:../../../../lr11xx/common/apps_common.c **** 
 303:../../../../lr11xx/common/apps_common.c ****     return &context;
 893              		.loc 1 303 12
 894 00ce 014B     		ldr	r3, .L40
 304:../../../../lr11xx/common/apps_common.c **** }
 895              		.loc 1 304 1
 896 00d0 1846     		mov	r0, r3
 897 00d2 80BD     		pop	{r7, pc}
 898              	.L41:
 899              		.align	2
 900              	.L40:
 901 00d4 00000000 		.word	context
 902 00d8 00000000 		.word	radio_on_dio_irq
 903 00dc 00300140 		.word	1073819648
 904 00e0 44000000 		.word	context+68
 905 00e4 38000000 		.word	context+56
 906 00e8 30000000 		.word	context+48
 907 00ec 24000000 		.word	context+36
ARM GAS  C:\msys64\tmp\ccwHIjYg.s 			page 32


 908 00f0 10000000 		.word	context+16
 909 00f4 0C000000 		.word	context+12
 910 00f8 1C000000 		.word	context+28
 911 00fc 18000000 		.word	context+24
 912 0100 04000000 		.word	context+4
 913              		.cfi_endproc
 914              	.LFE252:
 916              		.section	.text.apps_common_shield_init,"ax",%progbits
 917              		.align	1
 918              		.global	apps_common_shield_init
 919              		.syntax unified
 920              		.thumb
 921              		.thumb_func
 923              	apps_common_shield_init:
 924              	.LFB253:
 305:../../../../lr11xx/common/apps_common.c **** 
 306:../../../../lr11xx/common/apps_common.c **** void apps_common_shield_init( void )
 307:../../../../lr11xx/common/apps_common.c **** {
 925              		.loc 1 307 1
 926              		.cfi_startproc
 927              		@ args = 0, pretend = 0, frame = 0
 928              		@ frame_needed = 1, uses_anonymous_args = 0
 929 0000 80B5     		push	{r7, lr}
 930              	.LCFI59:
 931              		.cfi_def_cfa_offset 8
 932              		.cfi_offset 7, -8
 933              		.cfi_offset 14, -4
 934 0002 00AF     		add	r7, sp, #0
 935              	.LCFI60:
 936              		.cfi_def_cfa_register 7
 308:../../../../lr11xx/common/apps_common.c ****     shield_pinout = smtc_shield_lr11xx_get_pinout( &shield );
 937              		.loc 1 308 21
 938 0004 3948     		ldr	r0, .L48
 939 0006 FFF7FEFF 		bl	smtc_shield_lr11xx_get_pinout
 940 000a 0346     		mov	r3, r0
 941              		.loc 1 308 19 discriminator 1
 942 000c 384A     		ldr	r2, .L48+4
 943 000e 1360     		str	r3, [r2]
 309:../../../../lr11xx/common/apps_common.c **** 
 310:../../../../lr11xx/common/apps_common.c ****     if( shield_pinout->led_tx != SMTC_SHIELD_PINOUT_NONE )
 944              		.loc 1 310 22
 945 0010 374B     		ldr	r3, .L48+4
 946 0012 1B68     		ldr	r3, [r3]
 947 0014 5B79     		ldrb	r3, [r3, #5]	@ zero_extendqisi2
 948              		.loc 1 310 7
 949 0016 162B     		cmp	r3, #22
 950 0018 15D0     		beq	.L43
 311:../../../../lr11xx/common/apps_common.c ****     {
 312:../../../../lr11xx/common/apps_common.c ****         led_tx.cfg                      = smtc_shield_pinout_mapping_get_gpio_cfg( shield_pinout->l
 951              		.loc 1 312 97
 952 001a 354B     		ldr	r3, .L48+4
 953 001c 1B68     		ldr	r3, [r3]
 954 001e 5B79     		ldrb	r3, [r3, #5]	@ zero_extendqisi2
 955              		.loc 1 312 43
 956 0020 1846     		mov	r0, r3
 957 0022 FFF7FEFF 		bl	smtc_shield_pinout_mapping_get_gpio_cfg
 958 0026 0346     		mov	r3, r0
ARM GAS  C:\msys64\tmp\ccwHIjYg.s 			page 33


 959              		.loc 1 312 41 discriminator 1
 960 0028 324A     		ldr	r2, .L48+8
 961 002a 1360     		str	r3, [r2]
 313:../../../../lr11xx/common/apps_common.c ****         led_tx.cfg_output.initial_state = SMTC_HAL_MCU_GPIO_STATE_LOW;
 962              		.loc 1 313 41
 963 002c 314B     		ldr	r3, .L48+8
 964 002e 0022     		movs	r2, #0
 965 0030 1A71     		strb	r2, [r3, #4]
 314:../../../../lr11xx/common/apps_common.c ****         led_tx.cfg_output.mode          = SMTC_HAL_MCU_GPIO_OUTPUT_MODE_PUSH_PULL;
 966              		.loc 1 314 41
 967 0032 304B     		ldr	r3, .L48+8
 968 0034 0222     		movs	r2, #2
 969 0036 5A71     		strb	r2, [r3, #5]
 315:../../../../lr11xx/common/apps_common.c **** 
 316:../../../../lr11xx/common/apps_common.c ****         smtc_hal_mcu_gpio_init_output( led_tx.cfg, &( led_tx.cfg_output ), &( led_tx.inst ) );
 970              		.loc 1 316 9
 971 0038 2E4B     		ldr	r3, .L48+8
 972 003a 1B68     		ldr	r3, [r3]
 973 003c 2E4A     		ldr	r2, .L48+12
 974 003e 2F49     		ldr	r1, .L48+16
 975 0040 1846     		mov	r0, r3
 976 0042 FFF7FEFF 		bl	smtc_hal_mcu_gpio_init_output
 977              	.L43:
 317:../../../../lr11xx/common/apps_common.c ****     }
 318:../../../../lr11xx/common/apps_common.c **** 
 319:../../../../lr11xx/common/apps_common.c ****     if( shield_pinout->led_rx != SMTC_SHIELD_PINOUT_NONE )
 978              		.loc 1 319 22
 979 0046 2A4B     		ldr	r3, .L48+4
 980 0048 1B68     		ldr	r3, [r3]
 981 004a 9B79     		ldrb	r3, [r3, #6]	@ zero_extendqisi2
 982              		.loc 1 319 7
 983 004c 162B     		cmp	r3, #22
 984 004e 15D0     		beq	.L44
 320:../../../../lr11xx/common/apps_common.c ****     {
 321:../../../../lr11xx/common/apps_common.c ****         led_rx.cfg                      = smtc_shield_pinout_mapping_get_gpio_cfg( shield_pinout->l
 985              		.loc 1 321 97
 986 0050 274B     		ldr	r3, .L48+4
 987 0052 1B68     		ldr	r3, [r3]
 988 0054 9B79     		ldrb	r3, [r3, #6]	@ zero_extendqisi2
 989              		.loc 1 321 43
 990 0056 1846     		mov	r0, r3
 991 0058 FFF7FEFF 		bl	smtc_shield_pinout_mapping_get_gpio_cfg
 992 005c 0346     		mov	r3, r0
 993              		.loc 1 321 41 discriminator 1
 994 005e 284A     		ldr	r2, .L48+20
 995 0060 1360     		str	r3, [r2]
 322:../../../../lr11xx/common/apps_common.c ****         led_rx.cfg_output.initial_state = SMTC_HAL_MCU_GPIO_STATE_LOW;
 996              		.loc 1 322 41
 997 0062 274B     		ldr	r3, .L48+20
 998 0064 0022     		movs	r2, #0
 999 0066 1A71     		strb	r2, [r3, #4]
 323:../../../../lr11xx/common/apps_common.c ****         led_rx.cfg_output.mode          = SMTC_HAL_MCU_GPIO_OUTPUT_MODE_PUSH_PULL;
 1000              		.loc 1 323 41
 1001 0068 254B     		ldr	r3, .L48+20
 1002 006a 0222     		movs	r2, #2
 1003 006c 5A71     		strb	r2, [r3, #5]
 324:../../../../lr11xx/common/apps_common.c **** 
ARM GAS  C:\msys64\tmp\ccwHIjYg.s 			page 34


 325:../../../../lr11xx/common/apps_common.c ****         smtc_hal_mcu_gpio_init_output( led_rx.cfg, &( led_rx.cfg_output ), &( led_rx.inst ) );
 1004              		.loc 1 325 9
 1005 006e 244B     		ldr	r3, .L48+20
 1006 0070 1B68     		ldr	r3, [r3]
 1007 0072 244A     		ldr	r2, .L48+24
 1008 0074 2449     		ldr	r1, .L48+28
 1009 0076 1846     		mov	r0, r3
 1010 0078 FFF7FEFF 		bl	smtc_hal_mcu_gpio_init_output
 1011              	.L44:
 326:../../../../lr11xx/common/apps_common.c ****     }
 327:../../../../lr11xx/common/apps_common.c **** 
 328:../../../../lr11xx/common/apps_common.c ****     if( shield_pinout->led_scan != SMTC_SHIELD_PINOUT_NONE )
 1012              		.loc 1 328 22
 1013 007c 1C4B     		ldr	r3, .L48+4
 1014 007e 1B68     		ldr	r3, [r3]
 1015 0080 DB79     		ldrb	r3, [r3, #7]	@ zero_extendqisi2
 1016              		.loc 1 328 7
 1017 0082 162B     		cmp	r3, #22
 1018 0084 15D0     		beq	.L45
 329:../../../../lr11xx/common/apps_common.c ****     {
 330:../../../../lr11xx/common/apps_common.c ****         led_scan.cfg                      = smtc_shield_pinout_mapping_get_gpio_cfg( shield_pinout-
 1019              		.loc 1 330 99
 1020 0086 1A4B     		ldr	r3, .L48+4
 1021 0088 1B68     		ldr	r3, [r3]
 1022 008a DB79     		ldrb	r3, [r3, #7]	@ zero_extendqisi2
 1023              		.loc 1 330 45
 1024 008c 1846     		mov	r0, r3
 1025 008e FFF7FEFF 		bl	smtc_shield_pinout_mapping_get_gpio_cfg
 1026 0092 0346     		mov	r3, r0
 1027              		.loc 1 330 43 discriminator 1
 1028 0094 1D4A     		ldr	r2, .L48+32
 1029 0096 1360     		str	r3, [r2]
 331:../../../../lr11xx/common/apps_common.c ****         led_scan.cfg_output.initial_state = SMTC_HAL_MCU_GPIO_STATE_LOW;
 1030              		.loc 1 331 43
 1031 0098 1C4B     		ldr	r3, .L48+32
 1032 009a 0022     		movs	r2, #0
 1033 009c 1A71     		strb	r2, [r3, #4]
 332:../../../../lr11xx/common/apps_common.c ****         led_scan.cfg_output.mode          = SMTC_HAL_MCU_GPIO_OUTPUT_MODE_PUSH_PULL;
 1034              		.loc 1 332 43
 1035 009e 1B4B     		ldr	r3, .L48+32
 1036 00a0 0222     		movs	r2, #2
 1037 00a2 5A71     		strb	r2, [r3, #5]
 333:../../../../lr11xx/common/apps_common.c **** 
 334:../../../../lr11xx/common/apps_common.c ****         smtc_hal_mcu_gpio_init_output( led_scan.cfg, &( led_scan.cfg_output ), &( led_scan.inst ) )
 1038              		.loc 1 334 9
 1039 00a4 194B     		ldr	r3, .L48+32
 1040 00a6 1B68     		ldr	r3, [r3]
 1041 00a8 194A     		ldr	r2, .L48+36
 1042 00aa 1A49     		ldr	r1, .L48+40
 1043 00ac 1846     		mov	r0, r3
 1044 00ae FFF7FEFF 		bl	smtc_hal_mcu_gpio_init_output
 1045              	.L45:
 335:../../../../lr11xx/common/apps_common.c ****     }
 336:../../../../lr11xx/common/apps_common.c **** 
 337:../../../../lr11xx/common/apps_common.c ****     if( shield_pinout->lna != SMTC_SHIELD_PINOUT_NONE )
 1046              		.loc 1 337 22
 1047 00b2 0F4B     		ldr	r3, .L48+4
ARM GAS  C:\msys64\tmp\ccwHIjYg.s 			page 35


 1048 00b4 1B68     		ldr	r3, [r3]
 1049 00b6 1B79     		ldrb	r3, [r3, #4]	@ zero_extendqisi2
 1050              		.loc 1 337 7
 1051 00b8 162B     		cmp	r3, #22
 1052 00ba 15D0     		beq	.L47
 338:../../../../lr11xx/common/apps_common.c ****     {
 339:../../../../lr11xx/common/apps_common.c ****         lna_ctrl.cfg                      = smtc_shield_pinout_mapping_get_gpio_cfg( shield_pinout-
 1053              		.loc 1 339 99
 1054 00bc 0C4B     		ldr	r3, .L48+4
 1055 00be 1B68     		ldr	r3, [r3]
 1056 00c0 1B79     		ldrb	r3, [r3, #4]	@ zero_extendqisi2
 1057              		.loc 1 339 45
 1058 00c2 1846     		mov	r0, r3
 1059 00c4 FFF7FEFF 		bl	smtc_shield_pinout_mapping_get_gpio_cfg
 1060 00c8 0346     		mov	r3, r0
 1061              		.loc 1 339 43 discriminator 1
 1062 00ca 134A     		ldr	r2, .L48+44
 1063 00cc 1360     		str	r3, [r2]
 340:../../../../lr11xx/common/apps_common.c ****         lna_ctrl.cfg_output.initial_state = SMTC_HAL_MCU_GPIO_STATE_LOW;
 1064              		.loc 1 340 43
 1065 00ce 124B     		ldr	r3, .L48+44
 1066 00d0 0022     		movs	r2, #0
 1067 00d2 1A71     		strb	r2, [r3, #4]
 341:../../../../lr11xx/common/apps_common.c ****         lna_ctrl.cfg_output.mode          = SMTC_HAL_MCU_GPIO_OUTPUT_MODE_PUSH_PULL;
 1068              		.loc 1 341 43
 1069 00d4 104B     		ldr	r3, .L48+44
 1070 00d6 0222     		movs	r2, #2
 1071 00d8 5A71     		strb	r2, [r3, #5]
 342:../../../../lr11xx/common/apps_common.c **** 
 343:../../../../lr11xx/common/apps_common.c ****         smtc_hal_mcu_gpio_init_output( lna_ctrl.cfg, &( lna_ctrl.cfg_output ), &( lna_ctrl.inst ) )
 1072              		.loc 1 343 9
 1073 00da 0F4B     		ldr	r3, .L48+44
 1074 00dc 1B68     		ldr	r3, [r3]
 1075 00de 0F4A     		ldr	r2, .L48+48
 1076 00e0 0F49     		ldr	r1, .L48+52
 1077 00e2 1846     		mov	r0, r3
 1078 00e4 FFF7FEFF 		bl	smtc_hal_mcu_gpio_init_output
 1079              	.L47:
 344:../../../../lr11xx/common/apps_common.c ****     }
 345:../../../../lr11xx/common/apps_common.c **** }
 1080              		.loc 1 345 1
 1081 00e8 00BF     		nop
 1082 00ea 80BD     		pop	{r7, pc}
 1083              	.L49:
 1084              		.align	2
 1085              	.L48:
 1086 00ec 00000000 		.word	shield
 1087 00f0 00000000 		.word	shield_pinout
 1088 00f4 00000000 		.word	led_tx
 1089 00f8 08000000 		.word	led_tx+8
 1090 00fc 04000000 		.word	led_tx+4
 1091 0100 00000000 		.word	led_rx
 1092 0104 08000000 		.word	led_rx+8
 1093 0108 04000000 		.word	led_rx+4
 1094 010c 00000000 		.word	led_scan
 1095 0110 08000000 		.word	led_scan+8
 1096 0114 04000000 		.word	led_scan+4
ARM GAS  C:\msys64\tmp\ccwHIjYg.s 			page 36


 1097 0118 00000000 		.word	lna_ctrl
 1098 011c 08000000 		.word	lna_ctrl+8
 1099 0120 04000000 		.word	lna_ctrl+4
 1100              		.cfi_endproc
 1101              	.LFE253:
 1103              		.section	.rodata
 1104              		.align	2
 1105              	.LC1:
 1106 0000 1B5B303B 		.ascii	"\033[0;31m\000"
 1106      33316D00 
 1107              		.align	2
 1108              	.LC2:
 1109 0008 4552524F 		.ascii	"ERROR: \000"
 1109      523A2000 
 1110              		.align	2
 1111              	.LC3:
 1112 0010 2E2E2F2E 		.ascii	"../../../../lr11xx/common/apps_common.c\000"
 1112      2E2F2E2E 
 1112      2F2E2E2F 
 1112      6C723131 
 1112      78782F63 
 1113              		.align	2
 1114              	.LC4:
 1115 0038 496E2025 		.ascii	"In %s - %s (line %d): %s\012\000"
 1115      73202D20 
 1115      25732028 
 1115      6C696E65 
 1115      20256429 
 1116 0052 0000     		.align	2
 1117              	.LC5:
 1118 0054 4C523131 		.ascii	"LR11XX_STATUS_ERROR\000"
 1118      58585F53 
 1118      54415455 
 1118      535F4552 
 1118      524F5200 
 1119              		.align	2
 1120              	.LC6:
 1121 0068 1B5B306D 		.ascii	"\033[0m\000"
 1121      00
 1122              		.section	.text.apps_common_lr11xx_system_init,"ax",%progbits
 1123              		.align	1
 1124              		.global	apps_common_lr11xx_system_init
 1125              		.syntax unified
 1126              		.thumb
 1127              		.thumb_func
 1129              	apps_common_lr11xx_system_init:
 1130              	.LFB254:
 346:../../../../lr11xx/common/apps_common.c **** 
 347:../../../../lr11xx/common/apps_common.c **** void apps_common_lr11xx_system_init( const lr11xx_hal_context_t* context )
 348:../../../../lr11xx/common/apps_common.c **** {
 1131              		.loc 1 348 1
 1132              		.cfi_startproc
 1133              		@ args = 0, pretend = 0, frame = 40
 1134              		@ frame_needed = 1, uses_anonymous_args = 0
 1135 0000 80B5     		push	{r7, lr}
 1136              	.LCFI61:
 1137              		.cfi_def_cfa_offset 8
ARM GAS  C:\msys64\tmp\ccwHIjYg.s 			page 37


 1138              		.cfi_offset 7, -8
 1139              		.cfi_offset 14, -4
 1140 0002 8CB0     		sub	sp, sp, #48
 1141              	.LCFI62:
 1142              		.cfi_def_cfa_offset 56
 1143 0004 02AF     		add	r7, sp, #8
 1144              	.LCFI63:
 1145              		.cfi_def_cfa 7, 48
 1146 0006 7860     		str	r0, [r7, #4]
 1147              	.LBB2:
 349:../../../../lr11xx/common/apps_common.c ****     ASSERT_LR11XX_RC( lr11xx_system_reset( ( void* ) context ) );
 1148              		.loc 1 349 5
 1149 0008 7868     		ldr	r0, [r7, #4]
 1150 000a FFF7FEFF 		bl	lr11xx_system_reset
 1151 000e 0346     		mov	r3, r0
 1152 0010 87F82730 		strb	r3, [r7, #39]
 1153              		.loc 1 349 5 is_stmt 0 discriminator 1
 1154 0014 97F82730 		ldrb	r3, [r7, #39]	@ zero_extendqisi2
 1155 0018 002B     		cmp	r3, #0
 1156 001a 15D0     		beq	.L51
 1157 001c 97F82730 		ldrb	r3, [r7, #39]	@ zero_extendqisi2
 1158 0020 032B     		cmp	r3, #3
 1159 0022 11D1     		bne	.L51
 1160              		.loc 1 349 5 discriminator 2
 1161 0024 A348     		ldr	r0, .L62
 1162 0026 FFF7FEFF 		bl	hal_mcu_trace_print
 1163              		.loc 1 349 5 discriminator 1
 1164 002a A348     		ldr	r0, .L62+4
 1165 002c FFF7FEFF 		bl	hal_mcu_trace_print
 1166              		.loc 1 349 5 discriminator 2
 1167 0030 A24B     		ldr	r3, .L62+8
 1168 0032 0093     		str	r3, [sp]
 1169 0034 40F25D13 		movw	r3, #349
 1170 0038 A14A     		ldr	r2, .L62+12
 1171 003a A249     		ldr	r1, .L62+16
 1172 003c A248     		ldr	r0, .L62+20
 1173 003e FFF7FEFF 		bl	hal_mcu_trace_print
 1174              		.loc 1 349 5 discriminator 3
 1175 0042 A248     		ldr	r0, .L62+24
 1176 0044 FFF7FEFF 		bl	hal_mcu_trace_print
 1177              	.L51:
 1178              	.LBE2:
 350:../../../../lr11xx/common/apps_common.c **** 
 351:../../../../lr11xx/common/apps_common.c ****     // Configure the regulator
 352:../../../../lr11xx/common/apps_common.c ****     const lr11xx_system_reg_mode_t regulator = smtc_shield_lr11xx_get_reg_mode( &shield );
 1179              		.loc 1 352 48 is_stmt 1
 1180 0048 A148     		ldr	r0, .L62+28
 1181 004a FFF7FEFF 		bl	smtc_shield_lr11xx_get_reg_mode
 1182 004e 0346     		mov	r3, r0
 1183 0050 87F82630 		strb	r3, [r7, #38]
 1184              	.LBB3:
 353:../../../../lr11xx/common/apps_common.c ****     ASSERT_LR11XX_RC( lr11xx_system_set_reg_mode( ( void* ) context, regulator ) );
 1185              		.loc 1 353 5
 1186 0054 97F82630 		ldrb	r3, [r7, #38]	@ zero_extendqisi2
 1187 0058 1946     		mov	r1, r3
 1188 005a 7868     		ldr	r0, [r7, #4]
 1189 005c FFF7FEFF 		bl	lr11xx_system_set_reg_mode
ARM GAS  C:\msys64\tmp\ccwHIjYg.s 			page 38


 1190 0060 0346     		mov	r3, r0
 1191 0062 87F82530 		strb	r3, [r7, #37]
 1192              		.loc 1 353 5 is_stmt 0 discriminator 1
 1193 0066 97F82530 		ldrb	r3, [r7, #37]	@ zero_extendqisi2
 1194 006a 002B     		cmp	r3, #0
 1195 006c 15D0     		beq	.L52
 1196 006e 97F82530 		ldrb	r3, [r7, #37]	@ zero_extendqisi2
 1197 0072 032B     		cmp	r3, #3
 1198 0074 11D1     		bne	.L52
 1199              		.loc 1 353 5 discriminator 2
 1200 0076 8F48     		ldr	r0, .L62
 1201 0078 FFF7FEFF 		bl	hal_mcu_trace_print
 1202              		.loc 1 353 5 discriminator 1
 1203 007c 8E48     		ldr	r0, .L62+4
 1204 007e FFF7FEFF 		bl	hal_mcu_trace_print
 1205              		.loc 1 353 5 discriminator 2
 1206 0082 8E4B     		ldr	r3, .L62+8
 1207 0084 0093     		str	r3, [sp]
 1208 0086 40F26113 		movw	r3, #353
 1209 008a 8D4A     		ldr	r2, .L62+12
 1210 008c 8D49     		ldr	r1, .L62+16
 1211 008e 8E48     		ldr	r0, .L62+20
 1212 0090 FFF7FEFF 		bl	hal_mcu_trace_print
 1213              		.loc 1 353 5 discriminator 3
 1214 0094 8D48     		ldr	r0, .L62+24
 1215 0096 FFF7FEFF 		bl	hal_mcu_trace_print
 1216              	.L52:
 1217              	.LBE3:
 354:../../../../lr11xx/common/apps_common.c **** 
 355:../../../../lr11xx/common/apps_common.c ****     const lr11xx_system_rfswitch_cfg_t* rf_switch_setup = smtc_shield_lr11xx_get_rf_switch_cfg( &sh
 1218              		.loc 1 355 59 is_stmt 1
 1219 009a 8D48     		ldr	r0, .L62+28
 1220 009c FFF7FEFF 		bl	smtc_shield_lr11xx_get_rf_switch_cfg
 1221 00a0 3862     		str	r0, [r7, #32]
 1222              	.LBB4:
 356:../../../../lr11xx/common/apps_common.c ****     ASSERT_LR11XX_RC( lr11xx_system_set_dio_as_rf_switch( context, rf_switch_setup ) );
 1223              		.loc 1 356 5
 1224 00a2 396A     		ldr	r1, [r7, #32]
 1225 00a4 7868     		ldr	r0, [r7, #4]
 1226 00a6 FFF7FEFF 		bl	lr11xx_system_set_dio_as_rf_switch
 1227 00aa 0346     		mov	r3, r0
 1228 00ac FB77     		strb	r3, [r7, #31]
 1229              		.loc 1 356 5 is_stmt 0 discriminator 1
 1230 00ae FB7F     		ldrb	r3, [r7, #31]	@ zero_extendqisi2
 1231 00b0 002B     		cmp	r3, #0
 1232 00b2 14D0     		beq	.L53
 1233 00b4 FB7F     		ldrb	r3, [r7, #31]	@ zero_extendqisi2
 1234 00b6 032B     		cmp	r3, #3
 1235 00b8 11D1     		bne	.L53
 1236              		.loc 1 356 5 discriminator 2
 1237 00ba 7E48     		ldr	r0, .L62
 1238 00bc FFF7FEFF 		bl	hal_mcu_trace_print
 1239              		.loc 1 356 5 discriminator 1
 1240 00c0 7D48     		ldr	r0, .L62+4
 1241 00c2 FFF7FEFF 		bl	hal_mcu_trace_print
 1242              		.loc 1 356 5 discriminator 2
 1243 00c6 7D4B     		ldr	r3, .L62+8
ARM GAS  C:\msys64\tmp\ccwHIjYg.s 			page 39


 1244 00c8 0093     		str	r3, [sp]
 1245 00ca 4FF4B273 		mov	r3, #356
 1246 00ce 7C4A     		ldr	r2, .L62+12
 1247 00d0 7C49     		ldr	r1, .L62+16
 1248 00d2 7D48     		ldr	r0, .L62+20
 1249 00d4 FFF7FEFF 		bl	hal_mcu_trace_print
 1250              		.loc 1 356 5 discriminator 3
 1251 00d8 7C48     		ldr	r0, .L62+24
 1252 00da FFF7FEFF 		bl	hal_mcu_trace_print
 1253              	.L53:
 1254              	.LBE4:
 357:../../../../lr11xx/common/apps_common.c **** 
 358:../../../../lr11xx/common/apps_common.c ****     const smtc_shield_lr11xx_xosc_cfg_t* tcxo_cfg = smtc_shield_lr11xx_get_xosc_cfg( &shield );
 1255              		.loc 1 358 53 is_stmt 1
 1256 00de 7C48     		ldr	r0, .L62+28
 1257 00e0 FFF7FEFF 		bl	smtc_shield_lr11xx_get_xosc_cfg
 1258 00e4 B861     		str	r0, [r7, #24]
 359:../../../../lr11xx/common/apps_common.c ****     if( tcxo_cfg->has_tcxo == true )
 1259              		.loc 1 359 17
 1260 00e6 BB69     		ldr	r3, [r7, #24]
 1261 00e8 1B78     		ldrb	r3, [r3]	@ zero_extendqisi2
 1262              		.loc 1 359 7
 1263 00ea 002B     		cmp	r3, #0
 1264 00ec 21D0     		beq	.L54
 1265              	.LBB5:
 360:../../../../lr11xx/common/apps_common.c ****     {
 361:../../../../lr11xx/common/apps_common.c ****         ASSERT_LR11XX_RC( lr11xx_system_set_tcxo_mode( context, tcxo_cfg->supply, tcxo_cfg->startup
 1266              		.loc 1 361 9
 1267 00ee BB69     		ldr	r3, [r7, #24]
 1268 00f0 5978     		ldrb	r1, [r3, #1]	@ zero_extendqisi2
 1269 00f2 BB69     		ldr	r3, [r7, #24]
 1270 00f4 5B68     		ldr	r3, [r3, #4]
 1271 00f6 1A46     		mov	r2, r3
 1272 00f8 7868     		ldr	r0, [r7, #4]
 1273 00fa FFF7FEFF 		bl	lr11xx_system_set_tcxo_mode
 1274 00fe 0346     		mov	r3, r0
 1275 0100 FB75     		strb	r3, [r7, #23]
 1276              		.loc 1 361 9 is_stmt 0 discriminator 1
 1277 0102 FB7D     		ldrb	r3, [r7, #23]	@ zero_extendqisi2
 1278 0104 002B     		cmp	r3, #0
 1279 0106 14D0     		beq	.L54
 1280 0108 FB7D     		ldrb	r3, [r7, #23]	@ zero_extendqisi2
 1281 010a 032B     		cmp	r3, #3
 1282 010c 11D1     		bne	.L54
 1283              		.loc 1 361 9 discriminator 2
 1284 010e 6948     		ldr	r0, .L62
 1285 0110 FFF7FEFF 		bl	hal_mcu_trace_print
 1286              		.loc 1 361 9 discriminator 1
 1287 0114 6848     		ldr	r0, .L62+4
 1288 0116 FFF7FEFF 		bl	hal_mcu_trace_print
 1289              		.loc 1 361 9 discriminator 2
 1290 011a 684B     		ldr	r3, .L62+8
 1291 011c 0093     		str	r3, [sp]
 1292 011e 40F26913 		movw	r3, #361
 1293 0122 674A     		ldr	r2, .L62+12
 1294 0124 6749     		ldr	r1, .L62+16
 1295 0126 6848     		ldr	r0, .L62+20
ARM GAS  C:\msys64\tmp\ccwHIjYg.s 			page 40


 1296 0128 FFF7FEFF 		bl	hal_mcu_trace_print
 1297              		.loc 1 361 9 discriminator 3
 1298 012c 6748     		ldr	r0, .L62+24
 1299 012e FFF7FEFF 		bl	hal_mcu_trace_print
 1300              	.L54:
 1301              	.LBE5:
 362:../../../../lr11xx/common/apps_common.c ****     }
 363:../../../../lr11xx/common/apps_common.c **** 
 364:../../../../lr11xx/common/apps_common.c ****     const smtc_shield_lr11xx_lfclk_cfg_t* lfclk_cfg = smtc_shield_lr11xx_get_lfclk_cfg( &shield );
 1302              		.loc 1 364 55 is_stmt 1
 1303 0132 6748     		ldr	r0, .L62+28
 1304 0134 FFF7FEFF 		bl	smtc_shield_lr11xx_get_lfclk_cfg
 1305 0138 3861     		str	r0, [r7, #16]
 1306              	.LBB6:
 365:../../../../lr11xx/common/apps_common.c ****     ASSERT_LR11XX_RC( lr11xx_system_cfg_lfclk( context, lfclk_cfg->lf_clk_cfg, lfclk_cfg->wait_32k_
 1307              		.loc 1 365 5
 1308 013a 3B69     		ldr	r3, [r7, #16]
 1309 013c 1978     		ldrb	r1, [r3]	@ zero_extendqisi2
 1310 013e 3B69     		ldr	r3, [r7, #16]
 1311 0140 5B78     		ldrb	r3, [r3, #1]	@ zero_extendqisi2
 1312 0142 1A46     		mov	r2, r3
 1313 0144 7868     		ldr	r0, [r7, #4]
 1314 0146 FFF7FEFF 		bl	lr11xx_system_cfg_lfclk
 1315 014a 0346     		mov	r3, r0
 1316 014c FB73     		strb	r3, [r7, #15]
 1317              		.loc 1 365 5 is_stmt 0 discriminator 1
 1318 014e FB7B     		ldrb	r3, [r7, #15]	@ zero_extendqisi2
 1319 0150 002B     		cmp	r3, #0
 1320 0152 14D0     		beq	.L55
 1321 0154 FB7B     		ldrb	r3, [r7, #15]	@ zero_extendqisi2
 1322 0156 032B     		cmp	r3, #3
 1323 0158 11D1     		bne	.L55
 1324              		.loc 1 365 5 discriminator 2
 1325 015a 5648     		ldr	r0, .L62
 1326 015c FFF7FEFF 		bl	hal_mcu_trace_print
 1327              		.loc 1 365 5 discriminator 1
 1328 0160 5548     		ldr	r0, .L62+4
 1329 0162 FFF7FEFF 		bl	hal_mcu_trace_print
 1330              		.loc 1 365 5 discriminator 2
 1331 0166 554B     		ldr	r3, .L62+8
 1332 0168 0093     		str	r3, [sp]
 1333 016a 40F26D13 		movw	r3, #365
 1334 016e 544A     		ldr	r2, .L62+12
 1335 0170 5449     		ldr	r1, .L62+16
 1336 0172 5548     		ldr	r0, .L62+20
 1337 0174 FFF7FEFF 		bl	hal_mcu_trace_print
 1338              		.loc 1 365 5 discriminator 3
 1339 0178 5448     		ldr	r0, .L62+24
 1340 017a FFF7FEFF 		bl	hal_mcu_trace_print
 1341              	.L55:
 1342              	.LBE6:
 1343              	.LBB7:
 366:../../../../lr11xx/common/apps_common.c **** 
 367:../../../../lr11xx/common/apps_common.c ****     ASSERT_LR11XX_RC( lr11xx_system_clear_errors( context ) );
 1344              		.loc 1 367 5 is_stmt 1
 1345 017e 7868     		ldr	r0, [r7, #4]
 1346 0180 FFF7FEFF 		bl	lr11xx_system_clear_errors
ARM GAS  C:\msys64\tmp\ccwHIjYg.s 			page 41


 1347 0184 0346     		mov	r3, r0
 1348 0186 BB73     		strb	r3, [r7, #14]
 1349              		.loc 1 367 5 is_stmt 0 discriminator 1
 1350 0188 BB7B     		ldrb	r3, [r7, #14]	@ zero_extendqisi2
 1351 018a 002B     		cmp	r3, #0
 1352 018c 14D0     		beq	.L56
 1353 018e BB7B     		ldrb	r3, [r7, #14]	@ zero_extendqisi2
 1354 0190 032B     		cmp	r3, #3
 1355 0192 11D1     		bne	.L56
 1356              		.loc 1 367 5 discriminator 2
 1357 0194 4748     		ldr	r0, .L62
 1358 0196 FFF7FEFF 		bl	hal_mcu_trace_print
 1359              		.loc 1 367 5 discriminator 1
 1360 019a 4748     		ldr	r0, .L62+4
 1361 019c FFF7FEFF 		bl	hal_mcu_trace_print
 1362              		.loc 1 367 5 discriminator 2
 1363 01a0 464B     		ldr	r3, .L62+8
 1364 01a2 0093     		str	r3, [sp]
 1365 01a4 40F26F13 		movw	r3, #367
 1366 01a8 454A     		ldr	r2, .L62+12
 1367 01aa 4649     		ldr	r1, .L62+16
 1368 01ac 4648     		ldr	r0, .L62+20
 1369 01ae FFF7FEFF 		bl	hal_mcu_trace_print
 1370              		.loc 1 367 5 discriminator 3
 1371 01b2 4648     		ldr	r0, .L62+24
 1372 01b4 FFF7FEFF 		bl	hal_mcu_trace_print
 1373              	.L56:
 1374              	.LBE7:
 1375              	.LBB8:
 368:../../../../lr11xx/common/apps_common.c ****     ASSERT_LR11XX_RC( lr11xx_system_calibrate( context, 0x3F ) );
 1376              		.loc 1 368 5 is_stmt 1
 1377 01b8 3F21     		movs	r1, #63
 1378 01ba 7868     		ldr	r0, [r7, #4]
 1379 01bc FFF7FEFF 		bl	lr11xx_system_calibrate
 1380 01c0 0346     		mov	r3, r0
 1381 01c2 7B73     		strb	r3, [r7, #13]
 1382              		.loc 1 368 5 is_stmt 0 discriminator 1
 1383 01c4 7B7B     		ldrb	r3, [r7, #13]	@ zero_extendqisi2
 1384 01c6 002B     		cmp	r3, #0
 1385 01c8 14D0     		beq	.L57
 1386 01ca 7B7B     		ldrb	r3, [r7, #13]	@ zero_extendqisi2
 1387 01cc 032B     		cmp	r3, #3
 1388 01ce 11D1     		bne	.L57
 1389              		.loc 1 368 5 discriminator 2
 1390 01d0 3848     		ldr	r0, .L62
 1391 01d2 FFF7FEFF 		bl	hal_mcu_trace_print
 1392              		.loc 1 368 5 discriminator 1
 1393 01d6 3848     		ldr	r0, .L62+4
 1394 01d8 FFF7FEFF 		bl	hal_mcu_trace_print
 1395              		.loc 1 368 5 discriminator 2
 1396 01dc 374B     		ldr	r3, .L62+8
 1397 01de 0093     		str	r3, [sp]
 1398 01e0 4FF4B873 		mov	r3, #368
 1399 01e4 364A     		ldr	r2, .L62+12
 1400 01e6 3749     		ldr	r1, .L62+16
 1401 01e8 3748     		ldr	r0, .L62+20
 1402 01ea FFF7FEFF 		bl	hal_mcu_trace_print
ARM GAS  C:\msys64\tmp\ccwHIjYg.s 			page 42


 1403              		.loc 1 368 5 discriminator 3
 1404 01ee 3748     		ldr	r0, .L62+24
 1405 01f0 FFF7FEFF 		bl	hal_mcu_trace_print
 1406              	.L57:
 1407              	.LBE8:
 1408              	.LBB9:
 369:../../../../lr11xx/common/apps_common.c **** 
 370:../../../../lr11xx/common/apps_common.c ****     uint16_t errors;
 371:../../../../lr11xx/common/apps_common.c ****     ASSERT_LR11XX_RC( lr11xx_system_get_errors( context, &errors ) );
 1409              		.loc 1 371 5 is_stmt 1
 1410 01f4 07F10803 		add	r3, r7, #8
 1411 01f8 1946     		mov	r1, r3
 1412 01fa 7868     		ldr	r0, [r7, #4]
 1413 01fc FFF7FEFF 		bl	lr11xx_system_get_errors
 1414 0200 0346     		mov	r3, r0
 1415 0202 3B73     		strb	r3, [r7, #12]
 1416              		.loc 1 371 5 is_stmt 0 discriminator 1
 1417 0204 3B7B     		ldrb	r3, [r7, #12]	@ zero_extendqisi2
 1418 0206 002B     		cmp	r3, #0
 1419 0208 14D0     		beq	.L58
 1420 020a 3B7B     		ldrb	r3, [r7, #12]	@ zero_extendqisi2
 1421 020c 032B     		cmp	r3, #3
 1422 020e 11D1     		bne	.L58
 1423              		.loc 1 371 5 discriminator 2
 1424 0210 2848     		ldr	r0, .L62
 1425 0212 FFF7FEFF 		bl	hal_mcu_trace_print
 1426              		.loc 1 371 5 discriminator 1
 1427 0216 2848     		ldr	r0, .L62+4
 1428 0218 FFF7FEFF 		bl	hal_mcu_trace_print
 1429              		.loc 1 371 5 discriminator 2
 1430 021c 274B     		ldr	r3, .L62+8
 1431 021e 0093     		str	r3, [sp]
 1432 0220 40F27313 		movw	r3, #371
 1433 0224 264A     		ldr	r2, .L62+12
 1434 0226 2749     		ldr	r1, .L62+16
 1435 0228 2748     		ldr	r0, .L62+20
 1436 022a FFF7FEFF 		bl	hal_mcu_trace_print
 1437              		.loc 1 371 5 discriminator 3
 1438 022e 2748     		ldr	r0, .L62+24
 1439 0230 FFF7FEFF 		bl	hal_mcu_trace_print
 1440              	.L58:
 1441              	.LBE9:
 1442              	.LBB10:
 372:../../../../lr11xx/common/apps_common.c ****     ASSERT_LR11XX_RC( lr11xx_system_clear_errors( context ) );
 1443              		.loc 1 372 5 is_stmt 1
 1444 0234 7868     		ldr	r0, [r7, #4]
 1445 0236 FFF7FEFF 		bl	lr11xx_system_clear_errors
 1446 023a 0346     		mov	r3, r0
 1447 023c FB72     		strb	r3, [r7, #11]
 1448              		.loc 1 372 5 is_stmt 0 discriminator 1
 1449 023e FB7A     		ldrb	r3, [r7, #11]	@ zero_extendqisi2
 1450 0240 002B     		cmp	r3, #0
 1451 0242 14D0     		beq	.L59
 1452 0244 FB7A     		ldrb	r3, [r7, #11]	@ zero_extendqisi2
 1453 0246 032B     		cmp	r3, #3
 1454 0248 11D1     		bne	.L59
 1455              		.loc 1 372 5 discriminator 2
ARM GAS  C:\msys64\tmp\ccwHIjYg.s 			page 43


 1456 024a 1A48     		ldr	r0, .L62
 1457 024c FFF7FEFF 		bl	hal_mcu_trace_print
 1458              		.loc 1 372 5 discriminator 1
 1459 0250 1948     		ldr	r0, .L62+4
 1460 0252 FFF7FEFF 		bl	hal_mcu_trace_print
 1461              		.loc 1 372 5 discriminator 2
 1462 0256 194B     		ldr	r3, .L62+8
 1463 0258 0093     		str	r3, [sp]
 1464 025a 4FF4BA73 		mov	r3, #372
 1465 025e 184A     		ldr	r2, .L62+12
 1466 0260 1849     		ldr	r1, .L62+16
 1467 0262 1948     		ldr	r0, .L62+20
 1468 0264 FFF7FEFF 		bl	hal_mcu_trace_print
 1469              		.loc 1 372 5 discriminator 3
 1470 0268 1848     		ldr	r0, .L62+24
 1471 026a FFF7FEFF 		bl	hal_mcu_trace_print
 1472              	.L59:
 1473              	.LBE10:
 1474              	.LBB11:
 373:../../../../lr11xx/common/apps_common.c ****     ASSERT_LR11XX_RC( lr11xx_system_clear_irq_status( context, LR11XX_SYSTEM_IRQ_ALL_MASK ) );
 1475              		.loc 1 373 5 is_stmt 1
 1476 026e 1949     		ldr	r1, .L62+32
 1477 0270 7868     		ldr	r0, [r7, #4]
 1478 0272 FFF7FEFF 		bl	lr11xx_system_clear_irq_status
 1479 0276 0346     		mov	r3, r0
 1480 0278 BB72     		strb	r3, [r7, #10]
 1481              		.loc 1 373 5 is_stmt 0 discriminator 1
 1482 027a BB7A     		ldrb	r3, [r7, #10]	@ zero_extendqisi2
 1483 027c 002B     		cmp	r3, #0
 1484 027e 14D0     		beq	.L61
 1485 0280 BB7A     		ldrb	r3, [r7, #10]	@ zero_extendqisi2
 1486 0282 032B     		cmp	r3, #3
 1487 0284 11D1     		bne	.L61
 1488              		.loc 1 373 5 discriminator 2
 1489 0286 0B48     		ldr	r0, .L62
 1490 0288 FFF7FEFF 		bl	hal_mcu_trace_print
 1491              		.loc 1 373 5 discriminator 1
 1492 028c 0A48     		ldr	r0, .L62+4
 1493 028e FFF7FEFF 		bl	hal_mcu_trace_print
 1494              		.loc 1 373 5 discriminator 2
 1495 0292 0A4B     		ldr	r3, .L62+8
 1496 0294 0093     		str	r3, [sp]
 1497 0296 40F27513 		movw	r3, #373
 1498 029a 094A     		ldr	r2, .L62+12
 1499 029c 0949     		ldr	r1, .L62+16
 1500 029e 0A48     		ldr	r0, .L62+20
 1501 02a0 FFF7FEFF 		bl	hal_mcu_trace_print
 1502              		.loc 1 373 5 discriminator 3
 1503 02a4 0948     		ldr	r0, .L62+24
 1504 02a6 FFF7FEFF 		bl	hal_mcu_trace_print
 1505              	.L61:
 1506              	.LBE11:
 374:../../../../lr11xx/common/apps_common.c **** }
 1507              		.loc 1 374 1 is_stmt 1
 1508 02aa 00BF     		nop
 1509 02ac 2837     		adds	r7, r7, #40
 1510              	.LCFI64:
ARM GAS  C:\msys64\tmp\ccwHIjYg.s 			page 44


 1511              		.cfi_def_cfa_offset 8
 1512 02ae BD46     		mov	sp, r7
 1513              	.LCFI65:
 1514              		.cfi_def_cfa_register 13
 1515              		@ sp needed
 1516 02b0 80BD     		pop	{r7, pc}
 1517              	.L63:
 1518 02b2 00BF     		.align	2
 1519              	.L62:
 1520 02b4 00000000 		.word	.LC1
 1521 02b8 08000000 		.word	.LC2
 1522 02bc 54000000 		.word	.LC5
 1523 02c0 00000000 		.word	__func__.4
 1524 02c4 10000000 		.word	.LC3
 1525 02c8 38000000 		.word	.LC4
 1526 02cc 68000000 		.word	.LC6
 1527 02d0 00000000 		.word	shield
 1528 02d4 FCCFFF0B 		.word	201314300
 1529              		.cfi_endproc
 1530              	.LFE254:
 1532              		.section	.text.apps_common_lr11xx_fetch_and_print_version,"ax",%progbits
 1533              		.align	1
 1534              		.global	apps_common_lr11xx_fetch_and_print_version
 1535              		.syntax unified
 1536              		.thumb
 1537              		.thumb_func
 1539              	apps_common_lr11xx_fetch_and_print_version:
 1540              	.LFB255:
 375:../../../../lr11xx/common/apps_common.c **** 
 376:../../../../lr11xx/common/apps_common.c **** void apps_common_lr11xx_fetch_and_print_version( const lr11xx_hal_context_t* context )
 377:../../../../lr11xx/common/apps_common.c **** {
 1541              		.loc 1 377 1
 1542              		.cfi_startproc
 1543              		@ args = 0, pretend = 0, frame = 16
 1544              		@ frame_needed = 1, uses_anonymous_args = 0
 1545 0000 80B5     		push	{r7, lr}
 1546              	.LCFI66:
 1547              		.cfi_def_cfa_offset 8
 1548              		.cfi_offset 7, -8
 1549              		.cfi_offset 14, -4
 1550 0002 84B0     		sub	sp, sp, #16
 1551              	.LCFI67:
 1552              		.cfi_def_cfa_offset 24
 1553 0004 00AF     		add	r7, sp, #0
 1554              	.LCFI68:
 1555              		.cfi_def_cfa_register 7
 1556 0006 7860     		str	r0, [r7, #4]
 378:../../../../lr11xx/common/apps_common.c ****     lr11xx_system_version_t version;
 379:../../../../lr11xx/common/apps_common.c **** 
 380:../../../../lr11xx/common/apps_common.c ****     apps_common_lr11xx_fetch_version( ( void* ) context, &version );
 1557              		.loc 1 380 5
 1558 0008 07F10C03 		add	r3, r7, #12
 1559 000c 1946     		mov	r1, r3
 1560 000e 7868     		ldr	r0, [r7, #4]
 1561 0010 FFF7FEFF 		bl	apps_common_lr11xx_fetch_version
 381:../../../../lr11xx/common/apps_common.c ****     apps_common_lr11xx_print_version( &version );
 1562              		.loc 1 381 5
ARM GAS  C:\msys64\tmp\ccwHIjYg.s 			page 45


 1563 0014 07F10C03 		add	r3, r7, #12
 1564 0018 1846     		mov	r0, r3
 1565 001a FFF7FEFF 		bl	apps_common_lr11xx_print_version
 382:../../../../lr11xx/common/apps_common.c **** }
 1566              		.loc 1 382 1
 1567 001e 00BF     		nop
 1568 0020 1037     		adds	r7, r7, #16
 1569              	.LCFI69:
 1570              		.cfi_def_cfa_offset 8
 1571 0022 BD46     		mov	sp, r7
 1572              	.LCFI70:
 1573              		.cfi_def_cfa_register 13
 1574              		@ sp needed
 1575 0024 80BD     		pop	{r7, pc}
 1576              		.cfi_endproc
 1577              	.LFE255:
 1579              		.section	.text.apps_common_lr11xx_fetch_version,"ax",%progbits
 1580              		.align	1
 1581              		.global	apps_common_lr11xx_fetch_version
 1582              		.syntax unified
 1583              		.thumb
 1584              		.thumb_func
 1586              	apps_common_lr11xx_fetch_version:
 1587              	.LFB256:
 383:../../../../lr11xx/common/apps_common.c **** 
 384:../../../../lr11xx/common/apps_common.c **** void apps_common_lr11xx_fetch_version( const lr11xx_hal_context_t* context, lr11xx_system_version_t
 385:../../../../lr11xx/common/apps_common.c **** {
 1588              		.loc 1 385 1
 1589              		.cfi_startproc
 1590              		@ args = 0, pretend = 0, frame = 16
 1591              		@ frame_needed = 1, uses_anonymous_args = 0
 1592 0000 80B5     		push	{r7, lr}
 1593              	.LCFI71:
 1594              		.cfi_def_cfa_offset 8
 1595              		.cfi_offset 7, -8
 1596              		.cfi_offset 14, -4
 1597 0002 86B0     		sub	sp, sp, #24
 1598              	.LCFI72:
 1599              		.cfi_def_cfa_offset 32
 1600 0004 02AF     		add	r7, sp, #8
 1601              	.LCFI73:
 1602              		.cfi_def_cfa 7, 24
 1603 0006 7860     		str	r0, [r7, #4]
 1604 0008 3960     		str	r1, [r7]
 1605              	.LBB12:
 386:../../../../lr11xx/common/apps_common.c ****     ASSERT_LR11XX_RC( lr11xx_system_get_version( ( void* ) context, version ) );
 1606              		.loc 1 386 5
 1607 000a 3968     		ldr	r1, [r7]
 1608 000c 7868     		ldr	r0, [r7, #4]
 1609 000e FFF7FEFF 		bl	lr11xx_system_get_version
 1610 0012 0346     		mov	r3, r0
 1611 0014 FB73     		strb	r3, [r7, #15]
 1612              		.loc 1 386 5 is_stmt 0 discriminator 1
 1613 0016 FB7B     		ldrb	r3, [r7, #15]	@ zero_extendqisi2
 1614 0018 002B     		cmp	r3, #0
 1615 001a 14D0     		beq	.L67
 1616 001c FB7B     		ldrb	r3, [r7, #15]	@ zero_extendqisi2
ARM GAS  C:\msys64\tmp\ccwHIjYg.s 			page 46


 1617 001e 032B     		cmp	r3, #3
 1618 0020 11D1     		bne	.L67
 1619              		.loc 1 386 5 discriminator 2
 1620 0022 0B48     		ldr	r0, .L68
 1621 0024 FFF7FEFF 		bl	hal_mcu_trace_print
 1622              		.loc 1 386 5 discriminator 1
 1623 0028 0A48     		ldr	r0, .L68+4
 1624 002a FFF7FEFF 		bl	hal_mcu_trace_print
 1625              		.loc 1 386 5 discriminator 2
 1626 002e 0A4B     		ldr	r3, .L68+8
 1627 0030 0093     		str	r3, [sp]
 1628 0032 4FF4C173 		mov	r3, #386
 1629 0036 094A     		ldr	r2, .L68+12
 1630 0038 0949     		ldr	r1, .L68+16
 1631 003a 0A48     		ldr	r0, .L68+20
 1632 003c FFF7FEFF 		bl	hal_mcu_trace_print
 1633              		.loc 1 386 5 discriminator 3
 1634 0040 0948     		ldr	r0, .L68+24
 1635 0042 FFF7FEFF 		bl	hal_mcu_trace_print
 1636              	.L67:
 1637              	.LBE12:
 387:../../../../lr11xx/common/apps_common.c **** }
 1638              		.loc 1 387 1 is_stmt 1
 1639 0046 00BF     		nop
 1640 0048 1037     		adds	r7, r7, #16
 1641              	.LCFI74:
 1642              		.cfi_def_cfa_offset 8
 1643 004a BD46     		mov	sp, r7
 1644              	.LCFI75:
 1645              		.cfi_def_cfa_register 13
 1646              		@ sp needed
 1647 004c 80BD     		pop	{r7, pc}
 1648              	.L69:
 1649 004e 00BF     		.align	2
 1650              	.L68:
 1651 0050 00000000 		.word	.LC1
 1652 0054 08000000 		.word	.LC2
 1653 0058 54000000 		.word	.LC5
 1654 005c 00000000 		.word	__func__.3
 1655 0060 10000000 		.word	.LC3
 1656 0064 38000000 		.word	.LC4
 1657 0068 68000000 		.word	.LC6
 1658              		.cfi_endproc
 1659              	.LFE256:
 1661              		.section	.rodata
 1662 006d 000000   		.align	2
 1663              	.LC7:
 1664 0070 1B5B303B 		.ascii	"\033[0;32m\000"
 1664      33326D00 
 1665              		.align	2
 1666              	.LC8:
 1667 0078 494E464F 		.ascii	"INFO: \000"
 1667      3A2000
 1668 007f 00       		.align	2
 1669              	.LC9:
 1670 0080 4C523131 		.ascii	"LR11xx information:\012\000"
 1670      78782069 
ARM GAS  C:\msys64\tmp\ccwHIjYg.s 			page 47


 1670      6E666F72 
 1670      6D617469 
 1670      6F6E3A0A 
 1671 0095 000000   		.align	2
 1672              	.LC10:
 1673 0098 20202D20 		.ascii	"  - Firmware = 0x%04X\012\000"
 1673      4669726D 
 1673      77617265 
 1673      203D2030 
 1673      78253034 
 1674 00af 00       		.align	2
 1675              	.LC11:
 1676 00b0 20202D20 		.ascii	"  - Hardware = 0x%02X\012\000"
 1676      48617264 
 1676      77617265 
 1676      203D2030 
 1676      78253032 
 1677 00c7 00       		.align	2
 1678              	.LC12:
 1679 00c8 20202D20 		.ascii	"  - Type     = 0x%02X (0x01 for LR1110, 0x02 for LR"
 1679      54797065 
 1679      20202020 
 1679      203D2030 
 1679      78253032 
 1680 00fb 31313230 		.ascii	"1120, 0x03 for LR1121)\012\000"
 1680      2C203078 
 1680      30332066 
 1680      6F72204C 
 1680      52313132 
 1681 0113 00       		.align	2
 1682              	.LC13:
 1683 0114 1B5B303B 		.ascii	"\033[0;33m\000"
 1683      33336D00 
 1684              		.align	2
 1685              	.LC14:
 1686 011c 5741524E 		.ascii	"WARN: \000"
 1686      3A2000
 1687 0123 00       		.align	2
 1688              	.LC15:
 1689 0124 4C523131 		.ascii	"LR1110 is on version 0x%02x, but latest firmware ve"
 1689      31302069 
 1689      73206F6E 
 1689      20766572 
 1689      73696F6E 
 1690 0157 7273696F 		.ascii	"rsion is 0x%02X\012\000"
 1690      6E206973 
 1690      20307825 
 1690      3032580A 
 1690      00
 1691              		.align	2
 1692              	.LC16:
 1693 0168 4C523131 		.ascii	"LR1120 doesn't use latest firmware version which is"
 1693      32302064 
 1693      6F65736E 
 1693      27742075 
 1693      7365206C 
 1694 019b 20307825 		.ascii	" 0x%02X\012\000"
ARM GAS  C:\msys64\tmp\ccwHIjYg.s 			page 48


 1694      3032580A 
 1694      00
 1695              		.align	2
 1696              	.LC17:
 1697 01a4 4C523131 		.ascii	"LR1121 doesn't use latest firmware version which is"
 1697      32312064 
 1697      6F65736E 
 1697      27742075 
 1697      7365206C 
 1698 01d7 20307825 		.ascii	" 0x%02X\012\000"
 1698      3032580A 
 1698      00
 1699              		.align	2
 1700              	.LC18:
 1701 01e0 0A00     		.ascii	"\012\000"
 1702              		.section	.text.apps_common_lr11xx_print_version,"ax",%progbits
 1703              		.align	1
 1704              		.global	apps_common_lr11xx_print_version
 1705              		.syntax unified
 1706              		.thumb
 1707              		.thumb_func
 1709              	apps_common_lr11xx_print_version:
 1710              	.LFB257:
 388:../../../../lr11xx/common/apps_common.c **** 
 389:../../../../lr11xx/common/apps_common.c **** void apps_common_lr11xx_print_version( const lr11xx_system_version_t* version )
 390:../../../../lr11xx/common/apps_common.c **** {
 1711              		.loc 1 390 1
 1712              		.cfi_startproc
 1713              		@ args = 0, pretend = 0, frame = 8
 1714              		@ frame_needed = 1, uses_anonymous_args = 0
 1715 0000 80B5     		push	{r7, lr}
 1716              	.LCFI76:
 1717              		.cfi_def_cfa_offset 8
 1718              		.cfi_offset 7, -8
 1719              		.cfi_offset 14, -4
 1720 0002 82B0     		sub	sp, sp, #8
 1721              	.LCFI77:
 1722              		.cfi_def_cfa_offset 16
 1723 0004 00AF     		add	r7, sp, #0
 1724              	.LCFI78:
 1725              		.cfi_def_cfa_register 7
 1726 0006 7860     		str	r0, [r7, #4]
 391:../../../../lr11xx/common/apps_common.c ****     HAL_DBG_TRACE_INFO( "LR11xx information:\n" );
 1727              		.loc 1 391 5
 1728 0008 4548     		ldr	r0, .L74
 1729 000a FFF7FEFF 		bl	hal_mcu_trace_print
 1730              		.loc 1 391 5 is_stmt 0 discriminator 1
 1731 000e 4548     		ldr	r0, .L74+4
 1732 0010 FFF7FEFF 		bl	hal_mcu_trace_print
 1733              		.loc 1 391 5 discriminator 2
 1734 0014 4448     		ldr	r0, .L74+8
 1735 0016 FFF7FEFF 		bl	hal_mcu_trace_print
 1736              		.loc 1 391 5 discriminator 3
 1737 001a 4448     		ldr	r0, .L74+12
 1738 001c FFF7FEFF 		bl	hal_mcu_trace_print
 392:../../../../lr11xx/common/apps_common.c ****     HAL_DBG_TRACE_INFO( "  - Firmware = 0x%04X\n", version->fw );
 1739              		.loc 1 392 5 is_stmt 1
ARM GAS  C:\msys64\tmp\ccwHIjYg.s 			page 49


 1740 0020 3F48     		ldr	r0, .L74
 1741 0022 FFF7FEFF 		bl	hal_mcu_trace_print
 1742              		.loc 1 392 5 is_stmt 0 discriminator 1
 1743 0026 3F48     		ldr	r0, .L74+4
 1744 0028 FFF7FEFF 		bl	hal_mcu_trace_print
 1745              		.loc 1 392 5 discriminator 2
 1746 002c 7B68     		ldr	r3, [r7, #4]
 1747 002e 5B88     		ldrh	r3, [r3, #2]
 1748 0030 1946     		mov	r1, r3
 1749 0032 3F48     		ldr	r0, .L74+16
 1750 0034 FFF7FEFF 		bl	hal_mcu_trace_print
 1751              		.loc 1 392 5 discriminator 3
 1752 0038 3C48     		ldr	r0, .L74+12
 1753 003a FFF7FEFF 		bl	hal_mcu_trace_print
 393:../../../../lr11xx/common/apps_common.c ****     HAL_DBG_TRACE_INFO( "  - Hardware = 0x%02X\n", version->hw );
 1754              		.loc 1 393 5 is_stmt 1
 1755 003e 3848     		ldr	r0, .L74
 1756 0040 FFF7FEFF 		bl	hal_mcu_trace_print
 1757              		.loc 1 393 5 is_stmt 0 discriminator 1
 1758 0044 3748     		ldr	r0, .L74+4
 1759 0046 FFF7FEFF 		bl	hal_mcu_trace_print
 1760              		.loc 1 393 5 discriminator 2
 1761 004a 7B68     		ldr	r3, [r7, #4]
 1762 004c 1B78     		ldrb	r3, [r3]	@ zero_extendqisi2
 1763 004e 1946     		mov	r1, r3
 1764 0050 3848     		ldr	r0, .L74+20
 1765 0052 FFF7FEFF 		bl	hal_mcu_trace_print
 1766              		.loc 1 393 5 discriminator 3
 1767 0056 3548     		ldr	r0, .L74+12
 1768 0058 FFF7FEFF 		bl	hal_mcu_trace_print
 394:../../../../lr11xx/common/apps_common.c ****     HAL_DBG_TRACE_INFO( "  - Type     = 0x%02X (0x01 for LR1110, 0x02 for LR1120, 0x03 for LR1121)\
 1769              		.loc 1 394 5 is_stmt 1
 1770 005c 3048     		ldr	r0, .L74
 1771 005e FFF7FEFF 		bl	hal_mcu_trace_print
 1772              		.loc 1 394 5 is_stmt 0 discriminator 1
 1773 0062 3048     		ldr	r0, .L74+4
 1774 0064 FFF7FEFF 		bl	hal_mcu_trace_print
 1775              		.loc 1 394 5 discriminator 2
 1776 0068 7B68     		ldr	r3, [r7, #4]
 1777 006a 5B78     		ldrb	r3, [r3, #1]	@ zero_extendqisi2
 1778 006c 1946     		mov	r1, r3
 1779 006e 3248     		ldr	r0, .L74+24
 1780 0070 FFF7FEFF 		bl	hal_mcu_trace_print
 1781              		.loc 1 394 5 discriminator 3
 1782 0074 2D48     		ldr	r0, .L74+12
 1783 0076 FFF7FEFF 		bl	hal_mcu_trace_print
 395:../../../../lr11xx/common/apps_common.c **** 
 396:../../../../lr11xx/common/apps_common.c ****     if( ( version->type == LR11XX_SYSTEM_VERSION_TYPE_LR1110 ) && ( version->fw != LR1110_LATEST_FW
 1784              		.loc 1 396 18 is_stmt 1
 1785 007a 7B68     		ldr	r3, [r7, #4]
 1786 007c 5B78     		ldrb	r3, [r3, #1]	@ zero_extendqisi2
 1787              		.loc 1 396 7
 1788 007e 012B     		cmp	r3, #1
 1789 0080 16D1     		bne	.L71
 1790              		.loc 1 396 76 discriminator 1
 1791 0082 7B68     		ldr	r3, [r7, #4]
 1792 0084 5B88     		ldrh	r3, [r3, #2]
ARM GAS  C:\msys64\tmp\ccwHIjYg.s 			page 50


 1793              		.loc 1 396 64 discriminator 1
 1794 0086 40F20142 		movw	r2, #1025
 1795 008a 9342     		cmp	r3, r2
 1796 008c 10D0     		beq	.L71
 397:../../../../lr11xx/common/apps_common.c ****     {
 398:../../../../lr11xx/common/apps_common.c ****         HAL_DBG_TRACE_WARNING( "LR1110 is on version 0x%02x, but latest firmware version is 0x%02X\
 1797              		.loc 1 398 9
 1798 008e 2B48     		ldr	r0, .L74+28
 1799 0090 FFF7FEFF 		bl	hal_mcu_trace_print
 1800              		.loc 1 398 9 is_stmt 0 discriminator 1
 1801 0094 2A48     		ldr	r0, .L74+32
 1802 0096 FFF7FEFF 		bl	hal_mcu_trace_print
 1803              		.loc 1 398 9 discriminator 2
 1804 009a 7B68     		ldr	r3, [r7, #4]
 1805 009c 5B88     		ldrh	r3, [r3, #2]
 1806 009e 40F20142 		movw	r2, #1025
 1807 00a2 1946     		mov	r1, r3
 1808 00a4 2748     		ldr	r0, .L74+36
 1809 00a6 FFF7FEFF 		bl	hal_mcu_trace_print
 1810              		.loc 1 398 9 discriminator 3
 1811 00aa 2048     		ldr	r0, .L74+12
 1812 00ac FFF7FEFF 		bl	hal_mcu_trace_print
 1813              	.L71:
 399:../../../../lr11xx/common/apps_common.c ****                                LR1110_LATEST_FW_VERSION );
 400:../../../../lr11xx/common/apps_common.c ****     }
 401:../../../../lr11xx/common/apps_common.c ****     if( ( version->type == LR11XX_SYSTEM_VERSION_TYPE_LR1120 ) && ( version->fw != LR1120_LATEST_FW
 1814              		.loc 1 401 18 is_stmt 1
 1815 00b0 7B68     		ldr	r3, [r7, #4]
 1816 00b2 5B78     		ldrb	r3, [r3, #1]	@ zero_extendqisi2
 1817              		.loc 1 401 7
 1818 00b4 022B     		cmp	r3, #2
 1819 00b6 13D1     		bne	.L72
 1820              		.loc 1 401 76 discriminator 1
 1821 00b8 7B68     		ldr	r3, [r7, #4]
 1822 00ba 5B88     		ldrh	r3, [r3, #2]
 1823              		.loc 1 401 64 discriminator 1
 1824 00bc 40F20122 		movw	r2, #513
 1825 00c0 9342     		cmp	r3, r2
 1826 00c2 0DD0     		beq	.L72
 402:../../../../lr11xx/common/apps_common.c ****     {
 403:../../../../lr11xx/common/apps_common.c ****         HAL_DBG_TRACE_WARNING( "LR1120 doesn't use latest firmware version which is 0x%02X\n",
 1827              		.loc 1 403 9
 1828 00c4 1D48     		ldr	r0, .L74+28
 1829 00c6 FFF7FEFF 		bl	hal_mcu_trace_print
 1830              		.loc 1 403 9 is_stmt 0 discriminator 1
 1831 00ca 1D48     		ldr	r0, .L74+32
 1832 00cc FFF7FEFF 		bl	hal_mcu_trace_print
 1833              		.loc 1 403 9 discriminator 2
 1834 00d0 40F20121 		movw	r1, #513
 1835 00d4 1C48     		ldr	r0, .L74+40
 1836 00d6 FFF7FEFF 		bl	hal_mcu_trace_print
 1837              		.loc 1 403 9 discriminator 3
 1838 00da 1448     		ldr	r0, .L74+12
 1839 00dc FFF7FEFF 		bl	hal_mcu_trace_print
 1840              	.L72:
 404:../../../../lr11xx/common/apps_common.c ****                                LR1120_LATEST_FW_VERSION );
 405:../../../../lr11xx/common/apps_common.c ****     }
ARM GAS  C:\msys64\tmp\ccwHIjYg.s 			page 51


 406:../../../../lr11xx/common/apps_common.c ****     if( ( version->type == LR11XX_SYSTEM_VERSION_TYPE_LR1121 ) && ( version->fw != LR1121_LATEST_FW
 1841              		.loc 1 406 18 is_stmt 1
 1842 00e0 7B68     		ldr	r3, [r7, #4]
 1843 00e2 5B78     		ldrb	r3, [r3, #1]	@ zero_extendqisi2
 1844              		.loc 1 406 7
 1845 00e4 032B     		cmp	r3, #3
 1846 00e6 13D1     		bne	.L73
 1847              		.loc 1 406 76 discriminator 1
 1848 00e8 7B68     		ldr	r3, [r7, #4]
 1849 00ea 5B88     		ldrh	r3, [r3, #2]
 1850              		.loc 1 406 64 discriminator 1
 1851 00ec 40F20312 		movw	r2, #259
 1852 00f0 9342     		cmp	r3, r2
 1853 00f2 0DD0     		beq	.L73
 407:../../../../lr11xx/common/apps_common.c ****     {
 408:../../../../lr11xx/common/apps_common.c ****         HAL_DBG_TRACE_WARNING( "LR1121 doesn't use latest firmware version which is 0x%02X\n",
 1854              		.loc 1 408 9
 1855 00f4 1148     		ldr	r0, .L74+28
 1856 00f6 FFF7FEFF 		bl	hal_mcu_trace_print
 1857              		.loc 1 408 9 is_stmt 0 discriminator 1
 1858 00fa 1148     		ldr	r0, .L74+32
 1859 00fc FFF7FEFF 		bl	hal_mcu_trace_print
 1860              		.loc 1 408 9 discriminator 2
 1861 0100 40F20311 		movw	r1, #259
 1862 0104 1148     		ldr	r0, .L74+44
 1863 0106 FFF7FEFF 		bl	hal_mcu_trace_print
 1864              		.loc 1 408 9 discriminator 3
 1865 010a 0848     		ldr	r0, .L74+12
 1866 010c FFF7FEFF 		bl	hal_mcu_trace_print
 1867              	.L73:
 409:../../../../lr11xx/common/apps_common.c ****                                LR1121_LATEST_FW_VERSION );
 410:../../../../lr11xx/common/apps_common.c ****     }
 411:../../../../lr11xx/common/apps_common.c **** 
 412:../../../../lr11xx/common/apps_common.c ****     HAL_DBG_TRACE_PRINTF( "\n" );
 1868              		.loc 1 412 5 is_stmt 1
 1869 0110 0F48     		ldr	r0, .L74+48
 1870 0112 FFF7FEFF 		bl	hal_mcu_trace_print
 413:../../../../lr11xx/common/apps_common.c **** }
 1871              		.loc 1 413 1
 1872 0116 00BF     		nop
 1873 0118 0837     		adds	r7, r7, #8
 1874              	.LCFI79:
 1875              		.cfi_def_cfa_offset 8
 1876 011a BD46     		mov	sp, r7
 1877              	.LCFI80:
 1878              		.cfi_def_cfa_register 13
 1879              		@ sp needed
 1880 011c 80BD     		pop	{r7, pc}
 1881              	.L75:
 1882 011e 00BF     		.align	2
 1883              	.L74:
 1884 0120 70000000 		.word	.LC7
 1885 0124 78000000 		.word	.LC8
 1886 0128 80000000 		.word	.LC9
 1887 012c 68000000 		.word	.LC6
 1888 0130 98000000 		.word	.LC10
 1889 0134 B0000000 		.word	.LC11
ARM GAS  C:\msys64\tmp\ccwHIjYg.s 			page 52


 1890 0138 C8000000 		.word	.LC12
 1891 013c 14010000 		.word	.LC13
 1892 0140 1C010000 		.word	.LC14
 1893 0144 24010000 		.word	.LC15
 1894 0148 68010000 		.word	.LC16
 1895 014c A4010000 		.word	.LC17
 1896 0150 E0010000 		.word	.LC18
 1897              		.cfi_endproc
 1898              	.LFE257:
 1900              		.section	.text.apps_common_print_sdk_driver_version,"ax",%progbits
 1901              		.align	1
 1902              		.global	apps_common_print_sdk_driver_version
 1903              		.syntax unified
 1904              		.thumb
 1905              		.thumb_func
 1907              	apps_common_print_sdk_driver_version:
 1908              	.LFB258:
 414:../../../../lr11xx/common/apps_common.c **** 
 415:../../../../lr11xx/common/apps_common.c **** void apps_common_print_sdk_driver_version( void )
 416:../../../../lr11xx/common/apps_common.c **** {
 1909              		.loc 1 416 1
 1910              		.cfi_startproc
 1911              		@ args = 0, pretend = 0, frame = 0
 1912              		@ frame_needed = 1, uses_anonymous_args = 0
 1913 0000 80B5     		push	{r7, lr}
 1914              	.LCFI81:
 1915              		.cfi_def_cfa_offset 8
 1916              		.cfi_offset 7, -8
 1917              		.cfi_offset 14, -4
 1918 0002 00AF     		add	r7, sp, #0
 1919              	.LCFI82:
 1920              		.cfi_def_cfa_register 7
 417:../../../../lr11xx/common/apps_common.c ****     common_version_print( );
 1921              		.loc 1 417 5
 1922 0004 FFF7FEFF 		bl	common_version_print
 418:../../../../lr11xx/common/apps_common.c ****     print_driver_version( );
 1923              		.loc 1 418 5
 1924 0008 FFF7FEFF 		bl	print_driver_version
 419:../../../../lr11xx/common/apps_common.c ****     HAL_DBG_TRACE_INFO( "\n" );
 1925              		.loc 1 419 5
 1926 000c 0648     		ldr	r0, .L77
 1927 000e FFF7FEFF 		bl	hal_mcu_trace_print
 1928              		.loc 1 419 5 is_stmt 0 discriminator 1
 1929 0012 0648     		ldr	r0, .L77+4
 1930 0014 FFF7FEFF 		bl	hal_mcu_trace_print
 1931              		.loc 1 419 5 discriminator 2
 1932 0018 0548     		ldr	r0, .L77+8
 1933 001a FFF7FEFF 		bl	hal_mcu_trace_print
 1934              		.loc 1 419 5 discriminator 3
 1935 001e 0548     		ldr	r0, .L77+12
 1936 0020 FFF7FEFF 		bl	hal_mcu_trace_print
 420:../../../../lr11xx/common/apps_common.c **** }
 1937              		.loc 1 420 1 is_stmt 1
 1938 0024 00BF     		nop
 1939 0026 80BD     		pop	{r7, pc}
 1940              	.L78:
 1941              		.align	2
ARM GAS  C:\msys64\tmp\ccwHIjYg.s 			page 53


 1942              	.L77:
 1943 0028 70000000 		.word	.LC7
 1944 002c 78000000 		.word	.LC8
 1945 0030 E0010000 		.word	.LC18
 1946 0034 68000000 		.word	.LC6
 1947              		.cfi_endproc
 1948              	.LFE258:
 1950              		.section	.rodata
 1951 01e2 0000     		.align	2
 1952              	.LC19:
 1953 01e4 496E7661 		.ascii	"Invalid target frequency or power level\012\000"
 1953      6C696420 
 1953      74617267 
 1953      65742066 
 1953      72657175 
 1954              		.section	.text.apps_common_lr11xx_radio_init,"ax",%progbits
 1955              		.align	1
 1956              		.global	apps_common_lr11xx_radio_init
 1957              		.syntax unified
 1958              		.thumb
 1959              		.thumb_func
 1961              	apps_common_lr11xx_radio_init:
 1962              	.LFB259:
 421:../../../../lr11xx/common/apps_common.c **** 
 422:../../../../lr11xx/common/apps_common.c **** void apps_common_lr11xx_radio_init( const void* context )
 423:../../../../lr11xx/common/apps_common.c **** {
 1963              		.loc 1 423 1
 1964              		.cfi_startproc
 1965              		@ args = 0, pretend = 0, frame = 32
 1966              		@ frame_needed = 1, uses_anonymous_args = 0
 1967 0000 80B5     		push	{r7, lr}
 1968              	.LCFI83:
 1969              		.cfi_def_cfa_offset 8
 1970              		.cfi_offset 7, -8
 1971              		.cfi_offset 14, -4
 1972 0002 8AB0     		sub	sp, sp, #40
 1973              	.LCFI84:
 1974              		.cfi_def_cfa_offset 48
 1975 0004 02AF     		add	r7, sp, #8
 1976              	.LCFI85:
 1977              		.cfi_def_cfa 7, 40
 1978 0006 7860     		str	r0, [r7, #4]
 424:../../../../lr11xx/common/apps_common.c ****     const smtc_shield_lr11xx_pa_pwr_cfg_t* pa_pwr_cfg =
 425:../../../../lr11xx/common/apps_common.c ****         smtc_shield_lr11xx_get_pa_pwr_cfg( &shield, RF_FREQ_IN_HZ, TX_OUTPUT_POWER_DBM );
 1979              		.loc 1 425 9
 1980 0008 6FF00E02 		mvn	r2, #14
 1981 000c 0A49     		ldr	r1, .L93
 1982 000e 0B48     		ldr	r0, .L93+4
 1983 0010 FFF7FEFF 		bl	smtc_shield_lr11xx_get_pa_pwr_cfg
 1984 0014 F861     		str	r0, [r7, #28]
 426:../../../../lr11xx/common/apps_common.c **** 
 427:../../../../lr11xx/common/apps_common.c ****     if( pa_pwr_cfg == NULL )
 1985              		.loc 1 427 7
 1986 0016 FB69     		ldr	r3, [r7, #28]
 1987 0018 002B     		cmp	r3, #0
 1988 001a 19D1     		bne	.L80
 428:../../../../lr11xx/common/apps_common.c ****     {
ARM GAS  C:\msys64\tmp\ccwHIjYg.s 			page 54


 429:../../../../lr11xx/common/apps_common.c ****         HAL_DBG_TRACE_ERROR( "Invalid target frequency or power level\n" );
 1989              		.loc 1 429 9
 1990 001c 0848     		ldr	r0, .L93+8
 1991 001e FFF7FEFF 		bl	hal_mcu_trace_print
 1992              		.loc 1 429 9 is_stmt 0 discriminator 1
 1993 0022 0848     		ldr	r0, .L93+12
 1994 0024 FFF7FEFF 		bl	hal_mcu_trace_print
 1995              		.loc 1 429 9 discriminator 2
 1996 0028 0748     		ldr	r0, .L93+16
 1997 002a FFF7FEFF 		bl	hal_mcu_trace_print
 1998              		.loc 1 429 9 discriminator 3
 1999 002e 0748     		ldr	r0, .L93+20
 2000 0030 FFF7FEFF 		bl	hal_mcu_trace_print
 2001              	.L81:
 430:../../../../lr11xx/common/apps_common.c ****         while( true )
 2002              		.loc 1 430 14 is_stmt 1
 2003 0034 00BF     		nop
 2004 0036 FDE7     		b	.L81
 2005              	.L94:
 2006              		.align	2
 2007              	.L93:
 2008 0038 80CE341D 		.word	490000000
 2009 003c 00000000 		.word	shield
 2010 0040 00000000 		.word	.LC1
 2011 0044 08000000 		.word	.LC2
 2012 0048 E4010000 		.word	.LC19
 2013 004c 68000000 		.word	.LC6
 2014              	.L80:
 431:../../../../lr11xx/common/apps_common.c ****         {
 432:../../../../lr11xx/common/apps_common.c ****         }
 433:../../../../lr11xx/common/apps_common.c ****     }
 434:../../../../lr11xx/common/apps_common.c **** 
 435:../../../../lr11xx/common/apps_common.c ****     print_common_configuration( );
 2015              		.loc 1 435 5
 2016 0050 FFF7FEFF 		bl	print_common_configuration
 2017              	.LBB13:
 436:../../../../lr11xx/common/apps_common.c **** 
 437:../../../../lr11xx/common/apps_common.c ****     ASSERT_LR11XX_RC( lr11xx_radio_set_pkt_type( context, PACKET_TYPE ) );
 2018              		.loc 1 437 5
 2019 0054 0221     		movs	r1, #2
 2020 0056 7868     		ldr	r0, [r7, #4]
 2021 0058 FFF7FEFF 		bl	lr11xx_radio_set_pkt_type
 2022 005c 0346     		mov	r3, r0
 2023 005e FB76     		strb	r3, [r7, #27]
 2024              		.loc 1 437 5 is_stmt 0 discriminator 1
 2025 0060 FB7E     		ldrb	r3, [r7, #27]	@ zero_extendqisi2
 2026 0062 002B     		cmp	r3, #0
 2027 0064 14D0     		beq	.L82
 2028 0066 FB7E     		ldrb	r3, [r7, #27]	@ zero_extendqisi2
 2029 0068 032B     		cmp	r3, #3
 2030 006a 11D1     		bne	.L82
 2031              		.loc 1 437 5 discriminator 2
 2032 006c 9C48     		ldr	r0, .L95
 2033 006e FFF7FEFF 		bl	hal_mcu_trace_print
 2034              		.loc 1 437 5 discriminator 1
 2035 0072 9C48     		ldr	r0, .L95+4
 2036 0074 FFF7FEFF 		bl	hal_mcu_trace_print
ARM GAS  C:\msys64\tmp\ccwHIjYg.s 			page 55


 2037              		.loc 1 437 5 discriminator 2
 2038 0078 9B4B     		ldr	r3, .L95+8
 2039 007a 0093     		str	r3, [sp]
 2040 007c 40F2B513 		movw	r3, #437
 2041 0080 9A4A     		ldr	r2, .L95+12
 2042 0082 9B49     		ldr	r1, .L95+16
 2043 0084 9B48     		ldr	r0, .L95+20
 2044 0086 FFF7FEFF 		bl	hal_mcu_trace_print
 2045              		.loc 1 437 5 discriminator 3
 2046 008a 9B48     		ldr	r0, .L95+24
 2047 008c FFF7FEFF 		bl	hal_mcu_trace_print
 2048              	.L82:
 2049              	.LBE13:
 2050              	.LBB14:
 438:../../../../lr11xx/common/apps_common.c ****     ASSERT_LR11XX_RC( lr11xx_radio_set_rf_freq( context, RF_FREQ_IN_HZ ) );
 2051              		.loc 1 438 5 is_stmt 1
 2052 0090 9A49     		ldr	r1, .L95+28
 2053 0092 7868     		ldr	r0, [r7, #4]
 2054 0094 FFF7FEFF 		bl	lr11xx_radio_set_rf_freq
 2055 0098 0346     		mov	r3, r0
 2056 009a BB76     		strb	r3, [r7, #26]
 2057              		.loc 1 438 5 is_stmt 0 discriminator 1
 2058 009c BB7E     		ldrb	r3, [r7, #26]	@ zero_extendqisi2
 2059 009e 002B     		cmp	r3, #0
 2060 00a0 14D0     		beq	.L83
 2061 00a2 BB7E     		ldrb	r3, [r7, #26]	@ zero_extendqisi2
 2062 00a4 032B     		cmp	r3, #3
 2063 00a6 11D1     		bne	.L83
 2064              		.loc 1 438 5 discriminator 2
 2065 00a8 8D48     		ldr	r0, .L95
 2066 00aa FFF7FEFF 		bl	hal_mcu_trace_print
 2067              		.loc 1 438 5 discriminator 1
 2068 00ae 8D48     		ldr	r0, .L95+4
 2069 00b0 FFF7FEFF 		bl	hal_mcu_trace_print
 2070              		.loc 1 438 5 discriminator 2
 2071 00b4 8C4B     		ldr	r3, .L95+8
 2072 00b6 0093     		str	r3, [sp]
 2073 00b8 4FF4DB73 		mov	r3, #438
 2074 00bc 8B4A     		ldr	r2, .L95+12
 2075 00be 8C49     		ldr	r1, .L95+16
 2076 00c0 8C48     		ldr	r0, .L95+20
 2077 00c2 FFF7FEFF 		bl	hal_mcu_trace_print
 2078              		.loc 1 438 5 discriminator 3
 2079 00c6 8C48     		ldr	r0, .L95+24
 2080 00c8 FFF7FEFF 		bl	hal_mcu_trace_print
 2081              	.L83:
 2082              	.LBE14:
 2083              	.LBB15:
 439:../../../../lr11xx/common/apps_common.c ****     ASSERT_LR11XX_RC( lr11xx_radio_set_rssi_calibration(
 2084              		.loc 1 439 5 is_stmt 1
 2085 00cc 8B49     		ldr	r1, .L95+28
 2086 00ce 8C48     		ldr	r0, .L95+32
 2087 00d0 FFF7FEFF 		bl	smtc_shield_lr11xx_get_rssi_calibration_table
 2088 00d4 0346     		mov	r3, r0
 2089              		.loc 1 439 5 is_stmt 0 discriminator 1
 2090 00d6 1946     		mov	r1, r3
 2091 00d8 7868     		ldr	r0, [r7, #4]
ARM GAS  C:\msys64\tmp\ccwHIjYg.s 			page 56


 2092 00da FFF7FEFF 		bl	lr11xx_radio_set_rssi_calibration
 2093 00de 0346     		mov	r3, r0
 2094 00e0 7B76     		strb	r3, [r7, #25]
 2095              		.loc 1 439 5 discriminator 2
 2096 00e2 7B7E     		ldrb	r3, [r7, #25]	@ zero_extendqisi2
 2097 00e4 002B     		cmp	r3, #0
 2098 00e6 14D0     		beq	.L84
 2099              		.loc 1 439 5 discriminator 1
 2100 00e8 7B7E     		ldrb	r3, [r7, #25]	@ zero_extendqisi2
 2101 00ea 032B     		cmp	r3, #3
 2102 00ec 11D1     		bne	.L84
 2103              		.loc 1 439 5 discriminator 2
 2104 00ee 7C48     		ldr	r0, .L95
 2105 00f0 FFF7FEFF 		bl	hal_mcu_trace_print
 2106              		.loc 1 439 5 discriminator 1
 2107 00f4 7B48     		ldr	r0, .L95+4
 2108 00f6 FFF7FEFF 		bl	hal_mcu_trace_print
 2109              		.loc 1 439 5 discriminator 2
 2110 00fa 7B4B     		ldr	r3, .L95+8
 2111 00fc 0093     		str	r3, [sp]
 2112 00fe 40F2B713 		movw	r3, #439
 2113 0102 7A4A     		ldr	r2, .L95+12
 2114 0104 7A49     		ldr	r1, .L95+16
 2115 0106 7B48     		ldr	r0, .L95+20
 2116 0108 FFF7FEFF 		bl	hal_mcu_trace_print
 2117              		.loc 1 439 5 discriminator 3
 2118 010c 7A48     		ldr	r0, .L95+24
 2119 010e FFF7FEFF 		bl	hal_mcu_trace_print
 2120              	.L84:
 2121              	.LBE15:
 2122              	.LBB16:
 440:../../../../lr11xx/common/apps_common.c ****         context, smtc_shield_lr11xx_get_rssi_calibration_table( &shield, RF_FREQ_IN_HZ ) ) );
 441:../../../../lr11xx/common/apps_common.c ****     ASSERT_LR11XX_RC( lr11xx_radio_set_pa_cfg( context, &( pa_pwr_cfg->pa_config ) ) );
 2123              		.loc 1 441 5 is_stmt 1
 2124 0112 FB69     		ldr	r3, [r7, #28]
 2125 0114 0133     		adds	r3, r3, #1
 2126 0116 1946     		mov	r1, r3
 2127 0118 7868     		ldr	r0, [r7, #4]
 2128 011a FFF7FEFF 		bl	lr11xx_radio_set_pa_cfg
 2129 011e 0346     		mov	r3, r0
 2130 0120 3B76     		strb	r3, [r7, #24]
 2131              		.loc 1 441 5 is_stmt 0 discriminator 1
 2132 0122 3B7E     		ldrb	r3, [r7, #24]	@ zero_extendqisi2
 2133 0124 002B     		cmp	r3, #0
 2134 0126 14D0     		beq	.L85
 2135 0128 3B7E     		ldrb	r3, [r7, #24]	@ zero_extendqisi2
 2136 012a 032B     		cmp	r3, #3
 2137 012c 11D1     		bne	.L85
 2138              		.loc 1 441 5 discriminator 2
 2139 012e 6C48     		ldr	r0, .L95
 2140 0130 FFF7FEFF 		bl	hal_mcu_trace_print
 2141              		.loc 1 441 5 discriminator 1
 2142 0134 6B48     		ldr	r0, .L95+4
 2143 0136 FFF7FEFF 		bl	hal_mcu_trace_print
 2144              		.loc 1 441 5 discriminator 2
 2145 013a 6B4B     		ldr	r3, .L95+8
 2146 013c 0093     		str	r3, [sp]
ARM GAS  C:\msys64\tmp\ccwHIjYg.s 			page 57


 2147 013e 40F2B913 		movw	r3, #441
 2148 0142 6A4A     		ldr	r2, .L95+12
 2149 0144 6A49     		ldr	r1, .L95+16
 2150 0146 6B48     		ldr	r0, .L95+20
 2151 0148 FFF7FEFF 		bl	hal_mcu_trace_print
 2152              		.loc 1 441 5 discriminator 3
 2153 014c 6A48     		ldr	r0, .L95+24
 2154 014e FFF7FEFF 		bl	hal_mcu_trace_print
 2155              	.L85:
 2156              	.LBE16:
 2157              	.LBB17:
 442:../../../../lr11xx/common/apps_common.c ****     ASSERT_LR11XX_RC( lr11xx_radio_set_tx_params( context, pa_pwr_cfg->power, PA_RAMP_TIME ) );
 2158              		.loc 1 442 5 is_stmt 1
 2159 0152 FB69     		ldr	r3, [r7, #28]
 2160 0154 93F90030 		ldrsb	r3, [r3]
 2161 0158 0222     		movs	r2, #2
 2162 015a 1946     		mov	r1, r3
 2163 015c 7868     		ldr	r0, [r7, #4]
 2164 015e FFF7FEFF 		bl	lr11xx_radio_set_tx_params
 2165 0162 0346     		mov	r3, r0
 2166 0164 FB75     		strb	r3, [r7, #23]
 2167              		.loc 1 442 5 is_stmt 0 discriminator 1
 2168 0166 FB7D     		ldrb	r3, [r7, #23]	@ zero_extendqisi2
 2169 0168 002B     		cmp	r3, #0
 2170 016a 14D0     		beq	.L86
 2171 016c FB7D     		ldrb	r3, [r7, #23]	@ zero_extendqisi2
 2172 016e 032B     		cmp	r3, #3
 2173 0170 11D1     		bne	.L86
 2174              		.loc 1 442 5 discriminator 2
 2175 0172 5B48     		ldr	r0, .L95
 2176 0174 FFF7FEFF 		bl	hal_mcu_trace_print
 2177              		.loc 1 442 5 discriminator 1
 2178 0178 5A48     		ldr	r0, .L95+4
 2179 017a FFF7FEFF 		bl	hal_mcu_trace_print
 2180              		.loc 1 442 5 discriminator 2
 2181 017e 5A4B     		ldr	r3, .L95+8
 2182 0180 0093     		str	r3, [sp]
 2183 0182 4FF4DD73 		mov	r3, #442
 2184 0186 594A     		ldr	r2, .L95+12
 2185 0188 5949     		ldr	r1, .L95+16
 2186 018a 5A48     		ldr	r0, .L95+20
 2187 018c FFF7FEFF 		bl	hal_mcu_trace_print
 2188              		.loc 1 442 5 discriminator 3
 2189 0190 5948     		ldr	r0, .L95+24
 2190 0192 FFF7FEFF 		bl	hal_mcu_trace_print
 2191              	.L86:
 2192              	.LBE17:
 2193              	.LBB18:
 443:../../../../lr11xx/common/apps_common.c ****     ASSERT_LR11XX_RC( lr11xx_radio_set_rx_tx_fallback_mode( context, FALLBACK_MODE ) );
 2194              		.loc 1 443 5 is_stmt 1
 2195 0196 0121     		movs	r1, #1
 2196 0198 7868     		ldr	r0, [r7, #4]
 2197 019a FFF7FEFF 		bl	lr11xx_radio_set_rx_tx_fallback_mode
 2198 019e 0346     		mov	r3, r0
 2199 01a0 BB75     		strb	r3, [r7, #22]
 2200              		.loc 1 443 5 is_stmt 0 discriminator 1
 2201 01a2 BB7D     		ldrb	r3, [r7, #22]	@ zero_extendqisi2
ARM GAS  C:\msys64\tmp\ccwHIjYg.s 			page 58


 2202 01a4 002B     		cmp	r3, #0
 2203 01a6 14D0     		beq	.L87
 2204 01a8 BB7D     		ldrb	r3, [r7, #22]	@ zero_extendqisi2
 2205 01aa 032B     		cmp	r3, #3
 2206 01ac 11D1     		bne	.L87
 2207              		.loc 1 443 5 discriminator 2
 2208 01ae 4C48     		ldr	r0, .L95
 2209 01b0 FFF7FEFF 		bl	hal_mcu_trace_print
 2210              		.loc 1 443 5 discriminator 1
 2211 01b4 4B48     		ldr	r0, .L95+4
 2212 01b6 FFF7FEFF 		bl	hal_mcu_trace_print
 2213              		.loc 1 443 5 discriminator 2
 2214 01ba 4B4B     		ldr	r3, .L95+8
 2215 01bc 0093     		str	r3, [sp]
 2216 01be 40F2BB13 		movw	r3, #443
 2217 01c2 4A4A     		ldr	r2, .L95+12
 2218 01c4 4A49     		ldr	r1, .L95+16
 2219 01c6 4B48     		ldr	r0, .L95+20
 2220 01c8 FFF7FEFF 		bl	hal_mcu_trace_print
 2221              		.loc 1 443 5 discriminator 3
 2222 01cc 4A48     		ldr	r0, .L95+24
 2223 01ce FFF7FEFF 		bl	hal_mcu_trace_print
 2224              	.L87:
 2225              	.LBE18:
 2226              	.LBB19:
 444:../../../../lr11xx/common/apps_common.c ****     ASSERT_LR11XX_RC( lr11xx_radio_cfg_rx_boosted( context, ENABLE_RX_BOOST_MODE ) );
 2227              		.loc 1 444 5 is_stmt 1
 2228 01d2 0021     		movs	r1, #0
 2229 01d4 7868     		ldr	r0, [r7, #4]
 2230 01d6 FFF7FEFF 		bl	lr11xx_radio_cfg_rx_boosted
 2231 01da 0346     		mov	r3, r0
 2232 01dc 7B75     		strb	r3, [r7, #21]
 2233              		.loc 1 444 5 is_stmt 0 discriminator 1
 2234 01de 7B7D     		ldrb	r3, [r7, #21]	@ zero_extendqisi2
 2235 01e0 002B     		cmp	r3, #0
 2236 01e2 14D0     		beq	.L88
 2237 01e4 7B7D     		ldrb	r3, [r7, #21]	@ zero_extendqisi2
 2238 01e6 032B     		cmp	r3, #3
 2239 01e8 11D1     		bne	.L88
 2240              		.loc 1 444 5 discriminator 2
 2241 01ea 3D48     		ldr	r0, .L95
 2242 01ec FFF7FEFF 		bl	hal_mcu_trace_print
 2243              		.loc 1 444 5 discriminator 1
 2244 01f0 3C48     		ldr	r0, .L95+4
 2245 01f2 FFF7FEFF 		bl	hal_mcu_trace_print
 2246              		.loc 1 444 5 discriminator 2
 2247 01f6 3C4B     		ldr	r3, .L95+8
 2248 01f8 0093     		str	r3, [sp]
 2249 01fa 4FF4DE73 		mov	r3, #444
 2250 01fe 3B4A     		ldr	r2, .L95+12
 2251 0200 3B49     		ldr	r1, .L95+16
 2252 0202 3C48     		ldr	r0, .L95+20
 2253 0204 FFF7FEFF 		bl	hal_mcu_trace_print
 2254              		.loc 1 444 5 discriminator 3
 2255 0208 3B48     		ldr	r0, .L95+24
 2256 020a FFF7FEFF 		bl	hal_mcu_trace_print
 2257              	.L88:
ARM GAS  C:\msys64\tmp\ccwHIjYg.s 			page 59


 2258              	.LBE19:
 445:../../../../lr11xx/common/apps_common.c **** 
 446:../../../../lr11xx/common/apps_common.c ****     if( PACKET_TYPE == LR11XX_RADIO_PKT_TYPE_LORA )
 447:../../../../lr11xx/common/apps_common.c ****     {
 448:../../../../lr11xx/common/apps_common.c ****         print_lora_configuration( );
 2259              		.loc 1 448 9 is_stmt 1
 2260 020e FFF7FEFF 		bl	print_lora_configuration
 449:../../../../lr11xx/common/apps_common.c **** 
 450:../../../../lr11xx/common/apps_common.c ****         lora_mod_params.ldro = apps_common_compute_lora_ldro( LORA_SPREADING_FACTOR, LORA_BANDWIDTH
 2261              		.loc 1 450 32
 2262 0212 0421     		movs	r1, #4
 2263 0214 0A20     		movs	r0, #10
 2264 0216 FFF7FEFF 		bl	apps_common_compute_lora_ldro
 2265 021a 0346     		mov	r3, r0
 2266 021c 1A46     		mov	r2, r3
 2267              		.loc 1 450 30 discriminator 1
 2268 021e 394B     		ldr	r3, .L95+36
 2269 0220 DA70     		strb	r2, [r3, #3]
 2270              	.LBB20:
 451:../../../../lr11xx/common/apps_common.c ****         ASSERT_LR11XX_RC( lr11xx_radio_set_lora_mod_params( context, &lora_mod_params ) );
 2271              		.loc 1 451 9
 2272 0222 3849     		ldr	r1, .L95+36
 2273 0224 7868     		ldr	r0, [r7, #4]
 2274 0226 FFF7FEFF 		bl	lr11xx_radio_set_lora_mod_params
 2275 022a 0346     		mov	r3, r0
 2276 022c 3B75     		strb	r3, [r7, #20]
 2277              		.loc 1 451 9 is_stmt 0 discriminator 1
 2278 022e 3B7D     		ldrb	r3, [r7, #20]	@ zero_extendqisi2
 2279 0230 002B     		cmp	r3, #0
 2280 0232 14D0     		beq	.L89
 2281 0234 3B7D     		ldrb	r3, [r7, #20]	@ zero_extendqisi2
 2282 0236 032B     		cmp	r3, #3
 2283 0238 11D1     		bne	.L89
 2284              		.loc 1 451 9 discriminator 2
 2285 023a 2948     		ldr	r0, .L95
 2286 023c FFF7FEFF 		bl	hal_mcu_trace_print
 2287              		.loc 1 451 9 discriminator 1
 2288 0240 2848     		ldr	r0, .L95+4
 2289 0242 FFF7FEFF 		bl	hal_mcu_trace_print
 2290              		.loc 1 451 9 discriminator 2
 2291 0246 284B     		ldr	r3, .L95+8
 2292 0248 0093     		str	r3, [sp]
 2293 024a 40F2C313 		movw	r3, #451
 2294 024e 274A     		ldr	r2, .L95+12
 2295 0250 2749     		ldr	r1, .L95+16
 2296 0252 2848     		ldr	r0, .L95+20
 2297 0254 FFF7FEFF 		bl	hal_mcu_trace_print
 2298              		.loc 1 451 9 discriminator 3
 2299 0258 2748     		ldr	r0, .L95+24
 2300 025a FFF7FEFF 		bl	hal_mcu_trace_print
 2301              	.L89:
 2302              	.LBE20:
 2303              	.LBB21:
 452:../../../../lr11xx/common/apps_common.c ****         ASSERT_LR11XX_RC( lr11xx_radio_set_lora_pkt_params( context, &lora_pkt_params ) );
 2304              		.loc 1 452 9 is_stmt 1
 2305 025e 2A49     		ldr	r1, .L95+40
 2306 0260 7868     		ldr	r0, [r7, #4]
ARM GAS  C:\msys64\tmp\ccwHIjYg.s 			page 60


 2307 0262 FFF7FEFF 		bl	lr11xx_radio_set_lora_pkt_params
 2308 0266 0346     		mov	r3, r0
 2309 0268 FB74     		strb	r3, [r7, #19]
 2310              		.loc 1 452 9 is_stmt 0 discriminator 1
 2311 026a FB7C     		ldrb	r3, [r7, #19]	@ zero_extendqisi2
 2312 026c 002B     		cmp	r3, #0
 2313 026e 14D0     		beq	.L90
 2314 0270 FB7C     		ldrb	r3, [r7, #19]	@ zero_extendqisi2
 2315 0272 032B     		cmp	r3, #3
 2316 0274 11D1     		bne	.L90
 2317              		.loc 1 452 9 discriminator 2
 2318 0276 1A48     		ldr	r0, .L95
 2319 0278 FFF7FEFF 		bl	hal_mcu_trace_print
 2320              		.loc 1 452 9 discriminator 1
 2321 027c 1948     		ldr	r0, .L95+4
 2322 027e FFF7FEFF 		bl	hal_mcu_trace_print
 2323              		.loc 1 452 9 discriminator 2
 2324 0282 194B     		ldr	r3, .L95+8
 2325 0284 0093     		str	r3, [sp]
 2326 0286 4FF4E273 		mov	r3, #452
 2327 028a 184A     		ldr	r2, .L95+12
 2328 028c 1849     		ldr	r1, .L95+16
 2329 028e 1948     		ldr	r0, .L95+20
 2330 0290 FFF7FEFF 		bl	hal_mcu_trace_print
 2331              		.loc 1 452 9 discriminator 3
 2332 0294 1848     		ldr	r0, .L95+24
 2333 0296 FFF7FEFF 		bl	hal_mcu_trace_print
 2334              	.L90:
 2335              	.LBE21:
 2336              	.LBB22:
 453:../../../../lr11xx/common/apps_common.c ****         ASSERT_LR11XX_RC( lr11xx_radio_set_lora_sync_word( context, LORA_SYNCWORD ) );
 2337              		.loc 1 453 9 is_stmt 1
 2338 029a 1221     		movs	r1, #18
 2339 029c 7868     		ldr	r0, [r7, #4]
 2340 029e FFF7FEFF 		bl	lr11xx_radio_set_lora_sync_word
 2341 02a2 0346     		mov	r3, r0
 2342 02a4 BB74     		strb	r3, [r7, #18]
 2343              		.loc 1 453 9 is_stmt 0 discriminator 1
 2344 02a6 BB7C     		ldrb	r3, [r7, #18]	@ zero_extendqisi2
 2345 02a8 002B     		cmp	r3, #0
 2346 02aa 14D0     		beq	.L92
 2347 02ac BB7C     		ldrb	r3, [r7, #18]	@ zero_extendqisi2
 2348 02ae 032B     		cmp	r3, #3
 2349 02b0 11D1     		bne	.L92
 2350              		.loc 1 453 9 discriminator 2
 2351 02b2 0B48     		ldr	r0, .L95
 2352 02b4 FFF7FEFF 		bl	hal_mcu_trace_print
 2353              		.loc 1 453 9 discriminator 1
 2354 02b8 0A48     		ldr	r0, .L95+4
 2355 02ba FFF7FEFF 		bl	hal_mcu_trace_print
 2356              		.loc 1 453 9 discriminator 2
 2357 02be 0A4B     		ldr	r3, .L95+8
 2358 02c0 0093     		str	r3, [sp]
 2359 02c2 40F2C513 		movw	r3, #453
 2360 02c6 094A     		ldr	r2, .L95+12
 2361 02c8 0949     		ldr	r1, .L95+16
 2362 02ca 0A48     		ldr	r0, .L95+20
ARM GAS  C:\msys64\tmp\ccwHIjYg.s 			page 61


 2363 02cc FFF7FEFF 		bl	hal_mcu_trace_print
 2364              		.loc 1 453 9 discriminator 3
 2365 02d0 0948     		ldr	r0, .L95+24
 2366 02d2 FFF7FEFF 		bl	hal_mcu_trace_print
 2367              	.L92:
 2368              	.LBE22:
 454:../../../../lr11xx/common/apps_common.c ****     }
 455:../../../../lr11xx/common/apps_common.c ****     else if( PACKET_TYPE == LR11XX_RADIO_PKT_TYPE_GFSK )
 456:../../../../lr11xx/common/apps_common.c ****     {
 457:../../../../lr11xx/common/apps_common.c ****         print_gfsk_configuration( );
 458:../../../../lr11xx/common/apps_common.c **** 
 459:../../../../lr11xx/common/apps_common.c ****         ASSERT_LR11XX_RC( lr11xx_radio_set_gfsk_mod_params( context, &gfsk_mod_params ) );
 460:../../../../lr11xx/common/apps_common.c ****         ASSERT_LR11XX_RC( lr11xx_radio_set_gfsk_pkt_params( context, &gfsk_pkt_params ) );
 461:../../../../lr11xx/common/apps_common.c ****         ASSERT_LR11XX_RC( lr11xx_radio_set_gfsk_sync_word( context, gfsk_sync_word ) );
 462:../../../../lr11xx/common/apps_common.c **** 
 463:../../../../lr11xx/common/apps_common.c ****         if( FSK_DC_FREE != LR11XX_RADIO_GFSK_DC_FREE_OFF )
 464:../../../../lr11xx/common/apps_common.c ****         {
 465:../../../../lr11xx/common/apps_common.c ****             ASSERT_LR11XX_RC( lr11xx_radio_set_gfsk_whitening_seed( context, FSK_WHITENING_SEED ) )
 466:../../../../lr11xx/common/apps_common.c ****         }
 467:../../../../lr11xx/common/apps_common.c **** 
 468:../../../../lr11xx/common/apps_common.c ****         if( FSK_CRC_TYPE != LR11XX_RADIO_GFSK_CRC_OFF )
 469:../../../../lr11xx/common/apps_common.c ****         {
 470:../../../../lr11xx/common/apps_common.c ****             ASSERT_LR11XX_RC( lr11xx_radio_set_gfsk_crc_params( context, FSK_CRC_SEED, FSK_CRC_POLY
 471:../../../../lr11xx/common/apps_common.c ****         }
 472:../../../../lr11xx/common/apps_common.c **** 
 473:../../../../lr11xx/common/apps_common.c ****         if( FSK_ADDRESS_FILTERING != LR11XX_RADIO_GFSK_ADDRESS_FILTERING_DISABLE )
 474:../../../../lr11xx/common/apps_common.c ****         {
 475:../../../../lr11xx/common/apps_common.c ****             ASSERT_LR11XX_RC( lr11xx_radio_set_pkt_address( context, FSK_NODE_ADDRESS, FSK_BROADCAS
 476:../../../../lr11xx/common/apps_common.c ****         }
 477:../../../../lr11xx/common/apps_common.c ****     }
 478:../../../../lr11xx/common/apps_common.c ****     else if( PACKET_TYPE == LR11XX_RADIO_PKT_TYPE_LR_FHSS )
 479:../../../../lr11xx/common/apps_common.c ****     {
 480:../../../../lr11xx/common/apps_common.c ****         const lr11xx_radio_mod_params_lr_fhss_t mod_lr_fhss = {
 481:../../../../lr11xx/common/apps_common.c ****             .br_in_bps   = LR11XX_RADIO_LR_FHSS_BITRATE_488_BPS,
 482:../../../../lr11xx/common/apps_common.c ****             .pulse_shape = LR11XX_RADIO_LR_FHSS_PULSE_SHAPE_BT_1,
 483:../../../../lr11xx/common/apps_common.c ****         };
 484:../../../../lr11xx/common/apps_common.c **** 
 485:../../../../lr11xx/common/apps_common.c ****         ASSERT_LR11XX_RC( lr11xx_radio_set_lr_fhss_mod_params( context, &mod_lr_fhss ) );
 486:../../../../lr11xx/common/apps_common.c ****     }
 487:../../../../lr11xx/common/apps_common.c **** }
 2369              		.loc 1 487 1 is_stmt 1
 2370 02d6 00BF     		nop
 2371 02d8 2037     		adds	r7, r7, #32
 2372              	.LCFI86:
 2373              		.cfi_def_cfa_offset 8
 2374 02da BD46     		mov	sp, r7
 2375              	.LCFI87:
 2376              		.cfi_def_cfa_register 13
 2377              		@ sp needed
 2378 02dc 80BD     		pop	{r7, pc}
 2379              	.L96:
 2380 02de 00BF     		.align	2
 2381              	.L95:
 2382 02e0 00000000 		.word	.LC1
 2383 02e4 08000000 		.word	.LC2
 2384 02e8 54000000 		.word	.LC5
 2385 02ec 00000000 		.word	__func__.2
ARM GAS  C:\msys64\tmp\ccwHIjYg.s 			page 62


 2386 02f0 10000000 		.word	.LC3
 2387 02f4 38000000 		.word	.LC4
 2388 02f8 68000000 		.word	.LC6
 2389 02fc 80CE341D 		.word	490000000
 2390 0300 00000000 		.word	shield
 2391 0304 00000000 		.word	lora_mod_params
 2392 0308 00000000 		.word	lora_pkt_params
 2393              		.cfi_endproc
 2394              	.LFE259:
 2396              		.section	.rodata
 2397 020d 000000   		.align	2
 2398              	.LC20:
 2399 0210 53696766 		.ascii	"Sigfox parameters:\012\000"
 2399      6F782070 
 2399      6172616D 
 2399      65746572 
 2399      733A0A00 
 2400              		.align	2
 2401              	.LC21:
 2402 0224 20202050 		.ascii	"   Packet type   = %s\012\000"
 2402      61636B65 
 2402      74207479 
 2402      70652020 
 2402      203D2025 
 2403 023b 00       		.align	2
 2404              	.LC22:
 2405 023c 20202052 		.ascii	"   RF frequency  = %u Hz\012\000"
 2405      46206672 
 2405      65717565 
 2405      6E637920 
 2405      203D2025 
 2406 0256 0000     		.align	2
 2407              	.LC23:
 2408 0258 2020204F 		.ascii	"   Output power  = %i dBm\012\000"
 2408      75747075 
 2408      7420706F 
 2408      77657220 
 2408      203D2025 
 2409              		.section	.text.apps_common_lr11xx_radio_dbpsk_init,"ax",%progbits
 2410              		.align	1
 2411              		.global	apps_common_lr11xx_radio_dbpsk_init
 2412              		.syntax unified
 2413              		.thumb
 2414              		.thumb_func
 2416              	apps_common_lr11xx_radio_dbpsk_init:
 2417              	.LFB260:
 488:../../../../lr11xx/common/apps_common.c **** 
 489:../../../../lr11xx/common/apps_common.c **** void apps_common_lr11xx_radio_dbpsk_init( const void* context, const uint8_t payload_len )
 490:../../../../lr11xx/common/apps_common.c **** {
 2418              		.loc 1 490 1
 2419              		.cfi_startproc
 2420              		@ args = 0, pretend = 0, frame = 24
 2421              		@ frame_needed = 1, uses_anonymous_args = 0
 2422 0000 80B5     		push	{r7, lr}
 2423              	.LCFI88:
 2424              		.cfi_def_cfa_offset 8
 2425              		.cfi_offset 7, -8
ARM GAS  C:\msys64\tmp\ccwHIjYg.s 			page 63


 2426              		.cfi_offset 14, -4
 2427 0002 88B0     		sub	sp, sp, #32
 2428              	.LCFI89:
 2429              		.cfi_def_cfa_offset 40
 2430 0004 02AF     		add	r7, sp, #8
 2431              	.LCFI90:
 2432              		.cfi_def_cfa 7, 32
 2433 0006 7860     		str	r0, [r7, #4]
 2434 0008 0B46     		mov	r3, r1
 2435 000a FB70     		strb	r3, [r7, #3]
 491:../../../../lr11xx/common/apps_common.c ****     const smtc_shield_lr11xx_pa_pwr_cfg_t* pa_pwr_cfg =
 492:../../../../lr11xx/common/apps_common.c ****         smtc_shield_lr11xx_get_pa_pwr_cfg( &shield, SIGFOX_UPLINK_RF_FREQ_IN_HZ, SIGFOX_TX_OUTPUT_P
 2436              		.loc 1 492 9
 2437 000c 0E22     		movs	r2, #14
 2438 000e 9349     		ldr	r1, .L107
 2439 0010 9348     		ldr	r0, .L107+4
 2440 0012 FFF7FEFF 		bl	smtc_shield_lr11xx_get_pa_pwr_cfg
 2441 0016 7861     		str	r0, [r7, #20]
 493:../../../../lr11xx/common/apps_common.c **** 
 494:../../../../lr11xx/common/apps_common.c ****     if( pa_pwr_cfg == NULL )
 2442              		.loc 1 494 7
 2443 0018 7B69     		ldr	r3, [r7, #20]
 2444 001a 002B     		cmp	r3, #0
 2445 001c 0DD1     		bne	.L98
 495:../../../../lr11xx/common/apps_common.c ****     {
 496:../../../../lr11xx/common/apps_common.c ****         HAL_DBG_TRACE_ERROR( "Invalid target frequency or power level\n" );
 2446              		.loc 1 496 9
 2447 001e 9148     		ldr	r0, .L107+8
 2448 0020 FFF7FEFF 		bl	hal_mcu_trace_print
 2449              		.loc 1 496 9 is_stmt 0 discriminator 1
 2450 0024 9048     		ldr	r0, .L107+12
 2451 0026 FFF7FEFF 		bl	hal_mcu_trace_print
 2452              		.loc 1 496 9 discriminator 2
 2453 002a 9048     		ldr	r0, .L107+16
 2454 002c FFF7FEFF 		bl	hal_mcu_trace_print
 2455              		.loc 1 496 9 discriminator 3
 2456 0030 8F48     		ldr	r0, .L107+20
 2457 0032 FFF7FEFF 		bl	hal_mcu_trace_print
 2458              	.L99:
 497:../../../../lr11xx/common/apps_common.c ****         while( true )
 2459              		.loc 1 497 14 is_stmt 1
 2460 0036 00BF     		nop
 2461 0038 FDE7     		b	.L99
 2462              	.L98:
 498:../../../../lr11xx/common/apps_common.c ****         {
 499:../../../../lr11xx/common/apps_common.c ****         }
 500:../../../../lr11xx/common/apps_common.c ****     }
 501:../../../../lr11xx/common/apps_common.c **** 
 502:../../../../lr11xx/common/apps_common.c ****     HAL_DBG_TRACE_INFO( "Sigfox parameters:\n" );
 2463              		.loc 1 502 5
 2464 003a 8E48     		ldr	r0, .L107+24
 2465 003c FFF7FEFF 		bl	hal_mcu_trace_print
 2466              		.loc 1 502 5 is_stmt 0 discriminator 1
 2467 0040 8D48     		ldr	r0, .L107+28
 2468 0042 FFF7FEFF 		bl	hal_mcu_trace_print
 2469              		.loc 1 502 5 discriminator 2
 2470 0046 8D48     		ldr	r0, .L107+32
ARM GAS  C:\msys64\tmp\ccwHIjYg.s 			page 64


 2471 0048 FFF7FEFF 		bl	hal_mcu_trace_print
 2472              		.loc 1 502 5 discriminator 3
 2473 004c 8848     		ldr	r0, .L107+20
 2474 004e FFF7FEFF 		bl	hal_mcu_trace_print
 503:../../../../lr11xx/common/apps_common.c ****     HAL_DBG_TRACE_INFO( "   Packet type   = %s\n", lr11xx_radio_pkt_type_to_str( LR11XX_RADIO_PKT_T
 2475              		.loc 1 503 5 is_stmt 1
 2476 0052 8848     		ldr	r0, .L107+24
 2477 0054 FFF7FEFF 		bl	hal_mcu_trace_print
 2478              		.loc 1 503 5 is_stmt 0 discriminator 1
 2479 0058 8748     		ldr	r0, .L107+28
 2480 005a FFF7FEFF 		bl	hal_mcu_trace_print
 2481              		.loc 1 503 5 discriminator 2
 2482 005e 0320     		movs	r0, #3
 2483 0060 FFF7FEFF 		bl	lr11xx_radio_pkt_type_to_str
 2484 0064 0346     		mov	r3, r0
 2485              		.loc 1 503 5 discriminator 3
 2486 0066 1946     		mov	r1, r3
 2487 0068 8548     		ldr	r0, .L107+36
 2488 006a FFF7FEFF 		bl	hal_mcu_trace_print
 2489              		.loc 1 503 5 discriminator 4
 2490 006e 8048     		ldr	r0, .L107+20
 2491 0070 FFF7FEFF 		bl	hal_mcu_trace_print
 504:../../../../lr11xx/common/apps_common.c ****     HAL_DBG_TRACE_INFO( "   RF frequency  = %u Hz\n", SIGFOX_UPLINK_RF_FREQ_IN_HZ );
 2492              		.loc 1 504 5 is_stmt 1
 2493 0074 7F48     		ldr	r0, .L107+24
 2494 0076 FFF7FEFF 		bl	hal_mcu_trace_print
 2495              		.loc 1 504 5 is_stmt 0 discriminator 1
 2496 007a 7F48     		ldr	r0, .L107+28
 2497 007c FFF7FEFF 		bl	hal_mcu_trace_print
 2498              		.loc 1 504 5 discriminator 2
 2499 0080 7649     		ldr	r1, .L107
 2500 0082 8048     		ldr	r0, .L107+40
 2501 0084 FFF7FEFF 		bl	hal_mcu_trace_print
 2502              		.loc 1 504 5 discriminator 3
 2503 0088 7948     		ldr	r0, .L107+20
 2504 008a FFF7FEFF 		bl	hal_mcu_trace_print
 505:../../../../lr11xx/common/apps_common.c ****     HAL_DBG_TRACE_INFO( "   Output power  = %i dBm\n", SIGFOX_TX_OUTPUT_POWER_DBM );
 2505              		.loc 1 505 5 is_stmt 1
 2506 008e 7948     		ldr	r0, .L107+24
 2507 0090 FFF7FEFF 		bl	hal_mcu_trace_print
 2508              		.loc 1 505 5 is_stmt 0 discriminator 1
 2509 0094 7848     		ldr	r0, .L107+28
 2510 0096 FFF7FEFF 		bl	hal_mcu_trace_print
 2511              		.loc 1 505 5 discriminator 2
 2512 009a 0E21     		movs	r1, #14
 2513 009c 7A48     		ldr	r0, .L107+44
 2514 009e FFF7FEFF 		bl	hal_mcu_trace_print
 2515              		.loc 1 505 5 discriminator 3
 2516 00a2 7348     		ldr	r0, .L107+20
 2517 00a4 FFF7FEFF 		bl	hal_mcu_trace_print
 2518              	.LBB23:
 506:../../../../lr11xx/common/apps_common.c **** 
 507:../../../../lr11xx/common/apps_common.c ****     ASSERT_LR11XX_RC( lr11xx_radio_set_pkt_type( context, LR11XX_RADIO_PKT_TYPE_BPSK ) );
 2519              		.loc 1 507 5 is_stmt 1
 2520 00a8 0321     		movs	r1, #3
 2521 00aa 7868     		ldr	r0, [r7, #4]
 2522 00ac FFF7FEFF 		bl	lr11xx_radio_set_pkt_type
ARM GAS  C:\msys64\tmp\ccwHIjYg.s 			page 65


 2523 00b0 0346     		mov	r3, r0
 2524 00b2 FB74     		strb	r3, [r7, #19]
 2525              		.loc 1 507 5 is_stmt 0 discriminator 1
 2526 00b4 FB7C     		ldrb	r3, [r7, #19]	@ zero_extendqisi2
 2527 00b6 002B     		cmp	r3, #0
 2528 00b8 14D0     		beq	.L100
 2529 00ba FB7C     		ldrb	r3, [r7, #19]	@ zero_extendqisi2
 2530 00bc 032B     		cmp	r3, #3
 2531 00be 11D1     		bne	.L100
 2532              		.loc 1 507 5 discriminator 2
 2533 00c0 6848     		ldr	r0, .L107+8
 2534 00c2 FFF7FEFF 		bl	hal_mcu_trace_print
 2535              		.loc 1 507 5 discriminator 1
 2536 00c6 6848     		ldr	r0, .L107+12
 2537 00c8 FFF7FEFF 		bl	hal_mcu_trace_print
 2538              		.loc 1 507 5 discriminator 2
 2539 00cc 6F4B     		ldr	r3, .L107+48
 2540 00ce 0093     		str	r3, [sp]
 2541 00d0 40F2FB13 		movw	r3, #507
 2542 00d4 6E4A     		ldr	r2, .L107+52
 2543 00d6 6F49     		ldr	r1, .L107+56
 2544 00d8 6F48     		ldr	r0, .L107+60
 2545 00da FFF7FEFF 		bl	hal_mcu_trace_print
 2546              		.loc 1 507 5 discriminator 3
 2547 00de 6448     		ldr	r0, .L107+20
 2548 00e0 FFF7FEFF 		bl	hal_mcu_trace_print
 2549              	.L100:
 2550              	.LBE23:
 2551              	.LBB24:
 508:../../../../lr11xx/common/apps_common.c ****     ASSERT_LR11XX_RC( lr11xx_radio_set_rf_freq( context, SIGFOX_UPLINK_RF_FREQ_IN_HZ ) );
 2552              		.loc 1 508 5 is_stmt 1
 2553 00e4 5D49     		ldr	r1, .L107
 2554 00e6 7868     		ldr	r0, [r7, #4]
 2555 00e8 FFF7FEFF 		bl	lr11xx_radio_set_rf_freq
 2556 00ec 0346     		mov	r3, r0
 2557 00ee BB74     		strb	r3, [r7, #18]
 2558              		.loc 1 508 5 is_stmt 0 discriminator 1
 2559 00f0 BB7C     		ldrb	r3, [r7, #18]	@ zero_extendqisi2
 2560 00f2 002B     		cmp	r3, #0
 2561 00f4 14D0     		beq	.L101
 2562 00f6 BB7C     		ldrb	r3, [r7, #18]	@ zero_extendqisi2
 2563 00f8 032B     		cmp	r3, #3
 2564 00fa 11D1     		bne	.L101
 2565              		.loc 1 508 5 discriminator 2
 2566 00fc 5948     		ldr	r0, .L107+8
 2567 00fe FFF7FEFF 		bl	hal_mcu_trace_print
 2568              		.loc 1 508 5 discriminator 1
 2569 0102 5948     		ldr	r0, .L107+12
 2570 0104 FFF7FEFF 		bl	hal_mcu_trace_print
 2571              		.loc 1 508 5 discriminator 2
 2572 0108 604B     		ldr	r3, .L107+48
 2573 010a 0093     		str	r3, [sp]
 2574 010c 4FF4FE73 		mov	r3, #508
 2575 0110 5F4A     		ldr	r2, .L107+52
 2576 0112 6049     		ldr	r1, .L107+56
 2577 0114 6048     		ldr	r0, .L107+60
 2578 0116 FFF7FEFF 		bl	hal_mcu_trace_print
ARM GAS  C:\msys64\tmp\ccwHIjYg.s 			page 66


 2579              		.loc 1 508 5 discriminator 3
 2580 011a 5548     		ldr	r0, .L107+20
 2581 011c FFF7FEFF 		bl	hal_mcu_trace_print
 2582              	.L101:
 2583              	.LBE24:
 2584              	.LBB25:
 509:../../../../lr11xx/common/apps_common.c ****     ASSERT_LR11XX_RC( lr11xx_radio_set_rssi_calibration(
 2585              		.loc 1 509 5 is_stmt 1
 2586 0120 4E49     		ldr	r1, .L107
 2587 0122 4F48     		ldr	r0, .L107+4
 2588 0124 FFF7FEFF 		bl	smtc_shield_lr11xx_get_rssi_calibration_table
 2589 0128 0346     		mov	r3, r0
 2590              		.loc 1 509 5 is_stmt 0 discriminator 1
 2591 012a 1946     		mov	r1, r3
 2592 012c 7868     		ldr	r0, [r7, #4]
 2593 012e FFF7FEFF 		bl	lr11xx_radio_set_rssi_calibration
 2594 0132 0346     		mov	r3, r0
 2595 0134 7B74     		strb	r3, [r7, #17]
 2596              		.loc 1 509 5 discriminator 2
 2597 0136 7B7C     		ldrb	r3, [r7, #17]	@ zero_extendqisi2
 2598 0138 002B     		cmp	r3, #0
 2599 013a 14D0     		beq	.L102
 2600              		.loc 1 509 5 discriminator 1
 2601 013c 7B7C     		ldrb	r3, [r7, #17]	@ zero_extendqisi2
 2602 013e 032B     		cmp	r3, #3
 2603 0140 11D1     		bne	.L102
 2604              		.loc 1 509 5 discriminator 2
 2605 0142 4848     		ldr	r0, .L107+8
 2606 0144 FFF7FEFF 		bl	hal_mcu_trace_print
 2607              		.loc 1 509 5 discriminator 1
 2608 0148 4748     		ldr	r0, .L107+12
 2609 014a FFF7FEFF 		bl	hal_mcu_trace_print
 2610              		.loc 1 509 5 discriminator 2
 2611 014e 4F4B     		ldr	r3, .L107+48
 2612 0150 0093     		str	r3, [sp]
 2613 0152 40F2FD13 		movw	r3, #509
 2614 0156 4E4A     		ldr	r2, .L107+52
 2615 0158 4E49     		ldr	r1, .L107+56
 2616 015a 4F48     		ldr	r0, .L107+60
 2617 015c FFF7FEFF 		bl	hal_mcu_trace_print
 2618              		.loc 1 509 5 discriminator 3
 2619 0160 4348     		ldr	r0, .L107+20
 2620 0162 FFF7FEFF 		bl	hal_mcu_trace_print
 2621              	.L102:
 2622              	.LBE25:
 2623              	.LBB26:
 510:../../../../lr11xx/common/apps_common.c ****         context, smtc_shield_lr11xx_get_rssi_calibration_table( &shield, SIGFOX_UPLINK_RF_FREQ_IN_H
 511:../../../../lr11xx/common/apps_common.c ****     ASSERT_LR11XX_RC( lr11xx_radio_set_pa_cfg( context, &( pa_pwr_cfg->pa_config ) ) );
 2624              		.loc 1 511 5 is_stmt 1
 2625 0166 7B69     		ldr	r3, [r7, #20]
 2626 0168 0133     		adds	r3, r3, #1
 2627 016a 1946     		mov	r1, r3
 2628 016c 7868     		ldr	r0, [r7, #4]
 2629 016e FFF7FEFF 		bl	lr11xx_radio_set_pa_cfg
 2630 0172 0346     		mov	r3, r0
 2631 0174 3B74     		strb	r3, [r7, #16]
 2632              		.loc 1 511 5 is_stmt 0 discriminator 1
ARM GAS  C:\msys64\tmp\ccwHIjYg.s 			page 67


 2633 0176 3B7C     		ldrb	r3, [r7, #16]	@ zero_extendqisi2
 2634 0178 002B     		cmp	r3, #0
 2635 017a 14D0     		beq	.L103
 2636 017c 3B7C     		ldrb	r3, [r7, #16]	@ zero_extendqisi2
 2637 017e 032B     		cmp	r3, #3
 2638 0180 11D1     		bne	.L103
 2639              		.loc 1 511 5 discriminator 2
 2640 0182 3848     		ldr	r0, .L107+8
 2641 0184 FFF7FEFF 		bl	hal_mcu_trace_print
 2642              		.loc 1 511 5 discriminator 1
 2643 0188 3748     		ldr	r0, .L107+12
 2644 018a FFF7FEFF 		bl	hal_mcu_trace_print
 2645              		.loc 1 511 5 discriminator 2
 2646 018e 3F4B     		ldr	r3, .L107+48
 2647 0190 0093     		str	r3, [sp]
 2648 0192 40F2FF13 		movw	r3, #511
 2649 0196 3E4A     		ldr	r2, .L107+52
 2650 0198 3E49     		ldr	r1, .L107+56
 2651 019a 3F48     		ldr	r0, .L107+60
 2652 019c FFF7FEFF 		bl	hal_mcu_trace_print
 2653              		.loc 1 511 5 discriminator 3
 2654 01a0 3348     		ldr	r0, .L107+20
 2655 01a2 FFF7FEFF 		bl	hal_mcu_trace_print
 2656              	.L103:
 2657              	.LBE26:
 2658              	.LBB27:
 512:../../../../lr11xx/common/apps_common.c **** 
 513:../../../../lr11xx/common/apps_common.c ****     ASSERT_LR11XX_RC( lr11xx_radio_set_bpsk_mod_params( context, &bpsk_mod_params ) );
 2659              		.loc 1 513 5 is_stmt 1
 2660 01a6 3D49     		ldr	r1, .L107+64
 2661 01a8 7868     		ldr	r0, [r7, #4]
 2662 01aa FFF7FEFF 		bl	lr11xx_radio_set_bpsk_mod_params
 2663 01ae 0346     		mov	r3, r0
 2664 01b0 FB73     		strb	r3, [r7, #15]
 2665              		.loc 1 513 5 is_stmt 0 discriminator 1
 2666 01b2 FB7B     		ldrb	r3, [r7, #15]	@ zero_extendqisi2
 2667 01b4 002B     		cmp	r3, #0
 2668 01b6 14D0     		beq	.L104
 2669 01b8 FB7B     		ldrb	r3, [r7, #15]	@ zero_extendqisi2
 2670 01ba 032B     		cmp	r3, #3
 2671 01bc 11D1     		bne	.L104
 2672              		.loc 1 513 5 discriminator 2
 2673 01be 2948     		ldr	r0, .L107+8
 2674 01c0 FFF7FEFF 		bl	hal_mcu_trace_print
 2675              		.loc 1 513 5 discriminator 1
 2676 01c4 2848     		ldr	r0, .L107+12
 2677 01c6 FFF7FEFF 		bl	hal_mcu_trace_print
 2678              		.loc 1 513 5 discriminator 2
 2679 01ca 304B     		ldr	r3, .L107+48
 2680 01cc 0093     		str	r3, [sp]
 2681 01ce 40F20123 		movw	r3, #513
 2682 01d2 2F4A     		ldr	r2, .L107+52
 2683 01d4 2F49     		ldr	r1, .L107+56
 2684 01d6 3048     		ldr	r0, .L107+60
 2685 01d8 FFF7FEFF 		bl	hal_mcu_trace_print
 2686              		.loc 1 513 5 discriminator 3
 2687 01dc 2448     		ldr	r0, .L107+20
ARM GAS  C:\msys64\tmp\ccwHIjYg.s 			page 68


 2688 01de FFF7FEFF 		bl	hal_mcu_trace_print
 2689              	.L104:
 2690              	.LBE27:
 514:../../../../lr11xx/common/apps_common.c **** 
 515:../../../../lr11xx/common/apps_common.c ****     bpsk_pkt_params.pld_len_in_bytes = smtc_dbpsk_get_pld_len_in_bytes( payload_len << 3 );
 2691              		.loc 1 515 40 is_stmt 1
 2692 01e2 FB78     		ldrb	r3, [r7, #3]	@ zero_extendqisi2
 2693 01e4 DB00     		lsls	r3, r3, #3
 2694 01e6 1846     		mov	r0, r3
 2695 01e8 FFF7FEFF 		bl	smtc_dbpsk_get_pld_len_in_bytes
 2696 01ec 0346     		mov	r3, r0
 2697              		.loc 1 515 38 discriminator 1
 2698 01ee DAB2     		uxtb	r2, r3
 2699 01f0 2B4B     		ldr	r3, .L107+68
 2700 01f2 1A70     		strb	r2, [r3]
 516:../../../../lr11xx/common/apps_common.c ****     bpsk_pkt_params.pld_len_in_bits  = smtc_dbpsk_get_pld_len_in_bits( payload_len << 3 );
 2701              		.loc 1 516 40
 2702 01f4 FB78     		ldrb	r3, [r7, #3]	@ zero_extendqisi2
 2703 01f6 DB00     		lsls	r3, r3, #3
 2704 01f8 1846     		mov	r0, r3
 2705 01fa FFF7FEFF 		bl	smtc_dbpsk_get_pld_len_in_bits
 2706 01fe 0346     		mov	r3, r0
 2707              		.loc 1 516 38 discriminator 1
 2708 0200 9AB2     		uxth	r2, r3
 2709 0202 274B     		ldr	r3, .L107+68
 2710 0204 DA80     		strh	r2, [r3, #6]	@ movhi
 517:../../../../lr11xx/common/apps_common.c **** 
 518:../../../../lr11xx/common/apps_common.c ****     if( BPSK_BITRATE_IN_BPS == 100 )
 519:../../../../lr11xx/common/apps_common.c ****     {
 520:../../../../lr11xx/common/apps_common.c ****         bpsk_pkt_params.ramp_up_delay   = LR11XX_RADIO_SIGFOX_DBPSK_RAMP_UP_TIME_100_BPS;
 2711              		.loc 1 520 41
 2712 0206 264B     		ldr	r3, .L107+68
 2713 0208 41F20632 		movw	r2, #4870
 2714 020c 5A80     		strh	r2, [r3, #2]	@ movhi
 521:../../../../lr11xx/common/apps_common.c ****         bpsk_pkt_params.ramp_down_delay = LR11XX_RADIO_SIGFOX_DBPSK_RAMP_DOWN_TIME_100_BPS;
 2715              		.loc 1 521 41
 2716 020e 244B     		ldr	r3, .L107+68
 2717 0210 41F67052 		movw	r2, #7536
 2718 0214 9A80     		strh	r2, [r3, #4]	@ movhi
 2719              	.LBB28:
 522:../../../../lr11xx/common/apps_common.c ****     }
 523:../../../../lr11xx/common/apps_common.c ****     else if( BPSK_BITRATE_IN_BPS == 600 )
 524:../../../../lr11xx/common/apps_common.c ****     {
 525:../../../../lr11xx/common/apps_common.c ****         bpsk_pkt_params.ramp_up_delay   = LR11XX_RADIO_SIGFOX_DBPSK_RAMP_UP_TIME_600_BPS;
 526:../../../../lr11xx/common/apps_common.c ****         bpsk_pkt_params.ramp_down_delay = LR11XX_RADIO_SIGFOX_DBPSK_RAMP_DOWN_TIME_600_BPS;
 527:../../../../lr11xx/common/apps_common.c ****     }
 528:../../../../lr11xx/common/apps_common.c ****     else
 529:../../../../lr11xx/common/apps_common.c ****     {
 530:../../../../lr11xx/common/apps_common.c ****         bpsk_pkt_params.ramp_up_delay   = LR11XX_RADIO_SIGFOX_DBPSK_RAMP_UP_TIME_DEFAULT;
 531:../../../../lr11xx/common/apps_common.c ****         bpsk_pkt_params.ramp_down_delay = LR11XX_RADIO_SIGFOX_DBPSK_RAMP_DOWN_TIME_DEFAULT;
 532:../../../../lr11xx/common/apps_common.c ****     }
 533:../../../../lr11xx/common/apps_common.c **** 
 534:../../../../lr11xx/common/apps_common.c ****     ASSERT_LR11XX_RC( lr11xx_radio_set_bpsk_pkt_params( context, &bpsk_pkt_params ) );
 2720              		.loc 1 534 5
 2721 0216 2249     		ldr	r1, .L107+68
 2722 0218 7868     		ldr	r0, [r7, #4]
 2723 021a FFF7FEFF 		bl	lr11xx_radio_set_bpsk_pkt_params
ARM GAS  C:\msys64\tmp\ccwHIjYg.s 			page 69


 2724 021e 0346     		mov	r3, r0
 2725 0220 BB73     		strb	r3, [r7, #14]
 2726              		.loc 1 534 5 is_stmt 0 discriminator 1
 2727 0222 BB7B     		ldrb	r3, [r7, #14]	@ zero_extendqisi2
 2728 0224 002B     		cmp	r3, #0
 2729 0226 14D0     		beq	.L106
 2730 0228 BB7B     		ldrb	r3, [r7, #14]	@ zero_extendqisi2
 2731 022a 032B     		cmp	r3, #3
 2732 022c 11D1     		bne	.L106
 2733              		.loc 1 534 5 discriminator 2
 2734 022e 0D48     		ldr	r0, .L107+8
 2735 0230 FFF7FEFF 		bl	hal_mcu_trace_print
 2736              		.loc 1 534 5 discriminator 1
 2737 0234 0C48     		ldr	r0, .L107+12
 2738 0236 FFF7FEFF 		bl	hal_mcu_trace_print
 2739              		.loc 1 534 5 discriminator 2
 2740 023a 144B     		ldr	r3, .L107+48
 2741 023c 0093     		str	r3, [sp]
 2742 023e 40F21623 		movw	r3, #534
 2743 0242 134A     		ldr	r2, .L107+52
 2744 0244 1349     		ldr	r1, .L107+56
 2745 0246 1448     		ldr	r0, .L107+60
 2746 0248 FFF7FEFF 		bl	hal_mcu_trace_print
 2747              		.loc 1 534 5 discriminator 3
 2748 024c 0848     		ldr	r0, .L107+20
 2749 024e FFF7FEFF 		bl	hal_mcu_trace_print
 2750              	.L106:
 2751              	.LBE28:
 535:../../../../lr11xx/common/apps_common.c **** }
 2752              		.loc 1 535 1 is_stmt 1
 2753 0252 00BF     		nop
 2754 0254 1837     		adds	r7, r7, #24
 2755              	.LCFI91:
 2756              		.cfi_def_cfa_offset 8
 2757 0256 BD46     		mov	sp, r7
 2758              	.LCFI92:
 2759              		.cfi_def_cfa_register 13
 2760              		@ sp needed
 2761 0258 80BD     		pop	{r7, pc}
 2762              	.L108:
 2763 025a 00BF     		.align	2
 2764              	.L107:
 2765 025c D09CBE33 		.word	868130000
 2766 0260 00000000 		.word	shield
 2767 0264 00000000 		.word	.LC1
 2768 0268 08000000 		.word	.LC2
 2769 026c E4010000 		.word	.LC19
 2770 0270 68000000 		.word	.LC6
 2771 0274 70000000 		.word	.LC7
 2772 0278 78000000 		.word	.LC8
 2773 027c 10020000 		.word	.LC20
 2774 0280 24020000 		.word	.LC21
 2775 0284 3C020000 		.word	.LC22
 2776 0288 58020000 		.word	.LC23
 2777 028c 54000000 		.word	.LC5
 2778 0290 00000000 		.word	__func__.1
 2779 0294 10000000 		.word	.LC3
ARM GAS  C:\msys64\tmp\ccwHIjYg.s 			page 70


 2780 0298 38000000 		.word	.LC4
 2781 029c 00000000 		.word	bpsk_mod_params
 2782 02a0 00000000 		.word	bpsk_pkt_params
 2783              		.cfi_endproc
 2784              	.LFE260:
 2786              		.section	.rodata
 2787 0273 00       		.align	2
 2788              	.LC24:
 2789 0274 5254546F 		.ascii	"RTTof delay : %d\012\000"
 2789      66206465 
 2789      6C617920 
 2789      3A202564 
 2789      0A00
 2790 0286 0000     		.align	2
 2791              	.LC25:
 2792 0288 4661696C 		.ascii	"Failed to get RTToF delay indicator\012\000"
 2792      65642074 
 2792      6F206765 
 2792      74205254 
 2792      546F4620 
 2793              		.section	.text.apps_common_lr11xx_radio_rttof_init,"ax",%progbits
 2794              		.align	1
 2795              		.global	apps_common_lr11xx_radio_rttof_init
 2796              		.syntax unified
 2797              		.thumb
 2798              		.thumb_func
 2800              	apps_common_lr11xx_radio_rttof_init:
 2801              	.LFB261:
 536:../../../../lr11xx/common/apps_common.c **** 
 537:../../../../lr11xx/common/apps_common.c **** void apps_common_lr11xx_radio_rttof_init( const void* context )
 538:../../../../lr11xx/common/apps_common.c **** {
 2802              		.loc 1 538 1
 2803              		.cfi_startproc
 2804              		@ args = 0, pretend = 0, frame = 32
 2805              		@ frame_needed = 1, uses_anonymous_args = 0
 2806 0000 80B5     		push	{r7, lr}
 2807              	.LCFI93:
 2808              		.cfi_def_cfa_offset 8
 2809              		.cfi_offset 7, -8
 2810              		.cfi_offset 14, -4
 2811 0002 8AB0     		sub	sp, sp, #40
 2812              	.LCFI94:
 2813              		.cfi_def_cfa_offset 48
 2814 0004 02AF     		add	r7, sp, #8
 2815              	.LCFI95:
 2816              		.cfi_def_cfa 7, 40
 2817 0006 7860     		str	r0, [r7, #4]
 539:../../../../lr11xx/common/apps_common.c ****     const smtc_shield_lr11xx_pa_pwr_cfg_t* pa_pwr_cfg =
 540:../../../../lr11xx/common/apps_common.c ****         smtc_shield_lr11xx_get_pa_pwr_cfg( &shield, RF_FREQ_IN_HZ, TX_OUTPUT_POWER_DBM );
 2818              		.loc 1 540 9
 2819 0008 6FF00E02 		mvn	r2, #14
 2820 000c 0A49     		ldr	r1, .L126
 2821 000e 0B48     		ldr	r0, .L126+4
 2822 0010 FFF7FEFF 		bl	smtc_shield_lr11xx_get_pa_pwr_cfg
 2823 0014 F861     		str	r0, [r7, #28]
 541:../../../../lr11xx/common/apps_common.c **** 
 542:../../../../lr11xx/common/apps_common.c ****     if( pa_pwr_cfg == NULL )
ARM GAS  C:\msys64\tmp\ccwHIjYg.s 			page 71


 2824              		.loc 1 542 7
 2825 0016 FB69     		ldr	r3, [r7, #28]
 2826 0018 002B     		cmp	r3, #0
 2827 001a 19D1     		bne	.L110
 543:../../../../lr11xx/common/apps_common.c ****     {
 544:../../../../lr11xx/common/apps_common.c ****         HAL_DBG_TRACE_ERROR( "Invalid target frequency or power level\n" );
 2828              		.loc 1 544 9
 2829 001c 0848     		ldr	r0, .L126+8
 2830 001e FFF7FEFF 		bl	hal_mcu_trace_print
 2831              		.loc 1 544 9 is_stmt 0 discriminator 1
 2832 0022 0848     		ldr	r0, .L126+12
 2833 0024 FFF7FEFF 		bl	hal_mcu_trace_print
 2834              		.loc 1 544 9 discriminator 2
 2835 0028 0748     		ldr	r0, .L126+16
 2836 002a FFF7FEFF 		bl	hal_mcu_trace_print
 2837              		.loc 1 544 9 discriminator 3
 2838 002e 0748     		ldr	r0, .L126+20
 2839 0030 FFF7FEFF 		bl	hal_mcu_trace_print
 2840              	.L111:
 545:../../../../lr11xx/common/apps_common.c ****         while( true )
 2841              		.loc 1 545 14 is_stmt 1
 2842 0034 00BF     		nop
 2843 0036 FDE7     		b	.L111
 2844              	.L127:
 2845              		.align	2
 2846              	.L126:
 2847 0038 80CE341D 		.word	490000000
 2848 003c 00000000 		.word	shield
 2849 0040 00000000 		.word	.LC1
 2850 0044 08000000 		.word	.LC2
 2851 0048 E4010000 		.word	.LC19
 2852 004c 68000000 		.word	.LC6
 2853              	.L110:
 546:../../../../lr11xx/common/apps_common.c ****         {
 547:../../../../lr11xx/common/apps_common.c ****         }
 548:../../../../lr11xx/common/apps_common.c ****     }
 549:../../../../lr11xx/common/apps_common.c **** 
 550:../../../../lr11xx/common/apps_common.c ****     print_common_configuration( );
 2854              		.loc 1 550 5
 2855 0050 FFF7FEFF 		bl	print_common_configuration
 2856              	.LBB29:
 551:../../../../lr11xx/common/apps_common.c **** 
 552:../../../../lr11xx/common/apps_common.c ****     ASSERT_LR11XX_RC( lr11xx_radio_set_pkt_type( context, LR11XX_RADIO_PKT_TYPE_RTTOF ) );
 2857              		.loc 1 552 5
 2858 0054 0521     		movs	r1, #5
 2859 0056 7868     		ldr	r0, [r7, #4]
 2860 0058 FFF7FEFF 		bl	lr11xx_radio_set_pkt_type
 2861 005c 0346     		mov	r3, r0
 2862 005e FB76     		strb	r3, [r7, #27]
 2863              		.loc 1 552 5 is_stmt 0 discriminator 1
 2864 0060 FB7E     		ldrb	r3, [r7, #27]	@ zero_extendqisi2
 2865 0062 002B     		cmp	r3, #0
 2866 0064 14D0     		beq	.L112
 2867 0066 FB7E     		ldrb	r3, [r7, #27]	@ zero_extendqisi2
 2868 0068 032B     		cmp	r3, #3
 2869 006a 11D1     		bne	.L112
 2870              		.loc 1 552 5 discriminator 2
ARM GAS  C:\msys64\tmp\ccwHIjYg.s 			page 72


 2871 006c A948     		ldr	r0, .L128
 2872 006e FFF7FEFF 		bl	hal_mcu_trace_print
 2873              		.loc 1 552 5 discriminator 1
 2874 0072 A948     		ldr	r0, .L128+4
 2875 0074 FFF7FEFF 		bl	hal_mcu_trace_print
 2876              		.loc 1 552 5 discriminator 2
 2877 0078 A84B     		ldr	r3, .L128+8
 2878 007a 0093     		str	r3, [sp]
 2879 007c 4FF40A73 		mov	r3, #552
 2880 0080 A74A     		ldr	r2, .L128+12
 2881 0082 A849     		ldr	r1, .L128+16
 2882 0084 A848     		ldr	r0, .L128+20
 2883 0086 FFF7FEFF 		bl	hal_mcu_trace_print
 2884              		.loc 1 552 5 discriminator 3
 2885 008a A848     		ldr	r0, .L128+24
 2886 008c FFF7FEFF 		bl	hal_mcu_trace_print
 2887              	.L112:
 2888              	.LBE29:
 2889              	.LBB30:
 553:../../../../lr11xx/common/apps_common.c ****     ASSERT_LR11XX_RC( lr11xx_radio_set_rf_freq( context, RF_FREQ_IN_HZ ) );
 2890              		.loc 1 553 5 is_stmt 1
 2891 0090 A749     		ldr	r1, .L128+28
 2892 0092 7868     		ldr	r0, [r7, #4]
 2893 0094 FFF7FEFF 		bl	lr11xx_radio_set_rf_freq
 2894 0098 0346     		mov	r3, r0
 2895 009a BB76     		strb	r3, [r7, #26]
 2896              		.loc 1 553 5 is_stmt 0 discriminator 1
 2897 009c BB7E     		ldrb	r3, [r7, #26]	@ zero_extendqisi2
 2898 009e 002B     		cmp	r3, #0
 2899 00a0 14D0     		beq	.L113
 2900 00a2 BB7E     		ldrb	r3, [r7, #26]	@ zero_extendqisi2
 2901 00a4 032B     		cmp	r3, #3
 2902 00a6 11D1     		bne	.L113
 2903              		.loc 1 553 5 discriminator 2
 2904 00a8 9A48     		ldr	r0, .L128
 2905 00aa FFF7FEFF 		bl	hal_mcu_trace_print
 2906              		.loc 1 553 5 discriminator 1
 2907 00ae 9A48     		ldr	r0, .L128+4
 2908 00b0 FFF7FEFF 		bl	hal_mcu_trace_print
 2909              		.loc 1 553 5 discriminator 2
 2910 00b4 994B     		ldr	r3, .L128+8
 2911 00b6 0093     		str	r3, [sp]
 2912 00b8 40F22923 		movw	r3, #553
 2913 00bc 984A     		ldr	r2, .L128+12
 2914 00be 9949     		ldr	r1, .L128+16
 2915 00c0 9948     		ldr	r0, .L128+20
 2916 00c2 FFF7FEFF 		bl	hal_mcu_trace_print
 2917              		.loc 1 553 5 discriminator 3
 2918 00c6 9948     		ldr	r0, .L128+24
 2919 00c8 FFF7FEFF 		bl	hal_mcu_trace_print
 2920              	.L113:
 2921              	.LBE30:
 2922              	.LBB31:
 554:../../../../lr11xx/common/apps_common.c ****     ASSERT_LR11XX_RC( lr11xx_radio_set_rssi_calibration(
 2923              		.loc 1 554 5 is_stmt 1
 2924 00cc 9849     		ldr	r1, .L128+28
 2925 00ce 9948     		ldr	r0, .L128+32
ARM GAS  C:\msys64\tmp\ccwHIjYg.s 			page 73


 2926 00d0 FFF7FEFF 		bl	smtc_shield_lr11xx_get_rssi_calibration_table
 2927 00d4 0346     		mov	r3, r0
 2928              		.loc 1 554 5 is_stmt 0 discriminator 1
 2929 00d6 1946     		mov	r1, r3
 2930 00d8 7868     		ldr	r0, [r7, #4]
 2931 00da FFF7FEFF 		bl	lr11xx_radio_set_rssi_calibration
 2932 00de 0346     		mov	r3, r0
 2933 00e0 7B76     		strb	r3, [r7, #25]
 2934              		.loc 1 554 5 discriminator 2
 2935 00e2 7B7E     		ldrb	r3, [r7, #25]	@ zero_extendqisi2
 2936 00e4 002B     		cmp	r3, #0
 2937 00e6 14D0     		beq	.L114
 2938              		.loc 1 554 5 discriminator 1
 2939 00e8 7B7E     		ldrb	r3, [r7, #25]	@ zero_extendqisi2
 2940 00ea 032B     		cmp	r3, #3
 2941 00ec 11D1     		bne	.L114
 2942              		.loc 1 554 5 discriminator 2
 2943 00ee 8948     		ldr	r0, .L128
 2944 00f0 FFF7FEFF 		bl	hal_mcu_trace_print
 2945              		.loc 1 554 5 discriminator 1
 2946 00f4 8848     		ldr	r0, .L128+4
 2947 00f6 FFF7FEFF 		bl	hal_mcu_trace_print
 2948              		.loc 1 554 5 discriminator 2
 2949 00fa 884B     		ldr	r3, .L128+8
 2950 00fc 0093     		str	r3, [sp]
 2951 00fe 40F22A23 		movw	r3, #554
 2952 0102 874A     		ldr	r2, .L128+12
 2953 0104 8749     		ldr	r1, .L128+16
 2954 0106 8848     		ldr	r0, .L128+20
 2955 0108 FFF7FEFF 		bl	hal_mcu_trace_print
 2956              		.loc 1 554 5 discriminator 3
 2957 010c 8748     		ldr	r0, .L128+24
 2958 010e FFF7FEFF 		bl	hal_mcu_trace_print
 2959              	.L114:
 2960              	.LBE31:
 2961              	.LBB32:
 555:../../../../lr11xx/common/apps_common.c ****         context, smtc_shield_lr11xx_get_rssi_calibration_table( &shield, RF_FREQ_IN_HZ ) ) );
 556:../../../../lr11xx/common/apps_common.c ****     ASSERT_LR11XX_RC( lr11xx_radio_set_pa_cfg( context, &( pa_pwr_cfg->pa_config ) ) );
 2962              		.loc 1 556 5 is_stmt 1
 2963 0112 FB69     		ldr	r3, [r7, #28]
 2964 0114 0133     		adds	r3, r3, #1
 2965 0116 1946     		mov	r1, r3
 2966 0118 7868     		ldr	r0, [r7, #4]
 2967 011a FFF7FEFF 		bl	lr11xx_radio_set_pa_cfg
 2968 011e 0346     		mov	r3, r0
 2969 0120 3B76     		strb	r3, [r7, #24]
 2970              		.loc 1 556 5 is_stmt 0 discriminator 1
 2971 0122 3B7E     		ldrb	r3, [r7, #24]	@ zero_extendqisi2
 2972 0124 002B     		cmp	r3, #0
 2973 0126 14D0     		beq	.L115
 2974 0128 3B7E     		ldrb	r3, [r7, #24]	@ zero_extendqisi2
 2975 012a 032B     		cmp	r3, #3
 2976 012c 11D1     		bne	.L115
 2977              		.loc 1 556 5 discriminator 2
 2978 012e 7948     		ldr	r0, .L128
 2979 0130 FFF7FEFF 		bl	hal_mcu_trace_print
 2980              		.loc 1 556 5 discriminator 1
ARM GAS  C:\msys64\tmp\ccwHIjYg.s 			page 74


 2981 0134 7848     		ldr	r0, .L128+4
 2982 0136 FFF7FEFF 		bl	hal_mcu_trace_print
 2983              		.loc 1 556 5 discriminator 2
 2984 013a 784B     		ldr	r3, .L128+8
 2985 013c 0093     		str	r3, [sp]
 2986 013e 4FF40B73 		mov	r3, #556
 2987 0142 774A     		ldr	r2, .L128+12
 2988 0144 7749     		ldr	r1, .L128+16
 2989 0146 7848     		ldr	r0, .L128+20
 2990 0148 FFF7FEFF 		bl	hal_mcu_trace_print
 2991              		.loc 1 556 5 discriminator 3
 2992 014c 7748     		ldr	r0, .L128+24
 2993 014e FFF7FEFF 		bl	hal_mcu_trace_print
 2994              	.L115:
 2995              	.LBE32:
 2996              	.LBB33:
 557:../../../../lr11xx/common/apps_common.c ****     ASSERT_LR11XX_RC( lr11xx_radio_set_tx_params( context, pa_pwr_cfg->power, PA_RAMP_TIME ) );
 2997              		.loc 1 557 5 is_stmt 1
 2998 0152 FB69     		ldr	r3, [r7, #28]
 2999 0154 93F90030 		ldrsb	r3, [r3]
 3000 0158 0222     		movs	r2, #2
 3001 015a 1946     		mov	r1, r3
 3002 015c 7868     		ldr	r0, [r7, #4]
 3003 015e FFF7FEFF 		bl	lr11xx_radio_set_tx_params
 3004 0162 0346     		mov	r3, r0
 3005 0164 FB75     		strb	r3, [r7, #23]
 3006              		.loc 1 557 5 is_stmt 0 discriminator 1
 3007 0166 FB7D     		ldrb	r3, [r7, #23]	@ zero_extendqisi2
 3008 0168 002B     		cmp	r3, #0
 3009 016a 14D0     		beq	.L116
 3010 016c FB7D     		ldrb	r3, [r7, #23]	@ zero_extendqisi2
 3011 016e 032B     		cmp	r3, #3
 3012 0170 11D1     		bne	.L116
 3013              		.loc 1 557 5 discriminator 2
 3014 0172 6848     		ldr	r0, .L128
 3015 0174 FFF7FEFF 		bl	hal_mcu_trace_print
 3016              		.loc 1 557 5 discriminator 1
 3017 0178 6748     		ldr	r0, .L128+4
 3018 017a FFF7FEFF 		bl	hal_mcu_trace_print
 3019              		.loc 1 557 5 discriminator 2
 3020 017e 674B     		ldr	r3, .L128+8
 3021 0180 0093     		str	r3, [sp]
 3022 0182 40F22D23 		movw	r3, #557
 3023 0186 664A     		ldr	r2, .L128+12
 3024 0188 6649     		ldr	r1, .L128+16
 3025 018a 6748     		ldr	r0, .L128+20
 3026 018c FFF7FEFF 		bl	hal_mcu_trace_print
 3027              		.loc 1 557 5 discriminator 3
 3028 0190 6648     		ldr	r0, .L128+24
 3029 0192 FFF7FEFF 		bl	hal_mcu_trace_print
 3030              	.L116:
 3031              	.LBE33:
 3032              	.LBB34:
 558:../../../../lr11xx/common/apps_common.c ****     ASSERT_LR11XX_RC( lr11xx_radio_set_rx_tx_fallback_mode( context, FALLBACK_MODE ) );
 3033              		.loc 1 558 5 is_stmt 1
 3034 0196 0121     		movs	r1, #1
 3035 0198 7868     		ldr	r0, [r7, #4]
ARM GAS  C:\msys64\tmp\ccwHIjYg.s 			page 75


 3036 019a FFF7FEFF 		bl	lr11xx_radio_set_rx_tx_fallback_mode
 3037 019e 0346     		mov	r3, r0
 3038 01a0 BB75     		strb	r3, [r7, #22]
 3039              		.loc 1 558 5 is_stmt 0 discriminator 1
 3040 01a2 BB7D     		ldrb	r3, [r7, #22]	@ zero_extendqisi2
 3041 01a4 002B     		cmp	r3, #0
 3042 01a6 14D0     		beq	.L117
 3043 01a8 BB7D     		ldrb	r3, [r7, #22]	@ zero_extendqisi2
 3044 01aa 032B     		cmp	r3, #3
 3045 01ac 11D1     		bne	.L117
 3046              		.loc 1 558 5 discriminator 2
 3047 01ae 5948     		ldr	r0, .L128
 3048 01b0 FFF7FEFF 		bl	hal_mcu_trace_print
 3049              		.loc 1 558 5 discriminator 1
 3050 01b4 5848     		ldr	r0, .L128+4
 3051 01b6 FFF7FEFF 		bl	hal_mcu_trace_print
 3052              		.loc 1 558 5 discriminator 2
 3053 01ba 584B     		ldr	r3, .L128+8
 3054 01bc 0093     		str	r3, [sp]
 3055 01be 40F22E23 		movw	r3, #558
 3056 01c2 574A     		ldr	r2, .L128+12
 3057 01c4 5749     		ldr	r1, .L128+16
 3058 01c6 5848     		ldr	r0, .L128+20
 3059 01c8 FFF7FEFF 		bl	hal_mcu_trace_print
 3060              		.loc 1 558 5 discriminator 3
 3061 01cc 5748     		ldr	r0, .L128+24
 3062 01ce FFF7FEFF 		bl	hal_mcu_trace_print
 3063              	.L117:
 3064              	.LBE34:
 3065              	.LBB35:
 559:../../../../lr11xx/common/apps_common.c ****     ASSERT_LR11XX_RC( lr11xx_radio_cfg_rx_boosted( context, ENABLE_RX_BOOST_MODE ) );
 3066              		.loc 1 559 5 is_stmt 1
 3067 01d2 0021     		movs	r1, #0
 3068 01d4 7868     		ldr	r0, [r7, #4]
 3069 01d6 FFF7FEFF 		bl	lr11xx_radio_cfg_rx_boosted
 3070 01da 0346     		mov	r3, r0
 3071 01dc 7B75     		strb	r3, [r7, #21]
 3072              		.loc 1 559 5 is_stmt 0 discriminator 1
 3073 01de 7B7D     		ldrb	r3, [r7, #21]	@ zero_extendqisi2
 3074 01e0 002B     		cmp	r3, #0
 3075 01e2 14D0     		beq	.L118
 3076 01e4 7B7D     		ldrb	r3, [r7, #21]	@ zero_extendqisi2
 3077 01e6 032B     		cmp	r3, #3
 3078 01e8 11D1     		bne	.L118
 3079              		.loc 1 559 5 discriminator 2
 3080 01ea 4A48     		ldr	r0, .L128
 3081 01ec FFF7FEFF 		bl	hal_mcu_trace_print
 3082              		.loc 1 559 5 discriminator 1
 3083 01f0 4948     		ldr	r0, .L128+4
 3084 01f2 FFF7FEFF 		bl	hal_mcu_trace_print
 3085              		.loc 1 559 5 discriminator 2
 3086 01f6 494B     		ldr	r3, .L128+8
 3087 01f8 0093     		str	r3, [sp]
 3088 01fa 40F22F23 		movw	r3, #559
 3089 01fe 484A     		ldr	r2, .L128+12
 3090 0200 4849     		ldr	r1, .L128+16
 3091 0202 4948     		ldr	r0, .L128+20
ARM GAS  C:\msys64\tmp\ccwHIjYg.s 			page 76


 3092 0204 FFF7FEFF 		bl	hal_mcu_trace_print
 3093              		.loc 1 559 5 discriminator 3
 3094 0208 4848     		ldr	r0, .L128+24
 3095 020a FFF7FEFF 		bl	hal_mcu_trace_print
 3096              	.L118:
 3097              	.LBE35:
 560:../../../../lr11xx/common/apps_common.c **** 
 561:../../../../lr11xx/common/apps_common.c ****     print_lora_configuration( );
 3098              		.loc 1 561 5 is_stmt 1
 3099 020e FFF7FEFF 		bl	print_lora_configuration
 562:../../../../lr11xx/common/apps_common.c **** 
 563:../../../../lr11xx/common/apps_common.c ****     lora_mod_params.ldro = apps_common_compute_lora_ldro( LORA_SPREADING_FACTOR, LORA_BANDWIDTH );
 3100              		.loc 1 563 28
 3101 0212 0421     		movs	r1, #4
 3102 0214 0A20     		movs	r0, #10
 3103 0216 FFF7FEFF 		bl	apps_common_compute_lora_ldro
 3104 021a 0346     		mov	r3, r0
 3105 021c 1A46     		mov	r2, r3
 3106              		.loc 1 563 26 discriminator 1
 3107 021e 464B     		ldr	r3, .L128+36
 3108 0220 DA70     		strb	r2, [r3, #3]
 3109              	.LBB36:
 564:../../../../lr11xx/common/apps_common.c ****     ASSERT_LR11XX_RC( lr11xx_radio_set_lora_mod_params( context, &lora_mod_params ) );
 3110              		.loc 1 564 5
 3111 0222 4549     		ldr	r1, .L128+36
 3112 0224 7868     		ldr	r0, [r7, #4]
 3113 0226 FFF7FEFF 		bl	lr11xx_radio_set_lora_mod_params
 3114 022a 0346     		mov	r3, r0
 3115 022c 3B75     		strb	r3, [r7, #20]
 3116              		.loc 1 564 5 is_stmt 0 discriminator 1
 3117 022e 3B7D     		ldrb	r3, [r7, #20]	@ zero_extendqisi2
 3118 0230 002B     		cmp	r3, #0
 3119 0232 14D0     		beq	.L119
 3120 0234 3B7D     		ldrb	r3, [r7, #20]	@ zero_extendqisi2
 3121 0236 032B     		cmp	r3, #3
 3122 0238 11D1     		bne	.L119
 3123              		.loc 1 564 5 discriminator 2
 3124 023a 3648     		ldr	r0, .L128
 3125 023c FFF7FEFF 		bl	hal_mcu_trace_print
 3126              		.loc 1 564 5 discriminator 1
 3127 0240 3548     		ldr	r0, .L128+4
 3128 0242 FFF7FEFF 		bl	hal_mcu_trace_print
 3129              		.loc 1 564 5 discriminator 2
 3130 0246 354B     		ldr	r3, .L128+8
 3131 0248 0093     		str	r3, [sp]
 3132 024a 4FF40D73 		mov	r3, #564
 3133 024e 344A     		ldr	r2, .L128+12
 3134 0250 3449     		ldr	r1, .L128+16
 3135 0252 3548     		ldr	r0, .L128+20
 3136 0254 FFF7FEFF 		bl	hal_mcu_trace_print
 3137              		.loc 1 564 5 discriminator 3
 3138 0258 3448     		ldr	r0, .L128+24
 3139 025a FFF7FEFF 		bl	hal_mcu_trace_print
 3140              	.L119:
 3141              	.LBE36:
 3142              	.LBB37:
 565:../../../../lr11xx/common/apps_common.c ****     ASSERT_LR11XX_RC( lr11xx_radio_set_lora_pkt_params( context, &lora_pkt_params ) );
ARM GAS  C:\msys64\tmp\ccwHIjYg.s 			page 77


 3143              		.loc 1 565 5 is_stmt 1
 3144 025e 3749     		ldr	r1, .L128+40
 3145 0260 7868     		ldr	r0, [r7, #4]
 3146 0262 FFF7FEFF 		bl	lr11xx_radio_set_lora_pkt_params
 3147 0266 0346     		mov	r3, r0
 3148 0268 FB74     		strb	r3, [r7, #19]
 3149              		.loc 1 565 5 is_stmt 0 discriminator 1
 3150 026a FB7C     		ldrb	r3, [r7, #19]	@ zero_extendqisi2
 3151 026c 002B     		cmp	r3, #0
 3152 026e 14D0     		beq	.L120
 3153 0270 FB7C     		ldrb	r3, [r7, #19]	@ zero_extendqisi2
 3154 0272 032B     		cmp	r3, #3
 3155 0274 11D1     		bne	.L120
 3156              		.loc 1 565 5 discriminator 2
 3157 0276 2748     		ldr	r0, .L128
 3158 0278 FFF7FEFF 		bl	hal_mcu_trace_print
 3159              		.loc 1 565 5 discriminator 1
 3160 027c 2648     		ldr	r0, .L128+4
 3161 027e FFF7FEFF 		bl	hal_mcu_trace_print
 3162              		.loc 1 565 5 discriminator 2
 3163 0282 264B     		ldr	r3, .L128+8
 3164 0284 0093     		str	r3, [sp]
 3165 0286 40F23523 		movw	r3, #565
 3166 028a 254A     		ldr	r2, .L128+12
 3167 028c 2549     		ldr	r1, .L128+16
 3168 028e 2648     		ldr	r0, .L128+20
 3169 0290 FFF7FEFF 		bl	hal_mcu_trace_print
 3170              		.loc 1 565 5 discriminator 3
 3171 0294 2548     		ldr	r0, .L128+24
 3172 0296 FFF7FEFF 		bl	hal_mcu_trace_print
 3173              	.L120:
 3174              	.LBE37:
 3175              	.LBB38:
 566:../../../../lr11xx/common/apps_common.c ****     ASSERT_LR11XX_RC( lr11xx_radio_set_lora_sync_word( context, LORA_SYNCWORD ) );
 3176              		.loc 1 566 5 is_stmt 1
 3177 029a 1221     		movs	r1, #18
 3178 029c 7868     		ldr	r0, [r7, #4]
 3179 029e FFF7FEFF 		bl	lr11xx_radio_set_lora_sync_word
 3180 02a2 0346     		mov	r3, r0
 3181 02a4 BB74     		strb	r3, [r7, #18]
 3182              		.loc 1 566 5 is_stmt 0 discriminator 1
 3183 02a6 BB7C     		ldrb	r3, [r7, #18]	@ zero_extendqisi2
 3184 02a8 002B     		cmp	r3, #0
 3185 02aa 14D0     		beq	.L121
 3186 02ac BB7C     		ldrb	r3, [r7, #18]	@ zero_extendqisi2
 3187 02ae 032B     		cmp	r3, #3
 3188 02b0 11D1     		bne	.L121
 3189              		.loc 1 566 5 discriminator 2
 3190 02b2 1848     		ldr	r0, .L128
 3191 02b4 FFF7FEFF 		bl	hal_mcu_trace_print
 3192              		.loc 1 566 5 discriminator 1
 3193 02b8 1748     		ldr	r0, .L128+4
 3194 02ba FFF7FEFF 		bl	hal_mcu_trace_print
 3195              		.loc 1 566 5 discriminator 2
 3196 02be 174B     		ldr	r3, .L128+8
 3197 02c0 0093     		str	r3, [sp]
 3198 02c2 40F23623 		movw	r3, #566
ARM GAS  C:\msys64\tmp\ccwHIjYg.s 			page 78


 3199 02c6 164A     		ldr	r2, .L128+12
 3200 02c8 1649     		ldr	r1, .L128+16
 3201 02ca 1748     		ldr	r0, .L128+20
 3202 02cc FFF7FEFF 		bl	hal_mcu_trace_print
 3203              		.loc 1 566 5 discriminator 3
 3204 02d0 1648     		ldr	r0, .L128+24
 3205 02d2 FFF7FEFF 		bl	hal_mcu_trace_print
 3206              	.L121:
 3207              	.LBE38:
 567:../../../../lr11xx/common/apps_common.c **** 
 568:../../../../lr11xx/common/apps_common.c ****     uint32_t rttof_rx_tx_delay = 0u;
 3208              		.loc 1 568 14 is_stmt 1
 3209 02d6 0023     		movs	r3, #0
 3210 02d8 FB60     		str	r3, [r7, #12]
 569:../../../../lr11xx/common/apps_common.c ****     if( smtc_shield_lr11xx_get_rttof_recommended_rx_tx_delay_indicator( &shield, RF_FREQ_IN_HZ, lor
 3211              		.loc 1 569 9
 3212 02da 174B     		ldr	r3, .L128+36
 3213 02dc 5A78     		ldrb	r2, [r3, #1]	@ zero_extendqisi2
 3214 02de 164B     		ldr	r3, .L128+36
 3215 02e0 1978     		ldrb	r1, [r3]	@ zero_extendqisi2
 3216 02e2 07F10C03 		add	r3, r7, #12
 3217 02e6 0093     		str	r3, [sp]
 3218 02e8 0B46     		mov	r3, r1
 3219 02ea 1149     		ldr	r1, .L128+28
 3220 02ec 1148     		ldr	r0, .L128+32
 3221 02ee FFF7FEFF 		bl	smtc_shield_lr11xx_get_rttof_recommended_rx_tx_delay_indicator
 3222 02f2 0346     		mov	r3, r0
 3223              		.loc 1 569 7 discriminator 1
 3224 02f4 002B     		cmp	r3, #0
 3225 02f6 44D0     		beq	.L122
 3226              	.LBB39:
 570:../../../../lr11xx/common/apps_common.c ****                                                                         lora_mod_params.sf, &rttof_
 571:../../../../lr11xx/common/apps_common.c ****     {
 572:../../../../lr11xx/common/apps_common.c ****         ASSERT_LR11XX_RC( lr11xx_rttof_set_rx_tx_delay_indicator( context, rttof_rx_tx_delay ) );
 3227              		.loc 1 572 9
 3228 02f8 FB68     		ldr	r3, [r7, #12]
 3229 02fa 1946     		mov	r1, r3
 3230 02fc 7868     		ldr	r0, [r7, #4]
 3231 02fe FFF7FEFF 		bl	lr11xx_rttof_set_rx_tx_delay_indicator
 3232 0302 0346     		mov	r3, r0
 3233 0304 7B74     		strb	r3, [r7, #17]
 3234              		.loc 1 572 9 is_stmt 0 discriminator 1
 3235 0306 7B7C     		ldrb	r3, [r7, #17]	@ zero_extendqisi2
 3236 0308 002B     		cmp	r3, #0
 3237 030a 2BD0     		beq	.L123
 3238 030c 7B7C     		ldrb	r3, [r7, #17]	@ zero_extendqisi2
 3239 030e 032B     		cmp	r3, #3
 3240 0310 28D1     		bne	.L123
 3241 0312 15E0     		b	.L129
 3242              	.L130:
 3243              		.align	2
 3244              	.L128:
 3245 0314 00000000 		.word	.LC1
 3246 0318 08000000 		.word	.LC2
 3247 031c 54000000 		.word	.LC5
 3248 0320 00000000 		.word	__func__.0
 3249 0324 10000000 		.word	.LC3
ARM GAS  C:\msys64\tmp\ccwHIjYg.s 			page 79


 3250 0328 38000000 		.word	.LC4
 3251 032c 68000000 		.word	.LC6
 3252 0330 80CE341D 		.word	490000000
 3253 0334 00000000 		.word	shield
 3254 0338 00000000 		.word	lora_mod_params
 3255 033c 00000000 		.word	lora_pkt_params
 3256              	.L129:
 3257              		.loc 1 572 9 discriminator 2
 3258 0340 1848     		ldr	r0, .L131
 3259 0342 FFF7FEFF 		bl	hal_mcu_trace_print
 3260              		.loc 1 572 9 discriminator 1
 3261 0346 1848     		ldr	r0, .L131+4
 3262 0348 FFF7FEFF 		bl	hal_mcu_trace_print
 3263              		.loc 1 572 9 discriminator 2
 3264 034c 174B     		ldr	r3, .L131+8
 3265 034e 0093     		str	r3, [sp]
 3266 0350 4FF40F73 		mov	r3, #572
 3267 0354 164A     		ldr	r2, .L131+12
 3268 0356 1749     		ldr	r1, .L131+16
 3269 0358 1748     		ldr	r0, .L131+20
 3270 035a FFF7FEFF 		bl	hal_mcu_trace_print
 3271              		.loc 1 572 9 discriminator 3
 3272 035e 1748     		ldr	r0, .L131+24
 3273 0360 FFF7FEFF 		bl	hal_mcu_trace_print
 3274              	.L123:
 3275              	.LBE39:
 573:../../../../lr11xx/common/apps_common.c ****         HAL_DBG_TRACE_INFO( "RTTof delay : %d\n", rttof_rx_tx_delay );
 3276              		.loc 1 573 9 is_stmt 1
 3277 0364 1648     		ldr	r0, .L131+28
 3278 0366 FFF7FEFF 		bl	hal_mcu_trace_print
 3279              		.loc 1 573 9 is_stmt 0 discriminator 1
 3280 036a 1648     		ldr	r0, .L131+32
 3281 036c FFF7FEFF 		bl	hal_mcu_trace_print
 3282              		.loc 1 573 9 discriminator 2
 3283 0370 FB68     		ldr	r3, [r7, #12]
 3284 0372 1946     		mov	r1, r3
 3285 0374 1448     		ldr	r0, .L131+36
 3286 0376 FFF7FEFF 		bl	hal_mcu_trace_print
 3287              		.loc 1 573 9 discriminator 3
 3288 037a 1048     		ldr	r0, .L131+24
 3289 037c FFF7FEFF 		bl	hal_mcu_trace_print
 574:../../../../lr11xx/common/apps_common.c ****     }
 575:../../../../lr11xx/common/apps_common.c ****     else
 576:../../../../lr11xx/common/apps_common.c ****     {
 577:../../../../lr11xx/common/apps_common.c ****         HAL_DBG_TRACE_ERROR( "Failed to get RTToF delay indicator\n" );
 578:../../../../lr11xx/common/apps_common.c ****     }
 579:../../../../lr11xx/common/apps_common.c **** }
 3290              		.loc 1 579 1 is_stmt 1
 3291 0380 0BE0     		b	.L125
 3292              	.L122:
 577:../../../../lr11xx/common/apps_common.c ****     }
 3293              		.loc 1 577 9
 3294 0382 0848     		ldr	r0, .L131
 3295 0384 FFF7FEFF 		bl	hal_mcu_trace_print
 577:../../../../lr11xx/common/apps_common.c ****     }
 3296              		.loc 1 577 9 is_stmt 0 discriminator 1
 3297 0388 0748     		ldr	r0, .L131+4
ARM GAS  C:\msys64\tmp\ccwHIjYg.s 			page 80


 3298 038a FFF7FEFF 		bl	hal_mcu_trace_print
 577:../../../../lr11xx/common/apps_common.c ****     }
 3299              		.loc 1 577 9 discriminator 2
 3300 038e 0F48     		ldr	r0, .L131+40
 3301 0390 FFF7FEFF 		bl	hal_mcu_trace_print
 577:../../../../lr11xx/common/apps_common.c ****     }
 3302              		.loc 1 577 9 discriminator 3
 3303 0394 0948     		ldr	r0, .L131+24
 3304 0396 FFF7FEFF 		bl	hal_mcu_trace_print
 3305              	.L125:
 3306              		.loc 1 579 1 is_stmt 1
 3307 039a 00BF     		nop
 3308 039c 2037     		adds	r7, r7, #32
 3309              	.LCFI96:
 3310              		.cfi_def_cfa_offset 8
 3311 039e BD46     		mov	sp, r7
 3312              	.LCFI97:
 3313              		.cfi_def_cfa_register 13
 3314              		@ sp needed
 3315 03a0 80BD     		pop	{r7, pc}
 3316              	.L132:
 3317 03a2 00BF     		.align	2
 3318              	.L131:
 3319 03a4 00000000 		.word	.LC1
 3320 03a8 08000000 		.word	.LC2
 3321 03ac 54000000 		.word	.LC5
 3322 03b0 00000000 		.word	__func__.0
 3323 03b4 10000000 		.word	.LC3
 3324 03b8 38000000 		.word	.LC4
 3325 03bc 68000000 		.word	.LC6
 3326 03c0 70000000 		.word	.LC7
 3327 03c4 78000000 		.word	.LC8
 3328 03c8 74020000 		.word	.LC24
 3329 03cc 88020000 		.word	.LC25
 3330              		.cfi_endproc
 3331              	.LFE261:
 3333              		.section	.rodata
 3334 02ad 000000   		.align	2
 3335              	.LC26:
 3336 02b0 52656365 		.ascii	"Received payload (size: %d) is bigger than the buff"
 3336      69766564 
 3336      20706179 
 3336      6C6F6164 
 3336      20287369 
 3337 02e3 65722028 		.ascii	"er (size: %d)!\012\000"
 3337      73697A65 
 3337      3A202564 
 3337      29210A00 
 3338 02f3 00       		.align	2
 3339              	.LC27:
 3340 02f4 5061636B 		.ascii	"Packet content\000"
 3340      65742063 
 3340      6F6E7465 
 3340      6E7400
 3341 0303 00       		.align	2
 3342              	.LC28:
 3343 0304 2573202D 		.ascii	"%s - (%lu bytes):\012\000"
ARM GAS  C:\msys64\tmp\ccwHIjYg.s 			page 81


 3343      2028256C 
 3343      75206279 
 3343      74657329 
 3343      3A0A00
 3344 0317 00       		.align	2
 3345              	.LC29:
 3346 0318 20253032 		.ascii	" %02X\000"
 3346      5800
 3347 031e 0000     		.align	2
 3348              	.LC30:
 3349 0320 5061636B 		.ascii	"Packet status:\012\000"
 3349      65742073 
 3349      74617475 
 3349      733A0A00 
 3350              		.align	2
 3351              	.LC31:
 3352 0330 20202D20 		.ascii	"  - RSSI packet = %i dBm\012\000"
 3352      52535349 
 3352      20706163 
 3352      6B657420 
 3352      3D202569 
 3353 034a 0000     		.align	2
 3354              	.LC32:
 3355 034c 20202D20 		.ascii	"  - Signal RSSI packet = %i dBm\012\000"
 3355      5369676E 
 3355      616C2052 
 3355      53534920 
 3355      7061636B 
 3356 036d 000000   		.align	2
 3357              	.LC33:
 3358 0370 20202D20 		.ascii	"  - SNR packet = %i dB\012\000"
 3358      534E5220 
 3358      7061636B 
 3358      6574203D 
 3358      20256920 
 3359              		.section	.text.apps_common_lr11xx_receive,"ax",%progbits
 3360              		.align	1
 3361              		.global	apps_common_lr11xx_receive
 3362              		.syntax unified
 3363              		.thumb
 3364              		.thumb_func
 3366              	apps_common_lr11xx_receive:
 3367              	.LFB262:
 580:../../../../lr11xx/common/apps_common.c **** 
 581:../../../../lr11xx/common/apps_common.c **** void apps_common_lr11xx_receive( const void* context, uint8_t* buffer, uint8_t buffer_length, uint8
 582:../../../../lr11xx/common/apps_common.c **** {
 3368              		.loc 1 582 1
 3369              		.cfi_startproc
 3370              		@ args = 0, pretend = 0, frame = 40
 3371              		@ frame_needed = 1, uses_anonymous_args = 0
 3372 0000 80B5     		push	{r7, lr}
 3373              	.LCFI98:
 3374              		.cfi_def_cfa_offset 8
 3375              		.cfi_offset 7, -8
 3376              		.cfi_offset 14, -4
 3377 0002 8AB0     		sub	sp, sp, #40
 3378              	.LCFI99:
ARM GAS  C:\msys64\tmp\ccwHIjYg.s 			page 82


 3379              		.cfi_def_cfa_offset 48
 3380 0004 00AF     		add	r7, sp, #0
 3381              	.LCFI100:
 3382              		.cfi_def_cfa_register 7
 3383 0006 F860     		str	r0, [r7, #12]
 3384 0008 B960     		str	r1, [r7, #8]
 3385 000a 3B60     		str	r3, [r7]
 3386 000c 1346     		mov	r3, r2
 3387 000e FB71     		strb	r3, [r7, #7]
 583:../../../../lr11xx/common/apps_common.c ****     lr11xx_radio_rx_buffer_status_t rx_buffer_status;
 584:../../../../lr11xx/common/apps_common.c ****     lr11xx_radio_pkt_status_lora_t  pkt_status_lora;
 585:../../../../lr11xx/common/apps_common.c ****     lr11xx_radio_pkt_status_gfsk_t  pkt_status_gfsk;
 586:../../../../lr11xx/common/apps_common.c **** 
 587:../../../../lr11xx/common/apps_common.c ****     lr11xx_radio_get_rx_buffer_status( context, &rx_buffer_status );
 3388              		.loc 1 587 5
 3389 0010 07F12003 		add	r3, r7, #32
 3390 0014 1946     		mov	r1, r3
 3391 0016 F868     		ldr	r0, [r7, #12]
 3392 0018 FFF7FEFF 		bl	lr11xx_radio_get_rx_buffer_status
 588:../../../../lr11xx/common/apps_common.c ****     *size = rx_buffer_status.pld_len_in_bytes;
 3393              		.loc 1 588 29
 3394 001c 97F82020 		ldrb	r2, [r7, #32]	@ zero_extendqisi2
 3395              		.loc 1 588 11
 3396 0020 3B68     		ldr	r3, [r7]
 3397 0022 1A70     		strb	r2, [r3]
 589:../../../../lr11xx/common/apps_common.c ****     if( *size > buffer_length )
 3398              		.loc 1 589 9
 3399 0024 3B68     		ldr	r3, [r7]
 3400 0026 1B78     		ldrb	r3, [r3]	@ zero_extendqisi2
 3401              		.loc 1 589 7
 3402 0028 FA79     		ldrb	r2, [r7, #7]	@ zero_extendqisi2
 3403 002a 9A42     		cmp	r2, r3
 3404 002c 11D2     		bcs	.L134
 590:../../../../lr11xx/common/apps_common.c ****     {
 591:../../../../lr11xx/common/apps_common.c ****         HAL_DBG_TRACE_ERROR( "Received payload (size: %d) is bigger than the buffer (size: %d)!\n",
 3405              		.loc 1 591 9
 3406 002e 4248     		ldr	r0, .L139
 3407 0030 FFF7FEFF 		bl	hal_mcu_trace_print
 3408              		.loc 1 591 9 is_stmt 0 discriminator 1
 3409 0034 4148     		ldr	r0, .L139+4
 3410 0036 FFF7FEFF 		bl	hal_mcu_trace_print
 3411              		.loc 1 591 9 discriminator 2
 3412 003a 3B68     		ldr	r3, [r7]
 3413 003c 1B78     		ldrb	r3, [r3]	@ zero_extendqisi2
 3414 003e 1946     		mov	r1, r3
 3415 0040 FB79     		ldrb	r3, [r7, #7]	@ zero_extendqisi2
 3416 0042 1A46     		mov	r2, r3
 3417 0044 3E48     		ldr	r0, .L139+8
 3418 0046 FFF7FEFF 		bl	hal_mcu_trace_print
 3419              		.loc 1 591 9 discriminator 3
 3420 004a 3E48     		ldr	r0, .L139+12
 3421 004c FFF7FEFF 		bl	hal_mcu_trace_print
 3422 0050 6FE0     		b	.L133
 3423              	.L134:
 592:../../../../lr11xx/common/apps_common.c ****                              buffer_length );
 593:../../../../lr11xx/common/apps_common.c ****         return;
 594:../../../../lr11xx/common/apps_common.c ****     }
ARM GAS  C:\msys64\tmp\ccwHIjYg.s 			page 83


 595:../../../../lr11xx/common/apps_common.c ****     lr11xx_regmem_read_buffer8( context, buffer, rx_buffer_status.buffer_start_pointer,
 3424              		.loc 1 595 5 is_stmt 1
 3425 0052 97F82120 		ldrb	r2, [r7, #33]	@ zero_extendqisi2
 3426 0056 97F82030 		ldrb	r3, [r7, #32]	@ zero_extendqisi2
 3427 005a B968     		ldr	r1, [r7, #8]
 3428 005c F868     		ldr	r0, [r7, #12]
 3429 005e FFF7FEFF 		bl	lr11xx_regmem_read_buffer8
 596:../../../../lr11xx/common/apps_common.c ****                                 rx_buffer_status.pld_len_in_bytes );
 597:../../../../lr11xx/common/apps_common.c **** 
 598:../../../../lr11xx/common/apps_common.c ****     HAL_DBG_TRACE_ARRAY( "Packet content", buffer, *size );
 3430              		.loc 1 598 5
 3431 0062 3B68     		ldr	r3, [r7]
 3432 0064 1B78     		ldrb	r3, [r3]	@ zero_extendqisi2
 3433 0066 1A46     		mov	r2, r3
 3434 0068 3749     		ldr	r1, .L139+16
 3435 006a 3848     		ldr	r0, .L139+20
 3436 006c FFF7FEFF 		bl	hal_mcu_trace_print
 3437              	.LBB40:
 3438              		.loc 1 598 5 is_stmt 0 discriminator 1
 3439 0070 0023     		movs	r3, #0
 3440 0072 7B62     		str	r3, [r7, #36]
 3441              		.loc 1 598 5
 3442 0074 15E0     		b	.L136
 3443              	.L138:
 3444              		.loc 1 598 5 discriminator 8
 3445 0076 7B6A     		ldr	r3, [r7, #36]
 3446 0078 03F00F03 		and	r3, r3, #15
 3447 007c 002B     		cmp	r3, #0
 3448 007e 05D1     		bne	.L137
 3449              		.loc 1 598 5 discriminator 2
 3450 0080 7B6A     		ldr	r3, [r7, #36]
 3451 0082 002B     		cmp	r3, #0
 3452 0084 02D0     		beq	.L137
 3453              		.loc 1 598 5 discriminator 4
 3454 0086 3248     		ldr	r0, .L139+24
 3455 0088 FFF7FEFF 		bl	hal_mcu_trace_print
 3456              	.L137:
 3457              		.loc 1 598 5 discriminator 6
 3458 008c BA68     		ldr	r2, [r7, #8]
 3459 008e 7B6A     		ldr	r3, [r7, #36]
 3460 0090 1344     		add	r3, r3, r2
 3461 0092 1B78     		ldrb	r3, [r3]	@ zero_extendqisi2
 3462 0094 1946     		mov	r1, r3
 3463 0096 2F48     		ldr	r0, .L139+28
 3464 0098 FFF7FEFF 		bl	hal_mcu_trace_print
 3465              		.loc 1 598 5 discriminator 1
 3466 009c 7B6A     		ldr	r3, [r7, #36]
 3467 009e 0133     		adds	r3, r3, #1
 3468 00a0 7B62     		str	r3, [r7, #36]
 3469              	.L136:
 3470              		.loc 1 598 5 discriminator 7
 3471 00a2 3B68     		ldr	r3, [r7]
 3472 00a4 1B78     		ldrb	r3, [r3]	@ zero_extendqisi2
 3473 00a6 1A46     		mov	r2, r3
 3474 00a8 7B6A     		ldr	r3, [r7, #36]
 3475 00aa 9342     		cmp	r3, r2
 3476 00ac E3D3     		bcc	.L138
ARM GAS  C:\msys64\tmp\ccwHIjYg.s 			page 84


 3477              	.LBE40:
 3478              		.loc 1 598 5 discriminator 9
 3479 00ae 2848     		ldr	r0, .L139+24
 3480 00b0 FFF7FEFF 		bl	hal_mcu_trace_print
 599:../../../../lr11xx/common/apps_common.c **** 
 600:../../../../lr11xx/common/apps_common.c ****     HAL_DBG_TRACE_INFO( "Packet status:\n" );
 3481              		.loc 1 600 5 is_stmt 1
 3482 00b4 2848     		ldr	r0, .L139+32
 3483 00b6 FFF7FEFF 		bl	hal_mcu_trace_print
 3484              		.loc 1 600 5 is_stmt 0 discriminator 1
 3485 00ba 2848     		ldr	r0, .L139+36
 3486 00bc FFF7FEFF 		bl	hal_mcu_trace_print
 3487              		.loc 1 600 5 discriminator 2
 3488 00c0 2748     		ldr	r0, .L139+40
 3489 00c2 FFF7FEFF 		bl	hal_mcu_trace_print
 3490              		.loc 1 600 5 discriminator 3
 3491 00c6 1F48     		ldr	r0, .L139+12
 3492 00c8 FFF7FEFF 		bl	hal_mcu_trace_print
 601:../../../../lr11xx/common/apps_common.c ****     if( PACKET_TYPE == LR11XX_RADIO_PKT_TYPE_LORA )
 602:../../../../lr11xx/common/apps_common.c ****     {
 603:../../../../lr11xx/common/apps_common.c ****         lr11xx_radio_get_lora_pkt_status( context, &pkt_status_lora );
 3493              		.loc 1 603 9 is_stmt 1
 3494 00cc 07F11C03 		add	r3, r7, #28
 3495 00d0 1946     		mov	r1, r3
 3496 00d2 F868     		ldr	r0, [r7, #12]
 3497 00d4 FFF7FEFF 		bl	lr11xx_radio_get_lora_pkt_status
 604:../../../../lr11xx/common/apps_common.c ****         HAL_DBG_TRACE_INFO( "  - RSSI packet = %i dBm\n", pkt_status_lora.rssi_pkt_in_dbm );
 3498              		.loc 1 604 9
 3499 00d8 1F48     		ldr	r0, .L139+32
 3500 00da FFF7FEFF 		bl	hal_mcu_trace_print
 3501              		.loc 1 604 9 is_stmt 0 discriminator 1
 3502 00de 1F48     		ldr	r0, .L139+36
 3503 00e0 FFF7FEFF 		bl	hal_mcu_trace_print
 3504              		.loc 1 604 9 discriminator 2
 3505 00e4 97F91C30 		ldrsb	r3, [r7, #28]
 3506 00e8 1946     		mov	r1, r3
 3507 00ea 1E48     		ldr	r0, .L139+44
 3508 00ec FFF7FEFF 		bl	hal_mcu_trace_print
 3509              		.loc 1 604 9 discriminator 3
 3510 00f0 1448     		ldr	r0, .L139+12
 3511 00f2 FFF7FEFF 		bl	hal_mcu_trace_print
 605:../../../../lr11xx/common/apps_common.c ****         HAL_DBG_TRACE_INFO( "  - Signal RSSI packet = %i dBm\n", pkt_status_lora.signal_rssi_pkt_in
 3512              		.loc 1 605 9 is_stmt 1
 3513 00f6 1848     		ldr	r0, .L139+32
 3514 00f8 FFF7FEFF 		bl	hal_mcu_trace_print
 3515              		.loc 1 605 9 is_stmt 0 discriminator 1
 3516 00fc 1748     		ldr	r0, .L139+36
 3517 00fe FFF7FEFF 		bl	hal_mcu_trace_print
 3518              		.loc 1 605 9 discriminator 2
 3519 0102 97F91E30 		ldrsb	r3, [r7, #30]
 3520 0106 1946     		mov	r1, r3
 3521 0108 1748     		ldr	r0, .L139+48
 3522 010a FFF7FEFF 		bl	hal_mcu_trace_print
 3523              		.loc 1 605 9 discriminator 3
 3524 010e 0D48     		ldr	r0, .L139+12
 3525 0110 FFF7FEFF 		bl	hal_mcu_trace_print
 606:../../../../lr11xx/common/apps_common.c ****         HAL_DBG_TRACE_INFO( "  - SNR packet = %i dB\n", pkt_status_lora.snr_pkt_in_db );
ARM GAS  C:\msys64\tmp\ccwHIjYg.s 			page 85


 3526              		.loc 1 606 9 is_stmt 1
 3527 0114 1048     		ldr	r0, .L139+32
 3528 0116 FFF7FEFF 		bl	hal_mcu_trace_print
 3529              		.loc 1 606 9 is_stmt 0 discriminator 1
 3530 011a 1048     		ldr	r0, .L139+36
 3531 011c FFF7FEFF 		bl	hal_mcu_trace_print
 3532              		.loc 1 606 9 discriminator 2
 3533 0120 97F91D30 		ldrsb	r3, [r7, #29]
 3534 0124 1946     		mov	r1, r3
 3535 0126 1148     		ldr	r0, .L139+52
 3536 0128 FFF7FEFF 		bl	hal_mcu_trace_print
 3537              		.loc 1 606 9 discriminator 3
 3538 012c 0548     		ldr	r0, .L139+12
 3539 012e FFF7FEFF 		bl	hal_mcu_trace_print
 3540              	.L133:
 607:../../../../lr11xx/common/apps_common.c ****     }
 608:../../../../lr11xx/common/apps_common.c ****     else if( PACKET_TYPE == LR11XX_RADIO_PKT_TYPE_GFSK )
 609:../../../../lr11xx/common/apps_common.c ****     {
 610:../../../../lr11xx/common/apps_common.c ****         lr11xx_radio_get_gfsk_pkt_status( context, &pkt_status_gfsk );
 611:../../../../lr11xx/common/apps_common.c ****         HAL_DBG_TRACE_INFO( "  - RSSI average = %i dBm\n", pkt_status_gfsk.rssi_avg_in_dbm );
 612:../../../../lr11xx/common/apps_common.c ****         HAL_DBG_TRACE_INFO( "  - RSSI sync = %i dBm\n", pkt_status_gfsk.rssi_sync_in_dbm );
 613:../../../../lr11xx/common/apps_common.c ****     }
 614:../../../../lr11xx/common/apps_common.c **** }
 3541              		.loc 1 614 1 is_stmt 1
 3542 0132 2837     		adds	r7, r7, #40
 3543              	.LCFI101:
 3544              		.cfi_def_cfa_offset 8
 3545 0134 BD46     		mov	sp, r7
 3546              	.LCFI102:
 3547              		.cfi_def_cfa_register 13
 3548              		@ sp needed
 3549 0136 80BD     		pop	{r7, pc}
 3550              	.L140:
 3551              		.align	2
 3552              	.L139:
 3553 0138 00000000 		.word	.LC1
 3554 013c 08000000 		.word	.LC2
 3555 0140 B0020000 		.word	.LC26
 3556 0144 68000000 		.word	.LC6
 3557 0148 F4020000 		.word	.LC27
 3558 014c 04030000 		.word	.LC28
 3559 0150 E0010000 		.word	.LC18
 3560 0154 18030000 		.word	.LC29
 3561 0158 70000000 		.word	.LC7
 3562 015c 78000000 		.word	.LC8
 3563 0160 20030000 		.word	.LC30
 3564 0164 30030000 		.word	.LC31
 3565 0168 4C030000 		.word	.LC32
 3566 016c 70030000 		.word	.LC33
 3567              		.cfi_endproc
 3568              	.LFE262:
 3570              		.section	.rodata
 3571              		.align	2
 3572              	.LC34:
 3573 0388 496E7465 		.ascii	"Interrupt flags = 0x%08X\012\000"
 3573      72727570 
 3573      7420666C 
ARM GAS  C:\msys64\tmp\ccwHIjYg.s 			page 86


 3573      61677320 
 3573      3D203078 
 3574 03a2 0000     		.align	2
 3575              	.LC35:
 3576 03a4 496E7465 		.ascii	"Interrupt flags (after filtering) = 0x%08X\012\000"
 3576      72727570 
 3576      7420666C 
 3576      61677320 
 3576      28616674 
 3577              		.align	2
 3578              	.LC36:
 3579 03d0 54782064 		.ascii	"Tx done\012\000"
 3579      6F6E650A 
 3579      00
 3580 03d9 000000   		.align	2
 3581              	.LC37:
 3582 03dc 50726561 		.ascii	"Preamble detected\012\000"
 3582      6D626C65 
 3582      20646574 
 3582      65637465 
 3582      640A00
 3583 03ef 00       		.align	2
 3584              	.LC38:
 3585 03f0 48656164 		.ascii	"Header error\012\000"
 3585      65722065 
 3585      72726F72 
 3585      0A00
 3586 03fe 0000     		.align	2
 3587              	.LC39:
 3588 0400 53796E63 		.ascii	"Syncword or header valid\012\000"
 3588      776F7264 
 3588      206F7220 
 3588      68656164 
 3588      65722076 
 3589 041a 0000     		.align	2
 3590              	.LC40:
 3591 041c 43524320 		.ascii	"CRC error\012\000"
 3591      6572726F 
 3591      720A00
 3592 0427 00       		.align	2
 3593              	.LC41:
 3594 0428 46534B20 		.ascii	"FSK length error\012\000"
 3594      6C656E67 
 3594      74682065 
 3594      72726F72 
 3594      0A00
 3595 043a 0000     		.align	2
 3596              	.LC42:
 3597 043c 52782064 		.ascii	"Rx done\012\000"
 3597      6F6E650A 
 3597      00
 3598 0445 000000   		.align	2
 3599              	.LC43:
 3600 0448 43414420 		.ascii	"CAD done\012\000"
 3600      646F6E65 
 3600      0A00
 3601 0452 0000     		.align	2
ARM GAS  C:\msys64\tmp\ccwHIjYg.s 			page 87


 3602              	.LC44:
 3603 0454 4368616E 		.ascii	"Channel activity detected\012\000"
 3603      6E656C20 
 3603      61637469 
 3603      76697479 
 3603      20646574 
 3604 046f 00       		.align	2
 3605              	.LC45:
 3606 0470 4E6F2063 		.ascii	"No channel activity detected\012\000"
 3606      68616E6E 
 3606      656C2061 
 3606      63746976 
 3606      69747920 
 3607 048e 0000     		.align	2
 3608              	.LC46:
 3609 0490 52782074 		.ascii	"Rx timeout\012\000"
 3609      696D656F 
 3609      75740A00 
 3610              		.align	2
 3611              	.LC47:
 3612 049c 4C6F5261 		.ascii	"LoRa Rx timestamp\012\000"
 3612      20527820 
 3612      74696D65 
 3612      7374616D 
 3612      700A00
 3613 04af 00       		.align	2
 3614              	.LC48:
 3615 04b0 5254546F 		.ascii	"RTToF request valid\012\000"
 3615      46207265 
 3615      71756573 
 3615      74207661 
 3615      6C69640A 
 3616 04c5 000000   		.align	2
 3617              	.LC49:
 3618 04c8 5254546F 		.ascii	"RTToF request discarded\012\000"
 3618      46207265 
 3618      71756573 
 3618      74206469 
 3618      73636172 
 3619 04e1 000000   		.align	2
 3620              	.LC50:
 3621 04e4 5254546F 		.ascii	"RTToF response done\012\000"
 3621      46207265 
 3621      73706F6E 
 3621      73652064 
 3621      6F6E650A 
 3622 04f9 000000   		.align	2
 3623              	.LC51:
 3624 04fc 5254546F 		.ascii	"RTToF exchange valid\012\000"
 3624      46206578 
 3624      6368616E 
 3624      67652076 
 3624      616C6964 
 3625 0512 0000     		.align	2
 3626              	.LC52:
 3627 0514 5254546F 		.ascii	"RTToF timeout\012\000"
 3627      46207469 
ARM GAS  C:\msys64\tmp\ccwHIjYg.s 			page 88


 3627      6D656F75 
 3627      740A00
 3628 0523 00       		.align	2
 3629              	.LC53:
 3630 0524 57692D46 		.ascii	"Wi-Fi scan done\012\000"
 3630      69207363 
 3630      616E2064 
 3630      6F6E650A 
 3630      00
 3631 0535 000000   		.align	2
 3632              	.LC54:
 3633 0538 474E5353 		.ascii	"GNSS scan done\012\000"
 3633      20736361 
 3633      6E20646F 
 3633      6E650A00 
 3634              		.section	.text.apps_common_lr11xx_irq_process,"ax",%progbits
 3635              		.align	1
 3636              		.global	apps_common_lr11xx_irq_process
 3637              		.syntax unified
 3638              		.thumb
 3639              		.thumb_func
 3641              	apps_common_lr11xx_irq_process:
 3642              	.LFB263:
 615:../../../../lr11xx/common/apps_common.c **** 
 616:../../../../lr11xx/common/apps_common.c **** void apps_common_lr11xx_irq_process( const void* context, lr11xx_system_irq_mask_t irq_filter_mask 
 617:../../../../lr11xx/common/apps_common.c **** {
 3643              		.loc 1 617 1
 3644              		.cfi_startproc
 3645              		@ args = 0, pretend = 0, frame = 16
 3646              		@ frame_needed = 1, uses_anonymous_args = 0
 3647 0000 80B5     		push	{r7, lr}
 3648              	.LCFI103:
 3649              		.cfi_def_cfa_offset 8
 3650              		.cfi_offset 7, -8
 3651              		.cfi_offset 14, -4
 3652 0002 84B0     		sub	sp, sp, #16
 3653              	.LCFI104:
 3654              		.cfi_def_cfa_offset 24
 3655 0004 00AF     		add	r7, sp, #0
 3656              	.LCFI105:
 3657              		.cfi_def_cfa_register 7
 3658 0006 7860     		str	r0, [r7, #4]
 3659 0008 3960     		str	r1, [r7]
 618:../../../../lr11xx/common/apps_common.c ****     if( irq_fired == true )
 3660              		.loc 1 618 19
 3661 000a 6D4B     		ldr	r3, .L162
 3662 000c 1B78     		ldrb	r3, [r3]
 3663 000e DBB2     		uxtb	r3, r3
 3664              		.loc 1 618 7
 3665 0010 002B     		cmp	r3, #0
 3666 0012 00F0B381 		beq	.L161
 3667              	.LBB41:
 619:../../../../lr11xx/common/apps_common.c ****     {
 620:../../../../lr11xx/common/apps_common.c ****         irq_fired = false;
 3668              		.loc 1 620 19
 3669 0016 6A4B     		ldr	r3, .L162
 3670 0018 0022     		movs	r2, #0
ARM GAS  C:\msys64\tmp\ccwHIjYg.s 			page 89


 3671 001a 1A70     		strb	r2, [r3]
 621:../../../../lr11xx/common/apps_common.c **** 
 622:../../../../lr11xx/common/apps_common.c ****         lr11xx_system_irq_mask_t irq_regs;
 623:../../../../lr11xx/common/apps_common.c ****         lr11xx_system_get_and_clear_irq_status( context, &irq_regs );
 3672              		.loc 1 623 9
 3673 001c 07F10C03 		add	r3, r7, #12
 3674 0020 1946     		mov	r1, r3
 3675 0022 7868     		ldr	r0, [r7, #4]
 3676 0024 FFF7FEFF 		bl	lr11xx_system_get_and_clear_irq_status
 624:../../../../lr11xx/common/apps_common.c **** 
 625:../../../../lr11xx/common/apps_common.c ****         HAL_DBG_TRACE_INFO( "Interrupt flags = 0x%08X\n", irq_regs );
 3677              		.loc 1 625 9
 3678 0028 6648     		ldr	r0, .L162+4
 3679 002a FFF7FEFF 		bl	hal_mcu_trace_print
 3680              		.loc 1 625 9 is_stmt 0 discriminator 1
 3681 002e 6648     		ldr	r0, .L162+8
 3682 0030 FFF7FEFF 		bl	hal_mcu_trace_print
 3683              		.loc 1 625 9 discriminator 2
 3684 0034 FB68     		ldr	r3, [r7, #12]
 3685 0036 1946     		mov	r1, r3
 3686 0038 6448     		ldr	r0, .L162+12
 3687 003a FFF7FEFF 		bl	hal_mcu_trace_print
 3688              		.loc 1 625 9 discriminator 3
 3689 003e 6448     		ldr	r0, .L162+16
 3690 0040 FFF7FEFF 		bl	hal_mcu_trace_print
 626:../../../../lr11xx/common/apps_common.c **** 
 627:../../../../lr11xx/common/apps_common.c ****         irq_regs &= irq_filter_mask;
 3691              		.loc 1 627 18 is_stmt 1
 3692 0044 FA68     		ldr	r2, [r7, #12]
 3693 0046 3B68     		ldr	r3, [r7]
 3694 0048 1340     		ands	r3, r3, r2
 3695 004a FB60     		str	r3, [r7, #12]
 628:../../../../lr11xx/common/apps_common.c **** 
 629:../../../../lr11xx/common/apps_common.c ****         HAL_DBG_TRACE_INFO( "Interrupt flags (after filtering) = 0x%08X\n", irq_regs );
 3696              		.loc 1 629 9
 3697 004c 5D48     		ldr	r0, .L162+4
 3698 004e FFF7FEFF 		bl	hal_mcu_trace_print
 3699              		.loc 1 629 9 is_stmt 0 discriminator 1
 3700 0052 5D48     		ldr	r0, .L162+8
 3701 0054 FFF7FEFF 		bl	hal_mcu_trace_print
 3702              		.loc 1 629 9 discriminator 2
 3703 0058 FB68     		ldr	r3, [r7, #12]
 3704 005a 1946     		mov	r1, r3
 3705 005c 5D48     		ldr	r0, .L162+20
 3706 005e FFF7FEFF 		bl	hal_mcu_trace_print
 3707              		.loc 1 629 9 discriminator 3
 3708 0062 5B48     		ldr	r0, .L162+16
 3709 0064 FFF7FEFF 		bl	hal_mcu_trace_print
 630:../../../../lr11xx/common/apps_common.c **** 
 631:../../../../lr11xx/common/apps_common.c ****         if( ( irq_regs & LR11XX_SYSTEM_IRQ_TX_DONE ) == LR11XX_SYSTEM_IRQ_TX_DONE )
 3710              		.loc 1 631 24 is_stmt 1
 3711 0068 FB68     		ldr	r3, [r7, #12]
 3712 006a 03F00403 		and	r3, r3, #4
 3713              		.loc 1 631 11
 3714 006e 002B     		cmp	r3, #0
 3715 0070 0DD0     		beq	.L143
 632:../../../../lr11xx/common/apps_common.c ****         {
ARM GAS  C:\msys64\tmp\ccwHIjYg.s 			page 90


 633:../../../../lr11xx/common/apps_common.c ****             HAL_DBG_TRACE_INFO( "Tx done\n" );
 3716              		.loc 1 633 13
 3717 0072 5448     		ldr	r0, .L162+4
 3718 0074 FFF7FEFF 		bl	hal_mcu_trace_print
 3719              		.loc 1 633 13 is_stmt 0 discriminator 1
 3720 0078 5348     		ldr	r0, .L162+8
 3721 007a FFF7FEFF 		bl	hal_mcu_trace_print
 3722              		.loc 1 633 13 discriminator 2
 3723 007e 5648     		ldr	r0, .L162+24
 3724 0080 FFF7FEFF 		bl	hal_mcu_trace_print
 3725              		.loc 1 633 13 discriminator 3
 3726 0084 5248     		ldr	r0, .L162+16
 3727 0086 FFF7FEFF 		bl	hal_mcu_trace_print
 634:../../../../lr11xx/common/apps_common.c ****             on_tx_done( );
 3728              		.loc 1 634 13 is_stmt 1
 3729 008a FFF7FEFF 		bl	on_tx_done
 3730              	.L143:
 635:../../../../lr11xx/common/apps_common.c ****         }
 636:../../../../lr11xx/common/apps_common.c **** 
 637:../../../../lr11xx/common/apps_common.c ****         if( ( irq_regs & LR11XX_SYSTEM_IRQ_PREAMBLE_DETECTED ) == LR11XX_SYSTEM_IRQ_PREAMBLE_DETECT
 3731              		.loc 1 637 24
 3732 008e FB68     		ldr	r3, [r7, #12]
 3733 0090 03F01003 		and	r3, r3, #16
 3734              		.loc 1 637 11
 3735 0094 002B     		cmp	r3, #0
 3736 0096 0DD0     		beq	.L144
 638:../../../../lr11xx/common/apps_common.c ****         {
 639:../../../../lr11xx/common/apps_common.c ****             HAL_DBG_TRACE_INFO( "Preamble detected\n" );
 3737              		.loc 1 639 13
 3738 0098 4A48     		ldr	r0, .L162+4
 3739 009a FFF7FEFF 		bl	hal_mcu_trace_print
 3740              		.loc 1 639 13 is_stmt 0 discriminator 1
 3741 009e 4A48     		ldr	r0, .L162+8
 3742 00a0 FFF7FEFF 		bl	hal_mcu_trace_print
 3743              		.loc 1 639 13 discriminator 2
 3744 00a4 4D48     		ldr	r0, .L162+28
 3745 00a6 FFF7FEFF 		bl	hal_mcu_trace_print
 3746              		.loc 1 639 13 discriminator 3
 3747 00aa 4948     		ldr	r0, .L162+16
 3748 00ac FFF7FEFF 		bl	hal_mcu_trace_print
 640:../../../../lr11xx/common/apps_common.c ****             on_preamble_detected( );
 3749              		.loc 1 640 13 is_stmt 1
 3750 00b0 FFF7FEFF 		bl	on_preamble_detected
 3751              	.L144:
 641:../../../../lr11xx/common/apps_common.c ****         }
 642:../../../../lr11xx/common/apps_common.c **** 
 643:../../../../lr11xx/common/apps_common.c ****         if( ( irq_regs & LR11XX_SYSTEM_IRQ_HEADER_ERROR ) == LR11XX_SYSTEM_IRQ_HEADER_ERROR )
 3752              		.loc 1 643 24
 3753 00b4 FB68     		ldr	r3, [r7, #12]
 3754 00b6 03F04003 		and	r3, r3, #64
 3755              		.loc 1 643 11
 3756 00ba 002B     		cmp	r3, #0
 3757 00bc 0DD0     		beq	.L145
 644:../../../../lr11xx/common/apps_common.c ****         {
 645:../../../../lr11xx/common/apps_common.c ****             HAL_DBG_TRACE_ERROR( "Header error\n" );
 3758              		.loc 1 645 13
 3759 00be 4848     		ldr	r0, .L162+32
ARM GAS  C:\msys64\tmp\ccwHIjYg.s 			page 91


 3760 00c0 FFF7FEFF 		bl	hal_mcu_trace_print
 3761              		.loc 1 645 13 is_stmt 0 discriminator 1
 3762 00c4 4748     		ldr	r0, .L162+36
 3763 00c6 FFF7FEFF 		bl	hal_mcu_trace_print
 3764              		.loc 1 645 13 discriminator 2
 3765 00ca 4748     		ldr	r0, .L162+40
 3766 00cc FFF7FEFF 		bl	hal_mcu_trace_print
 3767              		.loc 1 645 13 discriminator 3
 3768 00d0 3F48     		ldr	r0, .L162+16
 3769 00d2 FFF7FEFF 		bl	hal_mcu_trace_print
 646:../../../../lr11xx/common/apps_common.c ****             on_header_error( );
 3770              		.loc 1 646 13 is_stmt 1
 3771 00d6 FFF7FEFF 		bl	on_header_error
 3772              	.L145:
 647:../../../../lr11xx/common/apps_common.c ****         }
 648:../../../../lr11xx/common/apps_common.c **** 
 649:../../../../lr11xx/common/apps_common.c ****         if( ( irq_regs & LR11XX_SYSTEM_IRQ_SYNC_WORD_HEADER_VALID ) == LR11XX_SYSTEM_IRQ_SYNC_WORD_
 3773              		.loc 1 649 24
 3774 00da FB68     		ldr	r3, [r7, #12]
 3775 00dc 03F02003 		and	r3, r3, #32
 3776              		.loc 1 649 11
 3777 00e0 002B     		cmp	r3, #0
 3778 00e2 0DD0     		beq	.L146
 650:../../../../lr11xx/common/apps_common.c ****         {
 651:../../../../lr11xx/common/apps_common.c ****             HAL_DBG_TRACE_INFO( "Syncword or header valid\n" );
 3779              		.loc 1 651 13
 3780 00e4 3748     		ldr	r0, .L162+4
 3781 00e6 FFF7FEFF 		bl	hal_mcu_trace_print
 3782              		.loc 1 651 13 is_stmt 0 discriminator 1
 3783 00ea 3748     		ldr	r0, .L162+8
 3784 00ec FFF7FEFF 		bl	hal_mcu_trace_print
 3785              		.loc 1 651 13 discriminator 2
 3786 00f0 3E48     		ldr	r0, .L162+44
 3787 00f2 FFF7FEFF 		bl	hal_mcu_trace_print
 3788              		.loc 1 651 13 discriminator 3
 3789 00f6 3648     		ldr	r0, .L162+16
 3790 00f8 FFF7FEFF 		bl	hal_mcu_trace_print
 652:../../../../lr11xx/common/apps_common.c ****             on_syncword_header_valid( );
 3791              		.loc 1 652 13 is_stmt 1
 3792 00fc FFF7FEFF 		bl	on_syncword_header_valid
 3793              	.L146:
 653:../../../../lr11xx/common/apps_common.c ****         }
 654:../../../../lr11xx/common/apps_common.c **** 
 655:../../../../lr11xx/common/apps_common.c ****         if( ( irq_regs & LR11XX_SYSTEM_IRQ_RX_DONE ) == LR11XX_SYSTEM_IRQ_RX_DONE )
 3794              		.loc 1 655 24
 3795 0100 FB68     		ldr	r3, [r7, #12]
 3796 0102 03F00803 		and	r3, r3, #8
 3797              		.loc 1 655 11
 3798 0106 002B     		cmp	r3, #0
 3799 0108 35D0     		beq	.L147
 656:../../../../lr11xx/common/apps_common.c ****         {
 657:../../../../lr11xx/common/apps_common.c ****             if( ( irq_regs & LR11XX_SYSTEM_IRQ_CRC_ERROR ) == LR11XX_SYSTEM_IRQ_CRC_ERROR )
 3800              		.loc 1 657 28
 3801 010a FB68     		ldr	r3, [r7, #12]
 3802 010c 03F08003 		and	r3, r3, #128
 3803              		.loc 1 657 15
 3804 0110 002B     		cmp	r3, #0
ARM GAS  C:\msys64\tmp\ccwHIjYg.s 			page 92


 3805 0112 0ED0     		beq	.L148
 658:../../../../lr11xx/common/apps_common.c ****             {
 659:../../../../lr11xx/common/apps_common.c ****                 HAL_DBG_TRACE_ERROR( "CRC error\n" );
 3806              		.loc 1 659 17
 3807 0114 3248     		ldr	r0, .L162+32
 3808 0116 FFF7FEFF 		bl	hal_mcu_trace_print
 3809              		.loc 1 659 17 is_stmt 0 discriminator 1
 3810 011a 3248     		ldr	r0, .L162+36
 3811 011c FFF7FEFF 		bl	hal_mcu_trace_print
 3812              		.loc 1 659 17 discriminator 2
 3813 0120 3348     		ldr	r0, .L162+48
 3814 0122 FFF7FEFF 		bl	hal_mcu_trace_print
 3815              		.loc 1 659 17 discriminator 3
 3816 0126 2A48     		ldr	r0, .L162+16
 3817 0128 FFF7FEFF 		bl	hal_mcu_trace_print
 660:../../../../lr11xx/common/apps_common.c ****                 on_rx_crc_error( );
 3818              		.loc 1 660 17 is_stmt 1
 3819 012c FFF7FEFF 		bl	on_rx_crc_error
 3820 0130 21E0     		b	.L147
 3821              	.L148:
 661:../../../../lr11xx/common/apps_common.c ****             }
 662:../../../../lr11xx/common/apps_common.c ****             else if( ( irq_regs & LR11XX_SYSTEM_IRQ_FSK_LEN_ERROR ) == LR11XX_SYSTEM_IRQ_FSK_LEN_ER
 3822              		.loc 1 662 33
 3823 0132 FB68     		ldr	r3, [r7, #12]
 3824 0134 03F08073 		and	r3, r3, #16777216
 3825              		.loc 1 662 20
 3826 0138 002B     		cmp	r3, #0
 3827 013a 0ED0     		beq	.L149
 663:../../../../lr11xx/common/apps_common.c ****             {
 664:../../../../lr11xx/common/apps_common.c ****                 HAL_DBG_TRACE_ERROR( "FSK length error\n" );
 3828              		.loc 1 664 17
 3829 013c 2848     		ldr	r0, .L162+32
 3830 013e FFF7FEFF 		bl	hal_mcu_trace_print
 3831              		.loc 1 664 17 is_stmt 0 discriminator 1
 3832 0142 2848     		ldr	r0, .L162+36
 3833 0144 FFF7FEFF 		bl	hal_mcu_trace_print
 3834              		.loc 1 664 17 discriminator 2
 3835 0148 2A48     		ldr	r0, .L162+52
 3836 014a FFF7FEFF 		bl	hal_mcu_trace_print
 3837              		.loc 1 664 17 discriminator 3
 3838 014e 2048     		ldr	r0, .L162+16
 3839 0150 FFF7FEFF 		bl	hal_mcu_trace_print
 665:../../../../lr11xx/common/apps_common.c ****                 on_fsk_len_error( );
 3840              		.loc 1 665 17 is_stmt 1
 3841 0154 FFF7FEFF 		bl	on_fsk_len_error
 3842 0158 0DE0     		b	.L147
 3843              	.L149:
 666:../../../../lr11xx/common/apps_common.c ****             }
 667:../../../../lr11xx/common/apps_common.c ****             else
 668:../../../../lr11xx/common/apps_common.c ****             {
 669:../../../../lr11xx/common/apps_common.c ****                 HAL_DBG_TRACE_INFO( "Rx done\n" );
 3844              		.loc 1 669 17
 3845 015a 1A48     		ldr	r0, .L162+4
 3846 015c FFF7FEFF 		bl	hal_mcu_trace_print
 3847              		.loc 1 669 17 is_stmt 0 discriminator 1
 3848 0160 1948     		ldr	r0, .L162+8
 3849 0162 FFF7FEFF 		bl	hal_mcu_trace_print
ARM GAS  C:\msys64\tmp\ccwHIjYg.s 			page 93


 3850              		.loc 1 669 17 discriminator 2
 3851 0166 2448     		ldr	r0, .L162+56
 3852 0168 FFF7FEFF 		bl	hal_mcu_trace_print
 3853              		.loc 1 669 17 discriminator 3
 3854 016c 1848     		ldr	r0, .L162+16
 3855 016e FFF7FEFF 		bl	hal_mcu_trace_print
 670:../../../../lr11xx/common/apps_common.c ****                 on_rx_done( );
 3856              		.loc 1 670 17 is_stmt 1
 3857 0172 FFF7FEFF 		bl	on_rx_done
 3858              	.L147:
 671:../../../../lr11xx/common/apps_common.c ****             }
 672:../../../../lr11xx/common/apps_common.c ****         }
 673:../../../../lr11xx/common/apps_common.c **** 
 674:../../../../lr11xx/common/apps_common.c ****         if( ( irq_regs & LR11XX_SYSTEM_IRQ_CAD_DONE ) == LR11XX_SYSTEM_IRQ_CAD_DONE )
 3859              		.loc 1 674 24
 3860 0176 FB68     		ldr	r3, [r7, #12]
 3861 0178 03F48073 		and	r3, r3, #256
 3862              		.loc 1 674 11
 3863 017c 002B     		cmp	r3, #0
 3864 017e 4FD0     		beq	.L150
 675:../../../../lr11xx/common/apps_common.c ****         {
 676:../../../../lr11xx/common/apps_common.c ****             HAL_DBG_TRACE_INFO( "CAD done\n" );
 3865              		.loc 1 676 13
 3866 0180 1048     		ldr	r0, .L162+4
 3867 0182 FFF7FEFF 		bl	hal_mcu_trace_print
 3868              		.loc 1 676 13 is_stmt 0 discriminator 1
 3869 0186 1048     		ldr	r0, .L162+8
 3870 0188 FFF7FEFF 		bl	hal_mcu_trace_print
 3871              		.loc 1 676 13 discriminator 2
 3872 018c 1B48     		ldr	r0, .L162+60
 3873 018e FFF7FEFF 		bl	hal_mcu_trace_print
 3874              		.loc 1 676 13 discriminator 3
 3875 0192 0F48     		ldr	r0, .L162+16
 3876 0194 FFF7FEFF 		bl	hal_mcu_trace_print
 677:../../../../lr11xx/common/apps_common.c ****             if( ( irq_regs & LR11XX_SYSTEM_IRQ_CAD_DETECTED ) == LR11XX_SYSTEM_IRQ_CAD_DETECTED )
 3877              		.loc 1 677 28 is_stmt 1
 3878 0198 FB68     		ldr	r3, [r7, #12]
 3879 019a 03F40073 		and	r3, r3, #512
 3880              		.loc 1 677 15
 3881 019e 002B     		cmp	r3, #0
 3882 01a0 30D0     		beq	.L151
 678:../../../../lr11xx/common/apps_common.c ****             {
 679:../../../../lr11xx/common/apps_common.c ****                 HAL_DBG_TRACE_INFO( "Channel activity detected\n" );
 3883              		.loc 1 679 17
 3884 01a2 0848     		ldr	r0, .L162+4
 3885 01a4 FFF7FEFF 		bl	hal_mcu_trace_print
 3886              		.loc 1 679 17 is_stmt 0 discriminator 1
 3887 01a8 0748     		ldr	r0, .L162+8
 3888 01aa FFF7FEFF 		bl	hal_mcu_trace_print
 3889              		.loc 1 679 17 discriminator 2
 3890 01ae 1448     		ldr	r0, .L162+64
 3891 01b0 FFF7FEFF 		bl	hal_mcu_trace_print
 3892              		.loc 1 679 17 discriminator 3
 3893 01b4 0648     		ldr	r0, .L162+16
 3894 01b6 FFF7FEFF 		bl	hal_mcu_trace_print
 680:../../../../lr11xx/common/apps_common.c ****                 on_cad_done_detected( );
 3895              		.loc 1 680 17 is_stmt 1
ARM GAS  C:\msys64\tmp\ccwHIjYg.s 			page 94


 3896 01ba FFF7FEFF 		bl	on_cad_done_detected
 3897 01be 2FE0     		b	.L150
 3898              	.L163:
 3899              		.align	2
 3900              	.L162:
 3901 01c0 00000000 		.word	irq_fired
 3902 01c4 70000000 		.word	.LC7
 3903 01c8 78000000 		.word	.LC8
 3904 01cc 88030000 		.word	.LC34
 3905 01d0 68000000 		.word	.LC6
 3906 01d4 A4030000 		.word	.LC35
 3907 01d8 D0030000 		.word	.LC36
 3908 01dc DC030000 		.word	.LC37
 3909 01e0 00000000 		.word	.LC1
 3910 01e4 08000000 		.word	.LC2
 3911 01e8 F0030000 		.word	.LC38
 3912 01ec 00040000 		.word	.LC39
 3913 01f0 1C040000 		.word	.LC40
 3914 01f4 28040000 		.word	.LC41
 3915 01f8 3C040000 		.word	.LC42
 3916 01fc 48040000 		.word	.LC43
 3917 0200 54040000 		.word	.LC44
 3918              	.L151:
 681:../../../../lr11xx/common/apps_common.c ****             }
 682:../../../../lr11xx/common/apps_common.c ****             else
 683:../../../../lr11xx/common/apps_common.c ****             {
 684:../../../../lr11xx/common/apps_common.c ****                 HAL_DBG_TRACE_INFO( "No channel activity detected\n" );
 3919              		.loc 1 684 17
 3920 0204 5F48     		ldr	r0, .L164
 3921 0206 FFF7FEFF 		bl	hal_mcu_trace_print
 3922              		.loc 1 684 17 is_stmt 0 discriminator 1
 3923 020a 5F48     		ldr	r0, .L164+4
 3924 020c FFF7FEFF 		bl	hal_mcu_trace_print
 3925              		.loc 1 684 17 discriminator 2
 3926 0210 5E48     		ldr	r0, .L164+8
 3927 0212 FFF7FEFF 		bl	hal_mcu_trace_print
 3928              		.loc 1 684 17 discriminator 3
 3929 0216 5E48     		ldr	r0, .L164+12
 3930 0218 FFF7FEFF 		bl	hal_mcu_trace_print
 685:../../../../lr11xx/common/apps_common.c ****                 on_cad_done_undetected( );
 3931              		.loc 1 685 17 is_stmt 1
 3932 021c FFF7FEFF 		bl	on_cad_done_undetected
 3933              	.L150:
 686:../../../../lr11xx/common/apps_common.c ****             }
 687:../../../../lr11xx/common/apps_common.c ****         }
 688:../../../../lr11xx/common/apps_common.c **** 
 689:../../../../lr11xx/common/apps_common.c ****         if( ( irq_regs & LR11XX_SYSTEM_IRQ_TIMEOUT ) == LR11XX_SYSTEM_IRQ_TIMEOUT )
 3934              		.loc 1 689 24
 3935 0220 FB68     		ldr	r3, [r7, #12]
 3936 0222 03F48063 		and	r3, r3, #1024
 3937              		.loc 1 689 11
 3938 0226 002B     		cmp	r3, #0
 3939 0228 0DD0     		beq	.L152
 690:../../../../lr11xx/common/apps_common.c ****         {
 691:../../../../lr11xx/common/apps_common.c ****             HAL_DBG_TRACE_WARNING( "Rx timeout\n" );
 3940              		.loc 1 691 13
 3941 022a 5A48     		ldr	r0, .L164+16
ARM GAS  C:\msys64\tmp\ccwHIjYg.s 			page 95


 3942 022c FFF7FEFF 		bl	hal_mcu_trace_print
 3943              		.loc 1 691 13 is_stmt 0 discriminator 1
 3944 0230 5948     		ldr	r0, .L164+20
 3945 0232 FFF7FEFF 		bl	hal_mcu_trace_print
 3946              		.loc 1 691 13 discriminator 2
 3947 0236 5948     		ldr	r0, .L164+24
 3948 0238 FFF7FEFF 		bl	hal_mcu_trace_print
 3949              		.loc 1 691 13 discriminator 3
 3950 023c 5448     		ldr	r0, .L164+12
 3951 023e FFF7FEFF 		bl	hal_mcu_trace_print
 692:../../../../lr11xx/common/apps_common.c ****             on_rx_timeout( );
 3952              		.loc 1 692 13 is_stmt 1
 3953 0242 FFF7FEFF 		bl	on_rx_timeout
 3954              	.L152:
 693:../../../../lr11xx/common/apps_common.c ****         }
 694:../../../../lr11xx/common/apps_common.c **** 
 695:../../../../lr11xx/common/apps_common.c ****         if( ( irq_regs & LR11XX_SYSTEM_IRQ_LORA_RX_TIMESTAMP ) == LR11XX_SYSTEM_IRQ_LORA_RX_TIMESTA
 3955              		.loc 1 695 24
 3956 0246 FB68     		ldr	r3, [r7, #12]
 3957 0248 03F00063 		and	r3, r3, #134217728
 3958              		.loc 1 695 11
 3959 024c 002B     		cmp	r3, #0
 3960 024e 0DD0     		beq	.L153
 696:../../../../lr11xx/common/apps_common.c ****         {
 697:../../../../lr11xx/common/apps_common.c ****             HAL_DBG_TRACE_INFO( "LoRa Rx timestamp\n" );
 3961              		.loc 1 697 13
 3962 0250 4C48     		ldr	r0, .L164
 3963 0252 FFF7FEFF 		bl	hal_mcu_trace_print
 3964              		.loc 1 697 13 is_stmt 0 discriminator 1
 3965 0256 4C48     		ldr	r0, .L164+4
 3966 0258 FFF7FEFF 		bl	hal_mcu_trace_print
 3967              		.loc 1 697 13 discriminator 2
 3968 025c 5048     		ldr	r0, .L164+28
 3969 025e FFF7FEFF 		bl	hal_mcu_trace_print
 3970              		.loc 1 697 13 discriminator 3
 3971 0262 4B48     		ldr	r0, .L164+12
 3972 0264 FFF7FEFF 		bl	hal_mcu_trace_print
 698:../../../../lr11xx/common/apps_common.c ****             on_lora_rx_timestamp( );
 3973              		.loc 1 698 13 is_stmt 1
 3974 0268 FFF7FEFF 		bl	on_lora_rx_timestamp
 3975              	.L153:
 699:../../../../lr11xx/common/apps_common.c ****         }
 700:../../../../lr11xx/common/apps_common.c **** 
 701:../../../../lr11xx/common/apps_common.c ****         if( ( irq_regs & LR11XX_SYSTEM_IRQ_RTTOF_REQ_VALID ) == LR11XX_SYSTEM_IRQ_RTTOF_REQ_VALID )
 3976              		.loc 1 701 24
 3977 026c FB68     		ldr	r3, [r7, #12]
 3978 026e 03F48043 		and	r3, r3, #16384
 3979              		.loc 1 701 11
 3980 0272 002B     		cmp	r3, #0
 3981 0274 0DD0     		beq	.L154
 702:../../../../lr11xx/common/apps_common.c ****         {
 703:../../../../lr11xx/common/apps_common.c ****             HAL_DBG_TRACE_INFO( "RTToF request valid\n" );
 3982              		.loc 1 703 13
 3983 0276 4348     		ldr	r0, .L164
 3984 0278 FFF7FEFF 		bl	hal_mcu_trace_print
 3985              		.loc 1 703 13 is_stmt 0 discriminator 1
 3986 027c 4248     		ldr	r0, .L164+4
ARM GAS  C:\msys64\tmp\ccwHIjYg.s 			page 96


 3987 027e FFF7FEFF 		bl	hal_mcu_trace_print
 3988              		.loc 1 703 13 discriminator 2
 3989 0282 4848     		ldr	r0, .L164+32
 3990 0284 FFF7FEFF 		bl	hal_mcu_trace_print
 3991              		.loc 1 703 13 discriminator 3
 3992 0288 4148     		ldr	r0, .L164+12
 3993 028a FFF7FEFF 		bl	hal_mcu_trace_print
 704:../../../../lr11xx/common/apps_common.c ****             on_rttof_request_valid( );
 3994              		.loc 1 704 13 is_stmt 1
 3995 028e FFF7FEFF 		bl	on_rttof_request_valid
 3996              	.L154:
 705:../../../../lr11xx/common/apps_common.c ****         }
 706:../../../../lr11xx/common/apps_common.c **** 
 707:../../../../lr11xx/common/apps_common.c ****         if( ( irq_regs & LR11XX_SYSTEM_IRQ_RTTOF_REQ_DISCARDED ) == LR11XX_SYSTEM_IRQ_RTTOF_REQ_DIS
 3997              		.loc 1 707 24
 3998 0292 FB68     		ldr	r3, [r7, #12]
 3999 0294 03F40043 		and	r3, r3, #32768
 4000              		.loc 1 707 11
 4001 0298 002B     		cmp	r3, #0
 4002 029a 0DD0     		beq	.L155
 708:../../../../lr11xx/common/apps_common.c ****         {
 709:../../../../lr11xx/common/apps_common.c ****             HAL_DBG_TRACE_INFO( "RTToF request discarded\n" );
 4003              		.loc 1 709 13
 4004 029c 3948     		ldr	r0, .L164
 4005 029e FFF7FEFF 		bl	hal_mcu_trace_print
 4006              		.loc 1 709 13 is_stmt 0 discriminator 1
 4007 02a2 3948     		ldr	r0, .L164+4
 4008 02a4 FFF7FEFF 		bl	hal_mcu_trace_print
 4009              		.loc 1 709 13 discriminator 2
 4010 02a8 3F48     		ldr	r0, .L164+36
 4011 02aa FFF7FEFF 		bl	hal_mcu_trace_print
 4012              		.loc 1 709 13 discriminator 3
 4013 02ae 3848     		ldr	r0, .L164+12
 4014 02b0 FFF7FEFF 		bl	hal_mcu_trace_print
 710:../../../../lr11xx/common/apps_common.c ****             on_rttof_request_discarded( );
 4015              		.loc 1 710 13 is_stmt 1
 4016 02b4 FFF7FEFF 		bl	on_rttof_request_discarded
 4017              	.L155:
 711:../../../../lr11xx/common/apps_common.c ****         }
 712:../../../../lr11xx/common/apps_common.c **** 
 713:../../../../lr11xx/common/apps_common.c ****         if( ( irq_regs & LR11XX_SYSTEM_IRQ_RTTOF_RESP_DONE ) == LR11XX_SYSTEM_IRQ_RTTOF_RESP_DONE )
 4018              		.loc 1 713 24
 4019 02b8 FB68     		ldr	r3, [r7, #12]
 4020 02ba 03F48033 		and	r3, r3, #65536
 4021              		.loc 1 713 11
 4022 02be 002B     		cmp	r3, #0
 4023 02c0 0DD0     		beq	.L156
 714:../../../../lr11xx/common/apps_common.c ****         {
 715:../../../../lr11xx/common/apps_common.c ****             HAL_DBG_TRACE_INFO( "RTToF response done\n" );
 4024              		.loc 1 715 13
 4025 02c2 3048     		ldr	r0, .L164
 4026 02c4 FFF7FEFF 		bl	hal_mcu_trace_print
 4027              		.loc 1 715 13 is_stmt 0 discriminator 1
 4028 02c8 2F48     		ldr	r0, .L164+4
 4029 02ca FFF7FEFF 		bl	hal_mcu_trace_print
 4030              		.loc 1 715 13 discriminator 2
 4031 02ce 3748     		ldr	r0, .L164+40
ARM GAS  C:\msys64\tmp\ccwHIjYg.s 			page 97


 4032 02d0 FFF7FEFF 		bl	hal_mcu_trace_print
 4033              		.loc 1 715 13 discriminator 3
 4034 02d4 2E48     		ldr	r0, .L164+12
 4035 02d6 FFF7FEFF 		bl	hal_mcu_trace_print
 716:../../../../lr11xx/common/apps_common.c ****             on_rttof_response_done( );
 4036              		.loc 1 716 13 is_stmt 1
 4037 02da FFF7FEFF 		bl	on_rttof_response_done
 4038              	.L156:
 717:../../../../lr11xx/common/apps_common.c ****         }
 718:../../../../lr11xx/common/apps_common.c **** 
 719:../../../../lr11xx/common/apps_common.c ****         if( ( irq_regs & LR11XX_SYSTEM_IRQ_RTTOF_EXCH_VALID ) == LR11XX_SYSTEM_IRQ_RTTOF_EXCH_VALID
 4039              		.loc 1 719 24
 4040 02de FB68     		ldr	r3, [r7, #12]
 4041 02e0 03F40033 		and	r3, r3, #131072
 4042              		.loc 1 719 11
 4043 02e4 002B     		cmp	r3, #0
 4044 02e6 0DD0     		beq	.L157
 720:../../../../lr11xx/common/apps_common.c ****         {
 721:../../../../lr11xx/common/apps_common.c ****             HAL_DBG_TRACE_INFO( "RTToF exchange valid\n" );
 4045              		.loc 1 721 13
 4046 02e8 2648     		ldr	r0, .L164
 4047 02ea FFF7FEFF 		bl	hal_mcu_trace_print
 4048              		.loc 1 721 13 is_stmt 0 discriminator 1
 4049 02ee 2648     		ldr	r0, .L164+4
 4050 02f0 FFF7FEFF 		bl	hal_mcu_trace_print
 4051              		.loc 1 721 13 discriminator 2
 4052 02f4 2E48     		ldr	r0, .L164+44
 4053 02f6 FFF7FEFF 		bl	hal_mcu_trace_print
 4054              		.loc 1 721 13 discriminator 3
 4055 02fa 2548     		ldr	r0, .L164+12
 4056 02fc FFF7FEFF 		bl	hal_mcu_trace_print
 722:../../../../lr11xx/common/apps_common.c ****             on_rttof_exchange_valid( );
 4057              		.loc 1 722 13 is_stmt 1
 4058 0300 FFF7FEFF 		bl	on_rttof_exchange_valid
 4059              	.L157:
 723:../../../../lr11xx/common/apps_common.c ****         }
 724:../../../../lr11xx/common/apps_common.c **** 
 725:../../../../lr11xx/common/apps_common.c ****         if( ( irq_regs & LR11XX_SYSTEM_IRQ_RTTOF_TIMEOUT ) == LR11XX_SYSTEM_IRQ_RTTOF_TIMEOUT )
 4060              		.loc 1 725 24
 4061 0304 FB68     		ldr	r3, [r7, #12]
 4062 0306 03F48023 		and	r3, r3, #262144
 4063              		.loc 1 725 11
 4064 030a 002B     		cmp	r3, #0
 4065 030c 0DD0     		beq	.L158
 726:../../../../lr11xx/common/apps_common.c ****         {
 727:../../../../lr11xx/common/apps_common.c ****             HAL_DBG_TRACE_INFO( "RTToF timeout\n" );
 4066              		.loc 1 727 13
 4067 030e 1D48     		ldr	r0, .L164
 4068 0310 FFF7FEFF 		bl	hal_mcu_trace_print
 4069              		.loc 1 727 13 is_stmt 0 discriminator 1
 4070 0314 1C48     		ldr	r0, .L164+4
 4071 0316 FFF7FEFF 		bl	hal_mcu_trace_print
 4072              		.loc 1 727 13 discriminator 2
 4073 031a 2648     		ldr	r0, .L164+48
 4074 031c FFF7FEFF 		bl	hal_mcu_trace_print
 4075              		.loc 1 727 13 discriminator 3
 4076 0320 1B48     		ldr	r0, .L164+12
ARM GAS  C:\msys64\tmp\ccwHIjYg.s 			page 98


 4077 0322 FFF7FEFF 		bl	hal_mcu_trace_print
 728:../../../../lr11xx/common/apps_common.c ****             on_rttof_timeout( );
 4078              		.loc 1 728 13 is_stmt 1
 4079 0326 FFF7FEFF 		bl	on_rttof_timeout
 4080              	.L158:
 729:../../../../lr11xx/common/apps_common.c ****         }
 730:../../../../lr11xx/common/apps_common.c **** 
 731:../../../../lr11xx/common/apps_common.c ****         if( ( irq_regs & LR11XX_SYSTEM_IRQ_WIFI_SCAN_DONE ) == LR11XX_SYSTEM_IRQ_WIFI_SCAN_DONE )
 4081              		.loc 1 731 24
 4082 032a FB68     		ldr	r3, [r7, #12]
 4083 032c 03F48013 		and	r3, r3, #1048576
 4084              		.loc 1 731 11
 4085 0330 002B     		cmp	r3, #0
 4086 0332 0DD0     		beq	.L159
 732:../../../../lr11xx/common/apps_common.c ****         {
 733:../../../../lr11xx/common/apps_common.c ****             HAL_DBG_TRACE_INFO( "Wi-Fi scan done\n" );
 4087              		.loc 1 733 13
 4088 0334 1348     		ldr	r0, .L164
 4089 0336 FFF7FEFF 		bl	hal_mcu_trace_print
 4090              		.loc 1 733 13 is_stmt 0 discriminator 1
 4091 033a 1348     		ldr	r0, .L164+4
 4092 033c FFF7FEFF 		bl	hal_mcu_trace_print
 4093              		.loc 1 733 13 discriminator 2
 4094 0340 1D48     		ldr	r0, .L164+52
 4095 0342 FFF7FEFF 		bl	hal_mcu_trace_print
 4096              		.loc 1 733 13 discriminator 3
 4097 0346 1248     		ldr	r0, .L164+12
 4098 0348 FFF7FEFF 		bl	hal_mcu_trace_print
 734:../../../../lr11xx/common/apps_common.c ****             on_wifi_scan_done( );
 4099              		.loc 1 734 13 is_stmt 1
 4100 034c FFF7FEFF 		bl	on_wifi_scan_done
 4101              	.L159:
 735:../../../../lr11xx/common/apps_common.c ****         }
 736:../../../../lr11xx/common/apps_common.c **** 
 737:../../../../lr11xx/common/apps_common.c ****         if( ( irq_regs & LR11XX_SYSTEM_IRQ_GNSS_SCAN_DONE ) == LR11XX_SYSTEM_IRQ_GNSS_SCAN_DONE )
 4102              		.loc 1 737 24
 4103 0350 FB68     		ldr	r3, [r7, #12]
 4104 0352 03F40023 		and	r3, r3, #524288
 4105              		.loc 1 737 11
 4106 0356 002B     		cmp	r3, #0
 4107 0358 0DD0     		beq	.L160
 738:../../../../lr11xx/common/apps_common.c ****         {
 739:../../../../lr11xx/common/apps_common.c ****             HAL_DBG_TRACE_INFO( "GNSS scan done\n" );
 4108              		.loc 1 739 13
 4109 035a 0A48     		ldr	r0, .L164
 4110 035c FFF7FEFF 		bl	hal_mcu_trace_print
 4111              		.loc 1 739 13 is_stmt 0 discriminator 1
 4112 0360 0948     		ldr	r0, .L164+4
 4113 0362 FFF7FEFF 		bl	hal_mcu_trace_print
 4114              		.loc 1 739 13 discriminator 2
 4115 0366 1548     		ldr	r0, .L164+56
 4116 0368 FFF7FEFF 		bl	hal_mcu_trace_print
 4117              		.loc 1 739 13 discriminator 3
 4118 036c 0848     		ldr	r0, .L164+12
 4119 036e FFF7FEFF 		bl	hal_mcu_trace_print
 740:../../../../lr11xx/common/apps_common.c ****             on_gnss_scan_done( );
 4120              		.loc 1 740 13 is_stmt 1
ARM GAS  C:\msys64\tmp\ccwHIjYg.s 			page 99


 4121 0372 FFF7FEFF 		bl	on_gnss_scan_done
 4122              	.L160:
 741:../../../../lr11xx/common/apps_common.c ****         }
 742:../../../../lr11xx/common/apps_common.c **** 
 743:../../../../lr11xx/common/apps_common.c ****         HAL_DBG_TRACE_PRINTF( "\n" );
 4123              		.loc 1 743 9
 4124 0376 1248     		ldr	r0, .L164+60
 4125 0378 FFF7FEFF 		bl	hal_mcu_trace_print
 4126              	.L161:
 4127              	.LBE41:
 744:../../../../lr11xx/common/apps_common.c ****     }
 745:../../../../lr11xx/common/apps_common.c **** }
 4128              		.loc 1 745 1
 4129 037c 00BF     		nop
 4130 037e 1037     		adds	r7, r7, #16
 4131              	.LCFI106:
 4132              		.cfi_def_cfa_offset 8
 4133 0380 BD46     		mov	sp, r7
 4134              	.LCFI107:
 4135              		.cfi_def_cfa_register 13
 4136              		@ sp needed
 4137 0382 80BD     		pop	{r7, pc}
 4138              	.L165:
 4139              		.align	2
 4140              	.L164:
 4141 0384 70000000 		.word	.LC7
 4142 0388 78000000 		.word	.LC8
 4143 038c 70040000 		.word	.LC45
 4144 0390 68000000 		.word	.LC6
 4145 0394 14010000 		.word	.LC13
 4146 0398 1C010000 		.word	.LC14
 4147 039c 90040000 		.word	.LC46
 4148 03a0 9C040000 		.word	.LC47
 4149 03a4 B0040000 		.word	.LC48
 4150 03a8 C8040000 		.word	.LC49
 4151 03ac E4040000 		.word	.LC50
 4152 03b0 FC040000 		.word	.LC51
 4153 03b4 14050000 		.word	.LC52
 4154 03b8 24050000 		.word	.LC53
 4155 03bc 38050000 		.word	.LC54
 4156 03c0 E0010000 		.word	.LC18
 4157              		.cfi_endproc
 4158              	.LFE263:
 4160              		.section	.text.apps_common_lr11xx_handle_pre_tx,"ax",%progbits
 4161              		.align	1
 4162              		.global	apps_common_lr11xx_handle_pre_tx
 4163              		.syntax unified
 4164              		.thumb
 4165              		.thumb_func
 4167              	apps_common_lr11xx_handle_pre_tx:
 4168              	.LFB264:
 746:../../../../lr11xx/common/apps_common.c **** 
 747:../../../../lr11xx/common/apps_common.c **** void apps_common_lr11xx_handle_pre_tx( void )
 748:../../../../lr11xx/common/apps_common.c **** {
 4169              		.loc 1 748 1
 4170              		.cfi_startproc
 4171              		@ args = 0, pretend = 0, frame = 0
ARM GAS  C:\msys64\tmp\ccwHIjYg.s 			page 100


 4172              		@ frame_needed = 1, uses_anonymous_args = 0
 4173 0000 80B5     		push	{r7, lr}
 4174              	.LCFI108:
 4175              		.cfi_def_cfa_offset 8
 4176              		.cfi_offset 7, -8
 4177              		.cfi_offset 14, -4
 4178 0002 00AF     		add	r7, sp, #0
 4179              	.LCFI109:
 4180              		.cfi_def_cfa_register 7
 749:../../../../lr11xx/common/apps_common.c ****     if( shield_pinout->led_tx != SMTC_SHIELD_PINOUT_NONE )
 4181              		.loc 1 749 22
 4182 0004 064B     		ldr	r3, .L169
 4183 0006 1B68     		ldr	r3, [r3]
 4184 0008 5B79     		ldrb	r3, [r3, #5]	@ zero_extendqisi2
 4185              		.loc 1 749 7
 4186 000a 162B     		cmp	r3, #22
 4187 000c 05D0     		beq	.L168
 750:../../../../lr11xx/common/apps_common.c ****     {
 751:../../../../lr11xx/common/apps_common.c ****         smtc_hal_mcu_gpio_set_state( led_tx.inst, SMTC_HAL_MCU_GPIO_STATE_HIGH );
 4188              		.loc 1 751 9
 4189 000e 054B     		ldr	r3, .L169+4
 4190 0010 9B68     		ldr	r3, [r3, #8]
 4191 0012 0121     		movs	r1, #1
 4192 0014 1846     		mov	r0, r3
 4193 0016 FFF7FEFF 		bl	smtc_hal_mcu_gpio_set_state
 4194              	.L168:
 752:../../../../lr11xx/common/apps_common.c ****     }
 753:../../../../lr11xx/common/apps_common.c **** }
 4195              		.loc 1 753 1
 4196 001a 00BF     		nop
 4197 001c 80BD     		pop	{r7, pc}
 4198              	.L170:
 4199 001e 00BF     		.align	2
 4200              	.L169:
 4201 0020 00000000 		.word	shield_pinout
 4202 0024 00000000 		.word	led_tx
 4203              		.cfi_endproc
 4204              	.LFE264:
 4206              		.section	.text.apps_common_lr11xx_handle_post_tx,"ax",%progbits
 4207              		.align	1
 4208              		.global	apps_common_lr11xx_handle_post_tx
 4209              		.syntax unified
 4210              		.thumb
 4211              		.thumb_func
 4213              	apps_common_lr11xx_handle_post_tx:
 4214              	.LFB265:
 754:../../../../lr11xx/common/apps_common.c **** 
 755:../../../../lr11xx/common/apps_common.c **** void apps_common_lr11xx_handle_post_tx( void )
 756:../../../../lr11xx/common/apps_common.c **** {
 4215              		.loc 1 756 1
 4216              		.cfi_startproc
 4217              		@ args = 0, pretend = 0, frame = 0
 4218              		@ frame_needed = 1, uses_anonymous_args = 0
 4219 0000 80B5     		push	{r7, lr}
 4220              	.LCFI110:
 4221              		.cfi_def_cfa_offset 8
 4222              		.cfi_offset 7, -8
ARM GAS  C:\msys64\tmp\ccwHIjYg.s 			page 101


 4223              		.cfi_offset 14, -4
 4224 0002 00AF     		add	r7, sp, #0
 4225              	.LCFI111:
 4226              		.cfi_def_cfa_register 7
 757:../../../../lr11xx/common/apps_common.c ****     if( shield_pinout->led_tx != SMTC_SHIELD_PINOUT_NONE )
 4227              		.loc 1 757 22
 4228 0004 064B     		ldr	r3, .L174
 4229 0006 1B68     		ldr	r3, [r3]
 4230 0008 5B79     		ldrb	r3, [r3, #5]	@ zero_extendqisi2
 4231              		.loc 1 757 7
 4232 000a 162B     		cmp	r3, #22
 4233 000c 05D0     		beq	.L173
 758:../../../../lr11xx/common/apps_common.c ****     {
 759:../../../../lr11xx/common/apps_common.c ****         smtc_hal_mcu_gpio_set_state( led_tx.inst, SMTC_HAL_MCU_GPIO_STATE_LOW );
 4234              		.loc 1 759 9
 4235 000e 054B     		ldr	r3, .L174+4
 4236 0010 9B68     		ldr	r3, [r3, #8]
 4237 0012 0021     		movs	r1, #0
 4238 0014 1846     		mov	r0, r3
 4239 0016 FFF7FEFF 		bl	smtc_hal_mcu_gpio_set_state
 4240              	.L173:
 760:../../../../lr11xx/common/apps_common.c ****     }
 761:../../../../lr11xx/common/apps_common.c **** }
 4241              		.loc 1 761 1
 4242 001a 00BF     		nop
 4243 001c 80BD     		pop	{r7, pc}
 4244              	.L175:
 4245 001e 00BF     		.align	2
 4246              	.L174:
 4247 0020 00000000 		.word	shield_pinout
 4248 0024 00000000 		.word	led_tx
 4249              		.cfi_endproc
 4250              	.LFE265:
 4252              		.section	.text.apps_common_lr11xx_handle_pre_rx,"ax",%progbits
 4253              		.align	1
 4254              		.global	apps_common_lr11xx_handle_pre_rx
 4255              		.syntax unified
 4256              		.thumb
 4257              		.thumb_func
 4259              	apps_common_lr11xx_handle_pre_rx:
 4260              	.LFB266:
 762:../../../../lr11xx/common/apps_common.c **** 
 763:../../../../lr11xx/common/apps_common.c **** void apps_common_lr11xx_handle_pre_rx( void )
 764:../../../../lr11xx/common/apps_common.c **** {
 4261              		.loc 1 764 1
 4262              		.cfi_startproc
 4263              		@ args = 0, pretend = 0, frame = 0
 4264              		@ frame_needed = 1, uses_anonymous_args = 0
 4265 0000 80B5     		push	{r7, lr}
 4266              	.LCFI112:
 4267              		.cfi_def_cfa_offset 8
 4268              		.cfi_offset 7, -8
 4269              		.cfi_offset 14, -4
 4270 0002 00AF     		add	r7, sp, #0
 4271              	.LCFI113:
 4272              		.cfi_def_cfa_register 7
 765:../../../../lr11xx/common/apps_common.c ****     if( shield_pinout->led_rx != SMTC_SHIELD_PINOUT_NONE )
ARM GAS  C:\msys64\tmp\ccwHIjYg.s 			page 102


 4273              		.loc 1 765 22
 4274 0004 064B     		ldr	r3, .L179
 4275 0006 1B68     		ldr	r3, [r3]
 4276 0008 9B79     		ldrb	r3, [r3, #6]	@ zero_extendqisi2
 4277              		.loc 1 765 7
 4278 000a 162B     		cmp	r3, #22
 4279 000c 05D0     		beq	.L178
 766:../../../../lr11xx/common/apps_common.c ****     {
 767:../../../../lr11xx/common/apps_common.c ****         smtc_hal_mcu_gpio_set_state( led_rx.inst, SMTC_HAL_MCU_GPIO_STATE_HIGH );
 4280              		.loc 1 767 9
 4281 000e 054B     		ldr	r3, .L179+4
 4282 0010 9B68     		ldr	r3, [r3, #8]
 4283 0012 0121     		movs	r1, #1
 4284 0014 1846     		mov	r0, r3
 4285 0016 FFF7FEFF 		bl	smtc_hal_mcu_gpio_set_state
 4286              	.L178:
 768:../../../../lr11xx/common/apps_common.c ****     }
 769:../../../../lr11xx/common/apps_common.c **** }
 4287              		.loc 1 769 1
 4288 001a 00BF     		nop
 4289 001c 80BD     		pop	{r7, pc}
 4290              	.L180:
 4291 001e 00BF     		.align	2
 4292              	.L179:
 4293 0020 00000000 		.word	shield_pinout
 4294 0024 00000000 		.word	led_rx
 4295              		.cfi_endproc
 4296              	.LFE266:
 4298              		.section	.text.apps_common_lr11xx_handle_post_rx,"ax",%progbits
 4299              		.align	1
 4300              		.global	apps_common_lr11xx_handle_post_rx
 4301              		.syntax unified
 4302              		.thumb
 4303              		.thumb_func
 4305              	apps_common_lr11xx_handle_post_rx:
 4306              	.LFB267:
 770:../../../../lr11xx/common/apps_common.c **** 
 771:../../../../lr11xx/common/apps_common.c **** void apps_common_lr11xx_handle_post_rx( void )
 772:../../../../lr11xx/common/apps_common.c **** {
 4307              		.loc 1 772 1
 4308              		.cfi_startproc
 4309              		@ args = 0, pretend = 0, frame = 0
 4310              		@ frame_needed = 1, uses_anonymous_args = 0
 4311 0000 80B5     		push	{r7, lr}
 4312              	.LCFI114:
 4313              		.cfi_def_cfa_offset 8
 4314              		.cfi_offset 7, -8
 4315              		.cfi_offset 14, -4
 4316 0002 00AF     		add	r7, sp, #0
 4317              	.LCFI115:
 4318              		.cfi_def_cfa_register 7
 773:../../../../lr11xx/common/apps_common.c ****     if( shield_pinout->led_rx != SMTC_SHIELD_PINOUT_NONE )
 4319              		.loc 1 773 22
 4320 0004 064B     		ldr	r3, .L184
 4321 0006 1B68     		ldr	r3, [r3]
 4322 0008 9B79     		ldrb	r3, [r3, #6]	@ zero_extendqisi2
 4323              		.loc 1 773 7
ARM GAS  C:\msys64\tmp\ccwHIjYg.s 			page 103


 4324 000a 162B     		cmp	r3, #22
 4325 000c 05D0     		beq	.L183
 774:../../../../lr11xx/common/apps_common.c ****     {
 775:../../../../lr11xx/common/apps_common.c ****         smtc_hal_mcu_gpio_set_state( led_rx.inst, SMTC_HAL_MCU_GPIO_STATE_LOW );
 4326              		.loc 1 775 9
 4327 000e 054B     		ldr	r3, .L184+4
 4328 0010 9B68     		ldr	r3, [r3, #8]
 4329 0012 0021     		movs	r1, #0
 4330 0014 1846     		mov	r0, r3
 4331 0016 FFF7FEFF 		bl	smtc_hal_mcu_gpio_set_state
 4332              	.L183:
 776:../../../../lr11xx/common/apps_common.c ****     }
 777:../../../../lr11xx/common/apps_common.c **** }
 4333              		.loc 1 777 1
 4334 001a 00BF     		nop
 4335 001c 80BD     		pop	{r7, pc}
 4336              	.L185:
 4337 001e 00BF     		.align	2
 4338              	.L184:
 4339 0020 00000000 		.word	shield_pinout
 4340 0024 00000000 		.word	led_rx
 4341              		.cfi_endproc
 4342              	.LFE267:
 4344              		.section	.text.apps_common_lr11xx_handle_pre_gnss_scan,"ax",%progbits
 4345              		.align	1
 4346              		.global	apps_common_lr11xx_handle_pre_gnss_scan
 4347              		.syntax unified
 4348              		.thumb
 4349              		.thumb_func
 4351              	apps_common_lr11xx_handle_pre_gnss_scan:
 4352              	.LFB268:
 778:../../../../lr11xx/common/apps_common.c **** 
 779:../../../../lr11xx/common/apps_common.c **** void apps_common_lr11xx_handle_pre_gnss_scan( void )
 780:../../../../lr11xx/common/apps_common.c **** {
 4353              		.loc 1 780 1
 4354              		.cfi_startproc
 4355              		@ args = 0, pretend = 0, frame = 0
 4356              		@ frame_needed = 1, uses_anonymous_args = 0
 4357 0000 80B5     		push	{r7, lr}
 4358              	.LCFI116:
 4359              		.cfi_def_cfa_offset 8
 4360              		.cfi_offset 7, -8
 4361              		.cfi_offset 14, -4
 4362 0002 00AF     		add	r7, sp, #0
 4363              	.LCFI117:
 4364              		.cfi_def_cfa_register 7
 781:../../../../lr11xx/common/apps_common.c ****     if( shield_pinout->led_scan != SMTC_SHIELD_PINOUT_NONE )
 4365              		.loc 1 781 22
 4366 0004 0B4B     		ldr	r3, .L190
 4367 0006 1B68     		ldr	r3, [r3]
 4368 0008 DB79     		ldrb	r3, [r3, #7]	@ zero_extendqisi2
 4369              		.loc 1 781 7
 4370 000a 162B     		cmp	r3, #22
 4371 000c 05D0     		beq	.L187
 782:../../../../lr11xx/common/apps_common.c ****     {
 783:../../../../lr11xx/common/apps_common.c ****         smtc_hal_mcu_gpio_set_state( led_scan.inst, SMTC_HAL_MCU_GPIO_STATE_HIGH );
 4372              		.loc 1 783 9
ARM GAS  C:\msys64\tmp\ccwHIjYg.s 			page 104


 4373 000e 0A4B     		ldr	r3, .L190+4
 4374 0010 9B68     		ldr	r3, [r3, #8]
 4375 0012 0121     		movs	r1, #1
 4376 0014 1846     		mov	r0, r3
 4377 0016 FFF7FEFF 		bl	smtc_hal_mcu_gpio_set_state
 4378              	.L187:
 784:../../../../lr11xx/common/apps_common.c ****     }
 785:../../../../lr11xx/common/apps_common.c **** 
 786:../../../../lr11xx/common/apps_common.c ****     if( shield_pinout->lna != SMTC_SHIELD_PINOUT_NONE )
 4379              		.loc 1 786 22
 4380 001a 064B     		ldr	r3, .L190
 4381 001c 1B68     		ldr	r3, [r3]
 4382 001e 1B79     		ldrb	r3, [r3, #4]	@ zero_extendqisi2
 4383              		.loc 1 786 7
 4384 0020 162B     		cmp	r3, #22
 4385 0022 05D0     		beq	.L189
 787:../../../../lr11xx/common/apps_common.c ****     {
 788:../../../../lr11xx/common/apps_common.c ****         smtc_hal_mcu_gpio_set_state( lna_ctrl.inst, SMTC_HAL_MCU_GPIO_STATE_HIGH );
 4386              		.loc 1 788 9
 4387 0024 054B     		ldr	r3, .L190+8
 4388 0026 9B68     		ldr	r3, [r3, #8]
 4389 0028 0121     		movs	r1, #1
 4390 002a 1846     		mov	r0, r3
 4391 002c FFF7FEFF 		bl	smtc_hal_mcu_gpio_set_state
 4392              	.L189:
 789:../../../../lr11xx/common/apps_common.c ****     }
 790:../../../../lr11xx/common/apps_common.c **** }
 4393              		.loc 1 790 1
 4394 0030 00BF     		nop
 4395 0032 80BD     		pop	{r7, pc}
 4396              	.L191:
 4397              		.align	2
 4398              	.L190:
 4399 0034 00000000 		.word	shield_pinout
 4400 0038 00000000 		.word	led_scan
 4401 003c 00000000 		.word	lna_ctrl
 4402              		.cfi_endproc
 4403              	.LFE268:
 4405              		.section	.text.apps_common_lr11xx_handle_post_gnss_scan,"ax",%progbits
 4406              		.align	1
 4407              		.global	apps_common_lr11xx_handle_post_gnss_scan
 4408              		.syntax unified
 4409              		.thumb
 4410              		.thumb_func
 4412              	apps_common_lr11xx_handle_post_gnss_scan:
 4413              	.LFB269:
 791:../../../../lr11xx/common/apps_common.c **** 
 792:../../../../lr11xx/common/apps_common.c **** void apps_common_lr11xx_handle_post_gnss_scan( void )
 793:../../../../lr11xx/common/apps_common.c **** {
 4414              		.loc 1 793 1
 4415              		.cfi_startproc
 4416              		@ args = 0, pretend = 0, frame = 0
 4417              		@ frame_needed = 1, uses_anonymous_args = 0
 4418 0000 80B5     		push	{r7, lr}
 4419              	.LCFI118:
 4420              		.cfi_def_cfa_offset 8
 4421              		.cfi_offset 7, -8
ARM GAS  C:\msys64\tmp\ccwHIjYg.s 			page 105


 4422              		.cfi_offset 14, -4
 4423 0002 00AF     		add	r7, sp, #0
 4424              	.LCFI119:
 4425              		.cfi_def_cfa_register 7
 794:../../../../lr11xx/common/apps_common.c ****     if( shield_pinout->led_scan != SMTC_SHIELD_PINOUT_NONE )
 4426              		.loc 1 794 22
 4427 0004 0B4B     		ldr	r3, .L196
 4428 0006 1B68     		ldr	r3, [r3]
 4429 0008 DB79     		ldrb	r3, [r3, #7]	@ zero_extendqisi2
 4430              		.loc 1 794 7
 4431 000a 162B     		cmp	r3, #22
 4432 000c 05D0     		beq	.L193
 795:../../../../lr11xx/common/apps_common.c ****     {
 796:../../../../lr11xx/common/apps_common.c ****         smtc_hal_mcu_gpio_set_state( led_scan.inst, SMTC_HAL_MCU_GPIO_STATE_LOW );
 4433              		.loc 1 796 9
 4434 000e 0A4B     		ldr	r3, .L196+4
 4435 0010 9B68     		ldr	r3, [r3, #8]
 4436 0012 0021     		movs	r1, #0
 4437 0014 1846     		mov	r0, r3
 4438 0016 FFF7FEFF 		bl	smtc_hal_mcu_gpio_set_state
 4439              	.L193:
 797:../../../../lr11xx/common/apps_common.c ****     }
 798:../../../../lr11xx/common/apps_common.c **** 
 799:../../../../lr11xx/common/apps_common.c ****     if( shield_pinout->lna != SMTC_SHIELD_PINOUT_NONE )
 4440              		.loc 1 799 22
 4441 001a 064B     		ldr	r3, .L196
 4442 001c 1B68     		ldr	r3, [r3]
 4443 001e 1B79     		ldrb	r3, [r3, #4]	@ zero_extendqisi2
 4444              		.loc 1 799 7
 4445 0020 162B     		cmp	r3, #22
 4446 0022 05D0     		beq	.L195
 800:../../../../lr11xx/common/apps_common.c ****     {
 801:../../../../lr11xx/common/apps_common.c ****         smtc_hal_mcu_gpio_set_state( lna_ctrl.inst, SMTC_HAL_MCU_GPIO_STATE_LOW );
 4447              		.loc 1 801 9
 4448 0024 054B     		ldr	r3, .L196+8
 4449 0026 9B68     		ldr	r3, [r3, #8]
 4450 0028 0021     		movs	r1, #0
 4451 002a 1846     		mov	r0, r3
 4452 002c FFF7FEFF 		bl	smtc_hal_mcu_gpio_set_state
 4453              	.L195:
 802:../../../../lr11xx/common/apps_common.c ****     }
 803:../../../../lr11xx/common/apps_common.c **** }
 4454              		.loc 1 803 1
 4455 0030 00BF     		nop
 4456 0032 80BD     		pop	{r7, pc}
 4457              	.L197:
 4458              		.align	2
 4459              	.L196:
 4460 0034 00000000 		.word	shield_pinout
 4461 0038 00000000 		.word	led_scan
 4462 003c 00000000 		.word	lna_ctrl
 4463              		.cfi_endproc
 4464              	.LFE269:
 4466              		.section	.text.apps_common_lr11xx_handle_pre_wifi_scan,"ax",%progbits
 4467              		.align	1
 4468              		.global	apps_common_lr11xx_handle_pre_wifi_scan
 4469              		.syntax unified
ARM GAS  C:\msys64\tmp\ccwHIjYg.s 			page 106


 4470              		.thumb
 4471              		.thumb_func
 4473              	apps_common_lr11xx_handle_pre_wifi_scan:
 4474              	.LFB270:
 804:../../../../lr11xx/common/apps_common.c **** 
 805:../../../../lr11xx/common/apps_common.c **** void apps_common_lr11xx_handle_pre_wifi_scan( void )
 806:../../../../lr11xx/common/apps_common.c **** {
 4475              		.loc 1 806 1
 4476              		.cfi_startproc
 4477              		@ args = 0, pretend = 0, frame = 0
 4478              		@ frame_needed = 1, uses_anonymous_args = 0
 4479 0000 80B5     		push	{r7, lr}
 4480              	.LCFI120:
 4481              		.cfi_def_cfa_offset 8
 4482              		.cfi_offset 7, -8
 4483              		.cfi_offset 14, -4
 4484 0002 00AF     		add	r7, sp, #0
 4485              	.LCFI121:
 4486              		.cfi_def_cfa_register 7
 807:../../../../lr11xx/common/apps_common.c ****     if( shield_pinout->led_scan != SMTC_SHIELD_PINOUT_NONE )
 4487              		.loc 1 807 22
 4488 0004 064B     		ldr	r3, .L201
 4489 0006 1B68     		ldr	r3, [r3]
 4490 0008 DB79     		ldrb	r3, [r3, #7]	@ zero_extendqisi2
 4491              		.loc 1 807 7
 4492 000a 162B     		cmp	r3, #22
 4493 000c 05D0     		beq	.L200
 808:../../../../lr11xx/common/apps_common.c ****     {
 809:../../../../lr11xx/common/apps_common.c ****         smtc_hal_mcu_gpio_set_state( led_scan.inst, SMTC_HAL_MCU_GPIO_STATE_HIGH );
 4494              		.loc 1 809 9
 4495 000e 054B     		ldr	r3, .L201+4
 4496 0010 9B68     		ldr	r3, [r3, #8]
 4497 0012 0121     		movs	r1, #1
 4498 0014 1846     		mov	r0, r3
 4499 0016 FFF7FEFF 		bl	smtc_hal_mcu_gpio_set_state
 4500              	.L200:
 810:../../../../lr11xx/common/apps_common.c ****     }
 811:../../../../lr11xx/common/apps_common.c **** }
 4501              		.loc 1 811 1
 4502 001a 00BF     		nop
 4503 001c 80BD     		pop	{r7, pc}
 4504              	.L202:
 4505 001e 00BF     		.align	2
 4506              	.L201:
 4507 0020 00000000 		.word	shield_pinout
 4508 0024 00000000 		.word	led_scan
 4509              		.cfi_endproc
 4510              	.LFE270:
 4512              		.section	.text.apps_common_lr11xx_handle_post_wifi_scan,"ax",%progbits
 4513              		.align	1
 4514              		.global	apps_common_lr11xx_handle_post_wifi_scan
 4515              		.syntax unified
 4516              		.thumb
 4517              		.thumb_func
 4519              	apps_common_lr11xx_handle_post_wifi_scan:
 4520              	.LFB271:
 812:../../../../lr11xx/common/apps_common.c **** 
ARM GAS  C:\msys64\tmp\ccwHIjYg.s 			page 107


 813:../../../../lr11xx/common/apps_common.c **** void apps_common_lr11xx_handle_post_wifi_scan( void )
 814:../../../../lr11xx/common/apps_common.c **** {
 4521              		.loc 1 814 1
 4522              		.cfi_startproc
 4523              		@ args = 0, pretend = 0, frame = 0
 4524              		@ frame_needed = 1, uses_anonymous_args = 0
 4525 0000 80B5     		push	{r7, lr}
 4526              	.LCFI122:
 4527              		.cfi_def_cfa_offset 8
 4528              		.cfi_offset 7, -8
 4529              		.cfi_offset 14, -4
 4530 0002 00AF     		add	r7, sp, #0
 4531              	.LCFI123:
 4532              		.cfi_def_cfa_register 7
 815:../../../../lr11xx/common/apps_common.c ****     if( shield_pinout->led_scan != SMTC_SHIELD_PINOUT_NONE )
 4533              		.loc 1 815 22
 4534 0004 064B     		ldr	r3, .L206
 4535 0006 1B68     		ldr	r3, [r3]
 4536 0008 DB79     		ldrb	r3, [r3, #7]	@ zero_extendqisi2
 4537              		.loc 1 815 7
 4538 000a 162B     		cmp	r3, #22
 4539 000c 05D0     		beq	.L205
 816:../../../../lr11xx/common/apps_common.c ****     {
 817:../../../../lr11xx/common/apps_common.c ****         smtc_hal_mcu_gpio_set_state( led_scan.inst, SMTC_HAL_MCU_GPIO_STATE_LOW );
 4540              		.loc 1 817 9
 4541 000e 054B     		ldr	r3, .L206+4
 4542 0010 9B68     		ldr	r3, [r3, #8]
 4543 0012 0021     		movs	r1, #0
 4544 0014 1846     		mov	r0, r3
 4545 0016 FFF7FEFF 		bl	smtc_hal_mcu_gpio_set_state
 4546              	.L205:
 818:../../../../lr11xx/common/apps_common.c ****     }
 819:../../../../lr11xx/common/apps_common.c **** }
 4547              		.loc 1 819 1
 4548 001a 00BF     		nop
 4549 001c 80BD     		pop	{r7, pc}
 4550              	.L207:
 4551 001e 00BF     		.align	2
 4552              	.L206:
 4553 0020 00000000 		.word	shield_pinout
 4554 0024 00000000 		.word	led_scan
 4555              		.cfi_endproc
 4556              	.LFE271:
 4558              		.section	.text.get_time_on_air_in_ms,"ax",%progbits
 4559              		.align	1
 4560              		.global	get_time_on_air_in_ms
 4561              		.syntax unified
 4562              		.thumb
 4563              		.thumb_func
 4565              	get_time_on_air_in_ms:
 4566              	.LFB272:
 820:../../../../lr11xx/common/apps_common.c **** 
 821:../../../../lr11xx/common/apps_common.c **** uint32_t get_time_on_air_in_ms( void )
 822:../../../../lr11xx/common/apps_common.c **** {
 4567              		.loc 1 822 1
 4568              		.cfi_startproc
 4569              		@ args = 0, pretend = 0, frame = 0
ARM GAS  C:\msys64\tmp\ccwHIjYg.s 			page 108


 4570              		@ frame_needed = 1, uses_anonymous_args = 0
 4571 0000 80B5     		push	{r7, lr}
 4572              	.LCFI124:
 4573              		.cfi_def_cfa_offset 8
 4574              		.cfi_offset 7, -8
 4575              		.cfi_offset 14, -4
 4576 0002 00AF     		add	r7, sp, #0
 4577              	.LCFI125:
 4578              		.cfi_def_cfa_register 7
 823:../../../../lr11xx/common/apps_common.c ****     switch( PACKET_TYPE )
 824:../../../../lr11xx/common/apps_common.c ****     {
 825:../../../../lr11xx/common/apps_common.c ****     case LR11XX_RADIO_PKT_TYPE_LORA:
 826:../../../../lr11xx/common/apps_common.c ****     {
 827:../../../../lr11xx/common/apps_common.c ****         return lr11xx_radio_get_lora_time_on_air_in_ms( &lora_pkt_params, &lora_mod_params );
 4579              		.loc 1 827 16
 4580 0004 0349     		ldr	r1, .L210
 4581 0006 0448     		ldr	r0, .L210+4
 4582 0008 FFF7FEFF 		bl	lr11xx_radio_get_lora_time_on_air_in_ms
 4583 000c 0346     		mov	r3, r0
 828:../../../../lr11xx/common/apps_common.c ****     }
 829:../../../../lr11xx/common/apps_common.c ****     case LR11XX_RADIO_PKT_TYPE_GFSK:
 830:../../../../lr11xx/common/apps_common.c ****     {
 831:../../../../lr11xx/common/apps_common.c ****         return lr11xx_radio_get_gfsk_time_on_air_in_ms( &gfsk_pkt_params, &gfsk_mod_params );
 832:../../../../lr11xx/common/apps_common.c ****     }
 833:../../../../lr11xx/common/apps_common.c ****     default:
 834:../../../../lr11xx/common/apps_common.c ****     {
 835:../../../../lr11xx/common/apps_common.c ****         return 0;
 836:../../../../lr11xx/common/apps_common.c ****     }
 837:../../../../lr11xx/common/apps_common.c ****     }
 838:../../../../lr11xx/common/apps_common.c **** }
 4584              		.loc 1 838 1
 4585 000e 1846     		mov	r0, r3
 4586 0010 80BD     		pop	{r7, pc}
 4587              	.L211:
 4588 0012 00BF     		.align	2
 4589              	.L210:
 4590 0014 00000000 		.word	lora_mod_params
 4591 0018 00000000 		.word	lora_pkt_params
 4592              		.cfi_endproc
 4593              	.LFE272:
 4595              		.section	.rodata
 4596              		.align	2
 4597              	.LC55:
 4598 0548 436F6D6D 		.ascii	"Common parameters:\012\000"
 4598      6F6E2070 
 4598      6172616D 
 4598      65746572 
 4598      733A0A00 
 4599              		.align	2
 4600              	.LC56:
 4601 055c 20202046 		.ascii	"   Fallback mode = %s\012\000"
 4601      616C6C62 
 4601      61636B20 
 4601      6D6F6465 
 4601      203D2025 
 4602 0573 00       		.align	2
 4603              	.LC57:
ARM GAS  C:\msys64\tmp\ccwHIjYg.s 			page 109


 4604 0574 20202052 		.ascii	"   Rx boost deactivated\012\000"
 4604      7820626F 
 4604      6F737420 
 4604      64656163 
 4604      74697661 
 4605              		.section	.text.print_common_configuration,"ax",%progbits
 4606              		.align	1
 4607              		.global	print_common_configuration
 4608              		.syntax unified
 4609              		.thumb
 4610              		.thumb_func
 4612              	print_common_configuration:
 4613              	.LFB273:
 839:../../../../lr11xx/common/apps_common.c **** 
 840:../../../../lr11xx/common/apps_common.c **** /*
 841:../../../../lr11xx/common/apps_common.c ****  * -----------------------------------------------------------------------------
 842:../../../../lr11xx/common/apps_common.c ****  * --- PRIVATE FUNCTIONS DEFINITION --------------------------------------------
 843:../../../../lr11xx/common/apps_common.c ****  */
 844:../../../../lr11xx/common/apps_common.c **** 
 845:../../../../lr11xx/common/apps_common.c **** void print_common_configuration( void )
 846:../../../../lr11xx/common/apps_common.c **** {
 4614              		.loc 1 846 1
 4615              		.cfi_startproc
 4616              		@ args = 0, pretend = 0, frame = 0
 4617              		@ frame_needed = 1, uses_anonymous_args = 0
 4618 0000 80B5     		push	{r7, lr}
 4619              	.LCFI126:
 4620              		.cfi_def_cfa_offset 8
 4621              		.cfi_offset 7, -8
 4622              		.cfi_offset 14, -4
 4623 0002 00AF     		add	r7, sp, #0
 4624              	.LCFI127:
 4625              		.cfi_def_cfa_register 7
 847:../../../../lr11xx/common/apps_common.c ****     HAL_DBG_TRACE_INFO( "Common parameters:\n" );
 4626              		.loc 1 847 5
 4627 0004 2C48     		ldr	r0, .L213
 4628 0006 FFF7FEFF 		bl	hal_mcu_trace_print
 4629              		.loc 1 847 5 is_stmt 0 discriminator 1
 4630 000a 2C48     		ldr	r0, .L213+4
 4631 000c FFF7FEFF 		bl	hal_mcu_trace_print
 4632              		.loc 1 847 5 discriminator 2
 4633 0010 2B48     		ldr	r0, .L213+8
 4634 0012 FFF7FEFF 		bl	hal_mcu_trace_print
 4635              		.loc 1 847 5 discriminator 3
 4636 0016 2B48     		ldr	r0, .L213+12
 4637 0018 FFF7FEFF 		bl	hal_mcu_trace_print
 848:../../../../lr11xx/common/apps_common.c ****     HAL_DBG_TRACE_INFO( "   Packet type   = %s\n", lr11xx_radio_pkt_type_to_str( PACKET_TYPE ) );
 4638              		.loc 1 848 5 is_stmt 1
 4639 001c 2648     		ldr	r0, .L213
 4640 001e FFF7FEFF 		bl	hal_mcu_trace_print
 4641              		.loc 1 848 5 is_stmt 0 discriminator 1
 4642 0022 2648     		ldr	r0, .L213+4
 4643 0024 FFF7FEFF 		bl	hal_mcu_trace_print
 4644              		.loc 1 848 5 discriminator 2
 4645 0028 0220     		movs	r0, #2
 4646 002a FFF7FEFF 		bl	lr11xx_radio_pkt_type_to_str
 4647 002e 0346     		mov	r3, r0
ARM GAS  C:\msys64\tmp\ccwHIjYg.s 			page 110


 4648              		.loc 1 848 5 discriminator 3
 4649 0030 1946     		mov	r1, r3
 4650 0032 2548     		ldr	r0, .L213+16
 4651 0034 FFF7FEFF 		bl	hal_mcu_trace_print
 4652              		.loc 1 848 5 discriminator 4
 4653 0038 2248     		ldr	r0, .L213+12
 4654 003a FFF7FEFF 		bl	hal_mcu_trace_print
 849:../../../../lr11xx/common/apps_common.c ****     HAL_DBG_TRACE_INFO( "   RF frequency  = %u Hz\n", RF_FREQ_IN_HZ );
 4655              		.loc 1 849 5 is_stmt 1
 4656 003e 1E48     		ldr	r0, .L213
 4657 0040 FFF7FEFF 		bl	hal_mcu_trace_print
 4658              		.loc 1 849 5 is_stmt 0 discriminator 1
 4659 0044 1D48     		ldr	r0, .L213+4
 4660 0046 FFF7FEFF 		bl	hal_mcu_trace_print
 4661              		.loc 1 849 5 discriminator 2
 4662 004a 2049     		ldr	r1, .L213+20
 4663 004c 2048     		ldr	r0, .L213+24
 4664 004e FFF7FEFF 		bl	hal_mcu_trace_print
 4665              		.loc 1 849 5 discriminator 3
 4666 0052 1C48     		ldr	r0, .L213+12
 4667 0054 FFF7FEFF 		bl	hal_mcu_trace_print
 850:../../../../lr11xx/common/apps_common.c ****     HAL_DBG_TRACE_INFO( "   Output power  = %i dBm\n", TX_OUTPUT_POWER_DBM );
 4668              		.loc 1 850 5 is_stmt 1
 4669 0058 1748     		ldr	r0, .L213
 4670 005a FFF7FEFF 		bl	hal_mcu_trace_print
 4671              		.loc 1 850 5 is_stmt 0 discriminator 1
 4672 005e 1748     		ldr	r0, .L213+4
 4673 0060 FFF7FEFF 		bl	hal_mcu_trace_print
 4674              		.loc 1 850 5 discriminator 2
 4675 0064 6FF00E01 		mvn	r1, #14
 4676 0068 1A48     		ldr	r0, .L213+28
 4677 006a FFF7FEFF 		bl	hal_mcu_trace_print
 4678              		.loc 1 850 5 discriminator 3
 4679 006e 1548     		ldr	r0, .L213+12
 4680 0070 FFF7FEFF 		bl	hal_mcu_trace_print
 851:../../../../lr11xx/common/apps_common.c ****     HAL_DBG_TRACE_INFO( "   Fallback mode = %s\n", lr11xx_radio_fallback_modes_to_str( FALLBACK_MOD
 4681              		.loc 1 851 5 is_stmt 1
 4682 0074 1048     		ldr	r0, .L213
 4683 0076 FFF7FEFF 		bl	hal_mcu_trace_print
 4684              		.loc 1 851 5 is_stmt 0 discriminator 1
 4685 007a 1048     		ldr	r0, .L213+4
 4686 007c FFF7FEFF 		bl	hal_mcu_trace_print
 4687              		.loc 1 851 5 discriminator 2
 4688 0080 0120     		movs	r0, #1
 4689 0082 FFF7FEFF 		bl	lr11xx_radio_fallback_modes_to_str
 4690 0086 0346     		mov	r3, r0
 4691              		.loc 1 851 5 discriminator 3
 4692 0088 1946     		mov	r1, r3
 4693 008a 1348     		ldr	r0, .L213+32
 4694 008c FFF7FEFF 		bl	hal_mcu_trace_print
 4695              		.loc 1 851 5 discriminator 4
 4696 0090 0C48     		ldr	r0, .L213+12
 4697 0092 FFF7FEFF 		bl	hal_mcu_trace_print
 852:../../../../lr11xx/common/apps_common.c ****     HAL_DBG_TRACE_INFO( ( ENABLE_RX_BOOST_MODE == true ) ? "   Rx boost activated\n" : "   Rx boost
 4698              		.loc 1 852 5 is_stmt 1
 4699 0096 0848     		ldr	r0, .L213
 4700 0098 FFF7FEFF 		bl	hal_mcu_trace_print
ARM GAS  C:\msys64\tmp\ccwHIjYg.s 			page 111


 4701              		.loc 1 852 5 is_stmt 0 discriminator 1
 4702 009c 0748     		ldr	r0, .L213+4
 4703 009e FFF7FEFF 		bl	hal_mcu_trace_print
 4704              		.loc 1 852 5 discriminator 2
 4705 00a2 0E48     		ldr	r0, .L213+36
 4706 00a4 FFF7FEFF 		bl	hal_mcu_trace_print
 4707              		.loc 1 852 5 discriminator 3
 4708 00a8 0648     		ldr	r0, .L213+12
 4709 00aa FFF7FEFF 		bl	hal_mcu_trace_print
 853:../../../../lr11xx/common/apps_common.c ****     HAL_DBG_TRACE_PRINTF( "\n" );
 4710              		.loc 1 853 5 is_stmt 1
 4711 00ae 0C48     		ldr	r0, .L213+40
 4712 00b0 FFF7FEFF 		bl	hal_mcu_trace_print
 854:../../../../lr11xx/common/apps_common.c **** }
 4713              		.loc 1 854 1
 4714 00b4 00BF     		nop
 4715 00b6 80BD     		pop	{r7, pc}
 4716              	.L214:
 4717              		.align	2
 4718              	.L213:
 4719 00b8 70000000 		.word	.LC7
 4720 00bc 78000000 		.word	.LC8
 4721 00c0 48050000 		.word	.LC55
 4722 00c4 68000000 		.word	.LC6
 4723 00c8 24020000 		.word	.LC21
 4724 00cc 80CE341D 		.word	490000000
 4725 00d0 3C020000 		.word	.LC22
 4726 00d4 58020000 		.word	.LC23
 4727 00d8 5C050000 		.word	.LC56
 4728 00dc 74050000 		.word	.LC57
 4729 00e0 E0010000 		.word	.LC18
 4730              		.cfi_endproc
 4731              	.LFE273:
 4733              		.section	.rodata
 4734 058d 000000   		.align	2
 4735              	.LC58:
 4736 0590 4C6F5261 		.ascii	"LoRa modulation parameters:\012\000"
 4736      206D6F64 
 4736      756C6174 
 4736      696F6E20 
 4736      70617261 
 4737 05ad 000000   		.align	2
 4738              	.LC59:
 4739 05b0 20202053 		.ascii	"   Spreading factor = %s\012\000"
 4739      70726561 
 4739      64696E67 
 4739      20666163 
 4739      746F7220 
 4740 05ca 0000     		.align	2
 4741              	.LC60:
 4742 05cc 20202042 		.ascii	"   Bandwidth        = %s\012\000"
 4742      616E6477 
 4742      69647468 
 4742      20202020 
 4742      20202020 
 4743 05e6 0000     		.align	2
 4744              	.LC61:
ARM GAS  C:\msys64\tmp\ccwHIjYg.s 			page 112


 4745 05e8 20202043 		.ascii	"   Coding rate      = %s\012\000"
 4745      6F64696E 
 4745      67207261 
 4745      74652020 
 4745      20202020 
 4746 0602 0000     		.align	2
 4747              	.LC62:
 4748 0604 4C6F5261 		.ascii	"LoRa packet parameters:\012\000"
 4748      20706163 
 4748      6B657420 
 4748      70617261 
 4748      6D657465 
 4749 061d 000000   		.align	2
 4750              	.LC63:
 4751 0620 20202050 		.ascii	"   Preamble length = %d symbol(s)\012\000"
 4751      7265616D 
 4751      626C6520 
 4751      6C656E67 
 4751      7468203D 
 4752 0643 00       		.align	2
 4753              	.LC64:
 4754 0644 20202048 		.ascii	"   Header mode     = %s\012\000"
 4754      65616465 
 4754      72206D6F 
 4754      64652020 
 4754      2020203D 
 4755 065d 000000   		.align	2
 4756              	.LC65:
 4757 0660 20202050 		.ascii	"   Payload length  = %d byte(s)\012\000"
 4757      61796C6F 
 4757      6164206C 
 4757      656E6774 
 4757      6820203D 
 4758 0681 000000   		.align	2
 4759              	.LC66:
 4760 0684 20202043 		.ascii	"   CRC mode        = %s\012\000"
 4760      5243206D 
 4760      6F646520 
 4760      20202020 
 4760      2020203D 
 4761 069d 000000   		.align	2
 4762              	.LC67:
 4763 06a0 20202049 		.ascii	"   IQ              = %s\012\000"
 4763      51202020 
 4763      20202020 
 4763      20202020 
 4763      2020203D 
 4764 06b9 000000   		.align	2
 4765              	.LC68:
 4766 06bc 4C6F5261 		.ascii	"LoRa syncword = 0x%02X\012\000"
 4766      2073796E 
 4766      63776F72 
 4766      64203D20 
 4766      30782530 
 4767              		.section	.text.print_lora_configuration,"ax",%progbits
 4768              		.align	1
 4769              		.global	print_lora_configuration
ARM GAS  C:\msys64\tmp\ccwHIjYg.s 			page 113


 4770              		.syntax unified
 4771              		.thumb
 4772              		.thumb_func
 4774              	print_lora_configuration:
 4775              	.LFB274:
 855:../../../../lr11xx/common/apps_common.c **** 
 856:../../../../lr11xx/common/apps_common.c **** void print_lora_configuration( void )
 857:../../../../lr11xx/common/apps_common.c **** {
 4776              		.loc 1 857 1
 4777              		.cfi_startproc
 4778              		@ args = 0, pretend = 0, frame = 0
 4779              		@ frame_needed = 1, uses_anonymous_args = 0
 4780 0000 80B5     		push	{r7, lr}
 4781              	.LCFI128:
 4782              		.cfi_def_cfa_offset 8
 4783              		.cfi_offset 7, -8
 4784              		.cfi_offset 14, -4
 4785 0002 00AF     		add	r7, sp, #0
 4786              	.LCFI129:
 4787              		.cfi_def_cfa_register 7
 858:../../../../lr11xx/common/apps_common.c ****     HAL_DBG_TRACE_INFO( "LoRa modulation parameters:\n" );
 4788              		.loc 1 858 5
 4789 0004 5748     		ldr	r0, .L216
 4790 0006 FFF7FEFF 		bl	hal_mcu_trace_print
 4791              		.loc 1 858 5 is_stmt 0 discriminator 1
 4792 000a 5748     		ldr	r0, .L216+4
 4793 000c FFF7FEFF 		bl	hal_mcu_trace_print
 4794              		.loc 1 858 5 discriminator 2
 4795 0010 5648     		ldr	r0, .L216+8
 4796 0012 FFF7FEFF 		bl	hal_mcu_trace_print
 4797              		.loc 1 858 5 discriminator 3
 4798 0016 5648     		ldr	r0, .L216+12
 4799 0018 FFF7FEFF 		bl	hal_mcu_trace_print
 859:../../../../lr11xx/common/apps_common.c ****     HAL_DBG_TRACE_INFO( "   Spreading factor = %s\n", lr11xx_radio_lora_sf_to_str( LORA_SPREADING_F
 4800              		.loc 1 859 5 is_stmt 1
 4801 001c 5148     		ldr	r0, .L216
 4802 001e FFF7FEFF 		bl	hal_mcu_trace_print
 4803              		.loc 1 859 5 is_stmt 0 discriminator 1
 4804 0022 5148     		ldr	r0, .L216+4
 4805 0024 FFF7FEFF 		bl	hal_mcu_trace_print
 4806              		.loc 1 859 5 discriminator 2
 4807 0028 0A20     		movs	r0, #10
 4808 002a FFF7FEFF 		bl	lr11xx_radio_lora_sf_to_str
 4809 002e 0346     		mov	r3, r0
 4810              		.loc 1 859 5 discriminator 3
 4811 0030 1946     		mov	r1, r3
 4812 0032 5048     		ldr	r0, .L216+16
 4813 0034 FFF7FEFF 		bl	hal_mcu_trace_print
 4814              		.loc 1 859 5 discriminator 4
 4815 0038 4D48     		ldr	r0, .L216+12
 4816 003a FFF7FEFF 		bl	hal_mcu_trace_print
 860:../../../../lr11xx/common/apps_common.c ****     HAL_DBG_TRACE_INFO( "   Bandwidth        = %s\n", lr11xx_radio_lora_bw_to_str( LORA_BANDWIDTH )
 4817              		.loc 1 860 5 is_stmt 1
 4818 003e 4948     		ldr	r0, .L216
 4819 0040 FFF7FEFF 		bl	hal_mcu_trace_print
 4820              		.loc 1 860 5 is_stmt 0 discriminator 1
 4821 0044 4848     		ldr	r0, .L216+4
ARM GAS  C:\msys64\tmp\ccwHIjYg.s 			page 114


 4822 0046 FFF7FEFF 		bl	hal_mcu_trace_print
 4823              		.loc 1 860 5 discriminator 2
 4824 004a 0420     		movs	r0, #4
 4825 004c FFF7FEFF 		bl	lr11xx_radio_lora_bw_to_str
 4826 0050 0346     		mov	r3, r0
 4827              		.loc 1 860 5 discriminator 3
 4828 0052 1946     		mov	r1, r3
 4829 0054 4848     		ldr	r0, .L216+20
 4830 0056 FFF7FEFF 		bl	hal_mcu_trace_print
 4831              		.loc 1 860 5 discriminator 4
 4832 005a 4548     		ldr	r0, .L216+12
 4833 005c FFF7FEFF 		bl	hal_mcu_trace_print
 861:../../../../lr11xx/common/apps_common.c ****     HAL_DBG_TRACE_INFO( "   Coding rate      = %s\n", lr11xx_radio_lora_cr_to_str( LORA_CODING_RATE
 4834              		.loc 1 861 5 is_stmt 1
 4835 0060 4048     		ldr	r0, .L216
 4836 0062 FFF7FEFF 		bl	hal_mcu_trace_print
 4837              		.loc 1 861 5 is_stmt 0 discriminator 1
 4838 0066 4048     		ldr	r0, .L216+4
 4839 0068 FFF7FEFF 		bl	hal_mcu_trace_print
 4840              		.loc 1 861 5 discriminator 2
 4841 006c 0120     		movs	r0, #1
 4842 006e FFF7FEFF 		bl	lr11xx_radio_lora_cr_to_str
 4843 0072 0346     		mov	r3, r0
 4844              		.loc 1 861 5 discriminator 3
 4845 0074 1946     		mov	r1, r3
 4846 0076 4148     		ldr	r0, .L216+24
 4847 0078 FFF7FEFF 		bl	hal_mcu_trace_print
 4848              		.loc 1 861 5 discriminator 4
 4849 007c 3C48     		ldr	r0, .L216+12
 4850 007e FFF7FEFF 		bl	hal_mcu_trace_print
 862:../../../../lr11xx/common/apps_common.c ****     HAL_DBG_TRACE_PRINTF( "\n" );
 4851              		.loc 1 862 5 is_stmt 1
 4852 0082 3F48     		ldr	r0, .L216+28
 4853 0084 FFF7FEFF 		bl	hal_mcu_trace_print
 863:../../../../lr11xx/common/apps_common.c **** 
 864:../../../../lr11xx/common/apps_common.c ****     HAL_DBG_TRACE_INFO( "LoRa packet parameters:\n" );
 4854              		.loc 1 864 5
 4855 0088 3648     		ldr	r0, .L216
 4856 008a FFF7FEFF 		bl	hal_mcu_trace_print
 4857              		.loc 1 864 5 is_stmt 0 discriminator 1
 4858 008e 3648     		ldr	r0, .L216+4
 4859 0090 FFF7FEFF 		bl	hal_mcu_trace_print
 4860              		.loc 1 864 5 discriminator 2
 4861 0094 3B48     		ldr	r0, .L216+32
 4862 0096 FFF7FEFF 		bl	hal_mcu_trace_print
 4863              		.loc 1 864 5 discriminator 3
 4864 009a 3548     		ldr	r0, .L216+12
 4865 009c FFF7FEFF 		bl	hal_mcu_trace_print
 865:../../../../lr11xx/common/apps_common.c ****     HAL_DBG_TRACE_INFO( "   Preamble length = %d symbol(s)\n", LORA_PREAMBLE_LENGTH );
 4866              		.loc 1 865 5 is_stmt 1
 4867 00a0 3048     		ldr	r0, .L216
 4868 00a2 FFF7FEFF 		bl	hal_mcu_trace_print
 4869              		.loc 1 865 5 is_stmt 0 discriminator 1
 4870 00a6 3048     		ldr	r0, .L216+4
 4871 00a8 FFF7FEFF 		bl	hal_mcu_trace_print
 4872              		.loc 1 865 5 discriminator 2
 4873 00ac 0821     		movs	r1, #8
ARM GAS  C:\msys64\tmp\ccwHIjYg.s 			page 115


 4874 00ae 3648     		ldr	r0, .L216+36
 4875 00b0 FFF7FEFF 		bl	hal_mcu_trace_print
 4876              		.loc 1 865 5 discriminator 3
 4877 00b4 2E48     		ldr	r0, .L216+12
 4878 00b6 FFF7FEFF 		bl	hal_mcu_trace_print
 866:../../../../lr11xx/common/apps_common.c ****     HAL_DBG_TRACE_INFO( "   Header mode     = %s\n", lr11xx_radio_lora_pkt_len_modes_to_str( LORA_P
 4879              		.loc 1 866 5 is_stmt 1
 4880 00ba 2A48     		ldr	r0, .L216
 4881 00bc FFF7FEFF 		bl	hal_mcu_trace_print
 4882              		.loc 1 866 5 is_stmt 0 discriminator 1
 4883 00c0 2948     		ldr	r0, .L216+4
 4884 00c2 FFF7FEFF 		bl	hal_mcu_trace_print
 4885              		.loc 1 866 5 discriminator 2
 4886 00c6 0020     		movs	r0, #0
 4887 00c8 FFF7FEFF 		bl	lr11xx_radio_lora_pkt_len_modes_to_str
 4888 00cc 0346     		mov	r3, r0
 4889              		.loc 1 866 5 discriminator 3
 4890 00ce 1946     		mov	r1, r3
 4891 00d0 2E48     		ldr	r0, .L216+40
 4892 00d2 FFF7FEFF 		bl	hal_mcu_trace_print
 4893              		.loc 1 866 5 discriminator 4
 4894 00d6 2648     		ldr	r0, .L216+12
 4895 00d8 FFF7FEFF 		bl	hal_mcu_trace_print
 867:../../../../lr11xx/common/apps_common.c ****     HAL_DBG_TRACE_INFO( "   Payload length  = %d byte(s)\n", PAYLOAD_LENGTH );
 4896              		.loc 1 867 5 is_stmt 1
 4897 00dc 2148     		ldr	r0, .L216
 4898 00de FFF7FEFF 		bl	hal_mcu_trace_print
 4899              		.loc 1 867 5 is_stmt 0 discriminator 1
 4900 00e2 2148     		ldr	r0, .L216+4
 4901 00e4 FFF7FEFF 		bl	hal_mcu_trace_print
 4902              		.loc 1 867 5 discriminator 2
 4903 00e8 1421     		movs	r1, #20
 4904 00ea 2948     		ldr	r0, .L216+44
 4905 00ec FFF7FEFF 		bl	hal_mcu_trace_print
 4906              		.loc 1 867 5 discriminator 3
 4907 00f0 1F48     		ldr	r0, .L216+12
 4908 00f2 FFF7FEFF 		bl	hal_mcu_trace_print
 868:../../../../lr11xx/common/apps_common.c ****     HAL_DBG_TRACE_INFO( "   CRC mode        = %s\n", lr11xx_radio_lora_crc_to_str( LORA_CRC ) );
 4909              		.loc 1 868 5 is_stmt 1
 4910 00f6 1B48     		ldr	r0, .L216
 4911 00f8 FFF7FEFF 		bl	hal_mcu_trace_print
 4912              		.loc 1 868 5 is_stmt 0 discriminator 1
 4913 00fc 1A48     		ldr	r0, .L216+4
 4914 00fe FFF7FEFF 		bl	hal_mcu_trace_print
 4915              		.loc 1 868 5 discriminator 2
 4916 0102 0120     		movs	r0, #1
 4917 0104 FFF7FEFF 		bl	lr11xx_radio_lora_crc_to_str
 4918 0108 0346     		mov	r3, r0
 4919              		.loc 1 868 5 discriminator 3
 4920 010a 1946     		mov	r1, r3
 4921 010c 2148     		ldr	r0, .L216+48
 4922 010e FFF7FEFF 		bl	hal_mcu_trace_print
 4923              		.loc 1 868 5 discriminator 4
 4924 0112 1748     		ldr	r0, .L216+12
 4925 0114 FFF7FEFF 		bl	hal_mcu_trace_print
 869:../../../../lr11xx/common/apps_common.c ****     HAL_DBG_TRACE_INFO( "   IQ              = %s\n", lr11xx_radio_lora_iq_to_str( LORA_IQ ) );
 4926              		.loc 1 869 5 is_stmt 1
ARM GAS  C:\msys64\tmp\ccwHIjYg.s 			page 116


 4927 0118 1248     		ldr	r0, .L216
 4928 011a FFF7FEFF 		bl	hal_mcu_trace_print
 4929              		.loc 1 869 5 is_stmt 0 discriminator 1
 4930 011e 1248     		ldr	r0, .L216+4
 4931 0120 FFF7FEFF 		bl	hal_mcu_trace_print
 4932              		.loc 1 869 5 discriminator 2
 4933 0124 0020     		movs	r0, #0
 4934 0126 FFF7FEFF 		bl	lr11xx_radio_lora_iq_to_str
 4935 012a 0346     		mov	r3, r0
 4936              		.loc 1 869 5 discriminator 3
 4937 012c 1946     		mov	r1, r3
 4938 012e 1A48     		ldr	r0, .L216+52
 4939 0130 FFF7FEFF 		bl	hal_mcu_trace_print
 4940              		.loc 1 869 5 discriminator 4
 4941 0134 0E48     		ldr	r0, .L216+12
 4942 0136 FFF7FEFF 		bl	hal_mcu_trace_print
 870:../../../../lr11xx/common/apps_common.c ****     HAL_DBG_TRACE_PRINTF( "\n" );
 4943              		.loc 1 870 5 is_stmt 1
 4944 013a 1148     		ldr	r0, .L216+28
 4945 013c FFF7FEFF 		bl	hal_mcu_trace_print
 871:../../../../lr11xx/common/apps_common.c **** 
 872:../../../../lr11xx/common/apps_common.c ****     HAL_DBG_TRACE_INFO( "LoRa syncword = 0x%02X\n", LORA_SYNCWORD );
 4946              		.loc 1 872 5
 4947 0140 0848     		ldr	r0, .L216
 4948 0142 FFF7FEFF 		bl	hal_mcu_trace_print
 4949              		.loc 1 872 5 is_stmt 0 discriminator 1
 4950 0146 0848     		ldr	r0, .L216+4
 4951 0148 FFF7FEFF 		bl	hal_mcu_trace_print
 4952              		.loc 1 872 5 discriminator 2
 4953 014c 1221     		movs	r1, #18
 4954 014e 1348     		ldr	r0, .L216+56
 4955 0150 FFF7FEFF 		bl	hal_mcu_trace_print
 4956              		.loc 1 872 5 discriminator 3
 4957 0154 0648     		ldr	r0, .L216+12
 4958 0156 FFF7FEFF 		bl	hal_mcu_trace_print
 873:../../../../lr11xx/common/apps_common.c ****     HAL_DBG_TRACE_PRINTF( "\n" );
 4959              		.loc 1 873 5 is_stmt 1
 4960 015a 0948     		ldr	r0, .L216+28
 4961 015c FFF7FEFF 		bl	hal_mcu_trace_print
 874:../../../../lr11xx/common/apps_common.c **** }
 4962              		.loc 1 874 1
 4963 0160 00BF     		nop
 4964 0162 80BD     		pop	{r7, pc}
 4965              	.L217:
 4966              		.align	2
 4967              	.L216:
 4968 0164 70000000 		.word	.LC7
 4969 0168 78000000 		.word	.LC8
 4970 016c 90050000 		.word	.LC58
 4971 0170 68000000 		.word	.LC6
 4972 0174 B0050000 		.word	.LC59
 4973 0178 CC050000 		.word	.LC60
 4974 017c E8050000 		.word	.LC61
 4975 0180 E0010000 		.word	.LC18
 4976 0184 04060000 		.word	.LC62
 4977 0188 20060000 		.word	.LC63
 4978 018c 44060000 		.word	.LC64
ARM GAS  C:\msys64\tmp\ccwHIjYg.s 			page 117


 4979 0190 60060000 		.word	.LC65
 4980 0194 84060000 		.word	.LC66
 4981 0198 A0060000 		.word	.LC67
 4982 019c BC060000 		.word	.LC68
 4983              		.cfi_endproc
 4984              	.LFE274:
 4986              		.section	.rodata
 4987              		.align	2
 4988              	.LC69:
 4989 06d4 4746534B 		.ascii	"GFSK modulation parameters:\012\000"
 4989      206D6F64 
 4989      756C6174 
 4989      696F6E20 
 4989      70617261 
 4990 06f1 000000   		.align	2
 4991              	.LC70:
 4992 06f4 20202042 		.ascii	"   Bitrate             = %u bps\012\000"
 4992      69747261 
 4992      74652020 
 4992      20202020 
 4992      20202020 
 4993 0715 000000   		.align	2
 4994              	.LC71:
 4995 0718 20202050 		.ascii	"   Pulse shape         = %s\012\000"
 4995      756C7365 
 4995      20736861 
 4995      70652020 
 4995      20202020 
 4996 0735 000000   		.align	2
 4997              	.LC72:
 4998 0738 20202042 		.ascii	"   Bandwidth           = %s\012\000"
 4998      616E6477 
 4998      69647468 
 4998      20202020 
 4998      20202020 
 4999 0755 000000   		.align	2
 5000              	.LC73:
 5001 0758 20202046 		.ascii	"   Frequency deviation = %u Hz\012\000"
 5001      72657175 
 5001      656E6379 
 5001      20646576 
 5001      69617469 
 5002              		.align	2
 5003              	.LC74:
 5004 0778 4746534B 		.ascii	"GFSK packet parameters:\012\000"
 5004      20706163 
 5004      6B657420 
 5004      70617261 
 5004      6D657465 
 5005 0791 000000   		.align	2
 5006              	.LC75:
 5007 0794 20202050 		.ascii	"   Preamble length   = %d bit(s)\012\000"
 5007      7265616D 
 5007      626C6520 
 5007      6C656E67 
 5007      74682020 
 5008 07b6 0000     		.align	2
ARM GAS  C:\msys64\tmp\ccwHIjYg.s 			page 118


 5009              	.LC76:
 5010 07b8 20202050 		.ascii	"   Preamble detector = %s\012\000"
 5010      7265616D 
 5010      626C6520 
 5010      64657465 
 5010      63746F72 
 5011 07d3 00       		.align	2
 5012              	.LC77:
 5013 07d4 20202053 		.ascii	"   Syncword length   = %d bit(s)\012\000"
 5013      796E6377 
 5013      6F726420 
 5013      6C656E67 
 5013      74682020 
 5014 07f6 0000     		.align	2
 5015              	.LC78:
 5016 07f8 20202041 		.ascii	"   Address filtering = %s\012\000"
 5016      64647265 
 5016      73732066 
 5016      696C7465 
 5016      72696E67 
 5017 0813 00       		.align	2
 5018              	.LC79:
 5019 0814 20202048 		.ascii	"   Header mode       = %s\012\000"
 5019      65616465 
 5019      72206D6F 
 5019      64652020 
 5019      20202020 
 5020 082f 00       		.align	2
 5021              	.LC80:
 5022 0830 20202050 		.ascii	"   Payload length    = %d byte(s)\012\000"
 5022      61796C6F 
 5022      6164206C 
 5022      656E6774 
 5022      68202020 
 5023 0853 00       		.align	2
 5024              	.LC81:
 5025 0854 20202043 		.ascii	"   CRC mode          = %s\012\000"
 5025      5243206D 
 5025      6F646520 
 5025      20202020 
 5025      20202020 
 5026 086f 00       		.align	2
 5027              	.LC82:
 5028 0870 20202020 		.ascii	"     (CRC seed       = 0x%08X)\012\000"
 5028      20284352 
 5028      43207365 
 5028      65642020 
 5028      20202020 
 5029              		.align	2
 5030              	.LC83:
 5031 0890 20202020 		.ascii	"     (CRC polynomial = 0x%08X)\012\000"
 5031      20284352 
 5031      4320706F 
 5031      6C796E6F 
 5031      6D69616C 
 5032              		.align	2
 5033              	.LC84:
ARM GAS  C:\msys64\tmp\ccwHIjYg.s 			page 119


 5034 08b0 20202044 		.ascii	"   DC free           = %s\012\000"
 5034      43206672 
 5034      65652020 
 5034      20202020 
 5034      20202020 
 5035              		.section	.text.print_gfsk_configuration,"ax",%progbits
 5036              		.align	1
 5037              		.global	print_gfsk_configuration
 5038              		.syntax unified
 5039              		.thumb
 5040              		.thumb_func
 5042              	print_gfsk_configuration:
 5043              	.LFB275:
 875:../../../../lr11xx/common/apps_common.c **** 
 876:../../../../lr11xx/common/apps_common.c **** void print_gfsk_configuration( void )
 877:../../../../lr11xx/common/apps_common.c **** {
 5044              		.loc 1 877 1
 5045              		.cfi_startproc
 5046              		@ args = 0, pretend = 0, frame = 0
 5047              		@ frame_needed = 1, uses_anonymous_args = 0
 5048 0000 80B5     		push	{r7, lr}
 5049              	.LCFI130:
 5050              		.cfi_def_cfa_offset 8
 5051              		.cfi_offset 7, -8
 5052              		.cfi_offset 14, -4
 5053 0002 00AF     		add	r7, sp, #0
 5054              	.LCFI131:
 5055              		.cfi_def_cfa_register 7
 878:../../../../lr11xx/common/apps_common.c ****     HAL_DBG_TRACE_INFO( "GFSK modulation parameters:\n" );
 5056              		.loc 1 878 5
 5057 0004 7948     		ldr	r0, .L219
 5058 0006 FFF7FEFF 		bl	hal_mcu_trace_print
 5059              		.loc 1 878 5 is_stmt 0 discriminator 1
 5060 000a 7948     		ldr	r0, .L219+4
 5061 000c FFF7FEFF 		bl	hal_mcu_trace_print
 5062              		.loc 1 878 5 discriminator 2
 5063 0010 7848     		ldr	r0, .L219+8
 5064 0012 FFF7FEFF 		bl	hal_mcu_trace_print
 5065              		.loc 1 878 5 discriminator 3
 5066 0016 7848     		ldr	r0, .L219+12
 5067 0018 FFF7FEFF 		bl	hal_mcu_trace_print
 879:../../../../lr11xx/common/apps_common.c ****     HAL_DBG_TRACE_INFO( "   Bitrate             = %u bps\n", FSK_BITRATE );
 5068              		.loc 1 879 5 is_stmt 1
 5069 001c 7348     		ldr	r0, .L219
 5070 001e FFF7FEFF 		bl	hal_mcu_trace_print
 5071              		.loc 1 879 5 is_stmt 0 discriminator 1
 5072 0022 7348     		ldr	r0, .L219+4
 5073 0024 FFF7FEFF 		bl	hal_mcu_trace_print
 5074              		.loc 1 879 5 discriminator 2
 5075 0028 4CF25031 		movw	r1, #50000
 5076 002c 7348     		ldr	r0, .L219+16
 5077 002e FFF7FEFF 		bl	hal_mcu_trace_print
 5078              		.loc 1 879 5 discriminator 3
 5079 0032 7148     		ldr	r0, .L219+12
 5080 0034 FFF7FEFF 		bl	hal_mcu_trace_print
 880:../../../../lr11xx/common/apps_common.c ****     HAL_DBG_TRACE_INFO( "   Pulse shape         = %s\n", lr11xx_radio_gfsk_pulse_shape_to_str( FSK_
 5081              		.loc 1 880 5 is_stmt 1
ARM GAS  C:\msys64\tmp\ccwHIjYg.s 			page 120


 5082 0038 6C48     		ldr	r0, .L219
 5083 003a FFF7FEFF 		bl	hal_mcu_trace_print
 5084              		.loc 1 880 5 is_stmt 0 discriminator 1
 5085 003e 6C48     		ldr	r0, .L219+4
 5086 0040 FFF7FEFF 		bl	hal_mcu_trace_print
 5087              		.loc 1 880 5 discriminator 2
 5088 0044 0020     		movs	r0, #0
 5089 0046 FFF7FEFF 		bl	lr11xx_radio_gfsk_pulse_shape_to_str
 5090 004a 0346     		mov	r3, r0
 5091              		.loc 1 880 5 discriminator 3
 5092 004c 1946     		mov	r1, r3
 5093 004e 6C48     		ldr	r0, .L219+20
 5094 0050 FFF7FEFF 		bl	hal_mcu_trace_print
 5095              		.loc 1 880 5 discriminator 4
 5096 0054 6848     		ldr	r0, .L219+12
 5097 0056 FFF7FEFF 		bl	hal_mcu_trace_print
 881:../../../../lr11xx/common/apps_common.c ****     HAL_DBG_TRACE_INFO( "   Bandwidth           = %s\n", lr11xx_radio_gfsk_bw_to_str( FSK_BANDWIDTH
 5098              		.loc 1 881 5 is_stmt 1
 5099 005a 6448     		ldr	r0, .L219
 5100 005c FFF7FEFF 		bl	hal_mcu_trace_print
 5101              		.loc 1 881 5 is_stmt 0 discriminator 1
 5102 0060 6348     		ldr	r0, .L219+4
 5103 0062 FFF7FEFF 		bl	hal_mcu_trace_print
 5104              		.loc 1 881 5 discriminator 2
 5105 0066 0B20     		movs	r0, #11
 5106 0068 FFF7FEFF 		bl	lr11xx_radio_gfsk_bw_to_str
 5107 006c 0346     		mov	r3, r0
 5108              		.loc 1 881 5 discriminator 3
 5109 006e 1946     		mov	r1, r3
 5110 0070 6448     		ldr	r0, .L219+24
 5111 0072 FFF7FEFF 		bl	hal_mcu_trace_print
 5112              		.loc 1 881 5 discriminator 4
 5113 0076 6048     		ldr	r0, .L219+12
 5114 0078 FFF7FEFF 		bl	hal_mcu_trace_print
 882:../../../../lr11xx/common/apps_common.c ****     HAL_DBG_TRACE_INFO( "   Frequency deviation = %u Hz\n", FSK_FDEV );
 5115              		.loc 1 882 5 is_stmt 1
 5116 007c 5B48     		ldr	r0, .L219
 5117 007e FFF7FEFF 		bl	hal_mcu_trace_print
 5118              		.loc 1 882 5 is_stmt 0 discriminator 1
 5119 0082 5B48     		ldr	r0, .L219+4
 5120 0084 FFF7FEFF 		bl	hal_mcu_trace_print
 5121              		.loc 1 882 5 discriminator 2
 5122 0088 46F2A811 		movw	r1, #25000
 5123 008c 5E48     		ldr	r0, .L219+28
 5124 008e FFF7FEFF 		bl	hal_mcu_trace_print
 5125              		.loc 1 882 5 discriminator 3
 5126 0092 5948     		ldr	r0, .L219+12
 5127 0094 FFF7FEFF 		bl	hal_mcu_trace_print
 883:../../../../lr11xx/common/apps_common.c ****     HAL_DBG_TRACE_PRINTF( "\n" );
 5128              		.loc 1 883 5 is_stmt 1
 5129 0098 5C48     		ldr	r0, .L219+32
 5130 009a FFF7FEFF 		bl	hal_mcu_trace_print
 884:../../../../lr11xx/common/apps_common.c **** 
 885:../../../../lr11xx/common/apps_common.c ****     HAL_DBG_TRACE_INFO( "GFSK packet parameters:\n" );
 5131              		.loc 1 885 5
 5132 009e 5348     		ldr	r0, .L219
 5133 00a0 FFF7FEFF 		bl	hal_mcu_trace_print
ARM GAS  C:\msys64\tmp\ccwHIjYg.s 			page 121


 5134              		.loc 1 885 5 is_stmt 0 discriminator 1
 5135 00a4 5248     		ldr	r0, .L219+4
 5136 00a6 FFF7FEFF 		bl	hal_mcu_trace_print
 5137              		.loc 1 885 5 discriminator 2
 5138 00aa 5948     		ldr	r0, .L219+36
 5139 00ac FFF7FEFF 		bl	hal_mcu_trace_print
 5140              		.loc 1 885 5 discriminator 3
 5141 00b0 5148     		ldr	r0, .L219+12
 5142 00b2 FFF7FEFF 		bl	hal_mcu_trace_print
 886:../../../../lr11xx/common/apps_common.c ****     HAL_DBG_TRACE_INFO( "   Preamble length   = %d bit(s)\n", FSK_PREAMBLE_LENGTH );
 5143              		.loc 1 886 5 is_stmt 1
 5144 00b6 4D48     		ldr	r0, .L219
 5145 00b8 FFF7FEFF 		bl	hal_mcu_trace_print
 5146              		.loc 1 886 5 is_stmt 0 discriminator 1
 5147 00bc 4C48     		ldr	r0, .L219+4
 5148 00be FFF7FEFF 		bl	hal_mcu_trace_print
 5149              		.loc 1 886 5 discriminator 2
 5150 00c2 2021     		movs	r1, #32
 5151 00c4 5348     		ldr	r0, .L219+40
 5152 00c6 FFF7FEFF 		bl	hal_mcu_trace_print
 5153              		.loc 1 886 5 discriminator 3
 5154 00ca 4B48     		ldr	r0, .L219+12
 5155 00cc FFF7FEFF 		bl	hal_mcu_trace_print
 887:../../../../lr11xx/common/apps_common.c ****     HAL_DBG_TRACE_INFO( "   Preamble detector = %s\n",
 5156              		.loc 1 887 5 is_stmt 1
 5157 00d0 4648     		ldr	r0, .L219
 5158 00d2 FFF7FEFF 		bl	hal_mcu_trace_print
 5159              		.loc 1 887 5 is_stmt 0 discriminator 1
 5160 00d6 4648     		ldr	r0, .L219+4
 5161 00d8 FFF7FEFF 		bl	hal_mcu_trace_print
 5162              		.loc 1 887 5 discriminator 2
 5163 00dc 0520     		movs	r0, #5
 5164 00de FFF7FEFF 		bl	lr11xx_radio_gfsk_preamble_detector_to_str
 5165 00e2 0346     		mov	r3, r0
 5166              		.loc 1 887 5 discriminator 3
 5167 00e4 1946     		mov	r1, r3
 5168 00e6 4C48     		ldr	r0, .L219+44
 5169 00e8 FFF7FEFF 		bl	hal_mcu_trace_print
 5170              		.loc 1 887 5 discriminator 4
 5171 00ec 4248     		ldr	r0, .L219+12
 5172 00ee FFF7FEFF 		bl	hal_mcu_trace_print
 888:../../../../lr11xx/common/apps_common.c ****                         lr11xx_radio_gfsk_preamble_detector_to_str( FSK_PREAMBLE_DETECTOR ) );
 889:../../../../lr11xx/common/apps_common.c ****     HAL_DBG_TRACE_INFO( "   Syncword length   = %d bit(s)\n", FSK_SYNCWORD_LENGTH );
 5173              		.loc 1 889 5 is_stmt 1
 5174 00f2 3E48     		ldr	r0, .L219
 5175 00f4 FFF7FEFF 		bl	hal_mcu_trace_print
 5176              		.loc 1 889 5 is_stmt 0 discriminator 1
 5177 00f8 3D48     		ldr	r0, .L219+4
 5178 00fa FFF7FEFF 		bl	hal_mcu_trace_print
 5179              		.loc 1 889 5 discriminator 2
 5180 00fe 2821     		movs	r1, #40
 5181 0100 4648     		ldr	r0, .L219+48
 5182 0102 FFF7FEFF 		bl	hal_mcu_trace_print
 5183              		.loc 1 889 5 discriminator 3
 5184 0106 3C48     		ldr	r0, .L219+12
 5185 0108 FFF7FEFF 		bl	hal_mcu_trace_print
 890:../../../../lr11xx/common/apps_common.c ****     HAL_DBG_TRACE_INFO( "   Address filtering = %s\n",
ARM GAS  C:\msys64\tmp\ccwHIjYg.s 			page 122


 5186              		.loc 1 890 5 is_stmt 1
 5187 010c 3748     		ldr	r0, .L219
 5188 010e FFF7FEFF 		bl	hal_mcu_trace_print
 5189              		.loc 1 890 5 is_stmt 0 discriminator 1
 5190 0112 3748     		ldr	r0, .L219+4
 5191 0114 FFF7FEFF 		bl	hal_mcu_trace_print
 5192              		.loc 1 890 5 discriminator 2
 5193 0118 0020     		movs	r0, #0
 5194 011a FFF7FEFF 		bl	lr11xx_radio_gfsk_address_filtering_to_str
 5195 011e 0346     		mov	r3, r0
 5196              		.loc 1 890 5 discriminator 3
 5197 0120 1946     		mov	r1, r3
 5198 0122 3F48     		ldr	r0, .L219+52
 5199 0124 FFF7FEFF 		bl	hal_mcu_trace_print
 5200              		.loc 1 890 5 discriminator 4
 5201 0128 3348     		ldr	r0, .L219+12
 5202 012a FFF7FEFF 		bl	hal_mcu_trace_print
 891:../../../../lr11xx/common/apps_common.c ****                         lr11xx_radio_gfsk_address_filtering_to_str( FSK_ADDRESS_FILTERING ) );
 892:../../../../lr11xx/common/apps_common.c ****     if( FSK_ADDRESS_FILTERING != LR11XX_RADIO_GFSK_ADDRESS_FILTERING_DISABLE )
 893:../../../../lr11xx/common/apps_common.c ****     {
 894:../../../../lr11xx/common/apps_common.c ****         HAL_DBG_TRACE_INFO( "     (Node address      = 0x%02X)\n", FSK_NODE_ADDRESS );
 895:../../../../lr11xx/common/apps_common.c ****         if( FSK_ADDRESS_FILTERING == LR11XX_RADIO_GFSK_ADDRESS_FILTERING_NODE_AND_BROADCAST_ADDRESS
 896:../../../../lr11xx/common/apps_common.c ****         {
 897:../../../../lr11xx/common/apps_common.c ****             HAL_DBG_TRACE_INFO( "     (Broadcast address = 0x%02X)\n", FSK_BROADCAST_ADDRESS );
 898:../../../../lr11xx/common/apps_common.c ****         }
 899:../../../../lr11xx/common/apps_common.c ****     }
 900:../../../../lr11xx/common/apps_common.c ****     HAL_DBG_TRACE_INFO( "   Header mode       = %s\n", lr11xx_radio_gfsk_pkt_len_modes_to_str( FSK_
 5203              		.loc 1 900 5 is_stmt 1
 5204 012e 2F48     		ldr	r0, .L219
 5205 0130 FFF7FEFF 		bl	hal_mcu_trace_print
 5206              		.loc 1 900 5 is_stmt 0 discriminator 1
 5207 0134 2E48     		ldr	r0, .L219+4
 5208 0136 FFF7FEFF 		bl	hal_mcu_trace_print
 5209              		.loc 1 900 5 discriminator 2
 5210 013a 0120     		movs	r0, #1
 5211 013c FFF7FEFF 		bl	lr11xx_radio_gfsk_pkt_len_modes_to_str
 5212 0140 0346     		mov	r3, r0
 5213              		.loc 1 900 5 discriminator 3
 5214 0142 1946     		mov	r1, r3
 5215 0144 3748     		ldr	r0, .L219+56
 5216 0146 FFF7FEFF 		bl	hal_mcu_trace_print
 5217              		.loc 1 900 5 discriminator 4
 5218 014a 2B48     		ldr	r0, .L219+12
 5219 014c FFF7FEFF 		bl	hal_mcu_trace_print
 901:../../../../lr11xx/common/apps_common.c ****     HAL_DBG_TRACE_INFO( "   Payload length    = %d byte(s)\n", PAYLOAD_LENGTH );
 5220              		.loc 1 901 5 is_stmt 1
 5221 0150 2648     		ldr	r0, .L219
 5222 0152 FFF7FEFF 		bl	hal_mcu_trace_print
 5223              		.loc 1 901 5 is_stmt 0 discriminator 1
 5224 0156 2648     		ldr	r0, .L219+4
 5225 0158 FFF7FEFF 		bl	hal_mcu_trace_print
 5226              		.loc 1 901 5 discriminator 2
 5227 015c 1421     		movs	r1, #20
 5228 015e 3248     		ldr	r0, .L219+60
 5229 0160 FFF7FEFF 		bl	hal_mcu_trace_print
 5230              		.loc 1 901 5 discriminator 3
 5231 0164 2448     		ldr	r0, .L219+12
ARM GAS  C:\msys64\tmp\ccwHIjYg.s 			page 123


 5232 0166 FFF7FEFF 		bl	hal_mcu_trace_print
 902:../../../../lr11xx/common/apps_common.c ****     HAL_DBG_TRACE_INFO( "   CRC mode          = %s\n", lr11xx_radio_gfsk_crc_type_to_str( FSK_CRC_T
 5233              		.loc 1 902 5 is_stmt 1
 5234 016a 2048     		ldr	r0, .L219
 5235 016c FFF7FEFF 		bl	hal_mcu_trace_print
 5236              		.loc 1 902 5 is_stmt 0 discriminator 1
 5237 0170 1F48     		ldr	r0, .L219+4
 5238 0172 FFF7FEFF 		bl	hal_mcu_trace_print
 5239              		.loc 1 902 5 discriminator 2
 5240 0176 0420     		movs	r0, #4
 5241 0178 FFF7FEFF 		bl	lr11xx_radio_gfsk_crc_type_to_str
 5242 017c 0346     		mov	r3, r0
 5243              		.loc 1 902 5 discriminator 3
 5244 017e 1946     		mov	r1, r3
 5245 0180 2A48     		ldr	r0, .L219+64
 5246 0182 FFF7FEFF 		bl	hal_mcu_trace_print
 5247              		.loc 1 902 5 discriminator 4
 5248 0186 1C48     		ldr	r0, .L219+12
 5249 0188 FFF7FEFF 		bl	hal_mcu_trace_print
 903:../../../../lr11xx/common/apps_common.c ****     if( FSK_CRC_TYPE != LR11XX_RADIO_GFSK_CRC_OFF )
 904:../../../../lr11xx/common/apps_common.c ****     {
 905:../../../../lr11xx/common/apps_common.c ****         HAL_DBG_TRACE_INFO( "     (CRC seed       = 0x%08X)\n", FSK_CRC_SEED );
 5250              		.loc 1 905 9 is_stmt 1
 5251 018c 1748     		ldr	r0, .L219
 5252 018e FFF7FEFF 		bl	hal_mcu_trace_print
 5253              		.loc 1 905 9 is_stmt 0 discriminator 1
 5254 0192 1748     		ldr	r0, .L219+4
 5255 0194 FFF7FEFF 		bl	hal_mcu_trace_print
 5256              		.loc 1 905 9 discriminator 2
 5257 0198 2549     		ldr	r1, .L219+68
 5258 019a 2648     		ldr	r0, .L219+72
 5259 019c FFF7FEFF 		bl	hal_mcu_trace_print
 5260              		.loc 1 905 9 discriminator 3
 5261 01a0 1548     		ldr	r0, .L219+12
 5262 01a2 FFF7FEFF 		bl	hal_mcu_trace_print
 906:../../../../lr11xx/common/apps_common.c ****         HAL_DBG_TRACE_INFO( "     (CRC polynomial = 0x%08X)\n", FSK_CRC_POLYNOMIAL );
 5263              		.loc 1 906 9 is_stmt 1
 5264 01a6 1148     		ldr	r0, .L219
 5265 01a8 FFF7FEFF 		bl	hal_mcu_trace_print
 5266              		.loc 1 906 9 is_stmt 0 discriminator 1
 5267 01ac 1048     		ldr	r0, .L219+4
 5268 01ae FFF7FEFF 		bl	hal_mcu_trace_print
 5269              		.loc 1 906 9 discriminator 2
 5270 01b2 1F49     		ldr	r1, .L219+68
 5271 01b4 2048     		ldr	r0, .L219+76
 5272 01b6 FFF7FEFF 		bl	hal_mcu_trace_print
 5273              		.loc 1 906 9 discriminator 3
 5274 01ba 0F48     		ldr	r0, .L219+12
 5275 01bc FFF7FEFF 		bl	hal_mcu_trace_print
 907:../../../../lr11xx/common/apps_common.c ****     }
 908:../../../../lr11xx/common/apps_common.c ****     HAL_DBG_TRACE_INFO( "   DC free           = %s\n", lr11xx_radio_gfsk_dc_free_to_str( FSK_DC_FRE
 5276              		.loc 1 908 5 is_stmt 1
 5277 01c0 0A48     		ldr	r0, .L219
 5278 01c2 FFF7FEFF 		bl	hal_mcu_trace_print
 5279              		.loc 1 908 5 is_stmt 0 discriminator 1
 5280 01c6 0A48     		ldr	r0, .L219+4
 5281 01c8 FFF7FEFF 		bl	hal_mcu_trace_print
ARM GAS  C:\msys64\tmp\ccwHIjYg.s 			page 124


 5282              		.loc 1 908 5 discriminator 2
 5283 01cc 0020     		movs	r0, #0
 5284 01ce FFF7FEFF 		bl	lr11xx_radio_gfsk_dc_free_to_str
 5285 01d2 0346     		mov	r3, r0
 5286              		.loc 1 908 5 discriminator 3
 5287 01d4 1946     		mov	r1, r3
 5288 01d6 1948     		ldr	r0, .L219+80
 5289 01d8 FFF7FEFF 		bl	hal_mcu_trace_print
 5290              		.loc 1 908 5 discriminator 4
 5291 01dc 0648     		ldr	r0, .L219+12
 5292 01de FFF7FEFF 		bl	hal_mcu_trace_print
 909:../../../../lr11xx/common/apps_common.c ****     if( FSK_DC_FREE != LR11XX_RADIO_GFSK_DC_FREE_OFF )
 910:../../../../lr11xx/common/apps_common.c ****     {
 911:../../../../lr11xx/common/apps_common.c ****         HAL_DBG_TRACE_INFO( "     (Whitening seed = 0x%04X)\n", FSK_WHITENING_SEED );
 912:../../../../lr11xx/common/apps_common.c ****     }
 913:../../../../lr11xx/common/apps_common.c ****     HAL_DBG_TRACE_PRINTF( "\n" );
 5293              		.loc 1 913 5 is_stmt 1
 5294 01e2 0A48     		ldr	r0, .L219+32
 5295 01e4 FFF7FEFF 		bl	hal_mcu_trace_print
 914:../../../../lr11xx/common/apps_common.c **** }
 5296              		.loc 1 914 1
 5297 01e8 00BF     		nop
 5298 01ea 80BD     		pop	{r7, pc}
 5299              	.L220:
 5300              		.align	2
 5301              	.L219:
 5302 01ec 70000000 		.word	.LC7
 5303 01f0 78000000 		.word	.LC8
 5304 01f4 D4060000 		.word	.LC69
 5305 01f8 68000000 		.word	.LC6
 5306 01fc F4060000 		.word	.LC70
 5307 0200 18070000 		.word	.LC71
 5308 0204 38070000 		.word	.LC72
 5309 0208 58070000 		.word	.LC73
 5310 020c E0010000 		.word	.LC18
 5311 0210 78070000 		.word	.LC74
 5312 0214 94070000 		.word	.LC75
 5313 0218 B8070000 		.word	.LC76
 5314 021c D4070000 		.word	.LC77
 5315 0220 F8070000 		.word	.LC78
 5316 0224 14080000 		.word	.LC79
 5317 0228 30080000 		.word	.LC80
 5318 022c 54080000 		.word	.LC81
 5319 0230 67452301 		.word	19088743
 5320 0234 70080000 		.word	.LC82
 5321 0238 90080000 		.word	.LC83
 5322 023c B0080000 		.word	.LC84
 5323              		.cfi_endproc
 5324              	.LFE275:
 5326              		.section	.rodata
 5327 08cb 00       		.align	2
 5328              	.LC85:
 5329 08cc 4C523131 		.ascii	"LR11XX driver version: %s\012\000"
 5329      58582064 
 5329      72697665 
 5329      72207665 
 5329      7273696F 
ARM GAS  C:\msys64\tmp\ccwHIjYg.s 			page 125


 5330              		.section	.text.print_driver_version,"ax",%progbits
 5331              		.align	1
 5332              		.syntax unified
 5333              		.thumb
 5334              		.thumb_func
 5336              	print_driver_version:
 5337              	.LFB276:
 915:../../../../lr11xx/common/apps_common.c **** 
 916:../../../../lr11xx/common/apps_common.c **** void print_driver_version( void )
 917:../../../../lr11xx/common/apps_common.c **** {
 5338              		.loc 1 917 1
 5339              		.cfi_startproc
 5340              		@ args = 0, pretend = 0, frame = 0
 5341              		@ frame_needed = 1, uses_anonymous_args = 0
 5342 0000 80B5     		push	{r7, lr}
 5343              	.LCFI132:
 5344              		.cfi_def_cfa_offset 8
 5345              		.cfi_offset 7, -8
 5346              		.cfi_offset 14, -4
 5347 0002 00AF     		add	r7, sp, #0
 5348              	.LCFI133:
 5349              		.cfi_def_cfa_register 7
 918:../../../../lr11xx/common/apps_common.c ****     HAL_DBG_TRACE_INFO( "LR11XX driver version: %s\n", lr11xx_driver_version_get_version_string( ) 
 5350              		.loc 1 918 5
 5351 0004 0848     		ldr	r0, .L222
 5352 0006 FFF7FEFF 		bl	hal_mcu_trace_print
 5353              		.loc 1 918 5 is_stmt 0 discriminator 1
 5354 000a 0848     		ldr	r0, .L222+4
 5355 000c FFF7FEFF 		bl	hal_mcu_trace_print
 5356              		.loc 1 918 5 discriminator 2
 5357 0010 FFF7FEFF 		bl	lr11xx_driver_version_get_version_string
 5358 0014 0346     		mov	r3, r0
 5359              		.loc 1 918 5 discriminator 3
 5360 0016 1946     		mov	r1, r3
 5361 0018 0548     		ldr	r0, .L222+8
 5362 001a FFF7FEFF 		bl	hal_mcu_trace_print
 5363              		.loc 1 918 5 discriminator 4
 5364 001e 0548     		ldr	r0, .L222+12
 5365 0020 FFF7FEFF 		bl	hal_mcu_trace_print
 919:../../../../lr11xx/common/apps_common.c **** }
 5366              		.loc 1 919 1 is_stmt 1
 5367 0024 00BF     		nop
 5368 0026 80BD     		pop	{r7, pc}
 5369              	.L223:
 5370              		.align	2
 5371              	.L222:
 5372 0028 70000000 		.word	.LC7
 5373 002c 78000000 		.word	.LC8
 5374 0030 CC080000 		.word	.LC85
 5375 0034 68000000 		.word	.LC6
 5376              		.cfi_endproc
 5377              	.LFE276:
 5379              		.section	.text.radio_on_dio_irq,"ax",%progbits
 5380              		.align	1
 5381              		.global	radio_on_dio_irq
 5382              		.syntax unified
 5383              		.thumb
ARM GAS  C:\msys64\tmp\ccwHIjYg.s 			page 126


 5384              		.thumb_func
 5386              	radio_on_dio_irq:
 5387              	.LFB277:
 920:../../../../lr11xx/common/apps_common.c **** 
 921:../../../../lr11xx/common/apps_common.c **** void radio_on_dio_irq( void* context )
 922:../../../../lr11xx/common/apps_common.c **** {
 5388              		.loc 1 922 1
 5389              		.cfi_startproc
 5390              		@ args = 0, pretend = 0, frame = 8
 5391              		@ frame_needed = 1, uses_anonymous_args = 0
 5392              		@ link register save eliminated.
 5393 0000 80B4     		push	{r7}
 5394              	.LCFI134:
 5395              		.cfi_def_cfa_offset 4
 5396              		.cfi_offset 7, -4
 5397 0002 83B0     		sub	sp, sp, #12
 5398              	.LCFI135:
 5399              		.cfi_def_cfa_offset 16
 5400 0004 00AF     		add	r7, sp, #0
 5401              	.LCFI136:
 5402              		.cfi_def_cfa_register 7
 5403 0006 7860     		str	r0, [r7, #4]
 923:../../../../lr11xx/common/apps_common.c ****     irq_fired = true;
 5404              		.loc 1 923 15
 5405 0008 044B     		ldr	r3, .L225
 5406 000a 0122     		movs	r2, #1
 5407 000c 1A70     		strb	r2, [r3]
 924:../../../../lr11xx/common/apps_common.c **** }
 5408              		.loc 1 924 1
 5409 000e 00BF     		nop
 5410 0010 0C37     		adds	r7, r7, #12
 5411              	.LCFI137:
 5412              		.cfi_def_cfa_offset 4
 5413 0012 BD46     		mov	sp, r7
 5414              	.LCFI138:
 5415              		.cfi_def_cfa_register 13
 5416              		@ sp needed
 5417 0014 5DF8047B 		ldr	r7, [sp], #4
 5418              	.LCFI139:
 5419              		.cfi_restore 7
 5420              		.cfi_def_cfa_offset 0
 5421 0018 7047     		bx	lr
 5422              	.L226:
 5423 001a 00BF     		.align	2
 5424              	.L225:
 5425 001c 00000000 		.word	irq_fired
 5426              		.cfi_endproc
 5427              	.LFE277:
 5429              		.section	.rodata
 5430 08e7 00       		.align	2
 5431              	.LC86:
 5432 08e8 4E6F2049 		.ascii	"No IRQ routine defined\012\000"
 5432      52512072 
 5432      6F757469 
 5432      6E652064 
 5432      6566696E 
 5433              		.section	.text.on_tx_done,"ax",%progbits
ARM GAS  C:\msys64\tmp\ccwHIjYg.s 			page 127


 5434              		.align	1
 5435              		.weak	on_tx_done
 5436              		.syntax unified
 5437              		.thumb
 5438              		.thumb_func
 5440              	on_tx_done:
 5441              	.LFB278:
 925:../../../../lr11xx/common/apps_common.c **** void on_tx_done( void )
 926:../../../../lr11xx/common/apps_common.c **** {
 5442              		.loc 1 926 1
 5443              		.cfi_startproc
 5444              		@ args = 0, pretend = 0, frame = 0
 5445              		@ frame_needed = 1, uses_anonymous_args = 0
 5446 0000 80B5     		push	{r7, lr}
 5447              	.LCFI140:
 5448              		.cfi_def_cfa_offset 8
 5449              		.cfi_offset 7, -8
 5450              		.cfi_offset 14, -4
 5451 0002 00AF     		add	r7, sp, #0
 5452              	.LCFI141:
 5453              		.cfi_def_cfa_register 7
 927:../../../../lr11xx/common/apps_common.c ****     HAL_DBG_TRACE_INFO( "No IRQ routine defined\n" );
 5454              		.loc 1 927 5
 5455 0004 0648     		ldr	r0, .L228
 5456 0006 FFF7FEFF 		bl	hal_mcu_trace_print
 5457              		.loc 1 927 5 is_stmt 0 discriminator 1
 5458 000a 0648     		ldr	r0, .L228+4
 5459 000c FFF7FEFF 		bl	hal_mcu_trace_print
 5460              		.loc 1 927 5 discriminator 2
 5461 0010 0548     		ldr	r0, .L228+8
 5462 0012 FFF7FEFF 		bl	hal_mcu_trace_print
 5463              		.loc 1 927 5 discriminator 3
 5464 0016 0548     		ldr	r0, .L228+12
 5465 0018 FFF7FEFF 		bl	hal_mcu_trace_print
 928:../../../../lr11xx/common/apps_common.c **** }
 5466              		.loc 1 928 1 is_stmt 1
 5467 001c 00BF     		nop
 5468 001e 80BD     		pop	{r7, pc}
 5469              	.L229:
 5470              		.align	2
 5471              	.L228:
 5472 0020 70000000 		.word	.LC7
 5473 0024 78000000 		.word	.LC8
 5474 0028 E8080000 		.word	.LC86
 5475 002c 68000000 		.word	.LC6
 5476              		.cfi_endproc
 5477              	.LFE278:
 5479              		.section	.text.on_rx_done,"ax",%progbits
 5480              		.align	1
 5481              		.weak	on_rx_done
 5482              		.syntax unified
 5483              		.thumb
 5484              		.thumb_func
 5486              	on_rx_done:
 5487              	.LFB279:
 929:../../../../lr11xx/common/apps_common.c **** void on_rx_done( void )
 930:../../../../lr11xx/common/apps_common.c **** {
ARM GAS  C:\msys64\tmp\ccwHIjYg.s 			page 128


 5488              		.loc 1 930 1
 5489              		.cfi_startproc
 5490              		@ args = 0, pretend = 0, frame = 0
 5491              		@ frame_needed = 1, uses_anonymous_args = 0
 5492 0000 80B5     		push	{r7, lr}
 5493              	.LCFI142:
 5494              		.cfi_def_cfa_offset 8
 5495              		.cfi_offset 7, -8
 5496              		.cfi_offset 14, -4
 5497 0002 00AF     		add	r7, sp, #0
 5498              	.LCFI143:
 5499              		.cfi_def_cfa_register 7
 931:../../../../lr11xx/common/apps_common.c ****     HAL_DBG_TRACE_INFO( "No IRQ routine defined\n" );
 5500              		.loc 1 931 5
 5501 0004 0648     		ldr	r0, .L231
 5502 0006 FFF7FEFF 		bl	hal_mcu_trace_print
 5503              		.loc 1 931 5 is_stmt 0 discriminator 1
 5504 000a 0648     		ldr	r0, .L231+4
 5505 000c FFF7FEFF 		bl	hal_mcu_trace_print
 5506              		.loc 1 931 5 discriminator 2
 5507 0010 0548     		ldr	r0, .L231+8
 5508 0012 FFF7FEFF 		bl	hal_mcu_trace_print
 5509              		.loc 1 931 5 discriminator 3
 5510 0016 0548     		ldr	r0, .L231+12
 5511 0018 FFF7FEFF 		bl	hal_mcu_trace_print
 932:../../../../lr11xx/common/apps_common.c **** }
 5512              		.loc 1 932 1 is_stmt 1
 5513 001c 00BF     		nop
 5514 001e 80BD     		pop	{r7, pc}
 5515              	.L232:
 5516              		.align	2
 5517              	.L231:
 5518 0020 70000000 		.word	.LC7
 5519 0024 78000000 		.word	.LC8
 5520 0028 E8080000 		.word	.LC86
 5521 002c 68000000 		.word	.LC6
 5522              		.cfi_endproc
 5523              	.LFE279:
 5525              		.section	.text.on_rx_timeout,"ax",%progbits
 5526              		.align	1
 5527              		.weak	on_rx_timeout
 5528              		.syntax unified
 5529              		.thumb
 5530              		.thumb_func
 5532              	on_rx_timeout:
 5533              	.LFB280:
 933:../../../../lr11xx/common/apps_common.c **** void on_rx_timeout( void )
 934:../../../../lr11xx/common/apps_common.c **** {
 5534              		.loc 1 934 1
 5535              		.cfi_startproc
 5536              		@ args = 0, pretend = 0, frame = 0
 5537              		@ frame_needed = 1, uses_anonymous_args = 0
 5538 0000 80B5     		push	{r7, lr}
 5539              	.LCFI144:
 5540              		.cfi_def_cfa_offset 8
 5541              		.cfi_offset 7, -8
 5542              		.cfi_offset 14, -4
ARM GAS  C:\msys64\tmp\ccwHIjYg.s 			page 129


 5543 0002 00AF     		add	r7, sp, #0
 5544              	.LCFI145:
 5545              		.cfi_def_cfa_register 7
 935:../../../../lr11xx/common/apps_common.c ****     HAL_DBG_TRACE_INFO( "No IRQ routine defined\n" );
 5546              		.loc 1 935 5
 5547 0004 0648     		ldr	r0, .L234
 5548 0006 FFF7FEFF 		bl	hal_mcu_trace_print
 5549              		.loc 1 935 5 is_stmt 0 discriminator 1
 5550 000a 0648     		ldr	r0, .L234+4
 5551 000c FFF7FEFF 		bl	hal_mcu_trace_print
 5552              		.loc 1 935 5 discriminator 2
 5553 0010 0548     		ldr	r0, .L234+8
 5554 0012 FFF7FEFF 		bl	hal_mcu_trace_print
 5555              		.loc 1 935 5 discriminator 3
 5556 0016 0548     		ldr	r0, .L234+12
 5557 0018 FFF7FEFF 		bl	hal_mcu_trace_print
 936:../../../../lr11xx/common/apps_common.c **** }
 5558              		.loc 1 936 1 is_stmt 1
 5559 001c 00BF     		nop
 5560 001e 80BD     		pop	{r7, pc}
 5561              	.L235:
 5562              		.align	2
 5563              	.L234:
 5564 0020 70000000 		.word	.LC7
 5565 0024 78000000 		.word	.LC8
 5566 0028 E8080000 		.word	.LC86
 5567 002c 68000000 		.word	.LC6
 5568              		.cfi_endproc
 5569              	.LFE280:
 5571              		.section	.text.on_preamble_detected,"ax",%progbits
 5572              		.align	1
 5573              		.weak	on_preamble_detected
 5574              		.syntax unified
 5575              		.thumb
 5576              		.thumb_func
 5578              	on_preamble_detected:
 5579              	.LFB281:
 937:../../../../lr11xx/common/apps_common.c **** void on_preamble_detected( void )
 938:../../../../lr11xx/common/apps_common.c **** {
 5580              		.loc 1 938 1
 5581              		.cfi_startproc
 5582              		@ args = 0, pretend = 0, frame = 0
 5583              		@ frame_needed = 1, uses_anonymous_args = 0
 5584 0000 80B5     		push	{r7, lr}
 5585              	.LCFI146:
 5586              		.cfi_def_cfa_offset 8
 5587              		.cfi_offset 7, -8
 5588              		.cfi_offset 14, -4
 5589 0002 00AF     		add	r7, sp, #0
 5590              	.LCFI147:
 5591              		.cfi_def_cfa_register 7
 939:../../../../lr11xx/common/apps_common.c ****     HAL_DBG_TRACE_INFO( "No IRQ routine defined\n" );
 5592              		.loc 1 939 5
 5593 0004 0648     		ldr	r0, .L237
 5594 0006 FFF7FEFF 		bl	hal_mcu_trace_print
 5595              		.loc 1 939 5 is_stmt 0 discriminator 1
 5596 000a 0648     		ldr	r0, .L237+4
ARM GAS  C:\msys64\tmp\ccwHIjYg.s 			page 130


 5597 000c FFF7FEFF 		bl	hal_mcu_trace_print
 5598              		.loc 1 939 5 discriminator 2
 5599 0010 0548     		ldr	r0, .L237+8
 5600 0012 FFF7FEFF 		bl	hal_mcu_trace_print
 5601              		.loc 1 939 5 discriminator 3
 5602 0016 0548     		ldr	r0, .L237+12
 5603 0018 FFF7FEFF 		bl	hal_mcu_trace_print
 940:../../../../lr11xx/common/apps_common.c **** }
 5604              		.loc 1 940 1 is_stmt 1
 5605 001c 00BF     		nop
 5606 001e 80BD     		pop	{r7, pc}
 5607              	.L238:
 5608              		.align	2
 5609              	.L237:
 5610 0020 70000000 		.word	.LC7
 5611 0024 78000000 		.word	.LC8
 5612 0028 E8080000 		.word	.LC86
 5613 002c 68000000 		.word	.LC6
 5614              		.cfi_endproc
 5615              	.LFE281:
 5617              		.section	.text.on_syncword_header_valid,"ax",%progbits
 5618              		.align	1
 5619              		.weak	on_syncword_header_valid
 5620              		.syntax unified
 5621              		.thumb
 5622              		.thumb_func
 5624              	on_syncword_header_valid:
 5625              	.LFB282:
 941:../../../../lr11xx/common/apps_common.c **** void on_syncword_header_valid( void )
 942:../../../../lr11xx/common/apps_common.c **** {
 5626              		.loc 1 942 1
 5627              		.cfi_startproc
 5628              		@ args = 0, pretend = 0, frame = 0
 5629              		@ frame_needed = 1, uses_anonymous_args = 0
 5630 0000 80B5     		push	{r7, lr}
 5631              	.LCFI148:
 5632              		.cfi_def_cfa_offset 8
 5633              		.cfi_offset 7, -8
 5634              		.cfi_offset 14, -4
 5635 0002 00AF     		add	r7, sp, #0
 5636              	.LCFI149:
 5637              		.cfi_def_cfa_register 7
 943:../../../../lr11xx/common/apps_common.c ****     HAL_DBG_TRACE_INFO( "No IRQ routine defined\n" );
 5638              		.loc 1 943 5
 5639 0004 0648     		ldr	r0, .L240
 5640 0006 FFF7FEFF 		bl	hal_mcu_trace_print
 5641              		.loc 1 943 5 is_stmt 0 discriminator 1
 5642 000a 0648     		ldr	r0, .L240+4
 5643 000c FFF7FEFF 		bl	hal_mcu_trace_print
 5644              		.loc 1 943 5 discriminator 2
 5645 0010 0548     		ldr	r0, .L240+8
 5646 0012 FFF7FEFF 		bl	hal_mcu_trace_print
 5647              		.loc 1 943 5 discriminator 3
 5648 0016 0548     		ldr	r0, .L240+12
 5649 0018 FFF7FEFF 		bl	hal_mcu_trace_print
 944:../../../../lr11xx/common/apps_common.c **** }
 5650              		.loc 1 944 1 is_stmt 1
ARM GAS  C:\msys64\tmp\ccwHIjYg.s 			page 131


 5651 001c 00BF     		nop
 5652 001e 80BD     		pop	{r7, pc}
 5653              	.L241:
 5654              		.align	2
 5655              	.L240:
 5656 0020 70000000 		.word	.LC7
 5657 0024 78000000 		.word	.LC8
 5658 0028 E8080000 		.word	.LC86
 5659 002c 68000000 		.word	.LC6
 5660              		.cfi_endproc
 5661              	.LFE282:
 5663              		.section	.text.on_header_error,"ax",%progbits
 5664              		.align	1
 5665              		.weak	on_header_error
 5666              		.syntax unified
 5667              		.thumb
 5668              		.thumb_func
 5670              	on_header_error:
 5671              	.LFB283:
 945:../../../../lr11xx/common/apps_common.c **** void on_header_error( void )
 946:../../../../lr11xx/common/apps_common.c **** {
 5672              		.loc 1 946 1
 5673              		.cfi_startproc
 5674              		@ args = 0, pretend = 0, frame = 0
 5675              		@ frame_needed = 1, uses_anonymous_args = 0
 5676 0000 80B5     		push	{r7, lr}
 5677              	.LCFI150:
 5678              		.cfi_def_cfa_offset 8
 5679              		.cfi_offset 7, -8
 5680              		.cfi_offset 14, -4
 5681 0002 00AF     		add	r7, sp, #0
 5682              	.LCFI151:
 5683              		.cfi_def_cfa_register 7
 947:../../../../lr11xx/common/apps_common.c ****     HAL_DBG_TRACE_INFO( "No IRQ routine defined\n" );
 5684              		.loc 1 947 5
 5685 0004 0648     		ldr	r0, .L243
 5686 0006 FFF7FEFF 		bl	hal_mcu_trace_print
 5687              		.loc 1 947 5 is_stmt 0 discriminator 1
 5688 000a 0648     		ldr	r0, .L243+4
 5689 000c FFF7FEFF 		bl	hal_mcu_trace_print
 5690              		.loc 1 947 5 discriminator 2
 5691 0010 0548     		ldr	r0, .L243+8
 5692 0012 FFF7FEFF 		bl	hal_mcu_trace_print
 5693              		.loc 1 947 5 discriminator 3
 5694 0016 0548     		ldr	r0, .L243+12
 5695 0018 FFF7FEFF 		bl	hal_mcu_trace_print
 948:../../../../lr11xx/common/apps_common.c **** }
 5696              		.loc 1 948 1 is_stmt 1
 5697 001c 00BF     		nop
 5698 001e 80BD     		pop	{r7, pc}
 5699              	.L244:
 5700              		.align	2
 5701              	.L243:
 5702 0020 70000000 		.word	.LC7
 5703 0024 78000000 		.word	.LC8
 5704 0028 E8080000 		.word	.LC86
 5705 002c 68000000 		.word	.LC6
ARM GAS  C:\msys64\tmp\ccwHIjYg.s 			page 132


 5706              		.cfi_endproc
 5707              	.LFE283:
 5709              		.section	.text.on_fsk_len_error,"ax",%progbits
 5710              		.align	1
 5711              		.weak	on_fsk_len_error
 5712              		.syntax unified
 5713              		.thumb
 5714              		.thumb_func
 5716              	on_fsk_len_error:
 5717              	.LFB284:
 949:../../../../lr11xx/common/apps_common.c **** void on_fsk_len_error( void )
 950:../../../../lr11xx/common/apps_common.c **** {
 5718              		.loc 1 950 1
 5719              		.cfi_startproc
 5720              		@ args = 0, pretend = 0, frame = 0
 5721              		@ frame_needed = 1, uses_anonymous_args = 0
 5722 0000 80B5     		push	{r7, lr}
 5723              	.LCFI152:
 5724              		.cfi_def_cfa_offset 8
 5725              		.cfi_offset 7, -8
 5726              		.cfi_offset 14, -4
 5727 0002 00AF     		add	r7, sp, #0
 5728              	.LCFI153:
 5729              		.cfi_def_cfa_register 7
 951:../../../../lr11xx/common/apps_common.c ****     HAL_DBG_TRACE_INFO( "No IRQ routine defined\n" );
 5730              		.loc 1 951 5
 5731 0004 0648     		ldr	r0, .L246
 5732 0006 FFF7FEFF 		bl	hal_mcu_trace_print
 5733              		.loc 1 951 5 is_stmt 0 discriminator 1
 5734 000a 0648     		ldr	r0, .L246+4
 5735 000c FFF7FEFF 		bl	hal_mcu_trace_print
 5736              		.loc 1 951 5 discriminator 2
 5737 0010 0548     		ldr	r0, .L246+8
 5738 0012 FFF7FEFF 		bl	hal_mcu_trace_print
 5739              		.loc 1 951 5 discriminator 3
 5740 0016 0548     		ldr	r0, .L246+12
 5741 0018 FFF7FEFF 		bl	hal_mcu_trace_print
 952:../../../../lr11xx/common/apps_common.c **** }
 5742              		.loc 1 952 1 is_stmt 1
 5743 001c 00BF     		nop
 5744 001e 80BD     		pop	{r7, pc}
 5745              	.L247:
 5746              		.align	2
 5747              	.L246:
 5748 0020 70000000 		.word	.LC7
 5749 0024 78000000 		.word	.LC8
 5750 0028 E8080000 		.word	.LC86
 5751 002c 68000000 		.word	.LC6
 5752              		.cfi_endproc
 5753              	.LFE284:
 5755              		.section	.text.on_rx_crc_error,"ax",%progbits
 5756              		.align	1
 5757              		.weak	on_rx_crc_error
 5758              		.syntax unified
 5759              		.thumb
 5760              		.thumb_func
 5762              	on_rx_crc_error:
ARM GAS  C:\msys64\tmp\ccwHIjYg.s 			page 133


 5763              	.LFB285:
 953:../../../../lr11xx/common/apps_common.c **** void on_rx_crc_error( void )
 954:../../../../lr11xx/common/apps_common.c **** {
 5764              		.loc 1 954 1
 5765              		.cfi_startproc
 5766              		@ args = 0, pretend = 0, frame = 0
 5767              		@ frame_needed = 1, uses_anonymous_args = 0
 5768 0000 80B5     		push	{r7, lr}
 5769              	.LCFI154:
 5770              		.cfi_def_cfa_offset 8
 5771              		.cfi_offset 7, -8
 5772              		.cfi_offset 14, -4
 5773 0002 00AF     		add	r7, sp, #0
 5774              	.LCFI155:
 5775              		.cfi_def_cfa_register 7
 955:../../../../lr11xx/common/apps_common.c ****     HAL_DBG_TRACE_INFO( "No IRQ routine defined\n" );
 5776              		.loc 1 955 5
 5777 0004 0648     		ldr	r0, .L249
 5778 0006 FFF7FEFF 		bl	hal_mcu_trace_print
 5779              		.loc 1 955 5 is_stmt 0 discriminator 1
 5780 000a 0648     		ldr	r0, .L249+4
 5781 000c FFF7FEFF 		bl	hal_mcu_trace_print
 5782              		.loc 1 955 5 discriminator 2
 5783 0010 0548     		ldr	r0, .L249+8
 5784 0012 FFF7FEFF 		bl	hal_mcu_trace_print
 5785              		.loc 1 955 5 discriminator 3
 5786 0016 0548     		ldr	r0, .L249+12
 5787 0018 FFF7FEFF 		bl	hal_mcu_trace_print
 956:../../../../lr11xx/common/apps_common.c **** }
 5788              		.loc 1 956 1 is_stmt 1
 5789 001c 00BF     		nop
 5790 001e 80BD     		pop	{r7, pc}
 5791              	.L250:
 5792              		.align	2
 5793              	.L249:
 5794 0020 70000000 		.word	.LC7
 5795 0024 78000000 		.word	.LC8
 5796 0028 E8080000 		.word	.LC86
 5797 002c 68000000 		.word	.LC6
 5798              		.cfi_endproc
 5799              	.LFE285:
 5801              		.section	.text.on_cad_done_undetected,"ax",%progbits
 5802              		.align	1
 5803              		.weak	on_cad_done_undetected
 5804              		.syntax unified
 5805              		.thumb
 5806              		.thumb_func
 5808              	on_cad_done_undetected:
 5809              	.LFB286:
 957:../../../../lr11xx/common/apps_common.c **** void on_cad_done_undetected( void )
 958:../../../../lr11xx/common/apps_common.c **** {
 5810              		.loc 1 958 1
 5811              		.cfi_startproc
 5812              		@ args = 0, pretend = 0, frame = 0
 5813              		@ frame_needed = 1, uses_anonymous_args = 0
 5814 0000 80B5     		push	{r7, lr}
 5815              	.LCFI156:
ARM GAS  C:\msys64\tmp\ccwHIjYg.s 			page 134


 5816              		.cfi_def_cfa_offset 8
 5817              		.cfi_offset 7, -8
 5818              		.cfi_offset 14, -4
 5819 0002 00AF     		add	r7, sp, #0
 5820              	.LCFI157:
 5821              		.cfi_def_cfa_register 7
 959:../../../../lr11xx/common/apps_common.c ****     HAL_DBG_TRACE_INFO( "No IRQ routine defined\n" );
 5822              		.loc 1 959 5
 5823 0004 0648     		ldr	r0, .L252
 5824 0006 FFF7FEFF 		bl	hal_mcu_trace_print
 5825              		.loc 1 959 5 is_stmt 0 discriminator 1
 5826 000a 0648     		ldr	r0, .L252+4
 5827 000c FFF7FEFF 		bl	hal_mcu_trace_print
 5828              		.loc 1 959 5 discriminator 2
 5829 0010 0548     		ldr	r0, .L252+8
 5830 0012 FFF7FEFF 		bl	hal_mcu_trace_print
 5831              		.loc 1 959 5 discriminator 3
 5832 0016 0548     		ldr	r0, .L252+12
 5833 0018 FFF7FEFF 		bl	hal_mcu_trace_print
 960:../../../../lr11xx/common/apps_common.c **** }
 5834              		.loc 1 960 1 is_stmt 1
 5835 001c 00BF     		nop
 5836 001e 80BD     		pop	{r7, pc}
 5837              	.L253:
 5838              		.align	2
 5839              	.L252:
 5840 0020 70000000 		.word	.LC7
 5841 0024 78000000 		.word	.LC8
 5842 0028 E8080000 		.word	.LC86
 5843 002c 68000000 		.word	.LC6
 5844              		.cfi_endproc
 5845              	.LFE286:
 5847              		.section	.text.on_cad_done_detected,"ax",%progbits
 5848              		.align	1
 5849              		.weak	on_cad_done_detected
 5850              		.syntax unified
 5851              		.thumb
 5852              		.thumb_func
 5854              	on_cad_done_detected:
 5855              	.LFB287:
 961:../../../../lr11xx/common/apps_common.c **** void on_cad_done_detected( void )
 962:../../../../lr11xx/common/apps_common.c **** {
 5856              		.loc 1 962 1
 5857              		.cfi_startproc
 5858              		@ args = 0, pretend = 0, frame = 0
 5859              		@ frame_needed = 1, uses_anonymous_args = 0
 5860 0000 80B5     		push	{r7, lr}
 5861              	.LCFI158:
 5862              		.cfi_def_cfa_offset 8
 5863              		.cfi_offset 7, -8
 5864              		.cfi_offset 14, -4
 5865 0002 00AF     		add	r7, sp, #0
 5866              	.LCFI159:
 5867              		.cfi_def_cfa_register 7
 963:../../../../lr11xx/common/apps_common.c ****     HAL_DBG_TRACE_INFO( "No IRQ routine defined\n" );
 5868              		.loc 1 963 5
 5869 0004 0648     		ldr	r0, .L255
ARM GAS  C:\msys64\tmp\ccwHIjYg.s 			page 135


 5870 0006 FFF7FEFF 		bl	hal_mcu_trace_print
 5871              		.loc 1 963 5 is_stmt 0 discriminator 1
 5872 000a 0648     		ldr	r0, .L255+4
 5873 000c FFF7FEFF 		bl	hal_mcu_trace_print
 5874              		.loc 1 963 5 discriminator 2
 5875 0010 0548     		ldr	r0, .L255+8
 5876 0012 FFF7FEFF 		bl	hal_mcu_trace_print
 5877              		.loc 1 963 5 discriminator 3
 5878 0016 0548     		ldr	r0, .L255+12
 5879 0018 FFF7FEFF 		bl	hal_mcu_trace_print
 964:../../../../lr11xx/common/apps_common.c **** }
 5880              		.loc 1 964 1 is_stmt 1
 5881 001c 00BF     		nop
 5882 001e 80BD     		pop	{r7, pc}
 5883              	.L256:
 5884              		.align	2
 5885              	.L255:
 5886 0020 70000000 		.word	.LC7
 5887 0024 78000000 		.word	.LC8
 5888 0028 E8080000 		.word	.LC86
 5889 002c 68000000 		.word	.LC6
 5890              		.cfi_endproc
 5891              	.LFE287:
 5893              		.section	.text.on_lora_rx_timestamp,"ax",%progbits
 5894              		.align	1
 5895              		.weak	on_lora_rx_timestamp
 5896              		.syntax unified
 5897              		.thumb
 5898              		.thumb_func
 5900              	on_lora_rx_timestamp:
 5901              	.LFB288:
 965:../../../../lr11xx/common/apps_common.c **** void on_lora_rx_timestamp( void )
 966:../../../../lr11xx/common/apps_common.c **** {
 5902              		.loc 1 966 1
 5903              		.cfi_startproc
 5904              		@ args = 0, pretend = 0, frame = 0
 5905              		@ frame_needed = 1, uses_anonymous_args = 0
 5906 0000 80B5     		push	{r7, lr}
 5907              	.LCFI160:
 5908              		.cfi_def_cfa_offset 8
 5909              		.cfi_offset 7, -8
 5910              		.cfi_offset 14, -4
 5911 0002 00AF     		add	r7, sp, #0
 5912              	.LCFI161:
 5913              		.cfi_def_cfa_register 7
 967:../../../../lr11xx/common/apps_common.c ****     HAL_DBG_TRACE_INFO( "No IRQ routine defined\n" );
 5914              		.loc 1 967 5
 5915 0004 0648     		ldr	r0, .L258
 5916 0006 FFF7FEFF 		bl	hal_mcu_trace_print
 5917              		.loc 1 967 5 is_stmt 0 discriminator 1
 5918 000a 0648     		ldr	r0, .L258+4
 5919 000c FFF7FEFF 		bl	hal_mcu_trace_print
 5920              		.loc 1 967 5 discriminator 2
 5921 0010 0548     		ldr	r0, .L258+8
 5922 0012 FFF7FEFF 		bl	hal_mcu_trace_print
 5923              		.loc 1 967 5 discriminator 3
 5924 0016 0548     		ldr	r0, .L258+12
ARM GAS  C:\msys64\tmp\ccwHIjYg.s 			page 136


 5925 0018 FFF7FEFF 		bl	hal_mcu_trace_print
 968:../../../../lr11xx/common/apps_common.c **** }
 5926              		.loc 1 968 1 is_stmt 1
 5927 001c 00BF     		nop
 5928 001e 80BD     		pop	{r7, pc}
 5929              	.L259:
 5930              		.align	2
 5931              	.L258:
 5932 0020 70000000 		.word	.LC7
 5933 0024 78000000 		.word	.LC8
 5934 0028 E8080000 		.word	.LC86
 5935 002c 68000000 		.word	.LC6
 5936              		.cfi_endproc
 5937              	.LFE288:
 5939              		.section	.text.on_wifi_scan_done,"ax",%progbits
 5940              		.align	1
 5941              		.weak	on_wifi_scan_done
 5942              		.syntax unified
 5943              		.thumb
 5944              		.thumb_func
 5946              	on_wifi_scan_done:
 5947              	.LFB289:
 969:../../../../lr11xx/common/apps_common.c **** void on_wifi_scan_done( void )
 970:../../../../lr11xx/common/apps_common.c **** {
 5948              		.loc 1 970 1
 5949              		.cfi_startproc
 5950              		@ args = 0, pretend = 0, frame = 0
 5951              		@ frame_needed = 1, uses_anonymous_args = 0
 5952 0000 80B5     		push	{r7, lr}
 5953              	.LCFI162:
 5954              		.cfi_def_cfa_offset 8
 5955              		.cfi_offset 7, -8
 5956              		.cfi_offset 14, -4
 5957 0002 00AF     		add	r7, sp, #0
 5958              	.LCFI163:
 5959              		.cfi_def_cfa_register 7
 971:../../../../lr11xx/common/apps_common.c ****     HAL_DBG_TRACE_INFO( "No IRQ routine defined\n" );
 5960              		.loc 1 971 5
 5961 0004 0648     		ldr	r0, .L261
 5962 0006 FFF7FEFF 		bl	hal_mcu_trace_print
 5963              		.loc 1 971 5 is_stmt 0 discriminator 1
 5964 000a 0648     		ldr	r0, .L261+4
 5965 000c FFF7FEFF 		bl	hal_mcu_trace_print
 5966              		.loc 1 971 5 discriminator 2
 5967 0010 0548     		ldr	r0, .L261+8
 5968 0012 FFF7FEFF 		bl	hal_mcu_trace_print
 5969              		.loc 1 971 5 discriminator 3
 5970 0016 0548     		ldr	r0, .L261+12
 5971 0018 FFF7FEFF 		bl	hal_mcu_trace_print
 972:../../../../lr11xx/common/apps_common.c **** }
 5972              		.loc 1 972 1 is_stmt 1
 5973 001c 00BF     		nop
 5974 001e 80BD     		pop	{r7, pc}
 5975              	.L262:
 5976              		.align	2
 5977              	.L261:
 5978 0020 70000000 		.word	.LC7
ARM GAS  C:\msys64\tmp\ccwHIjYg.s 			page 137


 5979 0024 78000000 		.word	.LC8
 5980 0028 E8080000 		.word	.LC86
 5981 002c 68000000 		.word	.LC6
 5982              		.cfi_endproc
 5983              	.LFE289:
 5985              		.section	.text.on_gnss_scan_done,"ax",%progbits
 5986              		.align	1
 5987              		.weak	on_gnss_scan_done
 5988              		.syntax unified
 5989              		.thumb
 5990              		.thumb_func
 5992              	on_gnss_scan_done:
 5993              	.LFB290:
 973:../../../../lr11xx/common/apps_common.c **** void on_gnss_scan_done( void )
 974:../../../../lr11xx/common/apps_common.c **** {
 5994              		.loc 1 974 1
 5995              		.cfi_startproc
 5996              		@ args = 0, pretend = 0, frame = 0
 5997              		@ frame_needed = 1, uses_anonymous_args = 0
 5998 0000 80B5     		push	{r7, lr}
 5999              	.LCFI164:
 6000              		.cfi_def_cfa_offset 8
 6001              		.cfi_offset 7, -8
 6002              		.cfi_offset 14, -4
 6003 0002 00AF     		add	r7, sp, #0
 6004              	.LCFI165:
 6005              		.cfi_def_cfa_register 7
 975:../../../../lr11xx/common/apps_common.c ****     HAL_DBG_TRACE_INFO( "No IRQ routine defined\n" );
 6006              		.loc 1 975 5
 6007 0004 0648     		ldr	r0, .L264
 6008 0006 FFF7FEFF 		bl	hal_mcu_trace_print
 6009              		.loc 1 975 5 is_stmt 0 discriminator 1
 6010 000a 0648     		ldr	r0, .L264+4
 6011 000c FFF7FEFF 		bl	hal_mcu_trace_print
 6012              		.loc 1 975 5 discriminator 2
 6013 0010 0548     		ldr	r0, .L264+8
 6014 0012 FFF7FEFF 		bl	hal_mcu_trace_print
 6015              		.loc 1 975 5 discriminator 3
 6016 0016 0548     		ldr	r0, .L264+12
 6017 0018 FFF7FEFF 		bl	hal_mcu_trace_print
 976:../../../../lr11xx/common/apps_common.c **** }
 6018              		.loc 1 976 1 is_stmt 1
 6019 001c 00BF     		nop
 6020 001e 80BD     		pop	{r7, pc}
 6021              	.L265:
 6022              		.align	2
 6023              	.L264:
 6024 0020 70000000 		.word	.LC7
 6025 0024 78000000 		.word	.LC8
 6026 0028 E8080000 		.word	.LC86
 6027 002c 68000000 		.word	.LC6
 6028              		.cfi_endproc
 6029              	.LFE290:
 6031              		.section	.text.on_rttof_request_valid,"ax",%progbits
 6032              		.align	1
 6033              		.weak	on_rttof_request_valid
 6034              		.syntax unified
ARM GAS  C:\msys64\tmp\ccwHIjYg.s 			page 138


 6035              		.thumb
 6036              		.thumb_func
 6038              	on_rttof_request_valid:
 6039              	.LFB291:
 977:../../../../lr11xx/common/apps_common.c **** void on_rttof_request_valid( void )
 978:../../../../lr11xx/common/apps_common.c **** {
 6040              		.loc 1 978 1
 6041              		.cfi_startproc
 6042              		@ args = 0, pretend = 0, frame = 0
 6043              		@ frame_needed = 1, uses_anonymous_args = 0
 6044 0000 80B5     		push	{r7, lr}
 6045              	.LCFI166:
 6046              		.cfi_def_cfa_offset 8
 6047              		.cfi_offset 7, -8
 6048              		.cfi_offset 14, -4
 6049 0002 00AF     		add	r7, sp, #0
 6050              	.LCFI167:
 6051              		.cfi_def_cfa_register 7
 979:../../../../lr11xx/common/apps_common.c ****     HAL_DBG_TRACE_INFO( "No IRQ routine defined\n" );
 6052              		.loc 1 979 5
 6053 0004 0648     		ldr	r0, .L267
 6054 0006 FFF7FEFF 		bl	hal_mcu_trace_print
 6055              		.loc 1 979 5 is_stmt 0 discriminator 1
 6056 000a 0648     		ldr	r0, .L267+4
 6057 000c FFF7FEFF 		bl	hal_mcu_trace_print
 6058              		.loc 1 979 5 discriminator 2
 6059 0010 0548     		ldr	r0, .L267+8
 6060 0012 FFF7FEFF 		bl	hal_mcu_trace_print
 6061              		.loc 1 979 5 discriminator 3
 6062 0016 0548     		ldr	r0, .L267+12
 6063 0018 FFF7FEFF 		bl	hal_mcu_trace_print
 980:../../../../lr11xx/common/apps_common.c **** }
 6064              		.loc 1 980 1 is_stmt 1
 6065 001c 00BF     		nop
 6066 001e 80BD     		pop	{r7, pc}
 6067              	.L268:
 6068              		.align	2
 6069              	.L267:
 6070 0020 70000000 		.word	.LC7
 6071 0024 78000000 		.word	.LC8
 6072 0028 E8080000 		.word	.LC86
 6073 002c 68000000 		.word	.LC6
 6074              		.cfi_endproc
 6075              	.LFE291:
 6077              		.section	.text.on_rttof_request_discarded,"ax",%progbits
 6078              		.align	1
 6079              		.weak	on_rttof_request_discarded
 6080              		.syntax unified
 6081              		.thumb
 6082              		.thumb_func
 6084              	on_rttof_request_discarded:
 6085              	.LFB292:
 981:../../../../lr11xx/common/apps_common.c **** void on_rttof_request_discarded( void )
 982:../../../../lr11xx/common/apps_common.c **** {
 6086              		.loc 1 982 1
 6087              		.cfi_startproc
 6088              		@ args = 0, pretend = 0, frame = 0
ARM GAS  C:\msys64\tmp\ccwHIjYg.s 			page 139


 6089              		@ frame_needed = 1, uses_anonymous_args = 0
 6090 0000 80B5     		push	{r7, lr}
 6091              	.LCFI168:
 6092              		.cfi_def_cfa_offset 8
 6093              		.cfi_offset 7, -8
 6094              		.cfi_offset 14, -4
 6095 0002 00AF     		add	r7, sp, #0
 6096              	.LCFI169:
 6097              		.cfi_def_cfa_register 7
 983:../../../../lr11xx/common/apps_common.c ****     HAL_DBG_TRACE_INFO( "No IRQ routine defined\n" );
 6098              		.loc 1 983 5
 6099 0004 0648     		ldr	r0, .L270
 6100 0006 FFF7FEFF 		bl	hal_mcu_trace_print
 6101              		.loc 1 983 5 is_stmt 0 discriminator 1
 6102 000a 0648     		ldr	r0, .L270+4
 6103 000c FFF7FEFF 		bl	hal_mcu_trace_print
 6104              		.loc 1 983 5 discriminator 2
 6105 0010 0548     		ldr	r0, .L270+8
 6106 0012 FFF7FEFF 		bl	hal_mcu_trace_print
 6107              		.loc 1 983 5 discriminator 3
 6108 0016 0548     		ldr	r0, .L270+12
 6109 0018 FFF7FEFF 		bl	hal_mcu_trace_print
 984:../../../../lr11xx/common/apps_common.c **** }
 6110              		.loc 1 984 1 is_stmt 1
 6111 001c 00BF     		nop
 6112 001e 80BD     		pop	{r7, pc}
 6113              	.L271:
 6114              		.align	2
 6115              	.L270:
 6116 0020 70000000 		.word	.LC7
 6117 0024 78000000 		.word	.LC8
 6118 0028 E8080000 		.word	.LC86
 6119 002c 68000000 		.word	.LC6
 6120              		.cfi_endproc
 6121              	.LFE292:
 6123              		.section	.text.on_rttof_response_done,"ax",%progbits
 6124              		.align	1
 6125              		.weak	on_rttof_response_done
 6126              		.syntax unified
 6127              		.thumb
 6128              		.thumb_func
 6130              	on_rttof_response_done:
 6131              	.LFB293:
 985:../../../../lr11xx/common/apps_common.c **** void on_rttof_response_done( void )
 986:../../../../lr11xx/common/apps_common.c **** {
 6132              		.loc 1 986 1
 6133              		.cfi_startproc
 6134              		@ args = 0, pretend = 0, frame = 0
 6135              		@ frame_needed = 1, uses_anonymous_args = 0
 6136 0000 80B5     		push	{r7, lr}
 6137              	.LCFI170:
 6138              		.cfi_def_cfa_offset 8
 6139              		.cfi_offset 7, -8
 6140              		.cfi_offset 14, -4
 6141 0002 00AF     		add	r7, sp, #0
 6142              	.LCFI171:
 6143              		.cfi_def_cfa_register 7
ARM GAS  C:\msys64\tmp\ccwHIjYg.s 			page 140


 987:../../../../lr11xx/common/apps_common.c ****     HAL_DBG_TRACE_INFO( "No IRQ routine defined\n" );
 6144              		.loc 1 987 5
 6145 0004 0648     		ldr	r0, .L273
 6146 0006 FFF7FEFF 		bl	hal_mcu_trace_print
 6147              		.loc 1 987 5 is_stmt 0 discriminator 1
 6148 000a 0648     		ldr	r0, .L273+4
 6149 000c FFF7FEFF 		bl	hal_mcu_trace_print
 6150              		.loc 1 987 5 discriminator 2
 6151 0010 0548     		ldr	r0, .L273+8
 6152 0012 FFF7FEFF 		bl	hal_mcu_trace_print
 6153              		.loc 1 987 5 discriminator 3
 6154 0016 0548     		ldr	r0, .L273+12
 6155 0018 FFF7FEFF 		bl	hal_mcu_trace_print
 988:../../../../lr11xx/common/apps_common.c **** }
 6156              		.loc 1 988 1 is_stmt 1
 6157 001c 00BF     		nop
 6158 001e 80BD     		pop	{r7, pc}
 6159              	.L274:
 6160              		.align	2
 6161              	.L273:
 6162 0020 70000000 		.word	.LC7
 6163 0024 78000000 		.word	.LC8
 6164 0028 E8080000 		.word	.LC86
 6165 002c 68000000 		.word	.LC6
 6166              		.cfi_endproc
 6167              	.LFE293:
 6169              		.section	.text.on_rttof_exchange_valid,"ax",%progbits
 6170              		.align	1
 6171              		.weak	on_rttof_exchange_valid
 6172              		.syntax unified
 6173              		.thumb
 6174              		.thumb_func
 6176              	on_rttof_exchange_valid:
 6177              	.LFB294:
 989:../../../../lr11xx/common/apps_common.c **** void on_rttof_exchange_valid( void )
 990:../../../../lr11xx/common/apps_common.c **** {
 6178              		.loc 1 990 1
 6179              		.cfi_startproc
 6180              		@ args = 0, pretend = 0, frame = 0
 6181              		@ frame_needed = 1, uses_anonymous_args = 0
 6182 0000 80B5     		push	{r7, lr}
 6183              	.LCFI172:
 6184              		.cfi_def_cfa_offset 8
 6185              		.cfi_offset 7, -8
 6186              		.cfi_offset 14, -4
 6187 0002 00AF     		add	r7, sp, #0
 6188              	.LCFI173:
 6189              		.cfi_def_cfa_register 7
 991:../../../../lr11xx/common/apps_common.c ****     HAL_DBG_TRACE_INFO( "No IRQ routine defined\n" );
 6190              		.loc 1 991 5
 6191 0004 0648     		ldr	r0, .L276
 6192 0006 FFF7FEFF 		bl	hal_mcu_trace_print
 6193              		.loc 1 991 5 is_stmt 0 discriminator 1
 6194 000a 0648     		ldr	r0, .L276+4
 6195 000c FFF7FEFF 		bl	hal_mcu_trace_print
 6196              		.loc 1 991 5 discriminator 2
 6197 0010 0548     		ldr	r0, .L276+8
ARM GAS  C:\msys64\tmp\ccwHIjYg.s 			page 141


 6198 0012 FFF7FEFF 		bl	hal_mcu_trace_print
 6199              		.loc 1 991 5 discriminator 3
 6200 0016 0548     		ldr	r0, .L276+12
 6201 0018 FFF7FEFF 		bl	hal_mcu_trace_print
 992:../../../../lr11xx/common/apps_common.c **** }
 6202              		.loc 1 992 1 is_stmt 1
 6203 001c 00BF     		nop
 6204 001e 80BD     		pop	{r7, pc}
 6205              	.L277:
 6206              		.align	2
 6207              	.L276:
 6208 0020 70000000 		.word	.LC7
 6209 0024 78000000 		.word	.LC8
 6210 0028 E8080000 		.word	.LC86
 6211 002c 68000000 		.word	.LC6
 6212              		.cfi_endproc
 6213              	.LFE294:
 6215              		.section	.text.on_rttof_timeout,"ax",%progbits
 6216              		.align	1
 6217              		.weak	on_rttof_timeout
 6218              		.syntax unified
 6219              		.thumb
 6220              		.thumb_func
 6222              	on_rttof_timeout:
 6223              	.LFB295:
 993:../../../../lr11xx/common/apps_common.c **** void on_rttof_timeout( void )
 994:../../../../lr11xx/common/apps_common.c **** {
 6224              		.loc 1 994 1
 6225              		.cfi_startproc
 6226              		@ args = 0, pretend = 0, frame = 0
 6227              		@ frame_needed = 1, uses_anonymous_args = 0
 6228 0000 80B5     		push	{r7, lr}
 6229              	.LCFI174:
 6230              		.cfi_def_cfa_offset 8
 6231              		.cfi_offset 7, -8
 6232              		.cfi_offset 14, -4
 6233 0002 00AF     		add	r7, sp, #0
 6234              	.LCFI175:
 6235              		.cfi_def_cfa_register 7
 995:../../../../lr11xx/common/apps_common.c ****     HAL_DBG_TRACE_INFO( "No IRQ routine defined\n" );
 6236              		.loc 1 995 5
 6237 0004 0648     		ldr	r0, .L279
 6238 0006 FFF7FEFF 		bl	hal_mcu_trace_print
 6239              		.loc 1 995 5 is_stmt 0 discriminator 1
 6240 000a 0648     		ldr	r0, .L279+4
 6241 000c FFF7FEFF 		bl	hal_mcu_trace_print
 6242              		.loc 1 995 5 discriminator 2
 6243 0010 0548     		ldr	r0, .L279+8
 6244 0012 FFF7FEFF 		bl	hal_mcu_trace_print
 6245              		.loc 1 995 5 discriminator 3
 6246 0016 0548     		ldr	r0, .L279+12
 6247 0018 FFF7FEFF 		bl	hal_mcu_trace_print
 996:../../../../lr11xx/common/apps_common.c **** }
 6248              		.loc 1 996 1 is_stmt 1
 6249 001c 00BF     		nop
 6250 001e 80BD     		pop	{r7, pc}
 6251              	.L280:
ARM GAS  C:\msys64\tmp\ccwHIjYg.s 			page 142


 6252              		.align	2
 6253              	.L279:
 6254 0020 70000000 		.word	.LC7
 6255 0024 78000000 		.word	.LC8
 6256 0028 E8080000 		.word	.LC86
 6257 002c 68000000 		.word	.LC6
 6258              		.cfi_endproc
 6259              	.LFE295:
 6261              		.section	.rodata.__func__.4,"a"
 6262              		.align	2
 6265              	__func__.4:
 6266 0000 61707073 		.ascii	"apps_common_lr11xx_system_init\000"
 6266      5F636F6D 
 6266      6D6F6E5F 
 6266      6C723131 
 6266      78785F73 
 6267              		.section	.rodata.__func__.3,"a"
 6268              		.align	2
 6271              	__func__.3:
 6272 0000 61707073 		.ascii	"apps_common_lr11xx_fetch_version\000"
 6272      5F636F6D 
 6272      6D6F6E5F 
 6272      6C723131 
 6272      78785F66 
 6273              		.section	.rodata.__func__.2,"a"
 6274              		.align	2
 6277              	__func__.2:
 6278 0000 61707073 		.ascii	"apps_common_lr11xx_radio_init\000"
 6278      5F636F6D 
 6278      6D6F6E5F 
 6278      6C723131 
 6278      78785F72 
 6279              		.section	.rodata.__func__.1,"a"
 6280              		.align	2
 6283              	__func__.1:
 6284 0000 61707073 		.ascii	"apps_common_lr11xx_radio_dbpsk_init\000"
 6284      5F636F6D 
 6284      6D6F6E5F 
 6284      6C723131 
 6284      78785F72 
 6285              		.section	.rodata.__func__.0,"a"
 6286              		.align	2
 6289              	__func__.0:
 6290 0000 61707073 		.ascii	"apps_common_lr11xx_radio_rttof_init\000"
 6290      5F636F6D 
 6290      6D6F6E5F 
 6290      6C723131 
 6290      78785F72 
 6291              		.text
 6292              	.Letext0:
 6293              		.file 5 "C:/Users/labot/Downloads/TTC/TTC/arm-gnu-toolchain-14.2.rel1/arm-none-eabi/include/machin
 6294              		.file 6 "C:/Users/labot/Downloads/TTC/TTC/arm-gnu-toolchain-14.2.rel1/arm-none-eabi/include/sys/_s
 6295              		.file 7 "../../../../lr11xx/lr11xx_driver/src/lr11xx_radio_types.h"
 6296              		.file 8 "../../../../libs/smtc-hal-mcu/inc/smtc_hal_mcu_status.h"
 6297              		.file 9 "../../../../libs/smtc-hal-mcu/inc/smtc_hal_mcu_spi.h"
 6298              		.file 10 "../../../../libs/smtc-hal-mcu-stm32l4/inc/smtc_hal_mcu_spi_stm32l4.h"
 6299              		.file 11 "../../../../libs/smtc-hal-mcu-stm32l4/third_party/STM32CubeL4/Drivers/CMSIS/Device/ST/ST
ARM GAS  C:\msys64\tmp\ccwHIjYg.s 			page 143


 6300              		.file 12 "../../../../libs/smtc-hal-mcu/inc/smtc_hal_mcu_gpio.h"
 6301              		.file 13 "../../../../libs/smtc-hal-mcu-stm32l4/inc/smtc_hal_mcu_gpio_stm32l4.h"
 6302              		.file 14 "../../../../lr11xx/common/lr11xx_hal_context.h"
 6303              		.file 15 "../../../../lr11xx/lr11xx_driver/src/lr11xx_system_types.h"
 6304              		.file 16 "../../../../lr11xx/lr11xx_driver/src/lr11xx_types.h"
 6305              		.file 17 "../../../../lr11xx/lr11xx_driver/src/lr11xx_radio.h"
 6306              		.file 18 "../../../../libs/smtc-shields/common/inc/smtc_shield_pinout.h"
 6307              		.file 19 "../../../../libs/smtc-shields/lr11xx/inc/smtc_shield_lr11xx_types.h"
 6308              		.file 20 "../../../../lr11xx/common/apps_configuration.h"
 6309              		.file 21 "../../../../lr11xx/common/printers/lr11xx_radio_types_str.h"
 6310              		.file 22 "../../../../lr11xx/lr11xx_driver/src/lr11xx_system.h"
 6311              		.file 23 "../../../../lr11xx/lr11xx_driver/src/lr11xx_regmem.h"
 6312              		.file 24 "../../../../lr11xx/lr11xx_driver/src/lr11xx_rttof.h"
 6313              		.file 25 "../../../../common/inc/smtc_shield_pinout_mapping.h"
 6314              		.file 26 "../../../../libs/smtc-shields/lr11xx/inc/smtc_shield_lr11x0_common.h"
 6315              		.file 27 "../../../../lr11xx/lr11xx_driver/src/lr11xx_driver_version.h"
 6316              		.file 28 "../../../../libs/smtc-shields/lr11xx/inc/smtc_shield_lr1110mb1dis.h"
 6317              		.file 29 "../../../../common/inc/common_version.h"
 6318              		.file 30 "../../../../common/inc/smtc_hal_dbg_trace.h"
ARM GAS  C:\msys64\tmp\ccwHIjYg.s 			page 144


DEFINED SYMBOLS
                            *ABS*:00000000 apps_common.c
C:\msys64\tmp\ccwHIjYg.s:21     .rodata.gfsk_sync_word:00000000 $d
C:\msys64\tmp\ccwHIjYg.s:24     .rodata.gfsk_sync_word:00000000 gfsk_sync_word
C:\msys64\tmp\ccwHIjYg.s:27     .text.apps_common_compute_lora_ldro:00000000 $t
C:\msys64\tmp\ccwHIjYg.s:32     .text.apps_common_compute_lora_ldro:00000000 apps_common_compute_lora_ldro
C:\msys64\tmp\ccwHIjYg.s:64     .text.apps_common_compute_lora_ldro:00000020 $d
C:\msys64\tmp\ccwHIjYg.s:79     .text.apps_common_compute_lora_ldro:0000005c $t
C:\msys64\tmp\ccwHIjYg.s:185    .text.smtc_shield_lr11xx_get_pa_pwr_cfg:00000000 $t
C:\msys64\tmp\ccwHIjYg.s:190    .text.smtc_shield_lr11xx_get_pa_pwr_cfg:00000000 smtc_shield_lr11xx_get_pa_pwr_cfg
C:\msys64\tmp\ccwHIjYg.s:236    .text.smtc_shield_lr11xx_get_rssi_calibration_table:00000000 $t
C:\msys64\tmp\ccwHIjYg.s:241    .text.smtc_shield_lr11xx_get_rssi_calibration_table:00000000 smtc_shield_lr11xx_get_rssi_calibration_table
C:\msys64\tmp\ccwHIjYg.s:282    .text.smtc_shield_lr11xx_get_rf_switch_cfg:00000000 $t
C:\msys64\tmp\ccwHIjYg.s:287    .text.smtc_shield_lr11xx_get_rf_switch_cfg:00000000 smtc_shield_lr11xx_get_rf_switch_cfg
C:\msys64\tmp\ccwHIjYg.s:326    .text.smtc_shield_lr11xx_get_reg_mode:00000000 $t
C:\msys64\tmp\ccwHIjYg.s:331    .text.smtc_shield_lr11xx_get_reg_mode:00000000 smtc_shield_lr11xx_get_reg_mode
C:\msys64\tmp\ccwHIjYg.s:370    .text.smtc_shield_lr11xx_get_xosc_cfg:00000000 $t
C:\msys64\tmp\ccwHIjYg.s:375    .text.smtc_shield_lr11xx_get_xosc_cfg:00000000 smtc_shield_lr11xx_get_xosc_cfg
C:\msys64\tmp\ccwHIjYg.s:414    .text.smtc_shield_lr11xx_get_lfclk_cfg:00000000 $t
C:\msys64\tmp\ccwHIjYg.s:419    .text.smtc_shield_lr11xx_get_lfclk_cfg:00000000 smtc_shield_lr11xx_get_lfclk_cfg
C:\msys64\tmp\ccwHIjYg.s:458    .text.smtc_shield_lr11xx_get_pinout:00000000 $t
C:\msys64\tmp\ccwHIjYg.s:463    .text.smtc_shield_lr11xx_get_pinout:00000000 smtc_shield_lr11xx_get_pinout
C:\msys64\tmp\ccwHIjYg.s:502    .text.smtc_shield_lr11xx_get_rttof_recommended_rx_tx_delay_indicator:00000000 $t
C:\msys64\tmp\ccwHIjYg.s:507    .text.smtc_shield_lr11xx_get_rttof_recommended_rx_tx_delay_indicator:00000000 smtc_shield_lr11xx_get_rttof_recommended_rx_tx_delay_indicator
C:\msys64\tmp\ccwHIjYg.s:558    .text.smtc_dbpsk_get_pld_len_in_bits:00000000 $t
C:\msys64\tmp\ccwHIjYg.s:563    .text.smtc_dbpsk_get_pld_len_in_bits:00000000 smtc_dbpsk_get_pld_len_in_bits
C:\msys64\tmp\ccwHIjYg.s:603    .text.smtc_dbpsk_get_pld_len_in_bytes:00000000 $t
C:\msys64\tmp\ccwHIjYg.s:608    .text.smtc_dbpsk_get_pld_len_in_bytes:00000000 smtc_dbpsk_get_pld_len_in_bytes
C:\msys64\tmp\ccwHIjYg.s:652    .data.shield:00000000 shield
C:\msys64\tmp\ccwHIjYg.s:649    .data.shield:00000000 $d
C:\msys64\tmp\ccwHIjYg.s:662    .data.lora_mod_params:00000000 $d
C:\msys64\tmp\ccwHIjYg.s:665    .data.lora_mod_params:00000000 lora_mod_params
C:\msys64\tmp\ccwHIjYg.s:671    .rodata.lora_pkt_params:00000000 $d
C:\msys64\tmp\ccwHIjYg.s:674    .rodata.lora_pkt_params:00000000 lora_pkt_params
C:\msys64\tmp\ccwHIjYg.s:681    .rodata.gfsk_mod_params:00000000 $d
C:\msys64\tmp\ccwHIjYg.s:684    .rodata.gfsk_mod_params:00000000 gfsk_mod_params
C:\msys64\tmp\ccwHIjYg.s:691    .rodata.gfsk_pkt_params:00000000 $d
C:\msys64\tmp\ccwHIjYg.s:694    .rodata.gfsk_pkt_params:00000000 gfsk_pkt_params
C:\msys64\tmp\ccwHIjYg.s:705    .rodata.bpsk_mod_params:00000000 $d
C:\msys64\tmp\ccwHIjYg.s:708    .rodata.bpsk_mod_params:00000000 bpsk_mod_params
C:\msys64\tmp\ccwHIjYg.s:713    .bss.bpsk_pkt_params:00000000 $d
C:\msys64\tmp\ccwHIjYg.s:716    .bss.bpsk_pkt_params:00000000 bpsk_pkt_params
C:\msys64\tmp\ccwHIjYg.s:719    .bss.context:00000000 $d
C:\msys64\tmp\ccwHIjYg.s:722    .bss.context:00000000 context
C:\msys64\tmp\ccwHIjYg.s:727    .bss.irq_fired:00000000 irq_fired
C:\msys64\tmp\ccwHIjYg.s:728    .bss.irq_fired:00000000 $d
C:\msys64\tmp\ccwHIjYg.s:730    .bss.shield_pinout:00000000 $d
C:\msys64\tmp\ccwHIjYg.s:733    .bss.shield_pinout:00000000 shield_pinout
C:\msys64\tmp\ccwHIjYg.s:736    .bss.led_tx:00000000 $d
C:\msys64\tmp\ccwHIjYg.s:739    .bss.led_tx:00000000 led_tx
C:\msys64\tmp\ccwHIjYg.s:742    .bss.led_rx:00000000 $d
C:\msys64\tmp\ccwHIjYg.s:745    .bss.led_rx:00000000 led_rx
C:\msys64\tmp\ccwHIjYg.s:748    .bss.led_scan:00000000 $d
C:\msys64\tmp\ccwHIjYg.s:751    .bss.led_scan:00000000 led_scan
C:\msys64\tmp\ccwHIjYg.s:754    .bss.lna_ctrl:00000000 $d
C:\msys64\tmp\ccwHIjYg.s:757    .bss.lna_ctrl:00000000 lna_ctrl
C:\msys64\tmp\ccwHIjYg.s:760    .text.apps_common_lr11xx_get_context:00000000 $t
ARM GAS  C:\msys64\tmp\ccwHIjYg.s 			page 145


C:\msys64\tmp\ccwHIjYg.s:766    .text.apps_common_lr11xx_get_context:00000000 apps_common_lr11xx_get_context
C:\msys64\tmp\ccwHIjYg.s:901    .text.apps_common_lr11xx_get_context:000000d4 $d
C:\msys64\tmp\ccwHIjYg.s:5386   .text.radio_on_dio_irq:00000000 radio_on_dio_irq
C:\msys64\tmp\ccwHIjYg.s:917    .text.apps_common_shield_init:00000000 $t
C:\msys64\tmp\ccwHIjYg.s:923    .text.apps_common_shield_init:00000000 apps_common_shield_init
C:\msys64\tmp\ccwHIjYg.s:1086   .text.apps_common_shield_init:000000ec $d
C:\msys64\tmp\ccwHIjYg.s:1104   .rodata:00000000 $d
C:\msys64\tmp\ccwHIjYg.s:1123   .text.apps_common_lr11xx_system_init:00000000 $t
C:\msys64\tmp\ccwHIjYg.s:1129   .text.apps_common_lr11xx_system_init:00000000 apps_common_lr11xx_system_init
C:\msys64\tmp\ccwHIjYg.s:1520   .text.apps_common_lr11xx_system_init:000002b4 $d
C:\msys64\tmp\ccwHIjYg.s:6265   .rodata.__func__.4:00000000 __func__.4
C:\msys64\tmp\ccwHIjYg.s:1533   .text.apps_common_lr11xx_fetch_and_print_version:00000000 $t
C:\msys64\tmp\ccwHIjYg.s:1539   .text.apps_common_lr11xx_fetch_and_print_version:00000000 apps_common_lr11xx_fetch_and_print_version
C:\msys64\tmp\ccwHIjYg.s:1586   .text.apps_common_lr11xx_fetch_version:00000000 apps_common_lr11xx_fetch_version
C:\msys64\tmp\ccwHIjYg.s:1709   .text.apps_common_lr11xx_print_version:00000000 apps_common_lr11xx_print_version
C:\msys64\tmp\ccwHIjYg.s:1580   .text.apps_common_lr11xx_fetch_version:00000000 $t
C:\msys64\tmp\ccwHIjYg.s:1651   .text.apps_common_lr11xx_fetch_version:00000050 $d
C:\msys64\tmp\ccwHIjYg.s:6271   .rodata.__func__.3:00000000 __func__.3
C:\msys64\tmp\ccwHIjYg.s:1703   .text.apps_common_lr11xx_print_version:00000000 $t
C:\msys64\tmp\ccwHIjYg.s:1884   .text.apps_common_lr11xx_print_version:00000120 $d
C:\msys64\tmp\ccwHIjYg.s:1901   .text.apps_common_print_sdk_driver_version:00000000 $t
C:\msys64\tmp\ccwHIjYg.s:1907   .text.apps_common_print_sdk_driver_version:00000000 apps_common_print_sdk_driver_version
C:\msys64\tmp\ccwHIjYg.s:5336   .text.print_driver_version:00000000 print_driver_version
C:\msys64\tmp\ccwHIjYg.s:1943   .text.apps_common_print_sdk_driver_version:00000028 $d
C:\msys64\tmp\ccwHIjYg.s:1955   .text.apps_common_lr11xx_radio_init:00000000 $t
C:\msys64\tmp\ccwHIjYg.s:1961   .text.apps_common_lr11xx_radio_init:00000000 apps_common_lr11xx_radio_init
C:\msys64\tmp\ccwHIjYg.s:2008   .text.apps_common_lr11xx_radio_init:00000038 $d
C:\msys64\tmp\ccwHIjYg.s:4612   .text.print_common_configuration:00000000 print_common_configuration
C:\msys64\tmp\ccwHIjYg.s:2016   .text.apps_common_lr11xx_radio_init:00000050 $t
C:\msys64\tmp\ccwHIjYg.s:4774   .text.print_lora_configuration:00000000 print_lora_configuration
C:\msys64\tmp\ccwHIjYg.s:2382   .text.apps_common_lr11xx_radio_init:000002e0 $d
C:\msys64\tmp\ccwHIjYg.s:6277   .rodata.__func__.2:00000000 __func__.2
C:\msys64\tmp\ccwHIjYg.s:2410   .text.apps_common_lr11xx_radio_dbpsk_init:00000000 $t
C:\msys64\tmp\ccwHIjYg.s:2416   .text.apps_common_lr11xx_radio_dbpsk_init:00000000 apps_common_lr11xx_radio_dbpsk_init
C:\msys64\tmp\ccwHIjYg.s:2765   .text.apps_common_lr11xx_radio_dbpsk_init:0000025c $d
C:\msys64\tmp\ccwHIjYg.s:6283   .rodata.__func__.1:00000000 __func__.1
C:\msys64\tmp\ccwHIjYg.s:2794   .text.apps_common_lr11xx_radio_rttof_init:00000000 $t
C:\msys64\tmp\ccwHIjYg.s:2800   .text.apps_common_lr11xx_radio_rttof_init:00000000 apps_common_lr11xx_radio_rttof_init
C:\msys64\tmp\ccwHIjYg.s:2847   .text.apps_common_lr11xx_radio_rttof_init:00000038 $d
C:\msys64\tmp\ccwHIjYg.s:2855   .text.apps_common_lr11xx_radio_rttof_init:00000050 $t
C:\msys64\tmp\ccwHIjYg.s:3245   .text.apps_common_lr11xx_radio_rttof_init:00000314 $d
C:\msys64\tmp\ccwHIjYg.s:6289   .rodata.__func__.0:00000000 __func__.0
C:\msys64\tmp\ccwHIjYg.s:3258   .text.apps_common_lr11xx_radio_rttof_init:00000340 $t
C:\msys64\tmp\ccwHIjYg.s:3319   .text.apps_common_lr11xx_radio_rttof_init:000003a4 $d
C:\msys64\tmp\ccwHIjYg.s:3360   .text.apps_common_lr11xx_receive:00000000 $t
C:\msys64\tmp\ccwHIjYg.s:3366   .text.apps_common_lr11xx_receive:00000000 apps_common_lr11xx_receive
C:\msys64\tmp\ccwHIjYg.s:3553   .text.apps_common_lr11xx_receive:00000138 $d
C:\msys64\tmp\ccwHIjYg.s:3635   .text.apps_common_lr11xx_irq_process:00000000 $t
C:\msys64\tmp\ccwHIjYg.s:3641   .text.apps_common_lr11xx_irq_process:00000000 apps_common_lr11xx_irq_process
C:\msys64\tmp\ccwHIjYg.s:5440   .text.on_tx_done:00000000 on_tx_done
C:\msys64\tmp\ccwHIjYg.s:5578   .text.on_preamble_detected:00000000 on_preamble_detected
C:\msys64\tmp\ccwHIjYg.s:5670   .text.on_header_error:00000000 on_header_error
C:\msys64\tmp\ccwHIjYg.s:5624   .text.on_syncword_header_valid:00000000 on_syncword_header_valid
C:\msys64\tmp\ccwHIjYg.s:5762   .text.on_rx_crc_error:00000000 on_rx_crc_error
C:\msys64\tmp\ccwHIjYg.s:5716   .text.on_fsk_len_error:00000000 on_fsk_len_error
C:\msys64\tmp\ccwHIjYg.s:5486   .text.on_rx_done:00000000 on_rx_done
C:\msys64\tmp\ccwHIjYg.s:5854   .text.on_cad_done_detected:00000000 on_cad_done_detected
ARM GAS  C:\msys64\tmp\ccwHIjYg.s 			page 146


C:\msys64\tmp\ccwHIjYg.s:3901   .text.apps_common_lr11xx_irq_process:000001c0 $d
C:\msys64\tmp\ccwHIjYg.s:3920   .text.apps_common_lr11xx_irq_process:00000204 $t
C:\msys64\tmp\ccwHIjYg.s:5808   .text.on_cad_done_undetected:00000000 on_cad_done_undetected
C:\msys64\tmp\ccwHIjYg.s:5532   .text.on_rx_timeout:00000000 on_rx_timeout
C:\msys64\tmp\ccwHIjYg.s:5900   .text.on_lora_rx_timestamp:00000000 on_lora_rx_timestamp
C:\msys64\tmp\ccwHIjYg.s:6038   .text.on_rttof_request_valid:00000000 on_rttof_request_valid
C:\msys64\tmp\ccwHIjYg.s:6084   .text.on_rttof_request_discarded:00000000 on_rttof_request_discarded
C:\msys64\tmp\ccwHIjYg.s:6130   .text.on_rttof_response_done:00000000 on_rttof_response_done
C:\msys64\tmp\ccwHIjYg.s:6176   .text.on_rttof_exchange_valid:00000000 on_rttof_exchange_valid
C:\msys64\tmp\ccwHIjYg.s:6222   .text.on_rttof_timeout:00000000 on_rttof_timeout
C:\msys64\tmp\ccwHIjYg.s:5946   .text.on_wifi_scan_done:00000000 on_wifi_scan_done
C:\msys64\tmp\ccwHIjYg.s:5992   .text.on_gnss_scan_done:00000000 on_gnss_scan_done
C:\msys64\tmp\ccwHIjYg.s:4141   .text.apps_common_lr11xx_irq_process:00000384 $d
C:\msys64\tmp\ccwHIjYg.s:4161   .text.apps_common_lr11xx_handle_pre_tx:00000000 $t
C:\msys64\tmp\ccwHIjYg.s:4167   .text.apps_common_lr11xx_handle_pre_tx:00000000 apps_common_lr11xx_handle_pre_tx
C:\msys64\tmp\ccwHIjYg.s:4201   .text.apps_common_lr11xx_handle_pre_tx:00000020 $d
C:\msys64\tmp\ccwHIjYg.s:4207   .text.apps_common_lr11xx_handle_post_tx:00000000 $t
C:\msys64\tmp\ccwHIjYg.s:4213   .text.apps_common_lr11xx_handle_post_tx:00000000 apps_common_lr11xx_handle_post_tx
C:\msys64\tmp\ccwHIjYg.s:4247   .text.apps_common_lr11xx_handle_post_tx:00000020 $d
C:\msys64\tmp\ccwHIjYg.s:4253   .text.apps_common_lr11xx_handle_pre_rx:00000000 $t
C:\msys64\tmp\ccwHIjYg.s:4259   .text.apps_common_lr11xx_handle_pre_rx:00000000 apps_common_lr11xx_handle_pre_rx
C:\msys64\tmp\ccwHIjYg.s:4293   .text.apps_common_lr11xx_handle_pre_rx:00000020 $d
C:\msys64\tmp\ccwHIjYg.s:4299   .text.apps_common_lr11xx_handle_post_rx:00000000 $t
C:\msys64\tmp\ccwHIjYg.s:4305   .text.apps_common_lr11xx_handle_post_rx:00000000 apps_common_lr11xx_handle_post_rx
C:\msys64\tmp\ccwHIjYg.s:4339   .text.apps_common_lr11xx_handle_post_rx:00000020 $d
C:\msys64\tmp\ccwHIjYg.s:4345   .text.apps_common_lr11xx_handle_pre_gnss_scan:00000000 $t
C:\msys64\tmp\ccwHIjYg.s:4351   .text.apps_common_lr11xx_handle_pre_gnss_scan:00000000 apps_common_lr11xx_handle_pre_gnss_scan
C:\msys64\tmp\ccwHIjYg.s:4399   .text.apps_common_lr11xx_handle_pre_gnss_scan:00000034 $d
C:\msys64\tmp\ccwHIjYg.s:4406   .text.apps_common_lr11xx_handle_post_gnss_scan:00000000 $t
C:\msys64\tmp\ccwHIjYg.s:4412   .text.apps_common_lr11xx_handle_post_gnss_scan:00000000 apps_common_lr11xx_handle_post_gnss_scan
C:\msys64\tmp\ccwHIjYg.s:4460   .text.apps_common_lr11xx_handle_post_gnss_scan:00000034 $d
C:\msys64\tmp\ccwHIjYg.s:4467   .text.apps_common_lr11xx_handle_pre_wifi_scan:00000000 $t
C:\msys64\tmp\ccwHIjYg.s:4473   .text.apps_common_lr11xx_handle_pre_wifi_scan:00000000 apps_common_lr11xx_handle_pre_wifi_scan
C:\msys64\tmp\ccwHIjYg.s:4507   .text.apps_common_lr11xx_handle_pre_wifi_scan:00000020 $d
C:\msys64\tmp\ccwHIjYg.s:4513   .text.apps_common_lr11xx_handle_post_wifi_scan:00000000 $t
C:\msys64\tmp\ccwHIjYg.s:4519   .text.apps_common_lr11xx_handle_post_wifi_scan:00000000 apps_common_lr11xx_handle_post_wifi_scan
C:\msys64\tmp\ccwHIjYg.s:4553   .text.apps_common_lr11xx_handle_post_wifi_scan:00000020 $d
C:\msys64\tmp\ccwHIjYg.s:4559   .text.get_time_on_air_in_ms:00000000 $t
C:\msys64\tmp\ccwHIjYg.s:4565   .text.get_time_on_air_in_ms:00000000 get_time_on_air_in_ms
C:\msys64\tmp\ccwHIjYg.s:4590   .text.get_time_on_air_in_ms:00000014 $d
C:\msys64\tmp\ccwHIjYg.s:4606   .text.print_common_configuration:00000000 $t
C:\msys64\tmp\ccwHIjYg.s:4719   .text.print_common_configuration:000000b8 $d
C:\msys64\tmp\ccwHIjYg.s:4768   .text.print_lora_configuration:00000000 $t
C:\msys64\tmp\ccwHIjYg.s:4968   .text.print_lora_configuration:00000164 $d
C:\msys64\tmp\ccwHIjYg.s:5036   .text.print_gfsk_configuration:00000000 $t
C:\msys64\tmp\ccwHIjYg.s:5042   .text.print_gfsk_configuration:00000000 print_gfsk_configuration
C:\msys64\tmp\ccwHIjYg.s:5302   .text.print_gfsk_configuration:000001ec $d
C:\msys64\tmp\ccwHIjYg.s:5331   .text.print_driver_version:00000000 $t
C:\msys64\tmp\ccwHIjYg.s:5372   .text.print_driver_version:00000028 $d
C:\msys64\tmp\ccwHIjYg.s:5380   .text.radio_on_dio_irq:00000000 $t
C:\msys64\tmp\ccwHIjYg.s:5425   .text.radio_on_dio_irq:0000001c $d
C:\msys64\tmp\ccwHIjYg.s:5434   .text.on_tx_done:00000000 $t
C:\msys64\tmp\ccwHIjYg.s:5472   .text.on_tx_done:00000020 $d
C:\msys64\tmp\ccwHIjYg.s:5480   .text.on_rx_done:00000000 $t
C:\msys64\tmp\ccwHIjYg.s:5518   .text.on_rx_done:00000020 $d
C:\msys64\tmp\ccwHIjYg.s:5526   .text.on_rx_timeout:00000000 $t
C:\msys64\tmp\ccwHIjYg.s:5564   .text.on_rx_timeout:00000020 $d
ARM GAS  C:\msys64\tmp\ccwHIjYg.s 			page 147


C:\msys64\tmp\ccwHIjYg.s:5572   .text.on_preamble_detected:00000000 $t
C:\msys64\tmp\ccwHIjYg.s:5610   .text.on_preamble_detected:00000020 $d
C:\msys64\tmp\ccwHIjYg.s:5618   .text.on_syncword_header_valid:00000000 $t
C:\msys64\tmp\ccwHIjYg.s:5656   .text.on_syncword_header_valid:00000020 $d
C:\msys64\tmp\ccwHIjYg.s:5664   .text.on_header_error:00000000 $t
C:\msys64\tmp\ccwHIjYg.s:5702   .text.on_header_error:00000020 $d
C:\msys64\tmp\ccwHIjYg.s:5710   .text.on_fsk_len_error:00000000 $t
C:\msys64\tmp\ccwHIjYg.s:5748   .text.on_fsk_len_error:00000020 $d
C:\msys64\tmp\ccwHIjYg.s:5756   .text.on_rx_crc_error:00000000 $t
C:\msys64\tmp\ccwHIjYg.s:5794   .text.on_rx_crc_error:00000020 $d
C:\msys64\tmp\ccwHIjYg.s:5802   .text.on_cad_done_undetected:00000000 $t
C:\msys64\tmp\ccwHIjYg.s:5840   .text.on_cad_done_undetected:00000020 $d
C:\msys64\tmp\ccwHIjYg.s:5848   .text.on_cad_done_detected:00000000 $t
C:\msys64\tmp\ccwHIjYg.s:5886   .text.on_cad_done_detected:00000020 $d
C:\msys64\tmp\ccwHIjYg.s:5894   .text.on_lora_rx_timestamp:00000000 $t
C:\msys64\tmp\ccwHIjYg.s:5932   .text.on_lora_rx_timestamp:00000020 $d
C:\msys64\tmp\ccwHIjYg.s:5940   .text.on_wifi_scan_done:00000000 $t
C:\msys64\tmp\ccwHIjYg.s:5978   .text.on_wifi_scan_done:00000020 $d
C:\msys64\tmp\ccwHIjYg.s:5986   .text.on_gnss_scan_done:00000000 $t
C:\msys64\tmp\ccwHIjYg.s:6024   .text.on_gnss_scan_done:00000020 $d
C:\msys64\tmp\ccwHIjYg.s:6032   .text.on_rttof_request_valid:00000000 $t
C:\msys64\tmp\ccwHIjYg.s:6070   .text.on_rttof_request_valid:00000020 $d
C:\msys64\tmp\ccwHIjYg.s:6078   .text.on_rttof_request_discarded:00000000 $t
C:\msys64\tmp\ccwHIjYg.s:6116   .text.on_rttof_request_discarded:00000020 $d
C:\msys64\tmp\ccwHIjYg.s:6124   .text.on_rttof_response_done:00000000 $t
C:\msys64\tmp\ccwHIjYg.s:6162   .text.on_rttof_response_done:00000020 $d
C:\msys64\tmp\ccwHIjYg.s:6170   .text.on_rttof_exchange_valid:00000000 $t
C:\msys64\tmp\ccwHIjYg.s:6208   .text.on_rttof_exchange_valid:00000020 $d
C:\msys64\tmp\ccwHIjYg.s:6216   .text.on_rttof_timeout:00000000 $t
C:\msys64\tmp\ccwHIjYg.s:6254   .text.on_rttof_timeout:00000020 $d
C:\msys64\tmp\ccwHIjYg.s:6262   .rodata.__func__.4:00000000 $d
C:\msys64\tmp\ccwHIjYg.s:6268   .rodata.__func__.3:00000000 $d
C:\msys64\tmp\ccwHIjYg.s:6274   .rodata.__func__.2:00000000 $d
C:\msys64\tmp\ccwHIjYg.s:6280   .rodata.__func__.1:00000000 $d
C:\msys64\tmp\ccwHIjYg.s:6286   .rodata.__func__.0:00000000 $d

UNDEFINED SYMBOLS
smtc_shield_lr1110mb1dis_get_pa_pwr_cfg
smtc_shield_lr1110mb1dis_get_rssi_calibration_table
smtc_shield_lr1110mb1dis_get_rf_switch_cfg
smtc_shield_lr1110mb1dis_get_reg_mode
smtc_shield_lr1110mb1dis_get_xosc_cfg
smtc_shield_lr1110mb1dis_get_lfclk_cfg
smtc_shield_lr1110mb1dis_get_pinout
smtc_shield_lr11x0_common_rttof_recommended_rx_tx_delay_indicator
smtc_shield_pinout_mapping_get_gpio_cfg
smtc_hal_mcu_gpio_init_input
smtc_hal_mcu_gpio_init_output
smtc_hal_mcu_gpio_enable_irq
smtc_hal_mcu_spi_init
lr11xx_system_reset
hal_mcu_trace_print
lr11xx_system_set_reg_mode
lr11xx_system_set_dio_as_rf_switch
lr11xx_system_set_tcxo_mode
lr11xx_system_cfg_lfclk
lr11xx_system_clear_errors
ARM GAS  C:\msys64\tmp\ccwHIjYg.s 			page 148


lr11xx_system_calibrate
lr11xx_system_get_errors
lr11xx_system_clear_irq_status
lr11xx_system_get_version
common_version_print
lr11xx_radio_set_pkt_type
lr11xx_radio_set_rf_freq
lr11xx_radio_set_rssi_calibration
lr11xx_radio_set_pa_cfg
lr11xx_radio_set_tx_params
lr11xx_radio_set_rx_tx_fallback_mode
lr11xx_radio_cfg_rx_boosted
lr11xx_radio_set_lora_mod_params
lr11xx_radio_set_lora_pkt_params
lr11xx_radio_set_lora_sync_word
lr11xx_radio_pkt_type_to_str
lr11xx_radio_set_bpsk_mod_params
lr11xx_radio_set_bpsk_pkt_params
lr11xx_rttof_set_rx_tx_delay_indicator
lr11xx_radio_get_rx_buffer_status
lr11xx_regmem_read_buffer8
lr11xx_radio_get_lora_pkt_status
lr11xx_system_get_and_clear_irq_status
smtc_hal_mcu_gpio_set_state
lr11xx_radio_get_lora_time_on_air_in_ms
lr11xx_radio_fallback_modes_to_str
lr11xx_radio_lora_sf_to_str
lr11xx_radio_lora_bw_to_str
lr11xx_radio_lora_cr_to_str
lr11xx_radio_lora_pkt_len_modes_to_str
lr11xx_radio_lora_crc_to_str
lr11xx_radio_lora_iq_to_str
lr11xx_radio_gfsk_pulse_shape_to_str
lr11xx_radio_gfsk_bw_to_str
lr11xx_radio_gfsk_preamble_detector_to_str
lr11xx_radio_gfsk_address_filtering_to_str
lr11xx_radio_gfsk_pkt_len_modes_to_str
lr11xx_radio_gfsk_crc_type_to_str
lr11xx_radio_gfsk_dc_free_to_str
lr11xx_driver_version_get_version_string
