ARM GAS  C:\msys64\tmp\ccUcdgty.s 			page 1


   1              		.cpu cortex-m4
   2              		.arch armv7e-m
   3              		.fpu fpv4-sp-d16
   4              		.eabi_attribute 27, 1
   5              		.eabi_attribute 28, 1
   6              		.eabi_attribute 20, 1
   7              		.eabi_attribute 21, 1
   8              		.eabi_attribute 23, 3
   9              		.eabi_attribute 24, 1
  10              		.eabi_attribute 25, 1
  11              		.eabi_attribute 26, 1
  12              		.eabi_attribute 30, 6
  13              		.eabi_attribute 34, 1
  14              		.eabi_attribute 18, 4
  15              		.file	"smtc_hal_mcu_rng_stm32l4.c"
  16              		.text
  17              	.Ltext0:
  18              		.cfi_sections	.debug_frame
  19              		.file 1 "../../../libs/smtc-hal-mcu-stm32l4/src/smtc_hal_mcu_rng_stm32l4.c"
  20              		.section	.text.LL_RNG_Enable,"ax",%progbits
  21              		.align	1
  22              		.syntax unified
  23              		.thumb
  24              		.thumb_func
  26              	LL_RNG_Enable:
  27              	.LFB132:
  28              		.file 2 "../../../libs/smtc-hal-mcu-stm32l4/third_party/STM32CubeL4/Drivers/STM32L4xx_HAL_Driver/I
   1:../../../libs/smtc-hal-mcu-stm32l4/third_party/STM32CubeL4/Drivers/STM32L4xx_HAL_Driver/Inc/stm32l4xx_ll_rng.h **** /**
   2:../../../libs/smtc-hal-mcu-stm32l4/third_party/STM32CubeL4/Drivers/STM32L4xx_HAL_Driver/Inc/stm32l4xx_ll_rng.h ****   ******************************************************************************
   3:../../../libs/smtc-hal-mcu-stm32l4/third_party/STM32CubeL4/Drivers/STM32L4xx_HAL_Driver/Inc/stm32l4xx_ll_rng.h ****   * @file    stm32l4xx_ll_rng.h
   4:../../../libs/smtc-hal-mcu-stm32l4/third_party/STM32CubeL4/Drivers/STM32L4xx_HAL_Driver/Inc/stm32l4xx_ll_rng.h ****   * @author  MCD Application Team
   5:../../../libs/smtc-hal-mcu-stm32l4/third_party/STM32CubeL4/Drivers/STM32L4xx_HAL_Driver/Inc/stm32l4xx_ll_rng.h ****   * @brief   Header file of RNG LL module.
   6:../../../libs/smtc-hal-mcu-stm32l4/third_party/STM32CubeL4/Drivers/STM32L4xx_HAL_Driver/Inc/stm32l4xx_ll_rng.h ****   ******************************************************************************
   7:../../../libs/smtc-hal-mcu-stm32l4/third_party/STM32CubeL4/Drivers/STM32L4xx_HAL_Driver/Inc/stm32l4xx_ll_rng.h ****   * @attention
   8:../../../libs/smtc-hal-mcu-stm32l4/third_party/STM32CubeL4/Drivers/STM32L4xx_HAL_Driver/Inc/stm32l4xx_ll_rng.h ****   *
   9:../../../libs/smtc-hal-mcu-stm32l4/third_party/STM32CubeL4/Drivers/STM32L4xx_HAL_Driver/Inc/stm32l4xx_ll_rng.h ****   * Copyright (c) 2017 STMicroelectronics.
  10:../../../libs/smtc-hal-mcu-stm32l4/third_party/STM32CubeL4/Drivers/STM32L4xx_HAL_Driver/Inc/stm32l4xx_ll_rng.h ****   * All rights reserved.
  11:../../../libs/smtc-hal-mcu-stm32l4/third_party/STM32CubeL4/Drivers/STM32L4xx_HAL_Driver/Inc/stm32l4xx_ll_rng.h ****   *
  12:../../../libs/smtc-hal-mcu-stm32l4/third_party/STM32CubeL4/Drivers/STM32L4xx_HAL_Driver/Inc/stm32l4xx_ll_rng.h ****   * This software is licensed under terms that can be found in the LICENSE file
  13:../../../libs/smtc-hal-mcu-stm32l4/third_party/STM32CubeL4/Drivers/STM32L4xx_HAL_Driver/Inc/stm32l4xx_ll_rng.h ****   * in the root directory of this software component.
  14:../../../libs/smtc-hal-mcu-stm32l4/third_party/STM32CubeL4/Drivers/STM32L4xx_HAL_Driver/Inc/stm32l4xx_ll_rng.h ****   * If no LICENSE file comes with this software, it is provided AS-IS.
  15:../../../libs/smtc-hal-mcu-stm32l4/third_party/STM32CubeL4/Drivers/STM32L4xx_HAL_Driver/Inc/stm32l4xx_ll_rng.h ****   *
  16:../../../libs/smtc-hal-mcu-stm32l4/third_party/STM32CubeL4/Drivers/STM32L4xx_HAL_Driver/Inc/stm32l4xx_ll_rng.h ****   ******************************************************************************
  17:../../../libs/smtc-hal-mcu-stm32l4/third_party/STM32CubeL4/Drivers/STM32L4xx_HAL_Driver/Inc/stm32l4xx_ll_rng.h ****   */
  18:../../../libs/smtc-hal-mcu-stm32l4/third_party/STM32CubeL4/Drivers/STM32L4xx_HAL_Driver/Inc/stm32l4xx_ll_rng.h **** 
  19:../../../libs/smtc-hal-mcu-stm32l4/third_party/STM32CubeL4/Drivers/STM32L4xx_HAL_Driver/Inc/stm32l4xx_ll_rng.h **** /* Define to prevent recursive inclusion -------------------------------------*/
  20:../../../libs/smtc-hal-mcu-stm32l4/third_party/STM32CubeL4/Drivers/STM32L4xx_HAL_Driver/Inc/stm32l4xx_ll_rng.h **** #ifndef STM32L4xx_LL_RNG_H
  21:../../../libs/smtc-hal-mcu-stm32l4/third_party/STM32CubeL4/Drivers/STM32L4xx_HAL_Driver/Inc/stm32l4xx_ll_rng.h **** #define STM32L4xx_LL_RNG_H
  22:../../../libs/smtc-hal-mcu-stm32l4/third_party/STM32CubeL4/Drivers/STM32L4xx_HAL_Driver/Inc/stm32l4xx_ll_rng.h **** 
  23:../../../libs/smtc-hal-mcu-stm32l4/third_party/STM32CubeL4/Drivers/STM32L4xx_HAL_Driver/Inc/stm32l4xx_ll_rng.h **** #ifdef __cplusplus
  24:../../../libs/smtc-hal-mcu-stm32l4/third_party/STM32CubeL4/Drivers/STM32L4xx_HAL_Driver/Inc/stm32l4xx_ll_rng.h **** extern "C" {
  25:../../../libs/smtc-hal-mcu-stm32l4/third_party/STM32CubeL4/Drivers/STM32L4xx_HAL_Driver/Inc/stm32l4xx_ll_rng.h **** #endif
  26:../../../libs/smtc-hal-mcu-stm32l4/third_party/STM32CubeL4/Drivers/STM32L4xx_HAL_Driver/Inc/stm32l4xx_ll_rng.h **** 
  27:../../../libs/smtc-hal-mcu-stm32l4/third_party/STM32CubeL4/Drivers/STM32L4xx_HAL_Driver/Inc/stm32l4xx_ll_rng.h **** /* Includes ------------------------------------------------------------------*/
  28:../../../libs/smtc-hal-mcu-stm32l4/third_party/STM32CubeL4/Drivers/STM32L4xx_HAL_Driver/Inc/stm32l4xx_ll_rng.h **** #include "stm32l4xx.h"
  29:../../../libs/smtc-hal-mcu-stm32l4/third_party/STM32CubeL4/Drivers/STM32L4xx_HAL_Driver/Inc/stm32l4xx_ll_rng.h **** 
  30:../../../libs/smtc-hal-mcu-stm32l4/third_party/STM32CubeL4/Drivers/STM32L4xx_HAL_Driver/Inc/stm32l4xx_ll_rng.h **** /** @addtogroup STM32L4xx_LL_Driver
ARM GAS  C:\msys64\tmp\ccUcdgty.s 			page 2


  31:../../../libs/smtc-hal-mcu-stm32l4/third_party/STM32CubeL4/Drivers/STM32L4xx_HAL_Driver/Inc/stm32l4xx_ll_rng.h ****   * @{
  32:../../../libs/smtc-hal-mcu-stm32l4/third_party/STM32CubeL4/Drivers/STM32L4xx_HAL_Driver/Inc/stm32l4xx_ll_rng.h ****   */
  33:../../../libs/smtc-hal-mcu-stm32l4/third_party/STM32CubeL4/Drivers/STM32L4xx_HAL_Driver/Inc/stm32l4xx_ll_rng.h **** 
  34:../../../libs/smtc-hal-mcu-stm32l4/third_party/STM32CubeL4/Drivers/STM32L4xx_HAL_Driver/Inc/stm32l4xx_ll_rng.h **** #if defined (RNG)
  35:../../../libs/smtc-hal-mcu-stm32l4/third_party/STM32CubeL4/Drivers/STM32L4xx_HAL_Driver/Inc/stm32l4xx_ll_rng.h **** 
  36:../../../libs/smtc-hal-mcu-stm32l4/third_party/STM32CubeL4/Drivers/STM32L4xx_HAL_Driver/Inc/stm32l4xx_ll_rng.h **** /** @defgroup RNG_LL RNG
  37:../../../libs/smtc-hal-mcu-stm32l4/third_party/STM32CubeL4/Drivers/STM32L4xx_HAL_Driver/Inc/stm32l4xx_ll_rng.h ****   * @{
  38:../../../libs/smtc-hal-mcu-stm32l4/third_party/STM32CubeL4/Drivers/STM32L4xx_HAL_Driver/Inc/stm32l4xx_ll_rng.h ****   */
  39:../../../libs/smtc-hal-mcu-stm32l4/third_party/STM32CubeL4/Drivers/STM32L4xx_HAL_Driver/Inc/stm32l4xx_ll_rng.h **** 
  40:../../../libs/smtc-hal-mcu-stm32l4/third_party/STM32CubeL4/Drivers/STM32L4xx_HAL_Driver/Inc/stm32l4xx_ll_rng.h **** /* Private types -------------------------------------------------------------*/
  41:../../../libs/smtc-hal-mcu-stm32l4/third_party/STM32CubeL4/Drivers/STM32L4xx_HAL_Driver/Inc/stm32l4xx_ll_rng.h **** /* Private variables ---------------------------------------------------------*/
  42:../../../libs/smtc-hal-mcu-stm32l4/third_party/STM32CubeL4/Drivers/STM32L4xx_HAL_Driver/Inc/stm32l4xx_ll_rng.h **** /* Private constants ---------------------------------------------------------*/
  43:../../../libs/smtc-hal-mcu-stm32l4/third_party/STM32CubeL4/Drivers/STM32L4xx_HAL_Driver/Inc/stm32l4xx_ll_rng.h **** /* Private macros ------------------------------------------------------------*/
  44:../../../libs/smtc-hal-mcu-stm32l4/third_party/STM32CubeL4/Drivers/STM32L4xx_HAL_Driver/Inc/stm32l4xx_ll_rng.h **** 
  45:../../../libs/smtc-hal-mcu-stm32l4/third_party/STM32CubeL4/Drivers/STM32L4xx_HAL_Driver/Inc/stm32l4xx_ll_rng.h **** /* Exported types ------------------------------------------------------------*/
  46:../../../libs/smtc-hal-mcu-stm32l4/third_party/STM32CubeL4/Drivers/STM32L4xx_HAL_Driver/Inc/stm32l4xx_ll_rng.h **** #if defined(RNG_CR_CED)
  47:../../../libs/smtc-hal-mcu-stm32l4/third_party/STM32CubeL4/Drivers/STM32L4xx_HAL_Driver/Inc/stm32l4xx_ll_rng.h **** #if defined(USE_FULL_LL_DRIVER)
  48:../../../libs/smtc-hal-mcu-stm32l4/third_party/STM32CubeL4/Drivers/STM32L4xx_HAL_Driver/Inc/stm32l4xx_ll_rng.h **** /** @defgroup RNG_LL_ES_Init_Struct RNG Exported Init structures
  49:../../../libs/smtc-hal-mcu-stm32l4/third_party/STM32CubeL4/Drivers/STM32L4xx_HAL_Driver/Inc/stm32l4xx_ll_rng.h ****   * @{
  50:../../../libs/smtc-hal-mcu-stm32l4/third_party/STM32CubeL4/Drivers/STM32L4xx_HAL_Driver/Inc/stm32l4xx_ll_rng.h ****   */
  51:../../../libs/smtc-hal-mcu-stm32l4/third_party/STM32CubeL4/Drivers/STM32L4xx_HAL_Driver/Inc/stm32l4xx_ll_rng.h **** 
  52:../../../libs/smtc-hal-mcu-stm32l4/third_party/STM32CubeL4/Drivers/STM32L4xx_HAL_Driver/Inc/stm32l4xx_ll_rng.h **** 
  53:../../../libs/smtc-hal-mcu-stm32l4/third_party/STM32CubeL4/Drivers/STM32L4xx_HAL_Driver/Inc/stm32l4xx_ll_rng.h **** /**
  54:../../../libs/smtc-hal-mcu-stm32l4/third_party/STM32CubeL4/Drivers/STM32L4xx_HAL_Driver/Inc/stm32l4xx_ll_rng.h ****   * @brief LL RNG Init Structure Definition
  55:../../../libs/smtc-hal-mcu-stm32l4/third_party/STM32CubeL4/Drivers/STM32L4xx_HAL_Driver/Inc/stm32l4xx_ll_rng.h ****   */
  56:../../../libs/smtc-hal-mcu-stm32l4/third_party/STM32CubeL4/Drivers/STM32L4xx_HAL_Driver/Inc/stm32l4xx_ll_rng.h **** typedef struct
  57:../../../libs/smtc-hal-mcu-stm32l4/third_party/STM32CubeL4/Drivers/STM32L4xx_HAL_Driver/Inc/stm32l4xx_ll_rng.h **** {
  58:../../../libs/smtc-hal-mcu-stm32l4/third_party/STM32CubeL4/Drivers/STM32L4xx_HAL_Driver/Inc/stm32l4xx_ll_rng.h ****   uint32_t         ClockErrorDetection; /*!< Clock error detection.
  59:../../../libs/smtc-hal-mcu-stm32l4/third_party/STM32CubeL4/Drivers/STM32L4xx_HAL_Driver/Inc/stm32l4xx_ll_rng.h ****                                       This parameter can be one value of @ref RNG_LL_CED.
  60:../../../libs/smtc-hal-mcu-stm32l4/third_party/STM32CubeL4/Drivers/STM32L4xx_HAL_Driver/Inc/stm32l4xx_ll_rng.h **** 
  61:../../../libs/smtc-hal-mcu-stm32l4/third_party/STM32CubeL4/Drivers/STM32L4xx_HAL_Driver/Inc/stm32l4xx_ll_rng.h ****                                       This parameter can be modified using unitary functions @ref L
  62:../../../libs/smtc-hal-mcu-stm32l4/third_party/STM32CubeL4/Drivers/STM32L4xx_HAL_Driver/Inc/stm32l4xx_ll_rng.h **** } LL_RNG_InitTypeDef;
  63:../../../libs/smtc-hal-mcu-stm32l4/third_party/STM32CubeL4/Drivers/STM32L4xx_HAL_Driver/Inc/stm32l4xx_ll_rng.h **** 
  64:../../../libs/smtc-hal-mcu-stm32l4/third_party/STM32CubeL4/Drivers/STM32L4xx_HAL_Driver/Inc/stm32l4xx_ll_rng.h **** /**
  65:../../../libs/smtc-hal-mcu-stm32l4/third_party/STM32CubeL4/Drivers/STM32L4xx_HAL_Driver/Inc/stm32l4xx_ll_rng.h ****   * @}
  66:../../../libs/smtc-hal-mcu-stm32l4/third_party/STM32CubeL4/Drivers/STM32L4xx_HAL_Driver/Inc/stm32l4xx_ll_rng.h ****   */
  67:../../../libs/smtc-hal-mcu-stm32l4/third_party/STM32CubeL4/Drivers/STM32L4xx_HAL_Driver/Inc/stm32l4xx_ll_rng.h **** #endif /* USE_FULL_LL_DRIVER */
  68:../../../libs/smtc-hal-mcu-stm32l4/third_party/STM32CubeL4/Drivers/STM32L4xx_HAL_Driver/Inc/stm32l4xx_ll_rng.h **** #endif
  69:../../../libs/smtc-hal-mcu-stm32l4/third_party/STM32CubeL4/Drivers/STM32L4xx_HAL_Driver/Inc/stm32l4xx_ll_rng.h **** /* Exported constants --------------------------------------------------------*/
  70:../../../libs/smtc-hal-mcu-stm32l4/third_party/STM32CubeL4/Drivers/STM32L4xx_HAL_Driver/Inc/stm32l4xx_ll_rng.h **** /** @defgroup RNG_LL_Exported_Constants RNG Exported Constants
  71:../../../libs/smtc-hal-mcu-stm32l4/third_party/STM32CubeL4/Drivers/STM32L4xx_HAL_Driver/Inc/stm32l4xx_ll_rng.h ****   * @{
  72:../../../libs/smtc-hal-mcu-stm32l4/third_party/STM32CubeL4/Drivers/STM32L4xx_HAL_Driver/Inc/stm32l4xx_ll_rng.h ****   */
  73:../../../libs/smtc-hal-mcu-stm32l4/third_party/STM32CubeL4/Drivers/STM32L4xx_HAL_Driver/Inc/stm32l4xx_ll_rng.h **** 
  74:../../../libs/smtc-hal-mcu-stm32l4/third_party/STM32CubeL4/Drivers/STM32L4xx_HAL_Driver/Inc/stm32l4xx_ll_rng.h **** #if defined(RNG_CR_CED)
  75:../../../libs/smtc-hal-mcu-stm32l4/third_party/STM32CubeL4/Drivers/STM32L4xx_HAL_Driver/Inc/stm32l4xx_ll_rng.h **** /** @defgroup RNG_LL_CED Clock Error Detection
  76:../../../libs/smtc-hal-mcu-stm32l4/third_party/STM32CubeL4/Drivers/STM32L4xx_HAL_Driver/Inc/stm32l4xx_ll_rng.h ****   * @{
  77:../../../libs/smtc-hal-mcu-stm32l4/third_party/STM32CubeL4/Drivers/STM32L4xx_HAL_Driver/Inc/stm32l4xx_ll_rng.h ****   */
  78:../../../libs/smtc-hal-mcu-stm32l4/third_party/STM32CubeL4/Drivers/STM32L4xx_HAL_Driver/Inc/stm32l4xx_ll_rng.h **** #define LL_RNG_CED_ENABLE         0x00000000U              /*!< Clock error detection enabled  */
  79:../../../libs/smtc-hal-mcu-stm32l4/third_party/STM32CubeL4/Drivers/STM32L4xx_HAL_Driver/Inc/stm32l4xx_ll_rng.h **** #define LL_RNG_CED_DISABLE        RNG_CR_CED               /*!< Clock error detection disabled */
  80:../../../libs/smtc-hal-mcu-stm32l4/third_party/STM32CubeL4/Drivers/STM32L4xx_HAL_Driver/Inc/stm32l4xx_ll_rng.h **** /**
  81:../../../libs/smtc-hal-mcu-stm32l4/third_party/STM32CubeL4/Drivers/STM32L4xx_HAL_Driver/Inc/stm32l4xx_ll_rng.h ****   * @}
  82:../../../libs/smtc-hal-mcu-stm32l4/third_party/STM32CubeL4/Drivers/STM32L4xx_HAL_Driver/Inc/stm32l4xx_ll_rng.h ****   */
  83:../../../libs/smtc-hal-mcu-stm32l4/third_party/STM32CubeL4/Drivers/STM32L4xx_HAL_Driver/Inc/stm32l4xx_ll_rng.h **** #endif
  84:../../../libs/smtc-hal-mcu-stm32l4/third_party/STM32CubeL4/Drivers/STM32L4xx_HAL_Driver/Inc/stm32l4xx_ll_rng.h **** 
  85:../../../libs/smtc-hal-mcu-stm32l4/third_party/STM32CubeL4/Drivers/STM32L4xx_HAL_Driver/Inc/stm32l4xx_ll_rng.h **** #if defined(RNG_CR_CONDRST)
  86:../../../libs/smtc-hal-mcu-stm32l4/third_party/STM32CubeL4/Drivers/STM32L4xx_HAL_Driver/Inc/stm32l4xx_ll_rng.h **** /** @defgroup RNG_LL_Clock_Divider_Factor  Value used to configure an internal
  87:../../../libs/smtc-hal-mcu-stm32l4/third_party/STM32CubeL4/Drivers/STM32L4xx_HAL_Driver/Inc/stm32l4xx_ll_rng.h ****  *            programmable divider acting on the incoming RNG clock
ARM GAS  C:\msys64\tmp\ccUcdgty.s 			page 3


  88:../../../libs/smtc-hal-mcu-stm32l4/third_party/STM32CubeL4/Drivers/STM32L4xx_HAL_Driver/Inc/stm32l4xx_ll_rng.h ****   * @{
  89:../../../libs/smtc-hal-mcu-stm32l4/third_party/STM32CubeL4/Drivers/STM32L4xx_HAL_Driver/Inc/stm32l4xx_ll_rng.h ****   */
  90:../../../libs/smtc-hal-mcu-stm32l4/third_party/STM32CubeL4/Drivers/STM32L4xx_HAL_Driver/Inc/stm32l4xx_ll_rng.h **** #define LL_RNG_CLKDIV_BY_1       (0x00000000UL)      /*!< No clock division  */
  91:../../../libs/smtc-hal-mcu-stm32l4/third_party/STM32CubeL4/Drivers/STM32L4xx_HAL_Driver/Inc/stm32l4xx_ll_rng.h **** #define LL_RNG_CLKDIV_BY_2       (RNG_CR_CLKDIV_0)
  92:../../../libs/smtc-hal-mcu-stm32l4/third_party/STM32CubeL4/Drivers/STM32L4xx_HAL_Driver/Inc/stm32l4xx_ll_rng.h ****                            /*!< 2 RNG clock cycles per internal RNG clock    */
  93:../../../libs/smtc-hal-mcu-stm32l4/third_party/STM32CubeL4/Drivers/STM32L4xx_HAL_Driver/Inc/stm32l4xx_ll_rng.h **** #define LL_RNG_CLKDIV_BY_4       (RNG_CR_CLKDIV_1)
  94:../../../libs/smtc-hal-mcu-stm32l4/third_party/STM32CubeL4/Drivers/STM32L4xx_HAL_Driver/Inc/stm32l4xx_ll_rng.h ****                            /*!< 4 RNG clock cycles per internal RNG clock    */
  95:../../../libs/smtc-hal-mcu-stm32l4/third_party/STM32CubeL4/Drivers/STM32L4xx_HAL_Driver/Inc/stm32l4xx_ll_rng.h **** #define LL_RNG_CLKDIV_BY_8       (RNG_CR_CLKDIV_1 | RNG_CR_CLKDIV_0)
  96:../../../libs/smtc-hal-mcu-stm32l4/third_party/STM32CubeL4/Drivers/STM32L4xx_HAL_Driver/Inc/stm32l4xx_ll_rng.h ****                            /*!< 8 RNG clock cycles per internal RNG clock    */
  97:../../../libs/smtc-hal-mcu-stm32l4/third_party/STM32CubeL4/Drivers/STM32L4xx_HAL_Driver/Inc/stm32l4xx_ll_rng.h **** #define LL_RNG_CLKDIV_BY_16      (RNG_CR_CLKDIV_2)
  98:../../../libs/smtc-hal-mcu-stm32l4/third_party/STM32CubeL4/Drivers/STM32L4xx_HAL_Driver/Inc/stm32l4xx_ll_rng.h ****                            /*!< 16 RNG clock cycles per internal RNG clock   */
  99:../../../libs/smtc-hal-mcu-stm32l4/third_party/STM32CubeL4/Drivers/STM32L4xx_HAL_Driver/Inc/stm32l4xx_ll_rng.h **** #define LL_RNG_CLKDIV_BY_32      (RNG_CR_CLKDIV_2 | RNG_CR_CLKDIV_0)
 100:../../../libs/smtc-hal-mcu-stm32l4/third_party/STM32CubeL4/Drivers/STM32L4xx_HAL_Driver/Inc/stm32l4xx_ll_rng.h ****                            /*!< 32 RNG clock cycles per internal RNG clock   */
 101:../../../libs/smtc-hal-mcu-stm32l4/third_party/STM32CubeL4/Drivers/STM32L4xx_HAL_Driver/Inc/stm32l4xx_ll_rng.h **** #define LL_RNG_CLKDIV_BY_64      (RNG_CR_CLKDIV_2 | RNG_CR_CLKDIV_1)
 102:../../../libs/smtc-hal-mcu-stm32l4/third_party/STM32CubeL4/Drivers/STM32L4xx_HAL_Driver/Inc/stm32l4xx_ll_rng.h ****                            /*!< 64 RNG clock cycles per internal RNG clock   */
 103:../../../libs/smtc-hal-mcu-stm32l4/third_party/STM32CubeL4/Drivers/STM32L4xx_HAL_Driver/Inc/stm32l4xx_ll_rng.h **** #define LL_RNG_CLKDIV_BY_128     (RNG_CR_CLKDIV_2 | RNG_CR_CLKDIV_1 | RNG_CR_CLKDIV_0)
 104:../../../libs/smtc-hal-mcu-stm32l4/third_party/STM32CubeL4/Drivers/STM32L4xx_HAL_Driver/Inc/stm32l4xx_ll_rng.h ****                            /*!< 128 RNG clock cycles per internal RNG clock  */
 105:../../../libs/smtc-hal-mcu-stm32l4/third_party/STM32CubeL4/Drivers/STM32L4xx_HAL_Driver/Inc/stm32l4xx_ll_rng.h **** #define LL_RNG_CLKDIV_BY_256     (RNG_CR_CLKDIV_3)
 106:../../../libs/smtc-hal-mcu-stm32l4/third_party/STM32CubeL4/Drivers/STM32L4xx_HAL_Driver/Inc/stm32l4xx_ll_rng.h ****                            /*!< 256 RNG clock cycles per internal RNG clock  */
 107:../../../libs/smtc-hal-mcu-stm32l4/third_party/STM32CubeL4/Drivers/STM32L4xx_HAL_Driver/Inc/stm32l4xx_ll_rng.h **** #define LL_RNG_CLKDIV_BY_512     (RNG_CR_CLKDIV_3 | RNG_CR_CLKDIV_0)
 108:../../../libs/smtc-hal-mcu-stm32l4/third_party/STM32CubeL4/Drivers/STM32L4xx_HAL_Driver/Inc/stm32l4xx_ll_rng.h ****                            /*!< 512 RNG clock cycles per internal RNG clock  */
 109:../../../libs/smtc-hal-mcu-stm32l4/third_party/STM32CubeL4/Drivers/STM32L4xx_HAL_Driver/Inc/stm32l4xx_ll_rng.h **** #define LL_RNG_CLKDIV_BY_1024    (RNG_CR_CLKDIV_3 | RNG_CR_CLKDIV_1)
 110:../../../libs/smtc-hal-mcu-stm32l4/third_party/STM32CubeL4/Drivers/STM32L4xx_HAL_Driver/Inc/stm32l4xx_ll_rng.h ****                            /*!< 1024 RNG clock cycles per internal RNG clock */
 111:../../../libs/smtc-hal-mcu-stm32l4/third_party/STM32CubeL4/Drivers/STM32L4xx_HAL_Driver/Inc/stm32l4xx_ll_rng.h **** #define LL_RNG_CLKDIV_BY_2048    (RNG_CR_CLKDIV_3 | RNG_CR_CLKDIV_1 | RNG_CR_CLKDIV_0)
 112:../../../libs/smtc-hal-mcu-stm32l4/third_party/STM32CubeL4/Drivers/STM32L4xx_HAL_Driver/Inc/stm32l4xx_ll_rng.h ****                           /*!< 2048 RNG clock cycles per internal RNG clock  */
 113:../../../libs/smtc-hal-mcu-stm32l4/third_party/STM32CubeL4/Drivers/STM32L4xx_HAL_Driver/Inc/stm32l4xx_ll_rng.h **** #define LL_RNG_CLKDIV_BY_4096    (RNG_CR_CLKDIV_3 | RNG_CR_CLKDIV_2)
 114:../../../libs/smtc-hal-mcu-stm32l4/third_party/STM32CubeL4/Drivers/STM32L4xx_HAL_Driver/Inc/stm32l4xx_ll_rng.h ****                            /*!< 4096 RNG clock cycles per internal RNG clock  */
 115:../../../libs/smtc-hal-mcu-stm32l4/third_party/STM32CubeL4/Drivers/STM32L4xx_HAL_Driver/Inc/stm32l4xx_ll_rng.h **** #define LL_RNG_CLKDIV_BY_8192    (RNG_CR_CLKDIV_3 | RNG_CR_CLKDIV_2 | RNG_CR_CLKDIV_0)
 116:../../../libs/smtc-hal-mcu-stm32l4/third_party/STM32CubeL4/Drivers/STM32L4xx_HAL_Driver/Inc/stm32l4xx_ll_rng.h ****                           /*!< 8192 RNG clock cycles per internal RNG clock  */
 117:../../../libs/smtc-hal-mcu-stm32l4/third_party/STM32CubeL4/Drivers/STM32L4xx_HAL_Driver/Inc/stm32l4xx_ll_rng.h **** #define LL_RNG_CLKDIV_BY_16384   (RNG_CR_CLKDIV_3 | RNG_CR_CLKDIV_2 | RNG_CR_CLKDIV_1)
 118:../../../libs/smtc-hal-mcu-stm32l4/third_party/STM32CubeL4/Drivers/STM32L4xx_HAL_Driver/Inc/stm32l4xx_ll_rng.h ****                           /*!< 16384 RNG clock cycles per internal RNG clock */
 119:../../../libs/smtc-hal-mcu-stm32l4/third_party/STM32CubeL4/Drivers/STM32L4xx_HAL_Driver/Inc/stm32l4xx_ll_rng.h **** #define LL_RNG_CLKDIV_BY_32768   (RNG_CR_CLKDIV_3 | RNG_CR_CLKDIV_2 | RNG_CR_CLKDIV_1 | RNG_CR_CLKD
 120:../../../libs/smtc-hal-mcu-stm32l4/third_party/STM32CubeL4/Drivers/STM32L4xx_HAL_Driver/Inc/stm32l4xx_ll_rng.h ****                           /*!< 32768 RNG clock cycles per internal RNG clock */
 121:../../../libs/smtc-hal-mcu-stm32l4/third_party/STM32CubeL4/Drivers/STM32L4xx_HAL_Driver/Inc/stm32l4xx_ll_rng.h **** /**
 122:../../../libs/smtc-hal-mcu-stm32l4/third_party/STM32CubeL4/Drivers/STM32L4xx_HAL_Driver/Inc/stm32l4xx_ll_rng.h ****   * @}
 123:../../../libs/smtc-hal-mcu-stm32l4/third_party/STM32CubeL4/Drivers/STM32L4xx_HAL_Driver/Inc/stm32l4xx_ll_rng.h ****   */
 124:../../../libs/smtc-hal-mcu-stm32l4/third_party/STM32CubeL4/Drivers/STM32L4xx_HAL_Driver/Inc/stm32l4xx_ll_rng.h **** 
 125:../../../libs/smtc-hal-mcu-stm32l4/third_party/STM32CubeL4/Drivers/STM32L4xx_HAL_Driver/Inc/stm32l4xx_ll_rng.h **** /** @defgroup RNG_LL_NIST_Compliance  NIST Compliance configuration
 126:../../../libs/smtc-hal-mcu-stm32l4/third_party/STM32CubeL4/Drivers/STM32L4xx_HAL_Driver/Inc/stm32l4xx_ll_rng.h ****   * @{
 127:../../../libs/smtc-hal-mcu-stm32l4/third_party/STM32CubeL4/Drivers/STM32L4xx_HAL_Driver/Inc/stm32l4xx_ll_rng.h ****   */
 128:../../../libs/smtc-hal-mcu-stm32l4/third_party/STM32CubeL4/Drivers/STM32L4xx_HAL_Driver/Inc/stm32l4xx_ll_rng.h **** #define LL_RNG_NIST_COMPLIANT     (0x00000000UL) /*!< NIST compliant configuration*/
 129:../../../libs/smtc-hal-mcu-stm32l4/third_party/STM32CubeL4/Drivers/STM32L4xx_HAL_Driver/Inc/stm32l4xx_ll_rng.h **** #define LL_RNG_NOTNIST_COMPLIANT (RNG_CR_NISTC) /*!< Non NIST compliant configuration */
 130:../../../libs/smtc-hal-mcu-stm32l4/third_party/STM32CubeL4/Drivers/STM32L4xx_HAL_Driver/Inc/stm32l4xx_ll_rng.h **** 
 131:../../../libs/smtc-hal-mcu-stm32l4/third_party/STM32CubeL4/Drivers/STM32L4xx_HAL_Driver/Inc/stm32l4xx_ll_rng.h **** /**
 132:../../../libs/smtc-hal-mcu-stm32l4/third_party/STM32CubeL4/Drivers/STM32L4xx_HAL_Driver/Inc/stm32l4xx_ll_rng.h ****   * @}
 133:../../../libs/smtc-hal-mcu-stm32l4/third_party/STM32CubeL4/Drivers/STM32L4xx_HAL_Driver/Inc/stm32l4xx_ll_rng.h ****   */
 134:../../../libs/smtc-hal-mcu-stm32l4/third_party/STM32CubeL4/Drivers/STM32L4xx_HAL_Driver/Inc/stm32l4xx_ll_rng.h **** #endif/*RNG_CR_CONDRST*/
 135:../../../libs/smtc-hal-mcu-stm32l4/third_party/STM32CubeL4/Drivers/STM32L4xx_HAL_Driver/Inc/stm32l4xx_ll_rng.h **** /** @defgroup RNG_LL_EC_GET_FLAG Get Flags Defines
 136:../../../libs/smtc-hal-mcu-stm32l4/third_party/STM32CubeL4/Drivers/STM32L4xx_HAL_Driver/Inc/stm32l4xx_ll_rng.h ****   * @brief    Flags defines which can be used with LL_RNG_ReadReg function
 137:../../../libs/smtc-hal-mcu-stm32l4/third_party/STM32CubeL4/Drivers/STM32L4xx_HAL_Driver/Inc/stm32l4xx_ll_rng.h ****   * @{
 138:../../../libs/smtc-hal-mcu-stm32l4/third_party/STM32CubeL4/Drivers/STM32L4xx_HAL_Driver/Inc/stm32l4xx_ll_rng.h ****   */
 139:../../../libs/smtc-hal-mcu-stm32l4/third_party/STM32CubeL4/Drivers/STM32L4xx_HAL_Driver/Inc/stm32l4xx_ll_rng.h **** #define LL_RNG_SR_DRDY RNG_SR_DRDY    /*!< Register contains valid random data */
 140:../../../libs/smtc-hal-mcu-stm32l4/third_party/STM32CubeL4/Drivers/STM32L4xx_HAL_Driver/Inc/stm32l4xx_ll_rng.h **** #define LL_RNG_SR_CECS RNG_SR_CECS    /*!< Clock error current status */
 141:../../../libs/smtc-hal-mcu-stm32l4/third_party/STM32CubeL4/Drivers/STM32L4xx_HAL_Driver/Inc/stm32l4xx_ll_rng.h **** #define LL_RNG_SR_SECS RNG_SR_SECS    /*!< Seed error current status */
 142:../../../libs/smtc-hal-mcu-stm32l4/third_party/STM32CubeL4/Drivers/STM32L4xx_HAL_Driver/Inc/stm32l4xx_ll_rng.h **** #define LL_RNG_SR_CEIS RNG_SR_CEIS    /*!< Clock error interrupt status */
 143:../../../libs/smtc-hal-mcu-stm32l4/third_party/STM32CubeL4/Drivers/STM32L4xx_HAL_Driver/Inc/stm32l4xx_ll_rng.h **** #define LL_RNG_SR_SEIS RNG_SR_SEIS    /*!< Seed error interrupt status */
 144:../../../libs/smtc-hal-mcu-stm32l4/third_party/STM32CubeL4/Drivers/STM32L4xx_HAL_Driver/Inc/stm32l4xx_ll_rng.h **** /**
ARM GAS  C:\msys64\tmp\ccUcdgty.s 			page 4


 145:../../../libs/smtc-hal-mcu-stm32l4/third_party/STM32CubeL4/Drivers/STM32L4xx_HAL_Driver/Inc/stm32l4xx_ll_rng.h ****   * @}
 146:../../../libs/smtc-hal-mcu-stm32l4/third_party/STM32CubeL4/Drivers/STM32L4xx_HAL_Driver/Inc/stm32l4xx_ll_rng.h ****   */
 147:../../../libs/smtc-hal-mcu-stm32l4/third_party/STM32CubeL4/Drivers/STM32L4xx_HAL_Driver/Inc/stm32l4xx_ll_rng.h **** 
 148:../../../libs/smtc-hal-mcu-stm32l4/third_party/STM32CubeL4/Drivers/STM32L4xx_HAL_Driver/Inc/stm32l4xx_ll_rng.h **** /** @defgroup RNG_LL_EC_IT IT Defines
 149:../../../libs/smtc-hal-mcu-stm32l4/third_party/STM32CubeL4/Drivers/STM32L4xx_HAL_Driver/Inc/stm32l4xx_ll_rng.h ****   * @brief    IT defines which can be used with LL_RNG_ReadReg and  LL_RNG_WriteReg macros
 150:../../../libs/smtc-hal-mcu-stm32l4/third_party/STM32CubeL4/Drivers/STM32L4xx_HAL_Driver/Inc/stm32l4xx_ll_rng.h ****   * @{
 151:../../../libs/smtc-hal-mcu-stm32l4/third_party/STM32CubeL4/Drivers/STM32L4xx_HAL_Driver/Inc/stm32l4xx_ll_rng.h ****   */
 152:../../../libs/smtc-hal-mcu-stm32l4/third_party/STM32CubeL4/Drivers/STM32L4xx_HAL_Driver/Inc/stm32l4xx_ll_rng.h **** #define LL_RNG_CR_IE   RNG_CR_IE      /*!< RNG Interrupt enable */
 153:../../../libs/smtc-hal-mcu-stm32l4/third_party/STM32CubeL4/Drivers/STM32L4xx_HAL_Driver/Inc/stm32l4xx_ll_rng.h **** /**
 154:../../../libs/smtc-hal-mcu-stm32l4/third_party/STM32CubeL4/Drivers/STM32L4xx_HAL_Driver/Inc/stm32l4xx_ll_rng.h ****   * @}
 155:../../../libs/smtc-hal-mcu-stm32l4/third_party/STM32CubeL4/Drivers/STM32L4xx_HAL_Driver/Inc/stm32l4xx_ll_rng.h ****   */
 156:../../../libs/smtc-hal-mcu-stm32l4/third_party/STM32CubeL4/Drivers/STM32L4xx_HAL_Driver/Inc/stm32l4xx_ll_rng.h **** 
 157:../../../libs/smtc-hal-mcu-stm32l4/third_party/STM32CubeL4/Drivers/STM32L4xx_HAL_Driver/Inc/stm32l4xx_ll_rng.h **** /**
 158:../../../libs/smtc-hal-mcu-stm32l4/third_party/STM32CubeL4/Drivers/STM32L4xx_HAL_Driver/Inc/stm32l4xx_ll_rng.h ****   * @}
 159:../../../libs/smtc-hal-mcu-stm32l4/third_party/STM32CubeL4/Drivers/STM32L4xx_HAL_Driver/Inc/stm32l4xx_ll_rng.h ****   */
 160:../../../libs/smtc-hal-mcu-stm32l4/third_party/STM32CubeL4/Drivers/STM32L4xx_HAL_Driver/Inc/stm32l4xx_ll_rng.h **** 
 161:../../../libs/smtc-hal-mcu-stm32l4/third_party/STM32CubeL4/Drivers/STM32L4xx_HAL_Driver/Inc/stm32l4xx_ll_rng.h **** /* Exported macro ------------------------------------------------------------*/
 162:../../../libs/smtc-hal-mcu-stm32l4/third_party/STM32CubeL4/Drivers/STM32L4xx_HAL_Driver/Inc/stm32l4xx_ll_rng.h **** /** @defgroup RNG_LL_Exported_Macros RNG Exported Macros
 163:../../../libs/smtc-hal-mcu-stm32l4/third_party/STM32CubeL4/Drivers/STM32L4xx_HAL_Driver/Inc/stm32l4xx_ll_rng.h ****   * @{
 164:../../../libs/smtc-hal-mcu-stm32l4/third_party/STM32CubeL4/Drivers/STM32L4xx_HAL_Driver/Inc/stm32l4xx_ll_rng.h ****   */
 165:../../../libs/smtc-hal-mcu-stm32l4/third_party/STM32CubeL4/Drivers/STM32L4xx_HAL_Driver/Inc/stm32l4xx_ll_rng.h **** 
 166:../../../libs/smtc-hal-mcu-stm32l4/third_party/STM32CubeL4/Drivers/STM32L4xx_HAL_Driver/Inc/stm32l4xx_ll_rng.h **** /** @defgroup RNG_LL_EM_WRITE_READ Common Write and read registers Macros
 167:../../../libs/smtc-hal-mcu-stm32l4/third_party/STM32CubeL4/Drivers/STM32L4xx_HAL_Driver/Inc/stm32l4xx_ll_rng.h ****   * @{
 168:../../../libs/smtc-hal-mcu-stm32l4/third_party/STM32CubeL4/Drivers/STM32L4xx_HAL_Driver/Inc/stm32l4xx_ll_rng.h ****   */
 169:../../../libs/smtc-hal-mcu-stm32l4/third_party/STM32CubeL4/Drivers/STM32L4xx_HAL_Driver/Inc/stm32l4xx_ll_rng.h **** 
 170:../../../libs/smtc-hal-mcu-stm32l4/third_party/STM32CubeL4/Drivers/STM32L4xx_HAL_Driver/Inc/stm32l4xx_ll_rng.h **** /**
 171:../../../libs/smtc-hal-mcu-stm32l4/third_party/STM32CubeL4/Drivers/STM32L4xx_HAL_Driver/Inc/stm32l4xx_ll_rng.h ****   * @brief  Write a value in RNG register
 172:../../../libs/smtc-hal-mcu-stm32l4/third_party/STM32CubeL4/Drivers/STM32L4xx_HAL_Driver/Inc/stm32l4xx_ll_rng.h ****   * @param  __INSTANCE__ RNG Instance
 173:../../../libs/smtc-hal-mcu-stm32l4/third_party/STM32CubeL4/Drivers/STM32L4xx_HAL_Driver/Inc/stm32l4xx_ll_rng.h ****   * @param  __REG__ Register to be written
 174:../../../libs/smtc-hal-mcu-stm32l4/third_party/STM32CubeL4/Drivers/STM32L4xx_HAL_Driver/Inc/stm32l4xx_ll_rng.h ****   * @param  __VALUE__ Value to be written in the register
 175:../../../libs/smtc-hal-mcu-stm32l4/third_party/STM32CubeL4/Drivers/STM32L4xx_HAL_Driver/Inc/stm32l4xx_ll_rng.h ****   * @retval None
 176:../../../libs/smtc-hal-mcu-stm32l4/third_party/STM32CubeL4/Drivers/STM32L4xx_HAL_Driver/Inc/stm32l4xx_ll_rng.h ****   */
 177:../../../libs/smtc-hal-mcu-stm32l4/third_party/STM32CubeL4/Drivers/STM32L4xx_HAL_Driver/Inc/stm32l4xx_ll_rng.h **** #define LL_RNG_WriteReg(__INSTANCE__, __REG__, __VALUE__) WRITE_REG(__INSTANCE__->__REG__, (__VALUE
 178:../../../libs/smtc-hal-mcu-stm32l4/third_party/STM32CubeL4/Drivers/STM32L4xx_HAL_Driver/Inc/stm32l4xx_ll_rng.h **** 
 179:../../../libs/smtc-hal-mcu-stm32l4/third_party/STM32CubeL4/Drivers/STM32L4xx_HAL_Driver/Inc/stm32l4xx_ll_rng.h **** /**
 180:../../../libs/smtc-hal-mcu-stm32l4/third_party/STM32CubeL4/Drivers/STM32L4xx_HAL_Driver/Inc/stm32l4xx_ll_rng.h ****   * @brief  Read a value in RNG register
 181:../../../libs/smtc-hal-mcu-stm32l4/third_party/STM32CubeL4/Drivers/STM32L4xx_HAL_Driver/Inc/stm32l4xx_ll_rng.h ****   * @param  __INSTANCE__ RNG Instance
 182:../../../libs/smtc-hal-mcu-stm32l4/third_party/STM32CubeL4/Drivers/STM32L4xx_HAL_Driver/Inc/stm32l4xx_ll_rng.h ****   * @param  __REG__ Register to be read
 183:../../../libs/smtc-hal-mcu-stm32l4/third_party/STM32CubeL4/Drivers/STM32L4xx_HAL_Driver/Inc/stm32l4xx_ll_rng.h ****   * @retval Register value
 184:../../../libs/smtc-hal-mcu-stm32l4/third_party/STM32CubeL4/Drivers/STM32L4xx_HAL_Driver/Inc/stm32l4xx_ll_rng.h ****   */
 185:../../../libs/smtc-hal-mcu-stm32l4/third_party/STM32CubeL4/Drivers/STM32L4xx_HAL_Driver/Inc/stm32l4xx_ll_rng.h **** #define LL_RNG_ReadReg(__INSTANCE__, __REG__) READ_REG(__INSTANCE__->__REG__)
 186:../../../libs/smtc-hal-mcu-stm32l4/third_party/STM32CubeL4/Drivers/STM32L4xx_HAL_Driver/Inc/stm32l4xx_ll_rng.h **** /**
 187:../../../libs/smtc-hal-mcu-stm32l4/third_party/STM32CubeL4/Drivers/STM32L4xx_HAL_Driver/Inc/stm32l4xx_ll_rng.h ****   * @}
 188:../../../libs/smtc-hal-mcu-stm32l4/third_party/STM32CubeL4/Drivers/STM32L4xx_HAL_Driver/Inc/stm32l4xx_ll_rng.h ****   */
 189:../../../libs/smtc-hal-mcu-stm32l4/third_party/STM32CubeL4/Drivers/STM32L4xx_HAL_Driver/Inc/stm32l4xx_ll_rng.h **** 
 190:../../../libs/smtc-hal-mcu-stm32l4/third_party/STM32CubeL4/Drivers/STM32L4xx_HAL_Driver/Inc/stm32l4xx_ll_rng.h **** /**
 191:../../../libs/smtc-hal-mcu-stm32l4/third_party/STM32CubeL4/Drivers/STM32L4xx_HAL_Driver/Inc/stm32l4xx_ll_rng.h ****   * @}
 192:../../../libs/smtc-hal-mcu-stm32l4/third_party/STM32CubeL4/Drivers/STM32L4xx_HAL_Driver/Inc/stm32l4xx_ll_rng.h ****   */
 193:../../../libs/smtc-hal-mcu-stm32l4/third_party/STM32CubeL4/Drivers/STM32L4xx_HAL_Driver/Inc/stm32l4xx_ll_rng.h **** 
 194:../../../libs/smtc-hal-mcu-stm32l4/third_party/STM32CubeL4/Drivers/STM32L4xx_HAL_Driver/Inc/stm32l4xx_ll_rng.h **** 
 195:../../../libs/smtc-hal-mcu-stm32l4/third_party/STM32CubeL4/Drivers/STM32L4xx_HAL_Driver/Inc/stm32l4xx_ll_rng.h **** /* Exported functions --------------------------------------------------------*/
 196:../../../libs/smtc-hal-mcu-stm32l4/third_party/STM32CubeL4/Drivers/STM32L4xx_HAL_Driver/Inc/stm32l4xx_ll_rng.h **** /** @defgroup RNG_LL_Exported_Functions RNG Exported Functions
 197:../../../libs/smtc-hal-mcu-stm32l4/third_party/STM32CubeL4/Drivers/STM32L4xx_HAL_Driver/Inc/stm32l4xx_ll_rng.h ****   * @{
 198:../../../libs/smtc-hal-mcu-stm32l4/third_party/STM32CubeL4/Drivers/STM32L4xx_HAL_Driver/Inc/stm32l4xx_ll_rng.h ****   */
 199:../../../libs/smtc-hal-mcu-stm32l4/third_party/STM32CubeL4/Drivers/STM32L4xx_HAL_Driver/Inc/stm32l4xx_ll_rng.h **** /** @defgroup RNG_LL_EF_Configuration RNG Configuration functions
 200:../../../libs/smtc-hal-mcu-stm32l4/third_party/STM32CubeL4/Drivers/STM32L4xx_HAL_Driver/Inc/stm32l4xx_ll_rng.h ****   * @{
 201:../../../libs/smtc-hal-mcu-stm32l4/third_party/STM32CubeL4/Drivers/STM32L4xx_HAL_Driver/Inc/stm32l4xx_ll_rng.h ****   */
ARM GAS  C:\msys64\tmp\ccUcdgty.s 			page 5


 202:../../../libs/smtc-hal-mcu-stm32l4/third_party/STM32CubeL4/Drivers/STM32L4xx_HAL_Driver/Inc/stm32l4xx_ll_rng.h **** 
 203:../../../libs/smtc-hal-mcu-stm32l4/third_party/STM32CubeL4/Drivers/STM32L4xx_HAL_Driver/Inc/stm32l4xx_ll_rng.h **** /**
 204:../../../libs/smtc-hal-mcu-stm32l4/third_party/STM32CubeL4/Drivers/STM32L4xx_HAL_Driver/Inc/stm32l4xx_ll_rng.h ****   * @brief  Enable Random Number Generation
 205:../../../libs/smtc-hal-mcu-stm32l4/third_party/STM32CubeL4/Drivers/STM32L4xx_HAL_Driver/Inc/stm32l4xx_ll_rng.h ****   * @rmtoll CR           RNGEN         LL_RNG_Enable
 206:../../../libs/smtc-hal-mcu-stm32l4/third_party/STM32CubeL4/Drivers/STM32L4xx_HAL_Driver/Inc/stm32l4xx_ll_rng.h ****   * @param  RNGx RNG Instance
 207:../../../libs/smtc-hal-mcu-stm32l4/third_party/STM32CubeL4/Drivers/STM32L4xx_HAL_Driver/Inc/stm32l4xx_ll_rng.h ****   * @retval None
 208:../../../libs/smtc-hal-mcu-stm32l4/third_party/STM32CubeL4/Drivers/STM32L4xx_HAL_Driver/Inc/stm32l4xx_ll_rng.h ****   */
 209:../../../libs/smtc-hal-mcu-stm32l4/third_party/STM32CubeL4/Drivers/STM32L4xx_HAL_Driver/Inc/stm32l4xx_ll_rng.h **** __STATIC_INLINE void LL_RNG_Enable(RNG_TypeDef *RNGx)
 210:../../../libs/smtc-hal-mcu-stm32l4/third_party/STM32CubeL4/Drivers/STM32L4xx_HAL_Driver/Inc/stm32l4xx_ll_rng.h **** {
  29              		.loc 2 210 1
  30              		.cfi_startproc
  31              		@ args = 0, pretend = 0, frame = 8
  32              		@ frame_needed = 1, uses_anonymous_args = 0
  33              		@ link register save eliminated.
  34 0000 80B4     		push	{r7}
  35              	.LCFI0:
  36              		.cfi_def_cfa_offset 4
  37              		.cfi_offset 7, -4
  38 0002 83B0     		sub	sp, sp, #12
  39              	.LCFI1:
  40              		.cfi_def_cfa_offset 16
  41 0004 00AF     		add	r7, sp, #0
  42              	.LCFI2:
  43              		.cfi_def_cfa_register 7
  44 0006 7860     		str	r0, [r7, #4]
 211:../../../libs/smtc-hal-mcu-stm32l4/third_party/STM32CubeL4/Drivers/STM32L4xx_HAL_Driver/Inc/stm32l4xx_ll_rng.h ****   SET_BIT(RNGx->CR, RNG_CR_RNGEN);
  45              		.loc 2 211 3
  46 0008 7B68     		ldr	r3, [r7, #4]
  47 000a 1B68     		ldr	r3, [r3]
  48 000c 43F00402 		orr	r2, r3, #4
  49 0010 7B68     		ldr	r3, [r7, #4]
  50 0012 1A60     		str	r2, [r3]
 212:../../../libs/smtc-hal-mcu-stm32l4/third_party/STM32CubeL4/Drivers/STM32L4xx_HAL_Driver/Inc/stm32l4xx_ll_rng.h **** }
  51              		.loc 2 212 1
  52 0014 00BF     		nop
  53 0016 0C37     		adds	r7, r7, #12
  54              	.LCFI3:
  55              		.cfi_def_cfa_offset 4
  56 0018 BD46     		mov	sp, r7
  57              	.LCFI4:
  58              		.cfi_def_cfa_register 13
  59              		@ sp needed
  60 001a 5DF8047B 		ldr	r7, [sp], #4
  61              	.LCFI5:
  62              		.cfi_restore 7
  63              		.cfi_def_cfa_offset 0
  64 001e 7047     		bx	lr
  65              		.cfi_endproc
  66              	.LFE132:
  68              		.section	.text.LL_RNG_Disable,"ax",%progbits
  69              		.align	1
  70              		.syntax unified
  71              		.thumb
  72              		.thumb_func
  74              	LL_RNG_Disable:
  75              	.LFB133:
 213:../../../libs/smtc-hal-mcu-stm32l4/third_party/STM32CubeL4/Drivers/STM32L4xx_HAL_Driver/Inc/stm32l4xx_ll_rng.h **** 
ARM GAS  C:\msys64\tmp\ccUcdgty.s 			page 6


 214:../../../libs/smtc-hal-mcu-stm32l4/third_party/STM32CubeL4/Drivers/STM32L4xx_HAL_Driver/Inc/stm32l4xx_ll_rng.h **** /**
 215:../../../libs/smtc-hal-mcu-stm32l4/third_party/STM32CubeL4/Drivers/STM32L4xx_HAL_Driver/Inc/stm32l4xx_ll_rng.h ****   * @brief  Disable Random Number Generation
 216:../../../libs/smtc-hal-mcu-stm32l4/third_party/STM32CubeL4/Drivers/STM32L4xx_HAL_Driver/Inc/stm32l4xx_ll_rng.h ****   * @rmtoll CR           RNGEN         LL_RNG_Disable
 217:../../../libs/smtc-hal-mcu-stm32l4/third_party/STM32CubeL4/Drivers/STM32L4xx_HAL_Driver/Inc/stm32l4xx_ll_rng.h ****   * @param  RNGx RNG Instance
 218:../../../libs/smtc-hal-mcu-stm32l4/third_party/STM32CubeL4/Drivers/STM32L4xx_HAL_Driver/Inc/stm32l4xx_ll_rng.h ****   * @retval None
 219:../../../libs/smtc-hal-mcu-stm32l4/third_party/STM32CubeL4/Drivers/STM32L4xx_HAL_Driver/Inc/stm32l4xx_ll_rng.h ****   */
 220:../../../libs/smtc-hal-mcu-stm32l4/third_party/STM32CubeL4/Drivers/STM32L4xx_HAL_Driver/Inc/stm32l4xx_ll_rng.h **** __STATIC_INLINE void LL_RNG_Disable(RNG_TypeDef *RNGx)
 221:../../../libs/smtc-hal-mcu-stm32l4/third_party/STM32CubeL4/Drivers/STM32L4xx_HAL_Driver/Inc/stm32l4xx_ll_rng.h **** {
  76              		.loc 2 221 1
  77              		.cfi_startproc
  78              		@ args = 0, pretend = 0, frame = 8
  79              		@ frame_needed = 1, uses_anonymous_args = 0
  80              		@ link register save eliminated.
  81 0000 80B4     		push	{r7}
  82              	.LCFI6:
  83              		.cfi_def_cfa_offset 4
  84              		.cfi_offset 7, -4
  85 0002 83B0     		sub	sp, sp, #12
  86              	.LCFI7:
  87              		.cfi_def_cfa_offset 16
  88 0004 00AF     		add	r7, sp, #0
  89              	.LCFI8:
  90              		.cfi_def_cfa_register 7
  91 0006 7860     		str	r0, [r7, #4]
 222:../../../libs/smtc-hal-mcu-stm32l4/third_party/STM32CubeL4/Drivers/STM32L4xx_HAL_Driver/Inc/stm32l4xx_ll_rng.h ****   CLEAR_BIT(RNGx->CR, RNG_CR_RNGEN);
  92              		.loc 2 222 3
  93 0008 7B68     		ldr	r3, [r7, #4]
  94 000a 1B68     		ldr	r3, [r3]
  95 000c 23F00402 		bic	r2, r3, #4
  96 0010 7B68     		ldr	r3, [r7, #4]
  97 0012 1A60     		str	r2, [r3]
 223:../../../libs/smtc-hal-mcu-stm32l4/third_party/STM32CubeL4/Drivers/STM32L4xx_HAL_Driver/Inc/stm32l4xx_ll_rng.h **** }
  98              		.loc 2 223 1
  99 0014 00BF     		nop
 100 0016 0C37     		adds	r7, r7, #12
 101              	.LCFI9:
 102              		.cfi_def_cfa_offset 4
 103 0018 BD46     		mov	sp, r7
 104              	.LCFI10:
 105              		.cfi_def_cfa_register 13
 106              		@ sp needed
 107 001a 5DF8047B 		ldr	r7, [sp], #4
 108              	.LCFI11:
 109              		.cfi_restore 7
 110              		.cfi_def_cfa_offset 0
 111 001e 7047     		bx	lr
 112              		.cfi_endproc
 113              	.LFE133:
 115              		.section	.text.LL_RNG_IsEnabled,"ax",%progbits
 116              		.align	1
 117              		.syntax unified
 118              		.thumb
 119              		.thumb_func
 121              	LL_RNG_IsEnabled:
 122              	.LFB134:
 224:../../../libs/smtc-hal-mcu-stm32l4/third_party/STM32CubeL4/Drivers/STM32L4xx_HAL_Driver/Inc/stm32l4xx_ll_rng.h **** 
 225:../../../libs/smtc-hal-mcu-stm32l4/third_party/STM32CubeL4/Drivers/STM32L4xx_HAL_Driver/Inc/stm32l4xx_ll_rng.h **** /**
ARM GAS  C:\msys64\tmp\ccUcdgty.s 			page 7


 226:../../../libs/smtc-hal-mcu-stm32l4/third_party/STM32CubeL4/Drivers/STM32L4xx_HAL_Driver/Inc/stm32l4xx_ll_rng.h ****   * @brief  Check if Random Number Generator is enabled
 227:../../../libs/smtc-hal-mcu-stm32l4/third_party/STM32CubeL4/Drivers/STM32L4xx_HAL_Driver/Inc/stm32l4xx_ll_rng.h ****   * @rmtoll CR           RNGEN         LL_RNG_IsEnabled
 228:../../../libs/smtc-hal-mcu-stm32l4/third_party/STM32CubeL4/Drivers/STM32L4xx_HAL_Driver/Inc/stm32l4xx_ll_rng.h ****   * @param  RNGx RNG Instance
 229:../../../libs/smtc-hal-mcu-stm32l4/third_party/STM32CubeL4/Drivers/STM32L4xx_HAL_Driver/Inc/stm32l4xx_ll_rng.h ****   * @retval State of bit (1 or 0).
 230:../../../libs/smtc-hal-mcu-stm32l4/third_party/STM32CubeL4/Drivers/STM32L4xx_HAL_Driver/Inc/stm32l4xx_ll_rng.h ****   */
 231:../../../libs/smtc-hal-mcu-stm32l4/third_party/STM32CubeL4/Drivers/STM32L4xx_HAL_Driver/Inc/stm32l4xx_ll_rng.h **** __STATIC_INLINE uint32_t LL_RNG_IsEnabled(RNG_TypeDef *RNGx)
 232:../../../libs/smtc-hal-mcu-stm32l4/third_party/STM32CubeL4/Drivers/STM32L4xx_HAL_Driver/Inc/stm32l4xx_ll_rng.h **** {
 123              		.loc 2 232 1
 124              		.cfi_startproc
 125              		@ args = 0, pretend = 0, frame = 8
 126              		@ frame_needed = 1, uses_anonymous_args = 0
 127              		@ link register save eliminated.
 128 0000 80B4     		push	{r7}
 129              	.LCFI12:
 130              		.cfi_def_cfa_offset 4
 131              		.cfi_offset 7, -4
 132 0002 83B0     		sub	sp, sp, #12
 133              	.LCFI13:
 134              		.cfi_def_cfa_offset 16
 135 0004 00AF     		add	r7, sp, #0
 136              	.LCFI14:
 137              		.cfi_def_cfa_register 7
 138 0006 7860     		str	r0, [r7, #4]
 233:../../../libs/smtc-hal-mcu-stm32l4/third_party/STM32CubeL4/Drivers/STM32L4xx_HAL_Driver/Inc/stm32l4xx_ll_rng.h ****   return ((READ_BIT(RNGx->CR, RNG_CR_RNGEN) == (RNG_CR_RNGEN)) ? 1UL : 0UL);
 139              		.loc 2 233 12
 140 0008 7B68     		ldr	r3, [r7, #4]
 141 000a 1B68     		ldr	r3, [r3]
 142 000c 03F00403 		and	r3, r3, #4
 143              		.loc 2 233 70
 144 0010 042B     		cmp	r3, #4
 145 0012 01D1     		bne	.L4
 146              		.loc 2 233 70 is_stmt 0 discriminator 1
 147 0014 0123     		movs	r3, #1
 148              		.loc 2 233 70
 149 0016 00E0     		b	.L6
 150              	.L4:
 151              		.loc 2 233 70 discriminator 2
 152 0018 0023     		movs	r3, #0
 153              	.L6:
 234:../../../libs/smtc-hal-mcu-stm32l4/third_party/STM32CubeL4/Drivers/STM32L4xx_HAL_Driver/Inc/stm32l4xx_ll_rng.h **** }
 154              		.loc 2 234 1 is_stmt 1
 155 001a 1846     		mov	r0, r3
 156 001c 0C37     		adds	r7, r7, #12
 157              	.LCFI15:
 158              		.cfi_def_cfa_offset 4
 159 001e BD46     		mov	sp, r7
 160              	.LCFI16:
 161              		.cfi_def_cfa_register 13
 162              		@ sp needed
 163 0020 5DF8047B 		ldr	r7, [sp], #4
 164              	.LCFI17:
 165              		.cfi_restore 7
 166              		.cfi_def_cfa_offset 0
 167 0024 7047     		bx	lr
 168              		.cfi_endproc
 169              	.LFE134:
 171              		.section	.text.LL_RNG_IsActiveFlag_DRDY,"ax",%progbits
ARM GAS  C:\msys64\tmp\ccUcdgty.s 			page 8


 172              		.align	1
 173              		.syntax unified
 174              		.thumb
 175              		.thumb_func
 177              	LL_RNG_IsActiveFlag_DRDY:
 178              	.LFB135:
 235:../../../libs/smtc-hal-mcu-stm32l4/third_party/STM32CubeL4/Drivers/STM32L4xx_HAL_Driver/Inc/stm32l4xx_ll_rng.h **** 
 236:../../../libs/smtc-hal-mcu-stm32l4/third_party/STM32CubeL4/Drivers/STM32L4xx_HAL_Driver/Inc/stm32l4xx_ll_rng.h **** #if defined(RNG_CR_CED)
 237:../../../libs/smtc-hal-mcu-stm32l4/third_party/STM32CubeL4/Drivers/STM32L4xx_HAL_Driver/Inc/stm32l4xx_ll_rng.h **** /**
 238:../../../libs/smtc-hal-mcu-stm32l4/third_party/STM32CubeL4/Drivers/STM32L4xx_HAL_Driver/Inc/stm32l4xx_ll_rng.h ****   * @brief  Enable Clock Error Detection
 239:../../../libs/smtc-hal-mcu-stm32l4/third_party/STM32CubeL4/Drivers/STM32L4xx_HAL_Driver/Inc/stm32l4xx_ll_rng.h ****   * @rmtoll CR           CED           LL_RNG_EnableClkErrorDetect
 240:../../../libs/smtc-hal-mcu-stm32l4/third_party/STM32CubeL4/Drivers/STM32L4xx_HAL_Driver/Inc/stm32l4xx_ll_rng.h ****   * @param  RNGx RNG Instance
 241:../../../libs/smtc-hal-mcu-stm32l4/third_party/STM32CubeL4/Drivers/STM32L4xx_HAL_Driver/Inc/stm32l4xx_ll_rng.h ****   * @retval None
 242:../../../libs/smtc-hal-mcu-stm32l4/third_party/STM32CubeL4/Drivers/STM32L4xx_HAL_Driver/Inc/stm32l4xx_ll_rng.h ****   */
 243:../../../libs/smtc-hal-mcu-stm32l4/third_party/STM32CubeL4/Drivers/STM32L4xx_HAL_Driver/Inc/stm32l4xx_ll_rng.h **** __STATIC_INLINE void LL_RNG_EnableClkErrorDetect(RNG_TypeDef *RNGx)
 244:../../../libs/smtc-hal-mcu-stm32l4/third_party/STM32CubeL4/Drivers/STM32L4xx_HAL_Driver/Inc/stm32l4xx_ll_rng.h **** {
 245:../../../libs/smtc-hal-mcu-stm32l4/third_party/STM32CubeL4/Drivers/STM32L4xx_HAL_Driver/Inc/stm32l4xx_ll_rng.h ****   CLEAR_BIT(RNGx->CR, RNG_CR_CED);
 246:../../../libs/smtc-hal-mcu-stm32l4/third_party/STM32CubeL4/Drivers/STM32L4xx_HAL_Driver/Inc/stm32l4xx_ll_rng.h **** }
 247:../../../libs/smtc-hal-mcu-stm32l4/third_party/STM32CubeL4/Drivers/STM32L4xx_HAL_Driver/Inc/stm32l4xx_ll_rng.h **** 
 248:../../../libs/smtc-hal-mcu-stm32l4/third_party/STM32CubeL4/Drivers/STM32L4xx_HAL_Driver/Inc/stm32l4xx_ll_rng.h **** /**
 249:../../../libs/smtc-hal-mcu-stm32l4/third_party/STM32CubeL4/Drivers/STM32L4xx_HAL_Driver/Inc/stm32l4xx_ll_rng.h ****   * @brief  Disable RNG Clock Error Detection
 250:../../../libs/smtc-hal-mcu-stm32l4/third_party/STM32CubeL4/Drivers/STM32L4xx_HAL_Driver/Inc/stm32l4xx_ll_rng.h ****   * @rmtoll CR           CED         LL_RNG_DisableClkErrorDetect
 251:../../../libs/smtc-hal-mcu-stm32l4/third_party/STM32CubeL4/Drivers/STM32L4xx_HAL_Driver/Inc/stm32l4xx_ll_rng.h ****   * @param  RNGx RNG Instance
 252:../../../libs/smtc-hal-mcu-stm32l4/third_party/STM32CubeL4/Drivers/STM32L4xx_HAL_Driver/Inc/stm32l4xx_ll_rng.h ****   * @retval None
 253:../../../libs/smtc-hal-mcu-stm32l4/third_party/STM32CubeL4/Drivers/STM32L4xx_HAL_Driver/Inc/stm32l4xx_ll_rng.h ****   */
 254:../../../libs/smtc-hal-mcu-stm32l4/third_party/STM32CubeL4/Drivers/STM32L4xx_HAL_Driver/Inc/stm32l4xx_ll_rng.h **** __STATIC_INLINE void LL_RNG_DisableClkErrorDetect(RNG_TypeDef *RNGx)
 255:../../../libs/smtc-hal-mcu-stm32l4/third_party/STM32CubeL4/Drivers/STM32L4xx_HAL_Driver/Inc/stm32l4xx_ll_rng.h **** {
 256:../../../libs/smtc-hal-mcu-stm32l4/third_party/STM32CubeL4/Drivers/STM32L4xx_HAL_Driver/Inc/stm32l4xx_ll_rng.h ****   SET_BIT(RNGx->CR, RNG_CR_CED);
 257:../../../libs/smtc-hal-mcu-stm32l4/third_party/STM32CubeL4/Drivers/STM32L4xx_HAL_Driver/Inc/stm32l4xx_ll_rng.h **** }
 258:../../../libs/smtc-hal-mcu-stm32l4/third_party/STM32CubeL4/Drivers/STM32L4xx_HAL_Driver/Inc/stm32l4xx_ll_rng.h **** 
 259:../../../libs/smtc-hal-mcu-stm32l4/third_party/STM32CubeL4/Drivers/STM32L4xx_HAL_Driver/Inc/stm32l4xx_ll_rng.h **** /**
 260:../../../libs/smtc-hal-mcu-stm32l4/third_party/STM32CubeL4/Drivers/STM32L4xx_HAL_Driver/Inc/stm32l4xx_ll_rng.h ****   * @brief  Check if RNG Clock Error Detection is enabled
 261:../../../libs/smtc-hal-mcu-stm32l4/third_party/STM32CubeL4/Drivers/STM32L4xx_HAL_Driver/Inc/stm32l4xx_ll_rng.h ****   * @rmtoll CR           CED         LL_RNG_IsEnabledClkErrorDetect
 262:../../../libs/smtc-hal-mcu-stm32l4/third_party/STM32CubeL4/Drivers/STM32L4xx_HAL_Driver/Inc/stm32l4xx_ll_rng.h ****   * @param  RNGx RNG Instance
 263:../../../libs/smtc-hal-mcu-stm32l4/third_party/STM32CubeL4/Drivers/STM32L4xx_HAL_Driver/Inc/stm32l4xx_ll_rng.h ****   * @retval State of bit (1 or 0).
 264:../../../libs/smtc-hal-mcu-stm32l4/third_party/STM32CubeL4/Drivers/STM32L4xx_HAL_Driver/Inc/stm32l4xx_ll_rng.h ****   */
 265:../../../libs/smtc-hal-mcu-stm32l4/third_party/STM32CubeL4/Drivers/STM32L4xx_HAL_Driver/Inc/stm32l4xx_ll_rng.h **** __STATIC_INLINE uint32_t LL_RNG_IsEnabledClkErrorDetect(RNG_TypeDef *RNGx)
 266:../../../libs/smtc-hal-mcu-stm32l4/third_party/STM32CubeL4/Drivers/STM32L4xx_HAL_Driver/Inc/stm32l4xx_ll_rng.h **** {
 267:../../../libs/smtc-hal-mcu-stm32l4/third_party/STM32CubeL4/Drivers/STM32L4xx_HAL_Driver/Inc/stm32l4xx_ll_rng.h ****   return ((READ_BIT(RNGx->CR, RNG_CR_CED) != (RNG_CR_CED)) ? 1UL : 0UL);
 268:../../../libs/smtc-hal-mcu-stm32l4/third_party/STM32CubeL4/Drivers/STM32L4xx_HAL_Driver/Inc/stm32l4xx_ll_rng.h **** }
 269:../../../libs/smtc-hal-mcu-stm32l4/third_party/STM32CubeL4/Drivers/STM32L4xx_HAL_Driver/Inc/stm32l4xx_ll_rng.h **** 
 270:../../../libs/smtc-hal-mcu-stm32l4/third_party/STM32CubeL4/Drivers/STM32L4xx_HAL_Driver/Inc/stm32l4xx_ll_rng.h **** #if defined(RNG_CR_CONDRST)
 271:../../../libs/smtc-hal-mcu-stm32l4/third_party/STM32CubeL4/Drivers/STM32L4xx_HAL_Driver/Inc/stm32l4xx_ll_rng.h **** /**
 272:../../../libs/smtc-hal-mcu-stm32l4/third_party/STM32CubeL4/Drivers/STM32L4xx_HAL_Driver/Inc/stm32l4xx_ll_rng.h ****   * @brief  Set RNG Conditioning Soft Reset bit
 273:../../../libs/smtc-hal-mcu-stm32l4/third_party/STM32CubeL4/Drivers/STM32L4xx_HAL_Driver/Inc/stm32l4xx_ll_rng.h ****   * @rmtoll CR           CONDRST          LL_RNG_SetConditioningResetBit
 274:../../../libs/smtc-hal-mcu-stm32l4/third_party/STM32CubeL4/Drivers/STM32L4xx_HAL_Driver/Inc/stm32l4xx_ll_rng.h ****   * @param  RNGx RNG Instance
 275:../../../libs/smtc-hal-mcu-stm32l4/third_party/STM32CubeL4/Drivers/STM32L4xx_HAL_Driver/Inc/stm32l4xx_ll_rng.h ****   * @retval None
 276:../../../libs/smtc-hal-mcu-stm32l4/third_party/STM32CubeL4/Drivers/STM32L4xx_HAL_Driver/Inc/stm32l4xx_ll_rng.h ****   */
 277:../../../libs/smtc-hal-mcu-stm32l4/third_party/STM32CubeL4/Drivers/STM32L4xx_HAL_Driver/Inc/stm32l4xx_ll_rng.h **** __STATIC_INLINE void LL_RNG_SetConditioningResetBit(RNG_TypeDef *RNGx)
 278:../../../libs/smtc-hal-mcu-stm32l4/third_party/STM32CubeL4/Drivers/STM32L4xx_HAL_Driver/Inc/stm32l4xx_ll_rng.h **** {
 279:../../../libs/smtc-hal-mcu-stm32l4/third_party/STM32CubeL4/Drivers/STM32L4xx_HAL_Driver/Inc/stm32l4xx_ll_rng.h ****    SET_BIT(RNGx->CR, RNG_CR_CONDRST);
 280:../../../libs/smtc-hal-mcu-stm32l4/third_party/STM32CubeL4/Drivers/STM32L4xx_HAL_Driver/Inc/stm32l4xx_ll_rng.h **** }
 281:../../../libs/smtc-hal-mcu-stm32l4/third_party/STM32CubeL4/Drivers/STM32L4xx_HAL_Driver/Inc/stm32l4xx_ll_rng.h **** 
 282:../../../libs/smtc-hal-mcu-stm32l4/third_party/STM32CubeL4/Drivers/STM32L4xx_HAL_Driver/Inc/stm32l4xx_ll_rng.h **** /**
 283:../../../libs/smtc-hal-mcu-stm32l4/third_party/STM32CubeL4/Drivers/STM32L4xx_HAL_Driver/Inc/stm32l4xx_ll_rng.h ****   * @brief  Reset RNG  Conditioning Soft Reset bit
 284:../../../libs/smtc-hal-mcu-stm32l4/third_party/STM32CubeL4/Drivers/STM32L4xx_HAL_Driver/Inc/stm32l4xx_ll_rng.h ****   * @rmtoll CR           CONDRST         LL_RNG_ResetConditioningResetBit
 285:../../../libs/smtc-hal-mcu-stm32l4/third_party/STM32CubeL4/Drivers/STM32L4xx_HAL_Driver/Inc/stm32l4xx_ll_rng.h ****   * @param  RNGx RNG Instance
ARM GAS  C:\msys64\tmp\ccUcdgty.s 			page 9


 286:../../../libs/smtc-hal-mcu-stm32l4/third_party/STM32CubeL4/Drivers/STM32L4xx_HAL_Driver/Inc/stm32l4xx_ll_rng.h ****   * @retval None
 287:../../../libs/smtc-hal-mcu-stm32l4/third_party/STM32CubeL4/Drivers/STM32L4xx_HAL_Driver/Inc/stm32l4xx_ll_rng.h ****   */
 288:../../../libs/smtc-hal-mcu-stm32l4/third_party/STM32CubeL4/Drivers/STM32L4xx_HAL_Driver/Inc/stm32l4xx_ll_rng.h **** __STATIC_INLINE void LL_RNG_ResetConditioningResetBit(RNG_TypeDef *RNGx)
 289:../../../libs/smtc-hal-mcu-stm32l4/third_party/STM32CubeL4/Drivers/STM32L4xx_HAL_Driver/Inc/stm32l4xx_ll_rng.h **** {
 290:../../../libs/smtc-hal-mcu-stm32l4/third_party/STM32CubeL4/Drivers/STM32L4xx_HAL_Driver/Inc/stm32l4xx_ll_rng.h ****   CLEAR_BIT(RNGx->CR, RNG_CR_CONDRST);
 291:../../../libs/smtc-hal-mcu-stm32l4/third_party/STM32CubeL4/Drivers/STM32L4xx_HAL_Driver/Inc/stm32l4xx_ll_rng.h **** }
 292:../../../libs/smtc-hal-mcu-stm32l4/third_party/STM32CubeL4/Drivers/STM32L4xx_HAL_Driver/Inc/stm32l4xx_ll_rng.h **** 
 293:../../../libs/smtc-hal-mcu-stm32l4/third_party/STM32CubeL4/Drivers/STM32L4xx_HAL_Driver/Inc/stm32l4xx_ll_rng.h **** /**
 294:../../../libs/smtc-hal-mcu-stm32l4/third_party/STM32CubeL4/Drivers/STM32L4xx_HAL_Driver/Inc/stm32l4xx_ll_rng.h ****   * @brief  Check if RNG Conditioning Soft Reset bit is set
 295:../../../libs/smtc-hal-mcu-stm32l4/third_party/STM32CubeL4/Drivers/STM32L4xx_HAL_Driver/Inc/stm32l4xx_ll_rng.h ****   * @rmtoll CR           CONDRST         LL_RNG_IsResetConditioningBitSet
 296:../../../libs/smtc-hal-mcu-stm32l4/third_party/STM32CubeL4/Drivers/STM32L4xx_HAL_Driver/Inc/stm32l4xx_ll_rng.h ****   * @param  RNGx RNG Instance
 297:../../../libs/smtc-hal-mcu-stm32l4/third_party/STM32CubeL4/Drivers/STM32L4xx_HAL_Driver/Inc/stm32l4xx_ll_rng.h ****   * @retval State of bit (1 or 0).
 298:../../../libs/smtc-hal-mcu-stm32l4/third_party/STM32CubeL4/Drivers/STM32L4xx_HAL_Driver/Inc/stm32l4xx_ll_rng.h ****   */
 299:../../../libs/smtc-hal-mcu-stm32l4/third_party/STM32CubeL4/Drivers/STM32L4xx_HAL_Driver/Inc/stm32l4xx_ll_rng.h **** __STATIC_INLINE uint32_t LL_RNG_IsResetConditioningBitSet(RNG_TypeDef *RNGx)
 300:../../../libs/smtc-hal-mcu-stm32l4/third_party/STM32CubeL4/Drivers/STM32L4xx_HAL_Driver/Inc/stm32l4xx_ll_rng.h **** {
 301:../../../libs/smtc-hal-mcu-stm32l4/third_party/STM32CubeL4/Drivers/STM32L4xx_HAL_Driver/Inc/stm32l4xx_ll_rng.h ****   return ((READ_BIT(RNGx->CR, RNG_CR_CONDRST) == (RNG_CR_CONDRST)) ? 1UL : 0UL);
 302:../../../libs/smtc-hal-mcu-stm32l4/third_party/STM32CubeL4/Drivers/STM32L4xx_HAL_Driver/Inc/stm32l4xx_ll_rng.h **** }
 303:../../../libs/smtc-hal-mcu-stm32l4/third_party/STM32CubeL4/Drivers/STM32L4xx_HAL_Driver/Inc/stm32l4xx_ll_rng.h **** 
 304:../../../libs/smtc-hal-mcu-stm32l4/third_party/STM32CubeL4/Drivers/STM32L4xx_HAL_Driver/Inc/stm32l4xx_ll_rng.h **** /**
 305:../../../libs/smtc-hal-mcu-stm32l4/third_party/STM32CubeL4/Drivers/STM32L4xx_HAL_Driver/Inc/stm32l4xx_ll_rng.h ****   * @brief  Enable RNG Config Lock
 306:../../../libs/smtc-hal-mcu-stm32l4/third_party/STM32CubeL4/Drivers/STM32L4xx_HAL_Driver/Inc/stm32l4xx_ll_rng.h ****   * @rmtoll CR           CONFIGLOCK          LL_RNG_ConfigLock
 307:../../../libs/smtc-hal-mcu-stm32l4/third_party/STM32CubeL4/Drivers/STM32L4xx_HAL_Driver/Inc/stm32l4xx_ll_rng.h ****   * @param  RNGx RNG Instance
 308:../../../libs/smtc-hal-mcu-stm32l4/third_party/STM32CubeL4/Drivers/STM32L4xx_HAL_Driver/Inc/stm32l4xx_ll_rng.h ****   * @retval None
 309:../../../libs/smtc-hal-mcu-stm32l4/third_party/STM32CubeL4/Drivers/STM32L4xx_HAL_Driver/Inc/stm32l4xx_ll_rng.h ****   */
 310:../../../libs/smtc-hal-mcu-stm32l4/third_party/STM32CubeL4/Drivers/STM32L4xx_HAL_Driver/Inc/stm32l4xx_ll_rng.h **** __STATIC_INLINE void LL_RNG_ConfigLock(RNG_TypeDef *RNGx)
 311:../../../libs/smtc-hal-mcu-stm32l4/third_party/STM32CubeL4/Drivers/STM32L4xx_HAL_Driver/Inc/stm32l4xx_ll_rng.h **** {
 312:../../../libs/smtc-hal-mcu-stm32l4/third_party/STM32CubeL4/Drivers/STM32L4xx_HAL_Driver/Inc/stm32l4xx_ll_rng.h ****    SET_BIT(RNGx->CR, RNG_CR_CONFIGLOCK);
 313:../../../libs/smtc-hal-mcu-stm32l4/third_party/STM32CubeL4/Drivers/STM32L4xx_HAL_Driver/Inc/stm32l4xx_ll_rng.h **** }
 314:../../../libs/smtc-hal-mcu-stm32l4/third_party/STM32CubeL4/Drivers/STM32L4xx_HAL_Driver/Inc/stm32l4xx_ll_rng.h **** 
 315:../../../libs/smtc-hal-mcu-stm32l4/third_party/STM32CubeL4/Drivers/STM32L4xx_HAL_Driver/Inc/stm32l4xx_ll_rng.h **** /**
 316:../../../libs/smtc-hal-mcu-stm32l4/third_party/STM32CubeL4/Drivers/STM32L4xx_HAL_Driver/Inc/stm32l4xx_ll_rng.h ****   * @brief  Check if RNG Config Lock is enabled
 317:../../../libs/smtc-hal-mcu-stm32l4/third_party/STM32CubeL4/Drivers/STM32L4xx_HAL_Driver/Inc/stm32l4xx_ll_rng.h ****   * @rmtoll CR           CONFIGLOCK         LL_RNG_IsConfigLocked
 318:../../../libs/smtc-hal-mcu-stm32l4/third_party/STM32CubeL4/Drivers/STM32L4xx_HAL_Driver/Inc/stm32l4xx_ll_rng.h ****   * @param  RNGx RNG Instance
 319:../../../libs/smtc-hal-mcu-stm32l4/third_party/STM32CubeL4/Drivers/STM32L4xx_HAL_Driver/Inc/stm32l4xx_ll_rng.h ****   * @retval State of bit (1 or 0).
 320:../../../libs/smtc-hal-mcu-stm32l4/third_party/STM32CubeL4/Drivers/STM32L4xx_HAL_Driver/Inc/stm32l4xx_ll_rng.h ****   */
 321:../../../libs/smtc-hal-mcu-stm32l4/third_party/STM32CubeL4/Drivers/STM32L4xx_HAL_Driver/Inc/stm32l4xx_ll_rng.h **** __STATIC_INLINE uint32_t LL_RNG_IsConfigLocked(RNG_TypeDef *RNGx)
 322:../../../libs/smtc-hal-mcu-stm32l4/third_party/STM32CubeL4/Drivers/STM32L4xx_HAL_Driver/Inc/stm32l4xx_ll_rng.h **** {
 323:../../../libs/smtc-hal-mcu-stm32l4/third_party/STM32CubeL4/Drivers/STM32L4xx_HAL_Driver/Inc/stm32l4xx_ll_rng.h ****   return ((READ_BIT(RNGx->CR, RNG_CR_CONFIGLOCK) == (RNG_CR_CONFIGLOCK)) ? 1UL : 0UL);
 324:../../../libs/smtc-hal-mcu-stm32l4/third_party/STM32CubeL4/Drivers/STM32L4xx_HAL_Driver/Inc/stm32l4xx_ll_rng.h **** }
 325:../../../libs/smtc-hal-mcu-stm32l4/third_party/STM32CubeL4/Drivers/STM32L4xx_HAL_Driver/Inc/stm32l4xx_ll_rng.h **** 
 326:../../../libs/smtc-hal-mcu-stm32l4/third_party/STM32CubeL4/Drivers/STM32L4xx_HAL_Driver/Inc/stm32l4xx_ll_rng.h **** /**
 327:../../../libs/smtc-hal-mcu-stm32l4/third_party/STM32CubeL4/Drivers/STM32L4xx_HAL_Driver/Inc/stm32l4xx_ll_rng.h ****   * @brief  Enable NIST Compliance
 328:../../../libs/smtc-hal-mcu-stm32l4/third_party/STM32CubeL4/Drivers/STM32L4xx_HAL_Driver/Inc/stm32l4xx_ll_rng.h ****   * @rmtoll CR           NISTC          LL_RNG_EnableNistCompliance
 329:../../../libs/smtc-hal-mcu-stm32l4/third_party/STM32CubeL4/Drivers/STM32L4xx_HAL_Driver/Inc/stm32l4xx_ll_rng.h ****   * @param  RNGx RNG Instance
 330:../../../libs/smtc-hal-mcu-stm32l4/third_party/STM32CubeL4/Drivers/STM32L4xx_HAL_Driver/Inc/stm32l4xx_ll_rng.h ****   * @retval None
 331:../../../libs/smtc-hal-mcu-stm32l4/third_party/STM32CubeL4/Drivers/STM32L4xx_HAL_Driver/Inc/stm32l4xx_ll_rng.h ****   */
 332:../../../libs/smtc-hal-mcu-stm32l4/third_party/STM32CubeL4/Drivers/STM32L4xx_HAL_Driver/Inc/stm32l4xx_ll_rng.h **** __STATIC_INLINE void LL_RNG_EnableNistCompliance(RNG_TypeDef *RNGx)
 333:../../../libs/smtc-hal-mcu-stm32l4/third_party/STM32CubeL4/Drivers/STM32L4xx_HAL_Driver/Inc/stm32l4xx_ll_rng.h **** {
 334:../../../libs/smtc-hal-mcu-stm32l4/third_party/STM32CubeL4/Drivers/STM32L4xx_HAL_Driver/Inc/stm32l4xx_ll_rng.h ****    CLEAR_BIT(RNGx->CR, RNG_CR_NISTC);
 335:../../../libs/smtc-hal-mcu-stm32l4/third_party/STM32CubeL4/Drivers/STM32L4xx_HAL_Driver/Inc/stm32l4xx_ll_rng.h **** }
 336:../../../libs/smtc-hal-mcu-stm32l4/third_party/STM32CubeL4/Drivers/STM32L4xx_HAL_Driver/Inc/stm32l4xx_ll_rng.h **** 
 337:../../../libs/smtc-hal-mcu-stm32l4/third_party/STM32CubeL4/Drivers/STM32L4xx_HAL_Driver/Inc/stm32l4xx_ll_rng.h **** /**
 338:../../../libs/smtc-hal-mcu-stm32l4/third_party/STM32CubeL4/Drivers/STM32L4xx_HAL_Driver/Inc/stm32l4xx_ll_rng.h ****   * @brief  Disable NIST Compliance
 339:../../../libs/smtc-hal-mcu-stm32l4/third_party/STM32CubeL4/Drivers/STM32L4xx_HAL_Driver/Inc/stm32l4xx_ll_rng.h ****   * @rmtoll CR           NISTC         LL_RNG_DisableNistCompliance
 340:../../../libs/smtc-hal-mcu-stm32l4/third_party/STM32CubeL4/Drivers/STM32L4xx_HAL_Driver/Inc/stm32l4xx_ll_rng.h ****   * @param  RNGx RNG Instance
 341:../../../libs/smtc-hal-mcu-stm32l4/third_party/STM32CubeL4/Drivers/STM32L4xx_HAL_Driver/Inc/stm32l4xx_ll_rng.h ****   * @retval None
 342:../../../libs/smtc-hal-mcu-stm32l4/third_party/STM32CubeL4/Drivers/STM32L4xx_HAL_Driver/Inc/stm32l4xx_ll_rng.h ****   */
ARM GAS  C:\msys64\tmp\ccUcdgty.s 			page 10


 343:../../../libs/smtc-hal-mcu-stm32l4/third_party/STM32CubeL4/Drivers/STM32L4xx_HAL_Driver/Inc/stm32l4xx_ll_rng.h **** __STATIC_INLINE void LL_RNG_DisableNistCompliance(RNG_TypeDef *RNGx)
 344:../../../libs/smtc-hal-mcu-stm32l4/third_party/STM32CubeL4/Drivers/STM32L4xx_HAL_Driver/Inc/stm32l4xx_ll_rng.h **** {
 345:../../../libs/smtc-hal-mcu-stm32l4/third_party/STM32CubeL4/Drivers/STM32L4xx_HAL_Driver/Inc/stm32l4xx_ll_rng.h ****   SET_BIT(RNGx->CR, RNG_CR_NISTC);
 346:../../../libs/smtc-hal-mcu-stm32l4/third_party/STM32CubeL4/Drivers/STM32L4xx_HAL_Driver/Inc/stm32l4xx_ll_rng.h **** }
 347:../../../libs/smtc-hal-mcu-stm32l4/third_party/STM32CubeL4/Drivers/STM32L4xx_HAL_Driver/Inc/stm32l4xx_ll_rng.h **** 
 348:../../../libs/smtc-hal-mcu-stm32l4/third_party/STM32CubeL4/Drivers/STM32L4xx_HAL_Driver/Inc/stm32l4xx_ll_rng.h **** /**
 349:../../../libs/smtc-hal-mcu-stm32l4/third_party/STM32CubeL4/Drivers/STM32L4xx_HAL_Driver/Inc/stm32l4xx_ll_rng.h ****   * @brief  Check if NIST Compliance is enabled
 350:../../../libs/smtc-hal-mcu-stm32l4/third_party/STM32CubeL4/Drivers/STM32L4xx_HAL_Driver/Inc/stm32l4xx_ll_rng.h ****   * @rmtoll CR           NISTC         LL_RNG_IsNistComplianceEnabled
 351:../../../libs/smtc-hal-mcu-stm32l4/third_party/STM32CubeL4/Drivers/STM32L4xx_HAL_Driver/Inc/stm32l4xx_ll_rng.h ****   * @param  RNGx RNG Instance
 352:../../../libs/smtc-hal-mcu-stm32l4/third_party/STM32CubeL4/Drivers/STM32L4xx_HAL_Driver/Inc/stm32l4xx_ll_rng.h ****   * @retval State of bit (1 or 0).
 353:../../../libs/smtc-hal-mcu-stm32l4/third_party/STM32CubeL4/Drivers/STM32L4xx_HAL_Driver/Inc/stm32l4xx_ll_rng.h ****   */
 354:../../../libs/smtc-hal-mcu-stm32l4/third_party/STM32CubeL4/Drivers/STM32L4xx_HAL_Driver/Inc/stm32l4xx_ll_rng.h **** __STATIC_INLINE uint32_t LL_RNG_IsNistComplianceEnabled(RNG_TypeDef *RNGx)
 355:../../../libs/smtc-hal-mcu-stm32l4/third_party/STM32CubeL4/Drivers/STM32L4xx_HAL_Driver/Inc/stm32l4xx_ll_rng.h **** {
 356:../../../libs/smtc-hal-mcu-stm32l4/third_party/STM32CubeL4/Drivers/STM32L4xx_HAL_Driver/Inc/stm32l4xx_ll_rng.h ****   return ((READ_BIT(RNGx->CR, RNG_CR_NISTC) != (RNG_CR_NISTC)) ? 1UL : 0UL);
 357:../../../libs/smtc-hal-mcu-stm32l4/third_party/STM32CubeL4/Drivers/STM32L4xx_HAL_Driver/Inc/stm32l4xx_ll_rng.h **** }
 358:../../../libs/smtc-hal-mcu-stm32l4/third_party/STM32CubeL4/Drivers/STM32L4xx_HAL_Driver/Inc/stm32l4xx_ll_rng.h **** 
 359:../../../libs/smtc-hal-mcu-stm32l4/third_party/STM32CubeL4/Drivers/STM32L4xx_HAL_Driver/Inc/stm32l4xx_ll_rng.h **** /**
 360:../../../libs/smtc-hal-mcu-stm32l4/third_party/STM32CubeL4/Drivers/STM32L4xx_HAL_Driver/Inc/stm32l4xx_ll_rng.h ****   * @brief  Set RNG  Config1 Configuration field value
 361:../../../libs/smtc-hal-mcu-stm32l4/third_party/STM32CubeL4/Drivers/STM32L4xx_HAL_Driver/Inc/stm32l4xx_ll_rng.h ****   * @rmtoll CR           RNG_CONFIG1         LL_RNG_SetConfig1
 362:../../../libs/smtc-hal-mcu-stm32l4/third_party/STM32CubeL4/Drivers/STM32L4xx_HAL_Driver/Inc/stm32l4xx_ll_rng.h ****   * @param  RNGx RNG Instance
 363:../../../libs/smtc-hal-mcu-stm32l4/third_party/STM32CubeL4/Drivers/STM32L4xx_HAL_Driver/Inc/stm32l4xx_ll_rng.h ****   * @param  Config1 Value between 0 and 0x3F
 364:../../../libs/smtc-hal-mcu-stm32l4/third_party/STM32CubeL4/Drivers/STM32L4xx_HAL_Driver/Inc/stm32l4xx_ll_rng.h ****   * @retval None
 365:../../../libs/smtc-hal-mcu-stm32l4/third_party/STM32CubeL4/Drivers/STM32L4xx_HAL_Driver/Inc/stm32l4xx_ll_rng.h ****   */
 366:../../../libs/smtc-hal-mcu-stm32l4/third_party/STM32CubeL4/Drivers/STM32L4xx_HAL_Driver/Inc/stm32l4xx_ll_rng.h **** __STATIC_INLINE void LL_RNG_SetConfig1(RNG_TypeDef *RNGx, uint32_t Config1)
 367:../../../libs/smtc-hal-mcu-stm32l4/third_party/STM32CubeL4/Drivers/STM32L4xx_HAL_Driver/Inc/stm32l4xx_ll_rng.h **** {
 368:../../../libs/smtc-hal-mcu-stm32l4/third_party/STM32CubeL4/Drivers/STM32L4xx_HAL_Driver/Inc/stm32l4xx_ll_rng.h ****   MODIFY_REG(RNGx->CR, RNG_CR_RNG_CONFIG1, Config1 << RNG_CR_RNG_CONFIG1_Pos);
 369:../../../libs/smtc-hal-mcu-stm32l4/third_party/STM32CubeL4/Drivers/STM32L4xx_HAL_Driver/Inc/stm32l4xx_ll_rng.h **** }
 370:../../../libs/smtc-hal-mcu-stm32l4/third_party/STM32CubeL4/Drivers/STM32L4xx_HAL_Driver/Inc/stm32l4xx_ll_rng.h **** 
 371:../../../libs/smtc-hal-mcu-stm32l4/third_party/STM32CubeL4/Drivers/STM32L4xx_HAL_Driver/Inc/stm32l4xx_ll_rng.h **** /**
 372:../../../libs/smtc-hal-mcu-stm32l4/third_party/STM32CubeL4/Drivers/STM32L4xx_HAL_Driver/Inc/stm32l4xx_ll_rng.h ****   * @brief  Get RNG  Config1 Configuration field value
 373:../../../libs/smtc-hal-mcu-stm32l4/third_party/STM32CubeL4/Drivers/STM32L4xx_HAL_Driver/Inc/stm32l4xx_ll_rng.h ****   * @rmtoll CR           RNG_CONFIG1         LL_RNG_GetConfig1
 374:../../../libs/smtc-hal-mcu-stm32l4/third_party/STM32CubeL4/Drivers/STM32L4xx_HAL_Driver/Inc/stm32l4xx_ll_rng.h ****   * @param  RNGx RNG Instance
 375:../../../libs/smtc-hal-mcu-stm32l4/third_party/STM32CubeL4/Drivers/STM32L4xx_HAL_Driver/Inc/stm32l4xx_ll_rng.h ****   * @retval Returned Value expressed on 6 bits : Value between 0 and 0x3F
 376:../../../libs/smtc-hal-mcu-stm32l4/third_party/STM32CubeL4/Drivers/STM32L4xx_HAL_Driver/Inc/stm32l4xx_ll_rng.h ****   */
 377:../../../libs/smtc-hal-mcu-stm32l4/third_party/STM32CubeL4/Drivers/STM32L4xx_HAL_Driver/Inc/stm32l4xx_ll_rng.h **** __STATIC_INLINE uint32_t LL_RNG_GetConfig1(RNG_TypeDef *RNGx)
 378:../../../libs/smtc-hal-mcu-stm32l4/third_party/STM32CubeL4/Drivers/STM32L4xx_HAL_Driver/Inc/stm32l4xx_ll_rng.h **** {
 379:../../../libs/smtc-hal-mcu-stm32l4/third_party/STM32CubeL4/Drivers/STM32L4xx_HAL_Driver/Inc/stm32l4xx_ll_rng.h ****   return (uint32_t)(READ_BIT(RNGx->CR, RNG_CR_RNG_CONFIG1) >> RNG_CR_RNG_CONFIG1_Pos);
 380:../../../libs/smtc-hal-mcu-stm32l4/third_party/STM32CubeL4/Drivers/STM32L4xx_HAL_Driver/Inc/stm32l4xx_ll_rng.h **** }
 381:../../../libs/smtc-hal-mcu-stm32l4/third_party/STM32CubeL4/Drivers/STM32L4xx_HAL_Driver/Inc/stm32l4xx_ll_rng.h **** 
 382:../../../libs/smtc-hal-mcu-stm32l4/third_party/STM32CubeL4/Drivers/STM32L4xx_HAL_Driver/Inc/stm32l4xx_ll_rng.h **** /**
 383:../../../libs/smtc-hal-mcu-stm32l4/third_party/STM32CubeL4/Drivers/STM32L4xx_HAL_Driver/Inc/stm32l4xx_ll_rng.h ****   * @brief  Set RNG  Config2 Configuration field value
 384:../../../libs/smtc-hal-mcu-stm32l4/third_party/STM32CubeL4/Drivers/STM32L4xx_HAL_Driver/Inc/stm32l4xx_ll_rng.h ****   * @rmtoll CR           RNG_CONFIG2         LL_RNG_SetConfig2
 385:../../../libs/smtc-hal-mcu-stm32l4/third_party/STM32CubeL4/Drivers/STM32L4xx_HAL_Driver/Inc/stm32l4xx_ll_rng.h ****   * @param  RNGx RNG Instance
 386:../../../libs/smtc-hal-mcu-stm32l4/third_party/STM32CubeL4/Drivers/STM32L4xx_HAL_Driver/Inc/stm32l4xx_ll_rng.h ****   * @param  Config2 Value between 0 and 0x7
 387:../../../libs/smtc-hal-mcu-stm32l4/third_party/STM32CubeL4/Drivers/STM32L4xx_HAL_Driver/Inc/stm32l4xx_ll_rng.h ****   * @retval None
 388:../../../libs/smtc-hal-mcu-stm32l4/third_party/STM32CubeL4/Drivers/STM32L4xx_HAL_Driver/Inc/stm32l4xx_ll_rng.h ****   */
 389:../../../libs/smtc-hal-mcu-stm32l4/third_party/STM32CubeL4/Drivers/STM32L4xx_HAL_Driver/Inc/stm32l4xx_ll_rng.h **** __STATIC_INLINE void LL_RNG_SetConfig2(RNG_TypeDef *RNGx, uint32_t Config2)
 390:../../../libs/smtc-hal-mcu-stm32l4/third_party/STM32CubeL4/Drivers/STM32L4xx_HAL_Driver/Inc/stm32l4xx_ll_rng.h **** {
 391:../../../libs/smtc-hal-mcu-stm32l4/third_party/STM32CubeL4/Drivers/STM32L4xx_HAL_Driver/Inc/stm32l4xx_ll_rng.h ****   MODIFY_REG(RNGx->CR, RNG_CR_RNG_CONFIG2, Config2 << RNG_CR_RNG_CONFIG2_Pos);
 392:../../../libs/smtc-hal-mcu-stm32l4/third_party/STM32CubeL4/Drivers/STM32L4xx_HAL_Driver/Inc/stm32l4xx_ll_rng.h **** }
 393:../../../libs/smtc-hal-mcu-stm32l4/third_party/STM32CubeL4/Drivers/STM32L4xx_HAL_Driver/Inc/stm32l4xx_ll_rng.h **** 
 394:../../../libs/smtc-hal-mcu-stm32l4/third_party/STM32CubeL4/Drivers/STM32L4xx_HAL_Driver/Inc/stm32l4xx_ll_rng.h **** /**
 395:../../../libs/smtc-hal-mcu-stm32l4/third_party/STM32CubeL4/Drivers/STM32L4xx_HAL_Driver/Inc/stm32l4xx_ll_rng.h ****   * @brief  Get RNG  Config2 Configuration field value
 396:../../../libs/smtc-hal-mcu-stm32l4/third_party/STM32CubeL4/Drivers/STM32L4xx_HAL_Driver/Inc/stm32l4xx_ll_rng.h ****   * @rmtoll CR           RNG_CONFIG2         LL_RNG_GetConfig2
 397:../../../libs/smtc-hal-mcu-stm32l4/third_party/STM32CubeL4/Drivers/STM32L4xx_HAL_Driver/Inc/stm32l4xx_ll_rng.h ****   * @param  RNGx RNG Instance
 398:../../../libs/smtc-hal-mcu-stm32l4/third_party/STM32CubeL4/Drivers/STM32L4xx_HAL_Driver/Inc/stm32l4xx_ll_rng.h ****   * @retval Returned Value expressed on 3 bits : Value between 0 and 0x7
 399:../../../libs/smtc-hal-mcu-stm32l4/third_party/STM32CubeL4/Drivers/STM32L4xx_HAL_Driver/Inc/stm32l4xx_ll_rng.h ****   */
ARM GAS  C:\msys64\tmp\ccUcdgty.s 			page 11


 400:../../../libs/smtc-hal-mcu-stm32l4/third_party/STM32CubeL4/Drivers/STM32L4xx_HAL_Driver/Inc/stm32l4xx_ll_rng.h **** __STATIC_INLINE uint32_t LL_RNG_GetConfig2(RNG_TypeDef *RNGx)
 401:../../../libs/smtc-hal-mcu-stm32l4/third_party/STM32CubeL4/Drivers/STM32L4xx_HAL_Driver/Inc/stm32l4xx_ll_rng.h **** {
 402:../../../libs/smtc-hal-mcu-stm32l4/third_party/STM32CubeL4/Drivers/STM32L4xx_HAL_Driver/Inc/stm32l4xx_ll_rng.h ****   return (uint32_t)(READ_BIT(RNGx->CR, RNG_CR_RNG_CONFIG2) >> RNG_CR_RNG_CONFIG2_Pos);
 403:../../../libs/smtc-hal-mcu-stm32l4/third_party/STM32CubeL4/Drivers/STM32L4xx_HAL_Driver/Inc/stm32l4xx_ll_rng.h **** }
 404:../../../libs/smtc-hal-mcu-stm32l4/third_party/STM32CubeL4/Drivers/STM32L4xx_HAL_Driver/Inc/stm32l4xx_ll_rng.h **** 
 405:../../../libs/smtc-hal-mcu-stm32l4/third_party/STM32CubeL4/Drivers/STM32L4xx_HAL_Driver/Inc/stm32l4xx_ll_rng.h **** /**
 406:../../../libs/smtc-hal-mcu-stm32l4/third_party/STM32CubeL4/Drivers/STM32L4xx_HAL_Driver/Inc/stm32l4xx_ll_rng.h ****   * @brief  Set RNG  Config3 Configuration field value
 407:../../../libs/smtc-hal-mcu-stm32l4/third_party/STM32CubeL4/Drivers/STM32L4xx_HAL_Driver/Inc/stm32l4xx_ll_rng.h ****   * @rmtoll CR           RNG_CONFIG3         LL_RNG_SetConfig3
 408:../../../libs/smtc-hal-mcu-stm32l4/third_party/STM32CubeL4/Drivers/STM32L4xx_HAL_Driver/Inc/stm32l4xx_ll_rng.h ****   * @param  RNGx RNG Instance
 409:../../../libs/smtc-hal-mcu-stm32l4/third_party/STM32CubeL4/Drivers/STM32L4xx_HAL_Driver/Inc/stm32l4xx_ll_rng.h ****   * @param  Config3 Value between 0 and 0xF
 410:../../../libs/smtc-hal-mcu-stm32l4/third_party/STM32CubeL4/Drivers/STM32L4xx_HAL_Driver/Inc/stm32l4xx_ll_rng.h ****   * @retval None
 411:../../../libs/smtc-hal-mcu-stm32l4/third_party/STM32CubeL4/Drivers/STM32L4xx_HAL_Driver/Inc/stm32l4xx_ll_rng.h ****   */
 412:../../../libs/smtc-hal-mcu-stm32l4/third_party/STM32CubeL4/Drivers/STM32L4xx_HAL_Driver/Inc/stm32l4xx_ll_rng.h **** __STATIC_INLINE void LL_RNG_SetConfig3(RNG_TypeDef *RNGx, uint32_t Config3)
 413:../../../libs/smtc-hal-mcu-stm32l4/third_party/STM32CubeL4/Drivers/STM32L4xx_HAL_Driver/Inc/stm32l4xx_ll_rng.h **** {
 414:../../../libs/smtc-hal-mcu-stm32l4/third_party/STM32CubeL4/Drivers/STM32L4xx_HAL_Driver/Inc/stm32l4xx_ll_rng.h ****   MODIFY_REG(RNGx->CR, RNG_CR_RNG_CONFIG3, Config3 << RNG_CR_RNG_CONFIG3_Pos);
 415:../../../libs/smtc-hal-mcu-stm32l4/third_party/STM32CubeL4/Drivers/STM32L4xx_HAL_Driver/Inc/stm32l4xx_ll_rng.h **** }
 416:../../../libs/smtc-hal-mcu-stm32l4/third_party/STM32CubeL4/Drivers/STM32L4xx_HAL_Driver/Inc/stm32l4xx_ll_rng.h **** 
 417:../../../libs/smtc-hal-mcu-stm32l4/third_party/STM32CubeL4/Drivers/STM32L4xx_HAL_Driver/Inc/stm32l4xx_ll_rng.h **** /**
 418:../../../libs/smtc-hal-mcu-stm32l4/third_party/STM32CubeL4/Drivers/STM32L4xx_HAL_Driver/Inc/stm32l4xx_ll_rng.h ****   * @brief  Get RNG  Config3 Configuration field value
 419:../../../libs/smtc-hal-mcu-stm32l4/third_party/STM32CubeL4/Drivers/STM32L4xx_HAL_Driver/Inc/stm32l4xx_ll_rng.h ****   * @rmtoll CR           RNG_CONFIG3         LL_RNG_GetConfig3
 420:../../../libs/smtc-hal-mcu-stm32l4/third_party/STM32CubeL4/Drivers/STM32L4xx_HAL_Driver/Inc/stm32l4xx_ll_rng.h ****   * @param  RNGx RNG Instance
 421:../../../libs/smtc-hal-mcu-stm32l4/third_party/STM32CubeL4/Drivers/STM32L4xx_HAL_Driver/Inc/stm32l4xx_ll_rng.h ****   * @retval Returned Value expressed on 4 bits : Value between 0 and 0xF
 422:../../../libs/smtc-hal-mcu-stm32l4/third_party/STM32CubeL4/Drivers/STM32L4xx_HAL_Driver/Inc/stm32l4xx_ll_rng.h ****   */
 423:../../../libs/smtc-hal-mcu-stm32l4/third_party/STM32CubeL4/Drivers/STM32L4xx_HAL_Driver/Inc/stm32l4xx_ll_rng.h **** __STATIC_INLINE uint32_t LL_RNG_GetConfig3(RNG_TypeDef *RNGx)
 424:../../../libs/smtc-hal-mcu-stm32l4/third_party/STM32CubeL4/Drivers/STM32L4xx_HAL_Driver/Inc/stm32l4xx_ll_rng.h **** {
 425:../../../libs/smtc-hal-mcu-stm32l4/third_party/STM32CubeL4/Drivers/STM32L4xx_HAL_Driver/Inc/stm32l4xx_ll_rng.h ****   return (uint32_t)(READ_BIT(RNGx->CR, RNG_CR_RNG_CONFIG3) >> RNG_CR_RNG_CONFIG3_Pos);
 426:../../../libs/smtc-hal-mcu-stm32l4/third_party/STM32CubeL4/Drivers/STM32L4xx_HAL_Driver/Inc/stm32l4xx_ll_rng.h **** }
 427:../../../libs/smtc-hal-mcu-stm32l4/third_party/STM32CubeL4/Drivers/STM32L4xx_HAL_Driver/Inc/stm32l4xx_ll_rng.h **** 
 428:../../../libs/smtc-hal-mcu-stm32l4/third_party/STM32CubeL4/Drivers/STM32L4xx_HAL_Driver/Inc/stm32l4xx_ll_rng.h **** /**
 429:../../../libs/smtc-hal-mcu-stm32l4/third_party/STM32CubeL4/Drivers/STM32L4xx_HAL_Driver/Inc/stm32l4xx_ll_rng.h ****   * @brief  Set RNG  Clock divider factor
 430:../../../libs/smtc-hal-mcu-stm32l4/third_party/STM32CubeL4/Drivers/STM32L4xx_HAL_Driver/Inc/stm32l4xx_ll_rng.h ****   * @rmtoll CR           CLKDIV         LL_RNG_SetClockDivider
 431:../../../libs/smtc-hal-mcu-stm32l4/third_party/STM32CubeL4/Drivers/STM32L4xx_HAL_Driver/Inc/stm32l4xx_ll_rng.h ****   * @param  RNGx RNG Instance
 432:../../../libs/smtc-hal-mcu-stm32l4/third_party/STM32CubeL4/Drivers/STM32L4xx_HAL_Driver/Inc/stm32l4xx_ll_rng.h ****   * @param  Divider can be one of the following values:
 433:../../../libs/smtc-hal-mcu-stm32l4/third_party/STM32CubeL4/Drivers/STM32L4xx_HAL_Driver/Inc/stm32l4xx_ll_rng.h ****   *         @arg @ref LL_RNG_CLKDIV_BY_1
 434:../../../libs/smtc-hal-mcu-stm32l4/third_party/STM32CubeL4/Drivers/STM32L4xx_HAL_Driver/Inc/stm32l4xx_ll_rng.h ****   *         @arg @ref LL_RNG_CLKDIV_BY_2
 435:../../../libs/smtc-hal-mcu-stm32l4/third_party/STM32CubeL4/Drivers/STM32L4xx_HAL_Driver/Inc/stm32l4xx_ll_rng.h ****   *         @arg @ref LL_RNG_CLKDIV_BY_4
 436:../../../libs/smtc-hal-mcu-stm32l4/third_party/STM32CubeL4/Drivers/STM32L4xx_HAL_Driver/Inc/stm32l4xx_ll_rng.h ****   *         @arg @ref LL_RNG_CLKDIV_BY_8
 437:../../../libs/smtc-hal-mcu-stm32l4/third_party/STM32CubeL4/Drivers/STM32L4xx_HAL_Driver/Inc/stm32l4xx_ll_rng.h ****   *         @arg @ref LL_RNG_CLKDIV_BY_16
 438:../../../libs/smtc-hal-mcu-stm32l4/third_party/STM32CubeL4/Drivers/STM32L4xx_HAL_Driver/Inc/stm32l4xx_ll_rng.h ****   *         @arg @ref LL_RNG_CLKDIV_BY_32
 439:../../../libs/smtc-hal-mcu-stm32l4/third_party/STM32CubeL4/Drivers/STM32L4xx_HAL_Driver/Inc/stm32l4xx_ll_rng.h ****   *         @arg @ref LL_RNG_CLKDIV_BY_64
 440:../../../libs/smtc-hal-mcu-stm32l4/third_party/STM32CubeL4/Drivers/STM32L4xx_HAL_Driver/Inc/stm32l4xx_ll_rng.h ****   *         @arg @ref LL_RNG_CLKDIV_BY_128
 441:../../../libs/smtc-hal-mcu-stm32l4/third_party/STM32CubeL4/Drivers/STM32L4xx_HAL_Driver/Inc/stm32l4xx_ll_rng.h ****   *         @arg @ref LL_RNG_CLKDIV_BY_256
 442:../../../libs/smtc-hal-mcu-stm32l4/third_party/STM32CubeL4/Drivers/STM32L4xx_HAL_Driver/Inc/stm32l4xx_ll_rng.h ****   *         @arg @ref LL_RNG_CLKDIV_BY_512
 443:../../../libs/smtc-hal-mcu-stm32l4/third_party/STM32CubeL4/Drivers/STM32L4xx_HAL_Driver/Inc/stm32l4xx_ll_rng.h ****   *         @arg @ref LL_RNG_CLKDIV_BY_1024
 444:../../../libs/smtc-hal-mcu-stm32l4/third_party/STM32CubeL4/Drivers/STM32L4xx_HAL_Driver/Inc/stm32l4xx_ll_rng.h ****   *         @arg @ref LL_RNG_CLKDIV_BY_2048
 445:../../../libs/smtc-hal-mcu-stm32l4/third_party/STM32CubeL4/Drivers/STM32L4xx_HAL_Driver/Inc/stm32l4xx_ll_rng.h ****   *         @arg @ref LL_RNG_CLKDIV_BY_4096
 446:../../../libs/smtc-hal-mcu-stm32l4/third_party/STM32CubeL4/Drivers/STM32L4xx_HAL_Driver/Inc/stm32l4xx_ll_rng.h ****   *         @arg @ref LL_RNG_CLKDIV_BY_8192
 447:../../../libs/smtc-hal-mcu-stm32l4/third_party/STM32CubeL4/Drivers/STM32L4xx_HAL_Driver/Inc/stm32l4xx_ll_rng.h ****   *         @arg @ref LL_RNG_CLKDIV_BY_16384
 448:../../../libs/smtc-hal-mcu-stm32l4/third_party/STM32CubeL4/Drivers/STM32L4xx_HAL_Driver/Inc/stm32l4xx_ll_rng.h ****   *         @arg @ref LL_RNG_CLKDIV_BY_32768
 449:../../../libs/smtc-hal-mcu-stm32l4/third_party/STM32CubeL4/Drivers/STM32L4xx_HAL_Driver/Inc/stm32l4xx_ll_rng.h ****   * @retval None
 450:../../../libs/smtc-hal-mcu-stm32l4/third_party/STM32CubeL4/Drivers/STM32L4xx_HAL_Driver/Inc/stm32l4xx_ll_rng.h ****   */
 451:../../../libs/smtc-hal-mcu-stm32l4/third_party/STM32CubeL4/Drivers/STM32L4xx_HAL_Driver/Inc/stm32l4xx_ll_rng.h **** __STATIC_INLINE void LL_RNG_SetClockDivider(RNG_TypeDef *RNGx, uint32_t Divider)
 452:../../../libs/smtc-hal-mcu-stm32l4/third_party/STM32CubeL4/Drivers/STM32L4xx_HAL_Driver/Inc/stm32l4xx_ll_rng.h **** {
 453:../../../libs/smtc-hal-mcu-stm32l4/third_party/STM32CubeL4/Drivers/STM32L4xx_HAL_Driver/Inc/stm32l4xx_ll_rng.h ****   MODIFY_REG(RNGx->CR, RNG_CR_CLKDIV, Divider << RNG_CR_CLKDIV_Pos);
 454:../../../libs/smtc-hal-mcu-stm32l4/third_party/STM32CubeL4/Drivers/STM32L4xx_HAL_Driver/Inc/stm32l4xx_ll_rng.h **** }
 455:../../../libs/smtc-hal-mcu-stm32l4/third_party/STM32CubeL4/Drivers/STM32L4xx_HAL_Driver/Inc/stm32l4xx_ll_rng.h **** 
 456:../../../libs/smtc-hal-mcu-stm32l4/third_party/STM32CubeL4/Drivers/STM32L4xx_HAL_Driver/Inc/stm32l4xx_ll_rng.h **** /**
ARM GAS  C:\msys64\tmp\ccUcdgty.s 			page 12


 457:../../../libs/smtc-hal-mcu-stm32l4/third_party/STM32CubeL4/Drivers/STM32L4xx_HAL_Driver/Inc/stm32l4xx_ll_rng.h ****   * @brief  Get RNG  Clock divider factor
 458:../../../libs/smtc-hal-mcu-stm32l4/third_party/STM32CubeL4/Drivers/STM32L4xx_HAL_Driver/Inc/stm32l4xx_ll_rng.h ****   * @rmtoll CR           CLKDIV         LL_RNG_GetClockDivider
 459:../../../libs/smtc-hal-mcu-stm32l4/third_party/STM32CubeL4/Drivers/STM32L4xx_HAL_Driver/Inc/stm32l4xx_ll_rng.h ****   * @param  RNGx RNG Instance
 460:../../../libs/smtc-hal-mcu-stm32l4/third_party/STM32CubeL4/Drivers/STM32L4xx_HAL_Driver/Inc/stm32l4xx_ll_rng.h ****   * @retval Returned value can be one of the following values:
 461:../../../libs/smtc-hal-mcu-stm32l4/third_party/STM32CubeL4/Drivers/STM32L4xx_HAL_Driver/Inc/stm32l4xx_ll_rng.h ****   *         @arg @ref LL_RNG_CLKDIV_BY_1
 462:../../../libs/smtc-hal-mcu-stm32l4/third_party/STM32CubeL4/Drivers/STM32L4xx_HAL_Driver/Inc/stm32l4xx_ll_rng.h ****   *         @arg @ref LL_RNG_CLKDIV_BY_2
 463:../../../libs/smtc-hal-mcu-stm32l4/third_party/STM32CubeL4/Drivers/STM32L4xx_HAL_Driver/Inc/stm32l4xx_ll_rng.h ****   *         @arg @ref LL_RNG_CLKDIV_BY_4
 464:../../../libs/smtc-hal-mcu-stm32l4/third_party/STM32CubeL4/Drivers/STM32L4xx_HAL_Driver/Inc/stm32l4xx_ll_rng.h ****   *         @arg @ref LL_RNG_CLKDIV_BY_8
 465:../../../libs/smtc-hal-mcu-stm32l4/third_party/STM32CubeL4/Drivers/STM32L4xx_HAL_Driver/Inc/stm32l4xx_ll_rng.h ****   *         @arg @ref LL_RNG_CLKDIV_BY_16
 466:../../../libs/smtc-hal-mcu-stm32l4/third_party/STM32CubeL4/Drivers/STM32L4xx_HAL_Driver/Inc/stm32l4xx_ll_rng.h ****   *         @arg @ref LL_RNG_CLKDIV_BY_32
 467:../../../libs/smtc-hal-mcu-stm32l4/third_party/STM32CubeL4/Drivers/STM32L4xx_HAL_Driver/Inc/stm32l4xx_ll_rng.h ****   *         @arg @ref LL_RNG_CLKDIV_BY_64
 468:../../../libs/smtc-hal-mcu-stm32l4/third_party/STM32CubeL4/Drivers/STM32L4xx_HAL_Driver/Inc/stm32l4xx_ll_rng.h ****   *         @arg @ref LL_RNG_CLKDIV_BY_128
 469:../../../libs/smtc-hal-mcu-stm32l4/third_party/STM32CubeL4/Drivers/STM32L4xx_HAL_Driver/Inc/stm32l4xx_ll_rng.h ****   *         @arg @ref LL_RNG_CLKDIV_BY_256
 470:../../../libs/smtc-hal-mcu-stm32l4/third_party/STM32CubeL4/Drivers/STM32L4xx_HAL_Driver/Inc/stm32l4xx_ll_rng.h ****   *         @arg @ref LL_RNG_CLKDIV_BY_512
 471:../../../libs/smtc-hal-mcu-stm32l4/third_party/STM32CubeL4/Drivers/STM32L4xx_HAL_Driver/Inc/stm32l4xx_ll_rng.h ****   *         @arg @ref LL_RNG_CLKDIV_BY_1024
 472:../../../libs/smtc-hal-mcu-stm32l4/third_party/STM32CubeL4/Drivers/STM32L4xx_HAL_Driver/Inc/stm32l4xx_ll_rng.h ****   *         @arg @ref LL_RNG_CLKDIV_BY_2048
 473:../../../libs/smtc-hal-mcu-stm32l4/third_party/STM32CubeL4/Drivers/STM32L4xx_HAL_Driver/Inc/stm32l4xx_ll_rng.h ****   *         @arg @ref LL_RNG_CLKDIV_BY_4096
 474:../../../libs/smtc-hal-mcu-stm32l4/third_party/STM32CubeL4/Drivers/STM32L4xx_HAL_Driver/Inc/stm32l4xx_ll_rng.h ****   *         @arg @ref LL_RNG_CLKDIV_BY_8192
 475:../../../libs/smtc-hal-mcu-stm32l4/third_party/STM32CubeL4/Drivers/STM32L4xx_HAL_Driver/Inc/stm32l4xx_ll_rng.h ****   *         @arg @ref LL_RNG_CLKDIV_BY_16384
 476:../../../libs/smtc-hal-mcu-stm32l4/third_party/STM32CubeL4/Drivers/STM32L4xx_HAL_Driver/Inc/stm32l4xx_ll_rng.h ****   *         @arg @ref LL_RNG_CLKDIV_BY_32768
 477:../../../libs/smtc-hal-mcu-stm32l4/third_party/STM32CubeL4/Drivers/STM32L4xx_HAL_Driver/Inc/stm32l4xx_ll_rng.h ****   */
 478:../../../libs/smtc-hal-mcu-stm32l4/third_party/STM32CubeL4/Drivers/STM32L4xx_HAL_Driver/Inc/stm32l4xx_ll_rng.h **** __STATIC_INLINE uint32_t LL_RNG_GetClockDivider(RNG_TypeDef *RNGx)
 479:../../../libs/smtc-hal-mcu-stm32l4/third_party/STM32CubeL4/Drivers/STM32L4xx_HAL_Driver/Inc/stm32l4xx_ll_rng.h **** {
 480:../../../libs/smtc-hal-mcu-stm32l4/third_party/STM32CubeL4/Drivers/STM32L4xx_HAL_Driver/Inc/stm32l4xx_ll_rng.h ****   return (uint32_t)READ_BIT(RNGx->CR, RNG_CR_CLKDIV);
 481:../../../libs/smtc-hal-mcu-stm32l4/third_party/STM32CubeL4/Drivers/STM32L4xx_HAL_Driver/Inc/stm32l4xx_ll_rng.h **** }
 482:../../../libs/smtc-hal-mcu-stm32l4/third_party/STM32CubeL4/Drivers/STM32L4xx_HAL_Driver/Inc/stm32l4xx_ll_rng.h **** #endif /*RNG_CR_CONDRST*/
 483:../../../libs/smtc-hal-mcu-stm32l4/third_party/STM32CubeL4/Drivers/STM32L4xx_HAL_Driver/Inc/stm32l4xx_ll_rng.h **** #endif
 484:../../../libs/smtc-hal-mcu-stm32l4/third_party/STM32CubeL4/Drivers/STM32L4xx_HAL_Driver/Inc/stm32l4xx_ll_rng.h **** /**
 485:../../../libs/smtc-hal-mcu-stm32l4/third_party/STM32CubeL4/Drivers/STM32L4xx_HAL_Driver/Inc/stm32l4xx_ll_rng.h ****   * @}
 486:../../../libs/smtc-hal-mcu-stm32l4/third_party/STM32CubeL4/Drivers/STM32L4xx_HAL_Driver/Inc/stm32l4xx_ll_rng.h ****   */
 487:../../../libs/smtc-hal-mcu-stm32l4/third_party/STM32CubeL4/Drivers/STM32L4xx_HAL_Driver/Inc/stm32l4xx_ll_rng.h **** 
 488:../../../libs/smtc-hal-mcu-stm32l4/third_party/STM32CubeL4/Drivers/STM32L4xx_HAL_Driver/Inc/stm32l4xx_ll_rng.h **** /** @defgroup RNG_LL_EF_FLAG_Management FLAG Management
 489:../../../libs/smtc-hal-mcu-stm32l4/third_party/STM32CubeL4/Drivers/STM32L4xx_HAL_Driver/Inc/stm32l4xx_ll_rng.h ****   * @{
 490:../../../libs/smtc-hal-mcu-stm32l4/third_party/STM32CubeL4/Drivers/STM32L4xx_HAL_Driver/Inc/stm32l4xx_ll_rng.h ****   */
 491:../../../libs/smtc-hal-mcu-stm32l4/third_party/STM32CubeL4/Drivers/STM32L4xx_HAL_Driver/Inc/stm32l4xx_ll_rng.h **** 
 492:../../../libs/smtc-hal-mcu-stm32l4/third_party/STM32CubeL4/Drivers/STM32L4xx_HAL_Driver/Inc/stm32l4xx_ll_rng.h **** /**
 493:../../../libs/smtc-hal-mcu-stm32l4/third_party/STM32CubeL4/Drivers/STM32L4xx_HAL_Driver/Inc/stm32l4xx_ll_rng.h ****   * @brief  Indicate if the RNG Data ready Flag is set or not
 494:../../../libs/smtc-hal-mcu-stm32l4/third_party/STM32CubeL4/Drivers/STM32L4xx_HAL_Driver/Inc/stm32l4xx_ll_rng.h ****   * @rmtoll SR           DRDY          LL_RNG_IsActiveFlag_DRDY
 495:../../../libs/smtc-hal-mcu-stm32l4/third_party/STM32CubeL4/Drivers/STM32L4xx_HAL_Driver/Inc/stm32l4xx_ll_rng.h ****   * @param  RNGx RNG Instance
 496:../../../libs/smtc-hal-mcu-stm32l4/third_party/STM32CubeL4/Drivers/STM32L4xx_HAL_Driver/Inc/stm32l4xx_ll_rng.h ****   * @retval State of bit (1 or 0).
 497:../../../libs/smtc-hal-mcu-stm32l4/third_party/STM32CubeL4/Drivers/STM32L4xx_HAL_Driver/Inc/stm32l4xx_ll_rng.h ****   */
 498:../../../libs/smtc-hal-mcu-stm32l4/third_party/STM32CubeL4/Drivers/STM32L4xx_HAL_Driver/Inc/stm32l4xx_ll_rng.h **** __STATIC_INLINE uint32_t LL_RNG_IsActiveFlag_DRDY(RNG_TypeDef *RNGx)
 499:../../../libs/smtc-hal-mcu-stm32l4/third_party/STM32CubeL4/Drivers/STM32L4xx_HAL_Driver/Inc/stm32l4xx_ll_rng.h **** {
 179              		.loc 2 499 1
 180              		.cfi_startproc
 181              		@ args = 0, pretend = 0, frame = 8
 182              		@ frame_needed = 1, uses_anonymous_args = 0
 183              		@ link register save eliminated.
 184 0000 80B4     		push	{r7}
 185              	.LCFI18:
 186              		.cfi_def_cfa_offset 4
 187              		.cfi_offset 7, -4
 188 0002 83B0     		sub	sp, sp, #12
 189              	.LCFI19:
 190              		.cfi_def_cfa_offset 16
 191 0004 00AF     		add	r7, sp, #0
 192              	.LCFI20:
ARM GAS  C:\msys64\tmp\ccUcdgty.s 			page 13


 193              		.cfi_def_cfa_register 7
 194 0006 7860     		str	r0, [r7, #4]
 500:../../../libs/smtc-hal-mcu-stm32l4/third_party/STM32CubeL4/Drivers/STM32L4xx_HAL_Driver/Inc/stm32l4xx_ll_rng.h ****   return ((READ_BIT(RNGx->SR, RNG_SR_DRDY) == (RNG_SR_DRDY)) ? 1UL : 0UL);
 195              		.loc 2 500 12
 196 0008 7B68     		ldr	r3, [r7, #4]
 197 000a 5B68     		ldr	r3, [r3, #4]
 198 000c 03F00103 		and	r3, r3, #1
 199              		.loc 2 500 68
 200 0010 012B     		cmp	r3, #1
 201 0012 01D1     		bne	.L8
 202              		.loc 2 500 68 is_stmt 0 discriminator 1
 203 0014 0123     		movs	r3, #1
 204              		.loc 2 500 68
 205 0016 00E0     		b	.L10
 206              	.L8:
 207              		.loc 2 500 68 discriminator 2
 208 0018 0023     		movs	r3, #0
 209              	.L10:
 501:../../../libs/smtc-hal-mcu-stm32l4/third_party/STM32CubeL4/Drivers/STM32L4xx_HAL_Driver/Inc/stm32l4xx_ll_rng.h **** }
 210              		.loc 2 501 1 is_stmt 1
 211 001a 1846     		mov	r0, r3
 212 001c 0C37     		adds	r7, r7, #12
 213              	.LCFI21:
 214              		.cfi_def_cfa_offset 4
 215 001e BD46     		mov	sp, r7
 216              	.LCFI22:
 217              		.cfi_def_cfa_register 13
 218              		@ sp needed
 219 0020 5DF8047B 		ldr	r7, [sp], #4
 220              	.LCFI23:
 221              		.cfi_restore 7
 222              		.cfi_def_cfa_offset 0
 223 0024 7047     		bx	lr
 224              		.cfi_endproc
 225              	.LFE135:
 227              		.section	.text.LL_RNG_IsActiveFlag_CECS,"ax",%progbits
 228              		.align	1
 229              		.syntax unified
 230              		.thumb
 231              		.thumb_func
 233              	LL_RNG_IsActiveFlag_CECS:
 234              	.LFB136:
 502:../../../libs/smtc-hal-mcu-stm32l4/third_party/STM32CubeL4/Drivers/STM32L4xx_HAL_Driver/Inc/stm32l4xx_ll_rng.h **** 
 503:../../../libs/smtc-hal-mcu-stm32l4/third_party/STM32CubeL4/Drivers/STM32L4xx_HAL_Driver/Inc/stm32l4xx_ll_rng.h **** /**
 504:../../../libs/smtc-hal-mcu-stm32l4/third_party/STM32CubeL4/Drivers/STM32L4xx_HAL_Driver/Inc/stm32l4xx_ll_rng.h ****   * @brief  Indicate if the Clock Error Current Status Flag is set or not
 505:../../../libs/smtc-hal-mcu-stm32l4/third_party/STM32CubeL4/Drivers/STM32L4xx_HAL_Driver/Inc/stm32l4xx_ll_rng.h ****   * @rmtoll SR           CECS          LL_RNG_IsActiveFlag_CECS
 506:../../../libs/smtc-hal-mcu-stm32l4/third_party/STM32CubeL4/Drivers/STM32L4xx_HAL_Driver/Inc/stm32l4xx_ll_rng.h ****   * @param  RNGx RNG Instance
 507:../../../libs/smtc-hal-mcu-stm32l4/third_party/STM32CubeL4/Drivers/STM32L4xx_HAL_Driver/Inc/stm32l4xx_ll_rng.h ****   * @retval State of bit (1 or 0).
 508:../../../libs/smtc-hal-mcu-stm32l4/third_party/STM32CubeL4/Drivers/STM32L4xx_HAL_Driver/Inc/stm32l4xx_ll_rng.h ****   */
 509:../../../libs/smtc-hal-mcu-stm32l4/third_party/STM32CubeL4/Drivers/STM32L4xx_HAL_Driver/Inc/stm32l4xx_ll_rng.h **** __STATIC_INLINE uint32_t LL_RNG_IsActiveFlag_CECS(RNG_TypeDef *RNGx)
 510:../../../libs/smtc-hal-mcu-stm32l4/third_party/STM32CubeL4/Drivers/STM32L4xx_HAL_Driver/Inc/stm32l4xx_ll_rng.h **** {
 235              		.loc 2 510 1
 236              		.cfi_startproc
 237              		@ args = 0, pretend = 0, frame = 8
 238              		@ frame_needed = 1, uses_anonymous_args = 0
 239              		@ link register save eliminated.
 240 0000 80B4     		push	{r7}
ARM GAS  C:\msys64\tmp\ccUcdgty.s 			page 14


 241              	.LCFI24:
 242              		.cfi_def_cfa_offset 4
 243              		.cfi_offset 7, -4
 244 0002 83B0     		sub	sp, sp, #12
 245              	.LCFI25:
 246              		.cfi_def_cfa_offset 16
 247 0004 00AF     		add	r7, sp, #0
 248              	.LCFI26:
 249              		.cfi_def_cfa_register 7
 250 0006 7860     		str	r0, [r7, #4]
 511:../../../libs/smtc-hal-mcu-stm32l4/third_party/STM32CubeL4/Drivers/STM32L4xx_HAL_Driver/Inc/stm32l4xx_ll_rng.h ****   return ((READ_BIT(RNGx->SR, RNG_SR_CECS) == (RNG_SR_CECS)) ? 1UL : 0UL);
 251              		.loc 2 511 12
 252 0008 7B68     		ldr	r3, [r7, #4]
 253 000a 5B68     		ldr	r3, [r3, #4]
 254 000c 03F00203 		and	r3, r3, #2
 255              		.loc 2 511 68
 256 0010 022B     		cmp	r3, #2
 257 0012 01D1     		bne	.L12
 258              		.loc 2 511 68 is_stmt 0 discriminator 1
 259 0014 0123     		movs	r3, #1
 260              		.loc 2 511 68
 261 0016 00E0     		b	.L14
 262              	.L12:
 263              		.loc 2 511 68 discriminator 2
 264 0018 0023     		movs	r3, #0
 265              	.L14:
 512:../../../libs/smtc-hal-mcu-stm32l4/third_party/STM32CubeL4/Drivers/STM32L4xx_HAL_Driver/Inc/stm32l4xx_ll_rng.h **** }
 266              		.loc 2 512 1 is_stmt 1
 267 001a 1846     		mov	r0, r3
 268 001c 0C37     		adds	r7, r7, #12
 269              	.LCFI27:
 270              		.cfi_def_cfa_offset 4
 271 001e BD46     		mov	sp, r7
 272              	.LCFI28:
 273              		.cfi_def_cfa_register 13
 274              		@ sp needed
 275 0020 5DF8047B 		ldr	r7, [sp], #4
 276              	.LCFI29:
 277              		.cfi_restore 7
 278              		.cfi_def_cfa_offset 0
 279 0024 7047     		bx	lr
 280              		.cfi_endproc
 281              	.LFE136:
 283              		.section	.text.LL_RNG_IsActiveFlag_SECS,"ax",%progbits
 284              		.align	1
 285              		.syntax unified
 286              		.thumb
 287              		.thumb_func
 289              	LL_RNG_IsActiveFlag_SECS:
 290              	.LFB137:
 513:../../../libs/smtc-hal-mcu-stm32l4/third_party/STM32CubeL4/Drivers/STM32L4xx_HAL_Driver/Inc/stm32l4xx_ll_rng.h **** 
 514:../../../libs/smtc-hal-mcu-stm32l4/third_party/STM32CubeL4/Drivers/STM32L4xx_HAL_Driver/Inc/stm32l4xx_ll_rng.h **** /**
 515:../../../libs/smtc-hal-mcu-stm32l4/third_party/STM32CubeL4/Drivers/STM32L4xx_HAL_Driver/Inc/stm32l4xx_ll_rng.h ****   * @brief  Indicate if the Seed Error Current Status Flag is set or not
 516:../../../libs/smtc-hal-mcu-stm32l4/third_party/STM32CubeL4/Drivers/STM32L4xx_HAL_Driver/Inc/stm32l4xx_ll_rng.h ****   * @rmtoll SR           SECS          LL_RNG_IsActiveFlag_SECS
 517:../../../libs/smtc-hal-mcu-stm32l4/third_party/STM32CubeL4/Drivers/STM32L4xx_HAL_Driver/Inc/stm32l4xx_ll_rng.h ****   * @param  RNGx RNG Instance
 518:../../../libs/smtc-hal-mcu-stm32l4/third_party/STM32CubeL4/Drivers/STM32L4xx_HAL_Driver/Inc/stm32l4xx_ll_rng.h ****   * @retval State of bit (1 or 0).
 519:../../../libs/smtc-hal-mcu-stm32l4/third_party/STM32CubeL4/Drivers/STM32L4xx_HAL_Driver/Inc/stm32l4xx_ll_rng.h ****   */
ARM GAS  C:\msys64\tmp\ccUcdgty.s 			page 15


 520:../../../libs/smtc-hal-mcu-stm32l4/third_party/STM32CubeL4/Drivers/STM32L4xx_HAL_Driver/Inc/stm32l4xx_ll_rng.h **** __STATIC_INLINE uint32_t LL_RNG_IsActiveFlag_SECS(RNG_TypeDef *RNGx)
 521:../../../libs/smtc-hal-mcu-stm32l4/third_party/STM32CubeL4/Drivers/STM32L4xx_HAL_Driver/Inc/stm32l4xx_ll_rng.h **** {
 291              		.loc 2 521 1
 292              		.cfi_startproc
 293              		@ args = 0, pretend = 0, frame = 8
 294              		@ frame_needed = 1, uses_anonymous_args = 0
 295              		@ link register save eliminated.
 296 0000 80B4     		push	{r7}
 297              	.LCFI30:
 298              		.cfi_def_cfa_offset 4
 299              		.cfi_offset 7, -4
 300 0002 83B0     		sub	sp, sp, #12
 301              	.LCFI31:
 302              		.cfi_def_cfa_offset 16
 303 0004 00AF     		add	r7, sp, #0
 304              	.LCFI32:
 305              		.cfi_def_cfa_register 7
 306 0006 7860     		str	r0, [r7, #4]
 522:../../../libs/smtc-hal-mcu-stm32l4/third_party/STM32CubeL4/Drivers/STM32L4xx_HAL_Driver/Inc/stm32l4xx_ll_rng.h ****   return ((READ_BIT(RNGx->SR, RNG_SR_SECS) == (RNG_SR_SECS)) ? 1UL : 0UL);
 307              		.loc 2 522 12
 308 0008 7B68     		ldr	r3, [r7, #4]
 309 000a 5B68     		ldr	r3, [r3, #4]
 310 000c 03F00403 		and	r3, r3, #4
 311              		.loc 2 522 68
 312 0010 042B     		cmp	r3, #4
 313 0012 01D1     		bne	.L16
 314              		.loc 2 522 68 is_stmt 0 discriminator 1
 315 0014 0123     		movs	r3, #1
 316              		.loc 2 522 68
 317 0016 00E0     		b	.L18
 318              	.L16:
 319              		.loc 2 522 68 discriminator 2
 320 0018 0023     		movs	r3, #0
 321              	.L18:
 523:../../../libs/smtc-hal-mcu-stm32l4/third_party/STM32CubeL4/Drivers/STM32L4xx_HAL_Driver/Inc/stm32l4xx_ll_rng.h **** }
 322              		.loc 2 523 1 is_stmt 1
 323 001a 1846     		mov	r0, r3
 324 001c 0C37     		adds	r7, r7, #12
 325              	.LCFI33:
 326              		.cfi_def_cfa_offset 4
 327 001e BD46     		mov	sp, r7
 328              	.LCFI34:
 329              		.cfi_def_cfa_register 13
 330              		@ sp needed
 331 0020 5DF8047B 		ldr	r7, [sp], #4
 332              	.LCFI35:
 333              		.cfi_restore 7
 334              		.cfi_def_cfa_offset 0
 335 0024 7047     		bx	lr
 336              		.cfi_endproc
 337              	.LFE137:
 339              		.section	.text.LL_RNG_ReadRandData32,"ax",%progbits
 340              		.align	1
 341              		.syntax unified
 342              		.thumb
 343              		.thumb_func
 345              	LL_RNG_ReadRandData32:
ARM GAS  C:\msys64\tmp\ccUcdgty.s 			page 16


 346              	.LFB145:
 524:../../../libs/smtc-hal-mcu-stm32l4/third_party/STM32CubeL4/Drivers/STM32L4xx_HAL_Driver/Inc/stm32l4xx_ll_rng.h **** 
 525:../../../libs/smtc-hal-mcu-stm32l4/third_party/STM32CubeL4/Drivers/STM32L4xx_HAL_Driver/Inc/stm32l4xx_ll_rng.h **** /**
 526:../../../libs/smtc-hal-mcu-stm32l4/third_party/STM32CubeL4/Drivers/STM32L4xx_HAL_Driver/Inc/stm32l4xx_ll_rng.h ****   * @brief  Indicate if the Clock Error Interrupt Status Flag is set or not
 527:../../../libs/smtc-hal-mcu-stm32l4/third_party/STM32CubeL4/Drivers/STM32L4xx_HAL_Driver/Inc/stm32l4xx_ll_rng.h ****   * @rmtoll SR           CEIS          LL_RNG_IsActiveFlag_CEIS
 528:../../../libs/smtc-hal-mcu-stm32l4/third_party/STM32CubeL4/Drivers/STM32L4xx_HAL_Driver/Inc/stm32l4xx_ll_rng.h ****   * @param  RNGx RNG Instance
 529:../../../libs/smtc-hal-mcu-stm32l4/third_party/STM32CubeL4/Drivers/STM32L4xx_HAL_Driver/Inc/stm32l4xx_ll_rng.h ****   * @retval State of bit (1 or 0).
 530:../../../libs/smtc-hal-mcu-stm32l4/third_party/STM32CubeL4/Drivers/STM32L4xx_HAL_Driver/Inc/stm32l4xx_ll_rng.h ****   */
 531:../../../libs/smtc-hal-mcu-stm32l4/third_party/STM32CubeL4/Drivers/STM32L4xx_HAL_Driver/Inc/stm32l4xx_ll_rng.h **** __STATIC_INLINE uint32_t LL_RNG_IsActiveFlag_CEIS(RNG_TypeDef *RNGx)
 532:../../../libs/smtc-hal-mcu-stm32l4/third_party/STM32CubeL4/Drivers/STM32L4xx_HAL_Driver/Inc/stm32l4xx_ll_rng.h **** {
 533:../../../libs/smtc-hal-mcu-stm32l4/third_party/STM32CubeL4/Drivers/STM32L4xx_HAL_Driver/Inc/stm32l4xx_ll_rng.h ****   return ((READ_BIT(RNGx->SR, RNG_SR_CEIS) == (RNG_SR_CEIS)) ? 1UL : 0UL);
 534:../../../libs/smtc-hal-mcu-stm32l4/third_party/STM32CubeL4/Drivers/STM32L4xx_HAL_Driver/Inc/stm32l4xx_ll_rng.h **** }
 535:../../../libs/smtc-hal-mcu-stm32l4/third_party/STM32CubeL4/Drivers/STM32L4xx_HAL_Driver/Inc/stm32l4xx_ll_rng.h **** 
 536:../../../libs/smtc-hal-mcu-stm32l4/third_party/STM32CubeL4/Drivers/STM32L4xx_HAL_Driver/Inc/stm32l4xx_ll_rng.h **** /**
 537:../../../libs/smtc-hal-mcu-stm32l4/third_party/STM32CubeL4/Drivers/STM32L4xx_HAL_Driver/Inc/stm32l4xx_ll_rng.h ****   * @brief  Indicate if the Seed Error Interrupt Status Flag is set or not
 538:../../../libs/smtc-hal-mcu-stm32l4/third_party/STM32CubeL4/Drivers/STM32L4xx_HAL_Driver/Inc/stm32l4xx_ll_rng.h ****   * @rmtoll SR           SEIS          LL_RNG_IsActiveFlag_SEIS
 539:../../../libs/smtc-hal-mcu-stm32l4/third_party/STM32CubeL4/Drivers/STM32L4xx_HAL_Driver/Inc/stm32l4xx_ll_rng.h ****   * @param  RNGx RNG Instance
 540:../../../libs/smtc-hal-mcu-stm32l4/third_party/STM32CubeL4/Drivers/STM32L4xx_HAL_Driver/Inc/stm32l4xx_ll_rng.h ****   * @retval State of bit (1 or 0).
 541:../../../libs/smtc-hal-mcu-stm32l4/third_party/STM32CubeL4/Drivers/STM32L4xx_HAL_Driver/Inc/stm32l4xx_ll_rng.h ****   */
 542:../../../libs/smtc-hal-mcu-stm32l4/third_party/STM32CubeL4/Drivers/STM32L4xx_HAL_Driver/Inc/stm32l4xx_ll_rng.h **** __STATIC_INLINE uint32_t LL_RNG_IsActiveFlag_SEIS(RNG_TypeDef *RNGx)
 543:../../../libs/smtc-hal-mcu-stm32l4/third_party/STM32CubeL4/Drivers/STM32L4xx_HAL_Driver/Inc/stm32l4xx_ll_rng.h **** {
 544:../../../libs/smtc-hal-mcu-stm32l4/third_party/STM32CubeL4/Drivers/STM32L4xx_HAL_Driver/Inc/stm32l4xx_ll_rng.h ****   return ((READ_BIT(RNGx->SR, RNG_SR_SEIS) == (RNG_SR_SEIS)) ? 1UL : 0UL);
 545:../../../libs/smtc-hal-mcu-stm32l4/third_party/STM32CubeL4/Drivers/STM32L4xx_HAL_Driver/Inc/stm32l4xx_ll_rng.h **** }
 546:../../../libs/smtc-hal-mcu-stm32l4/third_party/STM32CubeL4/Drivers/STM32L4xx_HAL_Driver/Inc/stm32l4xx_ll_rng.h **** 
 547:../../../libs/smtc-hal-mcu-stm32l4/third_party/STM32CubeL4/Drivers/STM32L4xx_HAL_Driver/Inc/stm32l4xx_ll_rng.h **** /**
 548:../../../libs/smtc-hal-mcu-stm32l4/third_party/STM32CubeL4/Drivers/STM32L4xx_HAL_Driver/Inc/stm32l4xx_ll_rng.h ****   * @brief  Clear Clock Error interrupt Status (CEIS) Flag
 549:../../../libs/smtc-hal-mcu-stm32l4/third_party/STM32CubeL4/Drivers/STM32L4xx_HAL_Driver/Inc/stm32l4xx_ll_rng.h ****   * @rmtoll SR           CEIS          LL_RNG_ClearFlag_CEIS
 550:../../../libs/smtc-hal-mcu-stm32l4/third_party/STM32CubeL4/Drivers/STM32L4xx_HAL_Driver/Inc/stm32l4xx_ll_rng.h ****   * @param  RNGx RNG Instance
 551:../../../libs/smtc-hal-mcu-stm32l4/third_party/STM32CubeL4/Drivers/STM32L4xx_HAL_Driver/Inc/stm32l4xx_ll_rng.h ****   * @retval None
 552:../../../libs/smtc-hal-mcu-stm32l4/third_party/STM32CubeL4/Drivers/STM32L4xx_HAL_Driver/Inc/stm32l4xx_ll_rng.h ****   */
 553:../../../libs/smtc-hal-mcu-stm32l4/third_party/STM32CubeL4/Drivers/STM32L4xx_HAL_Driver/Inc/stm32l4xx_ll_rng.h **** __STATIC_INLINE void LL_RNG_ClearFlag_CEIS(RNG_TypeDef *RNGx)
 554:../../../libs/smtc-hal-mcu-stm32l4/third_party/STM32CubeL4/Drivers/STM32L4xx_HAL_Driver/Inc/stm32l4xx_ll_rng.h **** {
 555:../../../libs/smtc-hal-mcu-stm32l4/third_party/STM32CubeL4/Drivers/STM32L4xx_HAL_Driver/Inc/stm32l4xx_ll_rng.h ****   WRITE_REG(RNGx->SR, ~RNG_SR_CEIS);
 556:../../../libs/smtc-hal-mcu-stm32l4/third_party/STM32CubeL4/Drivers/STM32L4xx_HAL_Driver/Inc/stm32l4xx_ll_rng.h **** }
 557:../../../libs/smtc-hal-mcu-stm32l4/third_party/STM32CubeL4/Drivers/STM32L4xx_HAL_Driver/Inc/stm32l4xx_ll_rng.h **** 
 558:../../../libs/smtc-hal-mcu-stm32l4/third_party/STM32CubeL4/Drivers/STM32L4xx_HAL_Driver/Inc/stm32l4xx_ll_rng.h **** /**
 559:../../../libs/smtc-hal-mcu-stm32l4/third_party/STM32CubeL4/Drivers/STM32L4xx_HAL_Driver/Inc/stm32l4xx_ll_rng.h ****   * @brief  Clear Seed Error interrupt Status (SEIS) Flag
 560:../../../libs/smtc-hal-mcu-stm32l4/third_party/STM32CubeL4/Drivers/STM32L4xx_HAL_Driver/Inc/stm32l4xx_ll_rng.h ****   * @rmtoll SR           SEIS          LL_RNG_ClearFlag_SEIS
 561:../../../libs/smtc-hal-mcu-stm32l4/third_party/STM32CubeL4/Drivers/STM32L4xx_HAL_Driver/Inc/stm32l4xx_ll_rng.h ****   * @param  RNGx RNG Instance
 562:../../../libs/smtc-hal-mcu-stm32l4/third_party/STM32CubeL4/Drivers/STM32L4xx_HAL_Driver/Inc/stm32l4xx_ll_rng.h ****   * @retval None
 563:../../../libs/smtc-hal-mcu-stm32l4/third_party/STM32CubeL4/Drivers/STM32L4xx_HAL_Driver/Inc/stm32l4xx_ll_rng.h ****   */
 564:../../../libs/smtc-hal-mcu-stm32l4/third_party/STM32CubeL4/Drivers/STM32L4xx_HAL_Driver/Inc/stm32l4xx_ll_rng.h **** __STATIC_INLINE void LL_RNG_ClearFlag_SEIS(RNG_TypeDef *RNGx)
 565:../../../libs/smtc-hal-mcu-stm32l4/third_party/STM32CubeL4/Drivers/STM32L4xx_HAL_Driver/Inc/stm32l4xx_ll_rng.h **** {
 566:../../../libs/smtc-hal-mcu-stm32l4/third_party/STM32CubeL4/Drivers/STM32L4xx_HAL_Driver/Inc/stm32l4xx_ll_rng.h ****   WRITE_REG(RNGx->SR, ~RNG_SR_SEIS);
 567:../../../libs/smtc-hal-mcu-stm32l4/third_party/STM32CubeL4/Drivers/STM32L4xx_HAL_Driver/Inc/stm32l4xx_ll_rng.h **** }
 568:../../../libs/smtc-hal-mcu-stm32l4/third_party/STM32CubeL4/Drivers/STM32L4xx_HAL_Driver/Inc/stm32l4xx_ll_rng.h **** 
 569:../../../libs/smtc-hal-mcu-stm32l4/third_party/STM32CubeL4/Drivers/STM32L4xx_HAL_Driver/Inc/stm32l4xx_ll_rng.h **** /**
 570:../../../libs/smtc-hal-mcu-stm32l4/third_party/STM32CubeL4/Drivers/STM32L4xx_HAL_Driver/Inc/stm32l4xx_ll_rng.h ****   * @}
 571:../../../libs/smtc-hal-mcu-stm32l4/third_party/STM32CubeL4/Drivers/STM32L4xx_HAL_Driver/Inc/stm32l4xx_ll_rng.h ****   */
 572:../../../libs/smtc-hal-mcu-stm32l4/third_party/STM32CubeL4/Drivers/STM32L4xx_HAL_Driver/Inc/stm32l4xx_ll_rng.h **** 
 573:../../../libs/smtc-hal-mcu-stm32l4/third_party/STM32CubeL4/Drivers/STM32L4xx_HAL_Driver/Inc/stm32l4xx_ll_rng.h **** /** @defgroup RNG_LL_EF_IT_Management IT Management
 574:../../../libs/smtc-hal-mcu-stm32l4/third_party/STM32CubeL4/Drivers/STM32L4xx_HAL_Driver/Inc/stm32l4xx_ll_rng.h ****   * @{
 575:../../../libs/smtc-hal-mcu-stm32l4/third_party/STM32CubeL4/Drivers/STM32L4xx_HAL_Driver/Inc/stm32l4xx_ll_rng.h ****   */
 576:../../../libs/smtc-hal-mcu-stm32l4/third_party/STM32CubeL4/Drivers/STM32L4xx_HAL_Driver/Inc/stm32l4xx_ll_rng.h **** 
 577:../../../libs/smtc-hal-mcu-stm32l4/third_party/STM32CubeL4/Drivers/STM32L4xx_HAL_Driver/Inc/stm32l4xx_ll_rng.h **** /**
 578:../../../libs/smtc-hal-mcu-stm32l4/third_party/STM32CubeL4/Drivers/STM32L4xx_HAL_Driver/Inc/stm32l4xx_ll_rng.h ****   * @brief  Enable Random Number Generator Interrupt
 579:../../../libs/smtc-hal-mcu-stm32l4/third_party/STM32CubeL4/Drivers/STM32L4xx_HAL_Driver/Inc/stm32l4xx_ll_rng.h ****   *         (applies for either Seed error, Clock Error or Data ready interrupts)
ARM GAS  C:\msys64\tmp\ccUcdgty.s 			page 17


 580:../../../libs/smtc-hal-mcu-stm32l4/third_party/STM32CubeL4/Drivers/STM32L4xx_HAL_Driver/Inc/stm32l4xx_ll_rng.h ****   * @rmtoll CR           IE            LL_RNG_EnableIT
 581:../../../libs/smtc-hal-mcu-stm32l4/third_party/STM32CubeL4/Drivers/STM32L4xx_HAL_Driver/Inc/stm32l4xx_ll_rng.h ****   * @param  RNGx RNG Instance
 582:../../../libs/smtc-hal-mcu-stm32l4/third_party/STM32CubeL4/Drivers/STM32L4xx_HAL_Driver/Inc/stm32l4xx_ll_rng.h ****   * @retval None
 583:../../../libs/smtc-hal-mcu-stm32l4/third_party/STM32CubeL4/Drivers/STM32L4xx_HAL_Driver/Inc/stm32l4xx_ll_rng.h ****   */
 584:../../../libs/smtc-hal-mcu-stm32l4/third_party/STM32CubeL4/Drivers/STM32L4xx_HAL_Driver/Inc/stm32l4xx_ll_rng.h **** __STATIC_INLINE void LL_RNG_EnableIT(RNG_TypeDef *RNGx)
 585:../../../libs/smtc-hal-mcu-stm32l4/third_party/STM32CubeL4/Drivers/STM32L4xx_HAL_Driver/Inc/stm32l4xx_ll_rng.h **** {
 586:../../../libs/smtc-hal-mcu-stm32l4/third_party/STM32CubeL4/Drivers/STM32L4xx_HAL_Driver/Inc/stm32l4xx_ll_rng.h ****   SET_BIT(RNGx->CR, RNG_CR_IE);
 587:../../../libs/smtc-hal-mcu-stm32l4/third_party/STM32CubeL4/Drivers/STM32L4xx_HAL_Driver/Inc/stm32l4xx_ll_rng.h **** }
 588:../../../libs/smtc-hal-mcu-stm32l4/third_party/STM32CubeL4/Drivers/STM32L4xx_HAL_Driver/Inc/stm32l4xx_ll_rng.h **** 
 589:../../../libs/smtc-hal-mcu-stm32l4/third_party/STM32CubeL4/Drivers/STM32L4xx_HAL_Driver/Inc/stm32l4xx_ll_rng.h **** /**
 590:../../../libs/smtc-hal-mcu-stm32l4/third_party/STM32CubeL4/Drivers/STM32L4xx_HAL_Driver/Inc/stm32l4xx_ll_rng.h ****   * @brief  Disable Random Number Generator Interrupt
 591:../../../libs/smtc-hal-mcu-stm32l4/third_party/STM32CubeL4/Drivers/STM32L4xx_HAL_Driver/Inc/stm32l4xx_ll_rng.h ****   *         (applies for either Seed error, Clock Error or Data ready interrupts)
 592:../../../libs/smtc-hal-mcu-stm32l4/third_party/STM32CubeL4/Drivers/STM32L4xx_HAL_Driver/Inc/stm32l4xx_ll_rng.h ****   * @rmtoll CR           IE            LL_RNG_DisableIT
 593:../../../libs/smtc-hal-mcu-stm32l4/third_party/STM32CubeL4/Drivers/STM32L4xx_HAL_Driver/Inc/stm32l4xx_ll_rng.h ****   * @param  RNGx RNG Instance
 594:../../../libs/smtc-hal-mcu-stm32l4/third_party/STM32CubeL4/Drivers/STM32L4xx_HAL_Driver/Inc/stm32l4xx_ll_rng.h ****   * @retval None
 595:../../../libs/smtc-hal-mcu-stm32l4/third_party/STM32CubeL4/Drivers/STM32L4xx_HAL_Driver/Inc/stm32l4xx_ll_rng.h ****   */
 596:../../../libs/smtc-hal-mcu-stm32l4/third_party/STM32CubeL4/Drivers/STM32L4xx_HAL_Driver/Inc/stm32l4xx_ll_rng.h **** __STATIC_INLINE void LL_RNG_DisableIT(RNG_TypeDef *RNGx)
 597:../../../libs/smtc-hal-mcu-stm32l4/third_party/STM32CubeL4/Drivers/STM32L4xx_HAL_Driver/Inc/stm32l4xx_ll_rng.h **** {
 598:../../../libs/smtc-hal-mcu-stm32l4/third_party/STM32CubeL4/Drivers/STM32L4xx_HAL_Driver/Inc/stm32l4xx_ll_rng.h ****   CLEAR_BIT(RNGx->CR, RNG_CR_IE);
 599:../../../libs/smtc-hal-mcu-stm32l4/third_party/STM32CubeL4/Drivers/STM32L4xx_HAL_Driver/Inc/stm32l4xx_ll_rng.h **** }
 600:../../../libs/smtc-hal-mcu-stm32l4/third_party/STM32CubeL4/Drivers/STM32L4xx_HAL_Driver/Inc/stm32l4xx_ll_rng.h **** 
 601:../../../libs/smtc-hal-mcu-stm32l4/third_party/STM32CubeL4/Drivers/STM32L4xx_HAL_Driver/Inc/stm32l4xx_ll_rng.h **** /**
 602:../../../libs/smtc-hal-mcu-stm32l4/third_party/STM32CubeL4/Drivers/STM32L4xx_HAL_Driver/Inc/stm32l4xx_ll_rng.h ****   * @brief  Check if Random Number Generator Interrupt is enabled
 603:../../../libs/smtc-hal-mcu-stm32l4/third_party/STM32CubeL4/Drivers/STM32L4xx_HAL_Driver/Inc/stm32l4xx_ll_rng.h ****   *         (applies for either Seed error, Clock Error or Data ready interrupts)
 604:../../../libs/smtc-hal-mcu-stm32l4/third_party/STM32CubeL4/Drivers/STM32L4xx_HAL_Driver/Inc/stm32l4xx_ll_rng.h ****   * @rmtoll CR           IE            LL_RNG_IsEnabledIT
 605:../../../libs/smtc-hal-mcu-stm32l4/third_party/STM32CubeL4/Drivers/STM32L4xx_HAL_Driver/Inc/stm32l4xx_ll_rng.h ****   * @param  RNGx RNG Instance
 606:../../../libs/smtc-hal-mcu-stm32l4/third_party/STM32CubeL4/Drivers/STM32L4xx_HAL_Driver/Inc/stm32l4xx_ll_rng.h ****   * @retval State of bit (1 or 0).
 607:../../../libs/smtc-hal-mcu-stm32l4/third_party/STM32CubeL4/Drivers/STM32L4xx_HAL_Driver/Inc/stm32l4xx_ll_rng.h ****   */
 608:../../../libs/smtc-hal-mcu-stm32l4/third_party/STM32CubeL4/Drivers/STM32L4xx_HAL_Driver/Inc/stm32l4xx_ll_rng.h **** __STATIC_INLINE uint32_t LL_RNG_IsEnabledIT(RNG_TypeDef *RNGx)
 609:../../../libs/smtc-hal-mcu-stm32l4/third_party/STM32CubeL4/Drivers/STM32L4xx_HAL_Driver/Inc/stm32l4xx_ll_rng.h **** {
 610:../../../libs/smtc-hal-mcu-stm32l4/third_party/STM32CubeL4/Drivers/STM32L4xx_HAL_Driver/Inc/stm32l4xx_ll_rng.h ****   return ((READ_BIT(RNGx->CR, RNG_CR_IE) == (RNG_CR_IE)) ? 1UL : 0UL);
 611:../../../libs/smtc-hal-mcu-stm32l4/third_party/STM32CubeL4/Drivers/STM32L4xx_HAL_Driver/Inc/stm32l4xx_ll_rng.h **** }
 612:../../../libs/smtc-hal-mcu-stm32l4/third_party/STM32CubeL4/Drivers/STM32L4xx_HAL_Driver/Inc/stm32l4xx_ll_rng.h **** 
 613:../../../libs/smtc-hal-mcu-stm32l4/third_party/STM32CubeL4/Drivers/STM32L4xx_HAL_Driver/Inc/stm32l4xx_ll_rng.h **** /**
 614:../../../libs/smtc-hal-mcu-stm32l4/third_party/STM32CubeL4/Drivers/STM32L4xx_HAL_Driver/Inc/stm32l4xx_ll_rng.h ****   * @}
 615:../../../libs/smtc-hal-mcu-stm32l4/third_party/STM32CubeL4/Drivers/STM32L4xx_HAL_Driver/Inc/stm32l4xx_ll_rng.h ****   */
 616:../../../libs/smtc-hal-mcu-stm32l4/third_party/STM32CubeL4/Drivers/STM32L4xx_HAL_Driver/Inc/stm32l4xx_ll_rng.h **** 
 617:../../../libs/smtc-hal-mcu-stm32l4/third_party/STM32CubeL4/Drivers/STM32L4xx_HAL_Driver/Inc/stm32l4xx_ll_rng.h **** /** @defgroup RNG_LL_EF_Data_Management Data Management
 618:../../../libs/smtc-hal-mcu-stm32l4/third_party/STM32CubeL4/Drivers/STM32L4xx_HAL_Driver/Inc/stm32l4xx_ll_rng.h ****   * @{
 619:../../../libs/smtc-hal-mcu-stm32l4/third_party/STM32CubeL4/Drivers/STM32L4xx_HAL_Driver/Inc/stm32l4xx_ll_rng.h ****   */
 620:../../../libs/smtc-hal-mcu-stm32l4/third_party/STM32CubeL4/Drivers/STM32L4xx_HAL_Driver/Inc/stm32l4xx_ll_rng.h **** 
 621:../../../libs/smtc-hal-mcu-stm32l4/third_party/STM32CubeL4/Drivers/STM32L4xx_HAL_Driver/Inc/stm32l4xx_ll_rng.h **** /**
 622:../../../libs/smtc-hal-mcu-stm32l4/third_party/STM32CubeL4/Drivers/STM32L4xx_HAL_Driver/Inc/stm32l4xx_ll_rng.h ****   * @brief  Return32-bit Random Number value
 623:../../../libs/smtc-hal-mcu-stm32l4/third_party/STM32CubeL4/Drivers/STM32L4xx_HAL_Driver/Inc/stm32l4xx_ll_rng.h ****   * @rmtoll DR           RNDATA        LL_RNG_ReadRandData32
 624:../../../libs/smtc-hal-mcu-stm32l4/third_party/STM32CubeL4/Drivers/STM32L4xx_HAL_Driver/Inc/stm32l4xx_ll_rng.h ****   * @param  RNGx RNG Instance
 625:../../../libs/smtc-hal-mcu-stm32l4/third_party/STM32CubeL4/Drivers/STM32L4xx_HAL_Driver/Inc/stm32l4xx_ll_rng.h ****   * @retval Generated 32-bit random value
 626:../../../libs/smtc-hal-mcu-stm32l4/third_party/STM32CubeL4/Drivers/STM32L4xx_HAL_Driver/Inc/stm32l4xx_ll_rng.h ****   */
 627:../../../libs/smtc-hal-mcu-stm32l4/third_party/STM32CubeL4/Drivers/STM32L4xx_HAL_Driver/Inc/stm32l4xx_ll_rng.h **** __STATIC_INLINE uint32_t LL_RNG_ReadRandData32(RNG_TypeDef *RNGx)
 628:../../../libs/smtc-hal-mcu-stm32l4/third_party/STM32CubeL4/Drivers/STM32L4xx_HAL_Driver/Inc/stm32l4xx_ll_rng.h **** {
 347              		.loc 2 628 1
 348              		.cfi_startproc
 349              		@ args = 0, pretend = 0, frame = 8
 350              		@ frame_needed = 1, uses_anonymous_args = 0
 351              		@ link register save eliminated.
 352 0000 80B4     		push	{r7}
 353              	.LCFI36:
 354              		.cfi_def_cfa_offset 4
ARM GAS  C:\msys64\tmp\ccUcdgty.s 			page 18


 355              		.cfi_offset 7, -4
 356 0002 83B0     		sub	sp, sp, #12
 357              	.LCFI37:
 358              		.cfi_def_cfa_offset 16
 359 0004 00AF     		add	r7, sp, #0
 360              	.LCFI38:
 361              		.cfi_def_cfa_register 7
 362 0006 7860     		str	r0, [r7, #4]
 629:../../../libs/smtc-hal-mcu-stm32l4/third_party/STM32CubeL4/Drivers/STM32L4xx_HAL_Driver/Inc/stm32l4xx_ll_rng.h ****   return (uint32_t)(READ_REG(RNGx->DR));
 363              		.loc 2 629 10
 364 0008 7B68     		ldr	r3, [r7, #4]
 365 000a 9B68     		ldr	r3, [r3, #8]
 630:../../../libs/smtc-hal-mcu-stm32l4/third_party/STM32CubeL4/Drivers/STM32L4xx_HAL_Driver/Inc/stm32l4xx_ll_rng.h **** }
 366              		.loc 2 630 1
 367 000c 1846     		mov	r0, r3
 368 000e 0C37     		adds	r7, r7, #12
 369              	.LCFI39:
 370              		.cfi_def_cfa_offset 4
 371 0010 BD46     		mov	sp, r7
 372              	.LCFI40:
 373              		.cfi_def_cfa_register 13
 374              		@ sp needed
 375 0012 5DF8047B 		ldr	r7, [sp], #4
 376              	.LCFI41:
 377              		.cfi_restore 7
 378              		.cfi_def_cfa_offset 0
 379 0016 7047     		bx	lr
 380              		.cfi_endproc
 381              	.LFE145:
 383              		.section	.text.LL_AHB2_GRP1_EnableClock,"ax",%progbits
 384              		.align	1
 385              		.syntax unified
 386              		.thumb
 387              		.thumb_func
 389              	LL_AHB2_GRP1_EnableClock:
 390              	.LFB153:
 391              		.file 3 "../../../libs/smtc-hal-mcu-stm32l4/third_party/STM32CubeL4/Drivers/STM32L4xx_HAL_Driver/I
   1:../../../libs/smtc-hal-mcu-stm32l4/third_party/STM32CubeL4/Drivers/STM32L4xx_HAL_Driver/Inc/stm32l4xx_ll_bus.h **** /**
   2:../../../libs/smtc-hal-mcu-stm32l4/third_party/STM32CubeL4/Drivers/STM32L4xx_HAL_Driver/Inc/stm32l4xx_ll_bus.h ****   ******************************************************************************
   3:../../../libs/smtc-hal-mcu-stm32l4/third_party/STM32CubeL4/Drivers/STM32L4xx_HAL_Driver/Inc/stm32l4xx_ll_bus.h ****   * @file    stm32l4xx_ll_bus.h
   4:../../../libs/smtc-hal-mcu-stm32l4/third_party/STM32CubeL4/Drivers/STM32L4xx_HAL_Driver/Inc/stm32l4xx_ll_bus.h ****   * @author  MCD Application Team
   5:../../../libs/smtc-hal-mcu-stm32l4/third_party/STM32CubeL4/Drivers/STM32L4xx_HAL_Driver/Inc/stm32l4xx_ll_bus.h ****   * @brief   Header file of BUS LL module.
   6:../../../libs/smtc-hal-mcu-stm32l4/third_party/STM32CubeL4/Drivers/STM32L4xx_HAL_Driver/Inc/stm32l4xx_ll_bus.h **** 
   7:../../../libs/smtc-hal-mcu-stm32l4/third_party/STM32CubeL4/Drivers/STM32L4xx_HAL_Driver/Inc/stm32l4xx_ll_bus.h ****   @verbatim
   8:../../../libs/smtc-hal-mcu-stm32l4/third_party/STM32CubeL4/Drivers/STM32L4xx_HAL_Driver/Inc/stm32l4xx_ll_bus.h ****                       ##### RCC Limitations #####
   9:../../../libs/smtc-hal-mcu-stm32l4/third_party/STM32CubeL4/Drivers/STM32L4xx_HAL_Driver/Inc/stm32l4xx_ll_bus.h ****   ==============================================================================
  10:../../../libs/smtc-hal-mcu-stm32l4/third_party/STM32CubeL4/Drivers/STM32L4xx_HAL_Driver/Inc/stm32l4xx_ll_bus.h ****     [..]
  11:../../../libs/smtc-hal-mcu-stm32l4/third_party/STM32CubeL4/Drivers/STM32L4xx_HAL_Driver/Inc/stm32l4xx_ll_bus.h ****       A delay between an RCC peripheral clock enable and the effective peripheral
  12:../../../libs/smtc-hal-mcu-stm32l4/third_party/STM32CubeL4/Drivers/STM32L4xx_HAL_Driver/Inc/stm32l4xx_ll_bus.h ****       enabling should be taken into account in order to manage the peripheral read/write
  13:../../../libs/smtc-hal-mcu-stm32l4/third_party/STM32CubeL4/Drivers/STM32L4xx_HAL_Driver/Inc/stm32l4xx_ll_bus.h ****       from/to registers.
  14:../../../libs/smtc-hal-mcu-stm32l4/third_party/STM32CubeL4/Drivers/STM32L4xx_HAL_Driver/Inc/stm32l4xx_ll_bus.h ****       (+) This delay depends on the peripheral mapping.
  15:../../../libs/smtc-hal-mcu-stm32l4/third_party/STM32CubeL4/Drivers/STM32L4xx_HAL_Driver/Inc/stm32l4xx_ll_bus.h ****         (++) AHB & APB peripherals, 1 dummy read is necessary
  16:../../../libs/smtc-hal-mcu-stm32l4/third_party/STM32CubeL4/Drivers/STM32L4xx_HAL_Driver/Inc/stm32l4xx_ll_bus.h **** 
  17:../../../libs/smtc-hal-mcu-stm32l4/third_party/STM32CubeL4/Drivers/STM32L4xx_HAL_Driver/Inc/stm32l4xx_ll_bus.h ****     [..]
  18:../../../libs/smtc-hal-mcu-stm32l4/third_party/STM32CubeL4/Drivers/STM32L4xx_HAL_Driver/Inc/stm32l4xx_ll_bus.h ****       Workarounds:
  19:../../../libs/smtc-hal-mcu-stm32l4/third_party/STM32CubeL4/Drivers/STM32L4xx_HAL_Driver/Inc/stm32l4xx_ll_bus.h ****       (#) For AHB & APB peripherals, a dummy read to the peripheral register has been
  20:../../../libs/smtc-hal-mcu-stm32l4/third_party/STM32CubeL4/Drivers/STM32L4xx_HAL_Driver/Inc/stm32l4xx_ll_bus.h ****           inserted in each LL_{BUS}_GRP{x}_EnableClock() function.
ARM GAS  C:\msys64\tmp\ccUcdgty.s 			page 19


  21:../../../libs/smtc-hal-mcu-stm32l4/third_party/STM32CubeL4/Drivers/STM32L4xx_HAL_Driver/Inc/stm32l4xx_ll_bus.h **** 
  22:../../../libs/smtc-hal-mcu-stm32l4/third_party/STM32CubeL4/Drivers/STM32L4xx_HAL_Driver/Inc/stm32l4xx_ll_bus.h ****   @endverbatim
  23:../../../libs/smtc-hal-mcu-stm32l4/third_party/STM32CubeL4/Drivers/STM32L4xx_HAL_Driver/Inc/stm32l4xx_ll_bus.h ****   ******************************************************************************
  24:../../../libs/smtc-hal-mcu-stm32l4/third_party/STM32CubeL4/Drivers/STM32L4xx_HAL_Driver/Inc/stm32l4xx_ll_bus.h ****   * @attention
  25:../../../libs/smtc-hal-mcu-stm32l4/third_party/STM32CubeL4/Drivers/STM32L4xx_HAL_Driver/Inc/stm32l4xx_ll_bus.h ****   *
  26:../../../libs/smtc-hal-mcu-stm32l4/third_party/STM32CubeL4/Drivers/STM32L4xx_HAL_Driver/Inc/stm32l4xx_ll_bus.h ****   * Copyright (c) 2017 STMicroelectronics.
  27:../../../libs/smtc-hal-mcu-stm32l4/third_party/STM32CubeL4/Drivers/STM32L4xx_HAL_Driver/Inc/stm32l4xx_ll_bus.h ****   * All rights reserved.
  28:../../../libs/smtc-hal-mcu-stm32l4/third_party/STM32CubeL4/Drivers/STM32L4xx_HAL_Driver/Inc/stm32l4xx_ll_bus.h ****   *
  29:../../../libs/smtc-hal-mcu-stm32l4/third_party/STM32CubeL4/Drivers/STM32L4xx_HAL_Driver/Inc/stm32l4xx_ll_bus.h ****   * This software is licensed under terms that can be found in the LICENSE file in
  30:../../../libs/smtc-hal-mcu-stm32l4/third_party/STM32CubeL4/Drivers/STM32L4xx_HAL_Driver/Inc/stm32l4xx_ll_bus.h ****   * the root directory of this software component.
  31:../../../libs/smtc-hal-mcu-stm32l4/third_party/STM32CubeL4/Drivers/STM32L4xx_HAL_Driver/Inc/stm32l4xx_ll_bus.h ****   * If no LICENSE file comes with this software, it is provided AS-IS.
  32:../../../libs/smtc-hal-mcu-stm32l4/third_party/STM32CubeL4/Drivers/STM32L4xx_HAL_Driver/Inc/stm32l4xx_ll_bus.h ****   ******************************************************************************
  33:../../../libs/smtc-hal-mcu-stm32l4/third_party/STM32CubeL4/Drivers/STM32L4xx_HAL_Driver/Inc/stm32l4xx_ll_bus.h ****   */
  34:../../../libs/smtc-hal-mcu-stm32l4/third_party/STM32CubeL4/Drivers/STM32L4xx_HAL_Driver/Inc/stm32l4xx_ll_bus.h **** 
  35:../../../libs/smtc-hal-mcu-stm32l4/third_party/STM32CubeL4/Drivers/STM32L4xx_HAL_Driver/Inc/stm32l4xx_ll_bus.h **** /* Define to prevent recursive inclusion -------------------------------------*/
  36:../../../libs/smtc-hal-mcu-stm32l4/third_party/STM32CubeL4/Drivers/STM32L4xx_HAL_Driver/Inc/stm32l4xx_ll_bus.h **** #ifndef STM32L4xx_LL_BUS_H
  37:../../../libs/smtc-hal-mcu-stm32l4/third_party/STM32CubeL4/Drivers/STM32L4xx_HAL_Driver/Inc/stm32l4xx_ll_bus.h **** #define STM32L4xx_LL_BUS_H
  38:../../../libs/smtc-hal-mcu-stm32l4/third_party/STM32CubeL4/Drivers/STM32L4xx_HAL_Driver/Inc/stm32l4xx_ll_bus.h **** 
  39:../../../libs/smtc-hal-mcu-stm32l4/third_party/STM32CubeL4/Drivers/STM32L4xx_HAL_Driver/Inc/stm32l4xx_ll_bus.h **** #ifdef __cplusplus
  40:../../../libs/smtc-hal-mcu-stm32l4/third_party/STM32CubeL4/Drivers/STM32L4xx_HAL_Driver/Inc/stm32l4xx_ll_bus.h **** extern "C" {
  41:../../../libs/smtc-hal-mcu-stm32l4/third_party/STM32CubeL4/Drivers/STM32L4xx_HAL_Driver/Inc/stm32l4xx_ll_bus.h **** #endif
  42:../../../libs/smtc-hal-mcu-stm32l4/third_party/STM32CubeL4/Drivers/STM32L4xx_HAL_Driver/Inc/stm32l4xx_ll_bus.h **** 
  43:../../../libs/smtc-hal-mcu-stm32l4/third_party/STM32CubeL4/Drivers/STM32L4xx_HAL_Driver/Inc/stm32l4xx_ll_bus.h **** /* Includes ------------------------------------------------------------------*/
  44:../../../libs/smtc-hal-mcu-stm32l4/third_party/STM32CubeL4/Drivers/STM32L4xx_HAL_Driver/Inc/stm32l4xx_ll_bus.h **** #include "stm32l4xx.h"
  45:../../../libs/smtc-hal-mcu-stm32l4/third_party/STM32CubeL4/Drivers/STM32L4xx_HAL_Driver/Inc/stm32l4xx_ll_bus.h **** 
  46:../../../libs/smtc-hal-mcu-stm32l4/third_party/STM32CubeL4/Drivers/STM32L4xx_HAL_Driver/Inc/stm32l4xx_ll_bus.h **** /** @addtogroup STM32L4xx_LL_Driver
  47:../../../libs/smtc-hal-mcu-stm32l4/third_party/STM32CubeL4/Drivers/STM32L4xx_HAL_Driver/Inc/stm32l4xx_ll_bus.h ****   * @{
  48:../../../libs/smtc-hal-mcu-stm32l4/third_party/STM32CubeL4/Drivers/STM32L4xx_HAL_Driver/Inc/stm32l4xx_ll_bus.h ****   */
  49:../../../libs/smtc-hal-mcu-stm32l4/third_party/STM32CubeL4/Drivers/STM32L4xx_HAL_Driver/Inc/stm32l4xx_ll_bus.h **** 
  50:../../../libs/smtc-hal-mcu-stm32l4/third_party/STM32CubeL4/Drivers/STM32L4xx_HAL_Driver/Inc/stm32l4xx_ll_bus.h **** #if defined(RCC)
  51:../../../libs/smtc-hal-mcu-stm32l4/third_party/STM32CubeL4/Drivers/STM32L4xx_HAL_Driver/Inc/stm32l4xx_ll_bus.h **** 
  52:../../../libs/smtc-hal-mcu-stm32l4/third_party/STM32CubeL4/Drivers/STM32L4xx_HAL_Driver/Inc/stm32l4xx_ll_bus.h **** /** @defgroup BUS_LL BUS
  53:../../../libs/smtc-hal-mcu-stm32l4/third_party/STM32CubeL4/Drivers/STM32L4xx_HAL_Driver/Inc/stm32l4xx_ll_bus.h ****   * @{
  54:../../../libs/smtc-hal-mcu-stm32l4/third_party/STM32CubeL4/Drivers/STM32L4xx_HAL_Driver/Inc/stm32l4xx_ll_bus.h ****   */
  55:../../../libs/smtc-hal-mcu-stm32l4/third_party/STM32CubeL4/Drivers/STM32L4xx_HAL_Driver/Inc/stm32l4xx_ll_bus.h **** 
  56:../../../libs/smtc-hal-mcu-stm32l4/third_party/STM32CubeL4/Drivers/STM32L4xx_HAL_Driver/Inc/stm32l4xx_ll_bus.h **** /* Private types -------------------------------------------------------------*/
  57:../../../libs/smtc-hal-mcu-stm32l4/third_party/STM32CubeL4/Drivers/STM32L4xx_HAL_Driver/Inc/stm32l4xx_ll_bus.h **** /* Private variables ---------------------------------------------------------*/
  58:../../../libs/smtc-hal-mcu-stm32l4/third_party/STM32CubeL4/Drivers/STM32L4xx_HAL_Driver/Inc/stm32l4xx_ll_bus.h **** 
  59:../../../libs/smtc-hal-mcu-stm32l4/third_party/STM32CubeL4/Drivers/STM32L4xx_HAL_Driver/Inc/stm32l4xx_ll_bus.h **** /* Private constants ---------------------------------------------------------*/
  60:../../../libs/smtc-hal-mcu-stm32l4/third_party/STM32CubeL4/Drivers/STM32L4xx_HAL_Driver/Inc/stm32l4xx_ll_bus.h **** 
  61:../../../libs/smtc-hal-mcu-stm32l4/third_party/STM32CubeL4/Drivers/STM32L4xx_HAL_Driver/Inc/stm32l4xx_ll_bus.h **** /* Private macros ------------------------------------------------------------*/
  62:../../../libs/smtc-hal-mcu-stm32l4/third_party/STM32CubeL4/Drivers/STM32L4xx_HAL_Driver/Inc/stm32l4xx_ll_bus.h **** 
  63:../../../libs/smtc-hal-mcu-stm32l4/third_party/STM32CubeL4/Drivers/STM32L4xx_HAL_Driver/Inc/stm32l4xx_ll_bus.h **** /* Exported types ------------------------------------------------------------*/
  64:../../../libs/smtc-hal-mcu-stm32l4/third_party/STM32CubeL4/Drivers/STM32L4xx_HAL_Driver/Inc/stm32l4xx_ll_bus.h **** /* Exported constants --------------------------------------------------------*/
  65:../../../libs/smtc-hal-mcu-stm32l4/third_party/STM32CubeL4/Drivers/STM32L4xx_HAL_Driver/Inc/stm32l4xx_ll_bus.h **** /** @defgroup BUS_LL_Exported_Constants BUS Exported Constants
  66:../../../libs/smtc-hal-mcu-stm32l4/third_party/STM32CubeL4/Drivers/STM32L4xx_HAL_Driver/Inc/stm32l4xx_ll_bus.h ****   * @{
  67:../../../libs/smtc-hal-mcu-stm32l4/third_party/STM32CubeL4/Drivers/STM32L4xx_HAL_Driver/Inc/stm32l4xx_ll_bus.h ****   */
  68:../../../libs/smtc-hal-mcu-stm32l4/third_party/STM32CubeL4/Drivers/STM32L4xx_HAL_Driver/Inc/stm32l4xx_ll_bus.h **** 
  69:../../../libs/smtc-hal-mcu-stm32l4/third_party/STM32CubeL4/Drivers/STM32L4xx_HAL_Driver/Inc/stm32l4xx_ll_bus.h **** /** @defgroup BUS_LL_EC_AHB1_GRP1_PERIPH  AHB1 GRP1 PERIPH
  70:../../../libs/smtc-hal-mcu-stm32l4/third_party/STM32CubeL4/Drivers/STM32L4xx_HAL_Driver/Inc/stm32l4xx_ll_bus.h ****   * @{
  71:../../../libs/smtc-hal-mcu-stm32l4/third_party/STM32CubeL4/Drivers/STM32L4xx_HAL_Driver/Inc/stm32l4xx_ll_bus.h ****   */
  72:../../../libs/smtc-hal-mcu-stm32l4/third_party/STM32CubeL4/Drivers/STM32L4xx_HAL_Driver/Inc/stm32l4xx_ll_bus.h **** #define LL_AHB1_GRP1_PERIPH_ALL            0xFFFFFFFFU
  73:../../../libs/smtc-hal-mcu-stm32l4/third_party/STM32CubeL4/Drivers/STM32L4xx_HAL_Driver/Inc/stm32l4xx_ll_bus.h **** #define LL_AHB1_GRP1_PERIPH_DMA1           RCC_AHB1ENR_DMA1EN
  74:../../../libs/smtc-hal-mcu-stm32l4/third_party/STM32CubeL4/Drivers/STM32L4xx_HAL_Driver/Inc/stm32l4xx_ll_bus.h **** #define LL_AHB1_GRP1_PERIPH_DMA2           RCC_AHB1ENR_DMA2EN
  75:../../../libs/smtc-hal-mcu-stm32l4/third_party/STM32CubeL4/Drivers/STM32L4xx_HAL_Driver/Inc/stm32l4xx_ll_bus.h **** #if defined(DMAMUX1)
  76:../../../libs/smtc-hal-mcu-stm32l4/third_party/STM32CubeL4/Drivers/STM32L4xx_HAL_Driver/Inc/stm32l4xx_ll_bus.h **** #define LL_AHB1_GRP1_PERIPH_DMAMUX1        RCC_AHB1ENR_DMAMUX1EN
  77:../../../libs/smtc-hal-mcu-stm32l4/third_party/STM32CubeL4/Drivers/STM32L4xx_HAL_Driver/Inc/stm32l4xx_ll_bus.h **** #endif /* DMAMUX1 */
ARM GAS  C:\msys64\tmp\ccUcdgty.s 			page 20


  78:../../../libs/smtc-hal-mcu-stm32l4/third_party/STM32CubeL4/Drivers/STM32L4xx_HAL_Driver/Inc/stm32l4xx_ll_bus.h **** #define LL_AHB1_GRP1_PERIPH_FLASH          RCC_AHB1ENR_FLASHEN
  79:../../../libs/smtc-hal-mcu-stm32l4/third_party/STM32CubeL4/Drivers/STM32L4xx_HAL_Driver/Inc/stm32l4xx_ll_bus.h **** #define LL_AHB1_GRP1_PERIPH_CRC            RCC_AHB1ENR_CRCEN
  80:../../../libs/smtc-hal-mcu-stm32l4/third_party/STM32CubeL4/Drivers/STM32L4xx_HAL_Driver/Inc/stm32l4xx_ll_bus.h **** #define LL_AHB1_GRP1_PERIPH_TSC            RCC_AHB1ENR_TSCEN
  81:../../../libs/smtc-hal-mcu-stm32l4/third_party/STM32CubeL4/Drivers/STM32L4xx_HAL_Driver/Inc/stm32l4xx_ll_bus.h **** #if defined(DMA2D)
  82:../../../libs/smtc-hal-mcu-stm32l4/third_party/STM32CubeL4/Drivers/STM32L4xx_HAL_Driver/Inc/stm32l4xx_ll_bus.h **** #define LL_AHB1_GRP1_PERIPH_DMA2D          RCC_AHB1ENR_DMA2DEN
  83:../../../libs/smtc-hal-mcu-stm32l4/third_party/STM32CubeL4/Drivers/STM32L4xx_HAL_Driver/Inc/stm32l4xx_ll_bus.h **** #endif /* DMA2D */
  84:../../../libs/smtc-hal-mcu-stm32l4/third_party/STM32CubeL4/Drivers/STM32L4xx_HAL_Driver/Inc/stm32l4xx_ll_bus.h **** #if defined(GFXMMU)
  85:../../../libs/smtc-hal-mcu-stm32l4/third_party/STM32CubeL4/Drivers/STM32L4xx_HAL_Driver/Inc/stm32l4xx_ll_bus.h **** #define LL_AHB1_GRP1_PERIPH_GFXMMU         RCC_AHB1ENR_GFXMMUEN
  86:../../../libs/smtc-hal-mcu-stm32l4/third_party/STM32CubeL4/Drivers/STM32L4xx_HAL_Driver/Inc/stm32l4xx_ll_bus.h **** #endif /* GFXMMU */
  87:../../../libs/smtc-hal-mcu-stm32l4/third_party/STM32CubeL4/Drivers/STM32L4xx_HAL_Driver/Inc/stm32l4xx_ll_bus.h **** #define LL_AHB1_GRP1_PERIPH_SRAM1          RCC_AHB1SMENR_SRAM1SMEN
  88:../../../libs/smtc-hal-mcu-stm32l4/third_party/STM32CubeL4/Drivers/STM32L4xx_HAL_Driver/Inc/stm32l4xx_ll_bus.h **** /**
  89:../../../libs/smtc-hal-mcu-stm32l4/third_party/STM32CubeL4/Drivers/STM32L4xx_HAL_Driver/Inc/stm32l4xx_ll_bus.h ****   * @}
  90:../../../libs/smtc-hal-mcu-stm32l4/third_party/STM32CubeL4/Drivers/STM32L4xx_HAL_Driver/Inc/stm32l4xx_ll_bus.h ****   */
  91:../../../libs/smtc-hal-mcu-stm32l4/third_party/STM32CubeL4/Drivers/STM32L4xx_HAL_Driver/Inc/stm32l4xx_ll_bus.h **** 
  92:../../../libs/smtc-hal-mcu-stm32l4/third_party/STM32CubeL4/Drivers/STM32L4xx_HAL_Driver/Inc/stm32l4xx_ll_bus.h **** /** @defgroup BUS_LL_EC_AHB2_GRP1_PERIPH  AHB2 GRP1 PERIPH
  93:../../../libs/smtc-hal-mcu-stm32l4/third_party/STM32CubeL4/Drivers/STM32L4xx_HAL_Driver/Inc/stm32l4xx_ll_bus.h ****   * @{
  94:../../../libs/smtc-hal-mcu-stm32l4/third_party/STM32CubeL4/Drivers/STM32L4xx_HAL_Driver/Inc/stm32l4xx_ll_bus.h ****   */
  95:../../../libs/smtc-hal-mcu-stm32l4/third_party/STM32CubeL4/Drivers/STM32L4xx_HAL_Driver/Inc/stm32l4xx_ll_bus.h **** #define LL_AHB2_GRP1_PERIPH_ALL            0xFFFFFFFFU
  96:../../../libs/smtc-hal-mcu-stm32l4/third_party/STM32CubeL4/Drivers/STM32L4xx_HAL_Driver/Inc/stm32l4xx_ll_bus.h **** #define LL_AHB2_GRP1_PERIPH_GPIOA          RCC_AHB2ENR_GPIOAEN
  97:../../../libs/smtc-hal-mcu-stm32l4/third_party/STM32CubeL4/Drivers/STM32L4xx_HAL_Driver/Inc/stm32l4xx_ll_bus.h **** #define LL_AHB2_GRP1_PERIPH_GPIOB          RCC_AHB2ENR_GPIOBEN
  98:../../../libs/smtc-hal-mcu-stm32l4/third_party/STM32CubeL4/Drivers/STM32L4xx_HAL_Driver/Inc/stm32l4xx_ll_bus.h **** #define LL_AHB2_GRP1_PERIPH_GPIOC          RCC_AHB2ENR_GPIOCEN
  99:../../../libs/smtc-hal-mcu-stm32l4/third_party/STM32CubeL4/Drivers/STM32L4xx_HAL_Driver/Inc/stm32l4xx_ll_bus.h **** #if defined(GPIOD)
 100:../../../libs/smtc-hal-mcu-stm32l4/third_party/STM32CubeL4/Drivers/STM32L4xx_HAL_Driver/Inc/stm32l4xx_ll_bus.h **** #define LL_AHB2_GRP1_PERIPH_GPIOD          RCC_AHB2ENR_GPIODEN
 101:../../../libs/smtc-hal-mcu-stm32l4/third_party/STM32CubeL4/Drivers/STM32L4xx_HAL_Driver/Inc/stm32l4xx_ll_bus.h **** #endif /*GPIOD*/
 102:../../../libs/smtc-hal-mcu-stm32l4/third_party/STM32CubeL4/Drivers/STM32L4xx_HAL_Driver/Inc/stm32l4xx_ll_bus.h **** #if defined(GPIOE)
 103:../../../libs/smtc-hal-mcu-stm32l4/third_party/STM32CubeL4/Drivers/STM32L4xx_HAL_Driver/Inc/stm32l4xx_ll_bus.h **** #define LL_AHB2_GRP1_PERIPH_GPIOE          RCC_AHB2ENR_GPIOEEN
 104:../../../libs/smtc-hal-mcu-stm32l4/third_party/STM32CubeL4/Drivers/STM32L4xx_HAL_Driver/Inc/stm32l4xx_ll_bus.h **** #endif /*GPIOE*/
 105:../../../libs/smtc-hal-mcu-stm32l4/third_party/STM32CubeL4/Drivers/STM32L4xx_HAL_Driver/Inc/stm32l4xx_ll_bus.h **** #if defined(GPIOF)
 106:../../../libs/smtc-hal-mcu-stm32l4/third_party/STM32CubeL4/Drivers/STM32L4xx_HAL_Driver/Inc/stm32l4xx_ll_bus.h **** #define LL_AHB2_GRP1_PERIPH_GPIOF          RCC_AHB2ENR_GPIOFEN
 107:../../../libs/smtc-hal-mcu-stm32l4/third_party/STM32CubeL4/Drivers/STM32L4xx_HAL_Driver/Inc/stm32l4xx_ll_bus.h **** #endif /* GPIOF */
 108:../../../libs/smtc-hal-mcu-stm32l4/third_party/STM32CubeL4/Drivers/STM32L4xx_HAL_Driver/Inc/stm32l4xx_ll_bus.h **** #if defined(GPIOG)
 109:../../../libs/smtc-hal-mcu-stm32l4/third_party/STM32CubeL4/Drivers/STM32L4xx_HAL_Driver/Inc/stm32l4xx_ll_bus.h **** #define LL_AHB2_GRP1_PERIPH_GPIOG          RCC_AHB2ENR_GPIOGEN
 110:../../../libs/smtc-hal-mcu-stm32l4/third_party/STM32CubeL4/Drivers/STM32L4xx_HAL_Driver/Inc/stm32l4xx_ll_bus.h **** #endif /* GPIOG */
 111:../../../libs/smtc-hal-mcu-stm32l4/third_party/STM32CubeL4/Drivers/STM32L4xx_HAL_Driver/Inc/stm32l4xx_ll_bus.h **** #define LL_AHB2_GRP1_PERIPH_GPIOH          RCC_AHB2ENR_GPIOHEN
 112:../../../libs/smtc-hal-mcu-stm32l4/third_party/STM32CubeL4/Drivers/STM32L4xx_HAL_Driver/Inc/stm32l4xx_ll_bus.h **** #if defined(GPIOI)
 113:../../../libs/smtc-hal-mcu-stm32l4/third_party/STM32CubeL4/Drivers/STM32L4xx_HAL_Driver/Inc/stm32l4xx_ll_bus.h **** #define LL_AHB2_GRP1_PERIPH_GPIOI          RCC_AHB2ENR_GPIOIEN
 114:../../../libs/smtc-hal-mcu-stm32l4/third_party/STM32CubeL4/Drivers/STM32L4xx_HAL_Driver/Inc/stm32l4xx_ll_bus.h **** #endif /* GPIOI */
 115:../../../libs/smtc-hal-mcu-stm32l4/third_party/STM32CubeL4/Drivers/STM32L4xx_HAL_Driver/Inc/stm32l4xx_ll_bus.h **** #if defined(USB_OTG_FS)
 116:../../../libs/smtc-hal-mcu-stm32l4/third_party/STM32CubeL4/Drivers/STM32L4xx_HAL_Driver/Inc/stm32l4xx_ll_bus.h **** #define LL_AHB2_GRP1_PERIPH_OTGFS          RCC_AHB2ENR_OTGFSEN
 117:../../../libs/smtc-hal-mcu-stm32l4/third_party/STM32CubeL4/Drivers/STM32L4xx_HAL_Driver/Inc/stm32l4xx_ll_bus.h **** #endif /* USB_OTG_FS */
 118:../../../libs/smtc-hal-mcu-stm32l4/third_party/STM32CubeL4/Drivers/STM32L4xx_HAL_Driver/Inc/stm32l4xx_ll_bus.h **** #define LL_AHB2_GRP1_PERIPH_ADC            RCC_AHB2ENR_ADCEN
 119:../../../libs/smtc-hal-mcu-stm32l4/third_party/STM32CubeL4/Drivers/STM32L4xx_HAL_Driver/Inc/stm32l4xx_ll_bus.h **** #if defined(DCMI)
 120:../../../libs/smtc-hal-mcu-stm32l4/third_party/STM32CubeL4/Drivers/STM32L4xx_HAL_Driver/Inc/stm32l4xx_ll_bus.h **** #define LL_AHB2_GRP1_PERIPH_DCMI           RCC_AHB2ENR_DCMIEN
 121:../../../libs/smtc-hal-mcu-stm32l4/third_party/STM32CubeL4/Drivers/STM32L4xx_HAL_Driver/Inc/stm32l4xx_ll_bus.h **** #endif /* DCMI */
 122:../../../libs/smtc-hal-mcu-stm32l4/third_party/STM32CubeL4/Drivers/STM32L4xx_HAL_Driver/Inc/stm32l4xx_ll_bus.h **** #if defined(AES)
 123:../../../libs/smtc-hal-mcu-stm32l4/third_party/STM32CubeL4/Drivers/STM32L4xx_HAL_Driver/Inc/stm32l4xx_ll_bus.h **** #define LL_AHB2_GRP1_PERIPH_AES            RCC_AHB2ENR_AESEN
 124:../../../libs/smtc-hal-mcu-stm32l4/third_party/STM32CubeL4/Drivers/STM32L4xx_HAL_Driver/Inc/stm32l4xx_ll_bus.h **** #endif /* AES */
 125:../../../libs/smtc-hal-mcu-stm32l4/third_party/STM32CubeL4/Drivers/STM32L4xx_HAL_Driver/Inc/stm32l4xx_ll_bus.h **** #if defined(HASH)
 126:../../../libs/smtc-hal-mcu-stm32l4/third_party/STM32CubeL4/Drivers/STM32L4xx_HAL_Driver/Inc/stm32l4xx_ll_bus.h **** #define LL_AHB2_GRP1_PERIPH_HASH           RCC_AHB2ENR_HASHEN
 127:../../../libs/smtc-hal-mcu-stm32l4/third_party/STM32CubeL4/Drivers/STM32L4xx_HAL_Driver/Inc/stm32l4xx_ll_bus.h **** #endif /* HASH */
 128:../../../libs/smtc-hal-mcu-stm32l4/third_party/STM32CubeL4/Drivers/STM32L4xx_HAL_Driver/Inc/stm32l4xx_ll_bus.h **** #define LL_AHB2_GRP1_PERIPH_RNG            RCC_AHB2ENR_RNGEN
 129:../../../libs/smtc-hal-mcu-stm32l4/third_party/STM32CubeL4/Drivers/STM32L4xx_HAL_Driver/Inc/stm32l4xx_ll_bus.h **** #if defined(OCTOSPIM)
 130:../../../libs/smtc-hal-mcu-stm32l4/third_party/STM32CubeL4/Drivers/STM32L4xx_HAL_Driver/Inc/stm32l4xx_ll_bus.h **** #define LL_AHB2_GRP1_PERIPH_OSPIM          RCC_AHB2ENR_OSPIMEN
 131:../../../libs/smtc-hal-mcu-stm32l4/third_party/STM32CubeL4/Drivers/STM32L4xx_HAL_Driver/Inc/stm32l4xx_ll_bus.h **** #endif /* OCTOSPIM */
 132:../../../libs/smtc-hal-mcu-stm32l4/third_party/STM32CubeL4/Drivers/STM32L4xx_HAL_Driver/Inc/stm32l4xx_ll_bus.h **** #if defined(PKA)
 133:../../../libs/smtc-hal-mcu-stm32l4/third_party/STM32CubeL4/Drivers/STM32L4xx_HAL_Driver/Inc/stm32l4xx_ll_bus.h **** #define LL_AHB2_GRP1_PERIPH_PKA            RCC_AHB2ENR_PKAEN
 134:../../../libs/smtc-hal-mcu-stm32l4/third_party/STM32CubeL4/Drivers/STM32L4xx_HAL_Driver/Inc/stm32l4xx_ll_bus.h **** #endif /* PKA */
ARM GAS  C:\msys64\tmp\ccUcdgty.s 			page 21


 135:../../../libs/smtc-hal-mcu-stm32l4/third_party/STM32CubeL4/Drivers/STM32L4xx_HAL_Driver/Inc/stm32l4xx_ll_bus.h **** #if defined(SDMMC1) && defined(RCC_AHB2ENR_SDMMC1EN)
 136:../../../libs/smtc-hal-mcu-stm32l4/third_party/STM32CubeL4/Drivers/STM32L4xx_HAL_Driver/Inc/stm32l4xx_ll_bus.h **** #define LL_AHB2_GRP1_PERIPH_SDMMC1         RCC_AHB2ENR_SDMMC1EN
 137:../../../libs/smtc-hal-mcu-stm32l4/third_party/STM32CubeL4/Drivers/STM32L4xx_HAL_Driver/Inc/stm32l4xx_ll_bus.h **** #endif /* SDMMC1 && RCC_AHB2ENR_SDMMC1EN */
 138:../../../libs/smtc-hal-mcu-stm32l4/third_party/STM32CubeL4/Drivers/STM32L4xx_HAL_Driver/Inc/stm32l4xx_ll_bus.h **** #define LL_AHB2_GRP1_PERIPH_SRAM2          RCC_AHB2SMENR_SRAM2SMEN
 139:../../../libs/smtc-hal-mcu-stm32l4/third_party/STM32CubeL4/Drivers/STM32L4xx_HAL_Driver/Inc/stm32l4xx_ll_bus.h **** #if defined(SRAM3_BASE)
 140:../../../libs/smtc-hal-mcu-stm32l4/third_party/STM32CubeL4/Drivers/STM32L4xx_HAL_Driver/Inc/stm32l4xx_ll_bus.h **** #define LL_AHB2_GRP1_PERIPH_SRAM3          RCC_AHB2SMENR_SRAM3SMEN
 141:../../../libs/smtc-hal-mcu-stm32l4/third_party/STM32CubeL4/Drivers/STM32L4xx_HAL_Driver/Inc/stm32l4xx_ll_bus.h **** #endif /* SRAM3_BASE */
 142:../../../libs/smtc-hal-mcu-stm32l4/third_party/STM32CubeL4/Drivers/STM32L4xx_HAL_Driver/Inc/stm32l4xx_ll_bus.h **** /**
 143:../../../libs/smtc-hal-mcu-stm32l4/third_party/STM32CubeL4/Drivers/STM32L4xx_HAL_Driver/Inc/stm32l4xx_ll_bus.h ****   * @}
 144:../../../libs/smtc-hal-mcu-stm32l4/third_party/STM32CubeL4/Drivers/STM32L4xx_HAL_Driver/Inc/stm32l4xx_ll_bus.h ****   */
 145:../../../libs/smtc-hal-mcu-stm32l4/third_party/STM32CubeL4/Drivers/STM32L4xx_HAL_Driver/Inc/stm32l4xx_ll_bus.h **** 
 146:../../../libs/smtc-hal-mcu-stm32l4/third_party/STM32CubeL4/Drivers/STM32L4xx_HAL_Driver/Inc/stm32l4xx_ll_bus.h **** /** @defgroup BUS_LL_EC_AHB3_GRP1_PERIPH  AHB3 GRP1 PERIPH
 147:../../../libs/smtc-hal-mcu-stm32l4/third_party/STM32CubeL4/Drivers/STM32L4xx_HAL_Driver/Inc/stm32l4xx_ll_bus.h ****   * @{
 148:../../../libs/smtc-hal-mcu-stm32l4/third_party/STM32CubeL4/Drivers/STM32L4xx_HAL_Driver/Inc/stm32l4xx_ll_bus.h ****   */
 149:../../../libs/smtc-hal-mcu-stm32l4/third_party/STM32CubeL4/Drivers/STM32L4xx_HAL_Driver/Inc/stm32l4xx_ll_bus.h **** #define LL_AHB3_GRP1_PERIPH_ALL            0xFFFFFFFFU
 150:../../../libs/smtc-hal-mcu-stm32l4/third_party/STM32CubeL4/Drivers/STM32L4xx_HAL_Driver/Inc/stm32l4xx_ll_bus.h **** #if defined(FMC_Bank1_R)
 151:../../../libs/smtc-hal-mcu-stm32l4/third_party/STM32CubeL4/Drivers/STM32L4xx_HAL_Driver/Inc/stm32l4xx_ll_bus.h **** #define LL_AHB3_GRP1_PERIPH_FMC            RCC_AHB3ENR_FMCEN
 152:../../../libs/smtc-hal-mcu-stm32l4/third_party/STM32CubeL4/Drivers/STM32L4xx_HAL_Driver/Inc/stm32l4xx_ll_bus.h **** #endif /* FMC_Bank1_R */
 153:../../../libs/smtc-hal-mcu-stm32l4/third_party/STM32CubeL4/Drivers/STM32L4xx_HAL_Driver/Inc/stm32l4xx_ll_bus.h **** #if defined(QUADSPI)
 154:../../../libs/smtc-hal-mcu-stm32l4/third_party/STM32CubeL4/Drivers/STM32L4xx_HAL_Driver/Inc/stm32l4xx_ll_bus.h **** #define LL_AHB3_GRP1_PERIPH_QSPI           RCC_AHB3ENR_QSPIEN
 155:../../../libs/smtc-hal-mcu-stm32l4/third_party/STM32CubeL4/Drivers/STM32L4xx_HAL_Driver/Inc/stm32l4xx_ll_bus.h **** #endif /* QUADSPI */
 156:../../../libs/smtc-hal-mcu-stm32l4/third_party/STM32CubeL4/Drivers/STM32L4xx_HAL_Driver/Inc/stm32l4xx_ll_bus.h **** #if defined(OCTOSPI1)
 157:../../../libs/smtc-hal-mcu-stm32l4/third_party/STM32CubeL4/Drivers/STM32L4xx_HAL_Driver/Inc/stm32l4xx_ll_bus.h **** #define LL_AHB3_GRP1_PERIPH_OSPI1          RCC_AHB3ENR_OSPI1EN
 158:../../../libs/smtc-hal-mcu-stm32l4/third_party/STM32CubeL4/Drivers/STM32L4xx_HAL_Driver/Inc/stm32l4xx_ll_bus.h **** #endif /* OCTOSPI1 */
 159:../../../libs/smtc-hal-mcu-stm32l4/third_party/STM32CubeL4/Drivers/STM32L4xx_HAL_Driver/Inc/stm32l4xx_ll_bus.h **** #if defined(OCTOSPI2)
 160:../../../libs/smtc-hal-mcu-stm32l4/third_party/STM32CubeL4/Drivers/STM32L4xx_HAL_Driver/Inc/stm32l4xx_ll_bus.h **** #define LL_AHB3_GRP1_PERIPH_OSPI2          RCC_AHB3ENR_OSPI2EN
 161:../../../libs/smtc-hal-mcu-stm32l4/third_party/STM32CubeL4/Drivers/STM32L4xx_HAL_Driver/Inc/stm32l4xx_ll_bus.h **** #endif /* OCTOSPI2 */
 162:../../../libs/smtc-hal-mcu-stm32l4/third_party/STM32CubeL4/Drivers/STM32L4xx_HAL_Driver/Inc/stm32l4xx_ll_bus.h **** /**
 163:../../../libs/smtc-hal-mcu-stm32l4/third_party/STM32CubeL4/Drivers/STM32L4xx_HAL_Driver/Inc/stm32l4xx_ll_bus.h ****   * @}
 164:../../../libs/smtc-hal-mcu-stm32l4/third_party/STM32CubeL4/Drivers/STM32L4xx_HAL_Driver/Inc/stm32l4xx_ll_bus.h ****   */
 165:../../../libs/smtc-hal-mcu-stm32l4/third_party/STM32CubeL4/Drivers/STM32L4xx_HAL_Driver/Inc/stm32l4xx_ll_bus.h **** 
 166:../../../libs/smtc-hal-mcu-stm32l4/third_party/STM32CubeL4/Drivers/STM32L4xx_HAL_Driver/Inc/stm32l4xx_ll_bus.h **** /** @defgroup BUS_LL_EC_APB1_GRP1_PERIPH  APB1 GRP1 PERIPH
 167:../../../libs/smtc-hal-mcu-stm32l4/third_party/STM32CubeL4/Drivers/STM32L4xx_HAL_Driver/Inc/stm32l4xx_ll_bus.h ****   * @{
 168:../../../libs/smtc-hal-mcu-stm32l4/third_party/STM32CubeL4/Drivers/STM32L4xx_HAL_Driver/Inc/stm32l4xx_ll_bus.h ****   */
 169:../../../libs/smtc-hal-mcu-stm32l4/third_party/STM32CubeL4/Drivers/STM32L4xx_HAL_Driver/Inc/stm32l4xx_ll_bus.h **** #define LL_APB1_GRP1_PERIPH_ALL            0xFFFFFFFFU
 170:../../../libs/smtc-hal-mcu-stm32l4/third_party/STM32CubeL4/Drivers/STM32L4xx_HAL_Driver/Inc/stm32l4xx_ll_bus.h **** #define LL_APB1_GRP1_PERIPH_TIM2           RCC_APB1ENR1_TIM2EN
 171:../../../libs/smtc-hal-mcu-stm32l4/third_party/STM32CubeL4/Drivers/STM32L4xx_HAL_Driver/Inc/stm32l4xx_ll_bus.h **** #if defined(TIM3)
 172:../../../libs/smtc-hal-mcu-stm32l4/third_party/STM32CubeL4/Drivers/STM32L4xx_HAL_Driver/Inc/stm32l4xx_ll_bus.h **** #define LL_APB1_GRP1_PERIPH_TIM3           RCC_APB1ENR1_TIM3EN
 173:../../../libs/smtc-hal-mcu-stm32l4/third_party/STM32CubeL4/Drivers/STM32L4xx_HAL_Driver/Inc/stm32l4xx_ll_bus.h **** #endif /* TIM3 */
 174:../../../libs/smtc-hal-mcu-stm32l4/third_party/STM32CubeL4/Drivers/STM32L4xx_HAL_Driver/Inc/stm32l4xx_ll_bus.h **** #if defined(TIM4)
 175:../../../libs/smtc-hal-mcu-stm32l4/third_party/STM32CubeL4/Drivers/STM32L4xx_HAL_Driver/Inc/stm32l4xx_ll_bus.h **** #define LL_APB1_GRP1_PERIPH_TIM4           RCC_APB1ENR1_TIM4EN
 176:../../../libs/smtc-hal-mcu-stm32l4/third_party/STM32CubeL4/Drivers/STM32L4xx_HAL_Driver/Inc/stm32l4xx_ll_bus.h **** #endif /* TIM4 */
 177:../../../libs/smtc-hal-mcu-stm32l4/third_party/STM32CubeL4/Drivers/STM32L4xx_HAL_Driver/Inc/stm32l4xx_ll_bus.h **** #if defined(TIM5)
 178:../../../libs/smtc-hal-mcu-stm32l4/third_party/STM32CubeL4/Drivers/STM32L4xx_HAL_Driver/Inc/stm32l4xx_ll_bus.h **** #define LL_APB1_GRP1_PERIPH_TIM5           RCC_APB1ENR1_TIM5EN
 179:../../../libs/smtc-hal-mcu-stm32l4/third_party/STM32CubeL4/Drivers/STM32L4xx_HAL_Driver/Inc/stm32l4xx_ll_bus.h **** #endif /* TIM5 */
 180:../../../libs/smtc-hal-mcu-stm32l4/third_party/STM32CubeL4/Drivers/STM32L4xx_HAL_Driver/Inc/stm32l4xx_ll_bus.h **** #define LL_APB1_GRP1_PERIPH_TIM6           RCC_APB1ENR1_TIM6EN
 181:../../../libs/smtc-hal-mcu-stm32l4/third_party/STM32CubeL4/Drivers/STM32L4xx_HAL_Driver/Inc/stm32l4xx_ll_bus.h **** #define LL_APB1_GRP1_PERIPH_TIM7           RCC_APB1ENR1_TIM7EN
 182:../../../libs/smtc-hal-mcu-stm32l4/third_party/STM32CubeL4/Drivers/STM32L4xx_HAL_Driver/Inc/stm32l4xx_ll_bus.h **** #if defined(LCD)
 183:../../../libs/smtc-hal-mcu-stm32l4/third_party/STM32CubeL4/Drivers/STM32L4xx_HAL_Driver/Inc/stm32l4xx_ll_bus.h **** #define LL_APB1_GRP1_PERIPH_LCD            RCC_APB1ENR1_LCDEN
 184:../../../libs/smtc-hal-mcu-stm32l4/third_party/STM32CubeL4/Drivers/STM32L4xx_HAL_Driver/Inc/stm32l4xx_ll_bus.h **** #endif /* LCD */
 185:../../../libs/smtc-hal-mcu-stm32l4/third_party/STM32CubeL4/Drivers/STM32L4xx_HAL_Driver/Inc/stm32l4xx_ll_bus.h **** #if defined(RCC_APB1ENR1_RTCAPBEN)
 186:../../../libs/smtc-hal-mcu-stm32l4/third_party/STM32CubeL4/Drivers/STM32L4xx_HAL_Driver/Inc/stm32l4xx_ll_bus.h **** #define LL_APB1_GRP1_PERIPH_RTCAPB         RCC_APB1ENR1_RTCAPBEN
 187:../../../libs/smtc-hal-mcu-stm32l4/third_party/STM32CubeL4/Drivers/STM32L4xx_HAL_Driver/Inc/stm32l4xx_ll_bus.h **** #endif /* RCC_APB1ENR1_RTCAPBEN */
 188:../../../libs/smtc-hal-mcu-stm32l4/third_party/STM32CubeL4/Drivers/STM32L4xx_HAL_Driver/Inc/stm32l4xx_ll_bus.h **** #define LL_APB1_GRP1_PERIPH_WWDG           RCC_APB1ENR1_WWDGEN
 189:../../../libs/smtc-hal-mcu-stm32l4/third_party/STM32CubeL4/Drivers/STM32L4xx_HAL_Driver/Inc/stm32l4xx_ll_bus.h **** #if defined(SPI2)
 190:../../../libs/smtc-hal-mcu-stm32l4/third_party/STM32CubeL4/Drivers/STM32L4xx_HAL_Driver/Inc/stm32l4xx_ll_bus.h **** #define LL_APB1_GRP1_PERIPH_SPI2           RCC_APB1ENR1_SPI2EN
 191:../../../libs/smtc-hal-mcu-stm32l4/third_party/STM32CubeL4/Drivers/STM32L4xx_HAL_Driver/Inc/stm32l4xx_ll_bus.h **** #endif /* SPI2 */
ARM GAS  C:\msys64\tmp\ccUcdgty.s 			page 22


 192:../../../libs/smtc-hal-mcu-stm32l4/third_party/STM32CubeL4/Drivers/STM32L4xx_HAL_Driver/Inc/stm32l4xx_ll_bus.h **** #define LL_APB1_GRP1_PERIPH_SPI3           RCC_APB1ENR1_SPI3EN
 193:../../../libs/smtc-hal-mcu-stm32l4/third_party/STM32CubeL4/Drivers/STM32L4xx_HAL_Driver/Inc/stm32l4xx_ll_bus.h **** #define LL_APB1_GRP1_PERIPH_USART2         RCC_APB1ENR1_USART2EN
 194:../../../libs/smtc-hal-mcu-stm32l4/third_party/STM32CubeL4/Drivers/STM32L4xx_HAL_Driver/Inc/stm32l4xx_ll_bus.h **** #if defined(USART3)
 195:../../../libs/smtc-hal-mcu-stm32l4/third_party/STM32CubeL4/Drivers/STM32L4xx_HAL_Driver/Inc/stm32l4xx_ll_bus.h **** #define LL_APB1_GRP1_PERIPH_USART3         RCC_APB1ENR1_USART3EN
 196:../../../libs/smtc-hal-mcu-stm32l4/third_party/STM32CubeL4/Drivers/STM32L4xx_HAL_Driver/Inc/stm32l4xx_ll_bus.h **** #endif /* USART3 */
 197:../../../libs/smtc-hal-mcu-stm32l4/third_party/STM32CubeL4/Drivers/STM32L4xx_HAL_Driver/Inc/stm32l4xx_ll_bus.h **** #if defined(UART4)
 198:../../../libs/smtc-hal-mcu-stm32l4/third_party/STM32CubeL4/Drivers/STM32L4xx_HAL_Driver/Inc/stm32l4xx_ll_bus.h **** #define LL_APB1_GRP1_PERIPH_UART4          RCC_APB1ENR1_UART4EN
 199:../../../libs/smtc-hal-mcu-stm32l4/third_party/STM32CubeL4/Drivers/STM32L4xx_HAL_Driver/Inc/stm32l4xx_ll_bus.h **** #endif /* UART4 */
 200:../../../libs/smtc-hal-mcu-stm32l4/third_party/STM32CubeL4/Drivers/STM32L4xx_HAL_Driver/Inc/stm32l4xx_ll_bus.h **** #if defined(UART5)
 201:../../../libs/smtc-hal-mcu-stm32l4/third_party/STM32CubeL4/Drivers/STM32L4xx_HAL_Driver/Inc/stm32l4xx_ll_bus.h **** #define LL_APB1_GRP1_PERIPH_UART5          RCC_APB1ENR1_UART5EN
 202:../../../libs/smtc-hal-mcu-stm32l4/third_party/STM32CubeL4/Drivers/STM32L4xx_HAL_Driver/Inc/stm32l4xx_ll_bus.h **** #endif /* UART5 */
 203:../../../libs/smtc-hal-mcu-stm32l4/third_party/STM32CubeL4/Drivers/STM32L4xx_HAL_Driver/Inc/stm32l4xx_ll_bus.h **** #define LL_APB1_GRP1_PERIPH_I2C1           RCC_APB1ENR1_I2C1EN
 204:../../../libs/smtc-hal-mcu-stm32l4/third_party/STM32CubeL4/Drivers/STM32L4xx_HAL_Driver/Inc/stm32l4xx_ll_bus.h **** #if defined(I2C2)
 205:../../../libs/smtc-hal-mcu-stm32l4/third_party/STM32CubeL4/Drivers/STM32L4xx_HAL_Driver/Inc/stm32l4xx_ll_bus.h **** #define LL_APB1_GRP1_PERIPH_I2C2           RCC_APB1ENR1_I2C2EN
 206:../../../libs/smtc-hal-mcu-stm32l4/third_party/STM32CubeL4/Drivers/STM32L4xx_HAL_Driver/Inc/stm32l4xx_ll_bus.h **** #endif /* I2C2 */
 207:../../../libs/smtc-hal-mcu-stm32l4/third_party/STM32CubeL4/Drivers/STM32L4xx_HAL_Driver/Inc/stm32l4xx_ll_bus.h **** #define LL_APB1_GRP1_PERIPH_I2C3           RCC_APB1ENR1_I2C3EN
 208:../../../libs/smtc-hal-mcu-stm32l4/third_party/STM32CubeL4/Drivers/STM32L4xx_HAL_Driver/Inc/stm32l4xx_ll_bus.h **** #if defined(CRS)
 209:../../../libs/smtc-hal-mcu-stm32l4/third_party/STM32CubeL4/Drivers/STM32L4xx_HAL_Driver/Inc/stm32l4xx_ll_bus.h **** #define LL_APB1_GRP1_PERIPH_CRS            RCC_APB1ENR1_CRSEN
 210:../../../libs/smtc-hal-mcu-stm32l4/third_party/STM32CubeL4/Drivers/STM32L4xx_HAL_Driver/Inc/stm32l4xx_ll_bus.h **** #endif /* CRS */
 211:../../../libs/smtc-hal-mcu-stm32l4/third_party/STM32CubeL4/Drivers/STM32L4xx_HAL_Driver/Inc/stm32l4xx_ll_bus.h **** #define LL_APB1_GRP1_PERIPH_CAN1           RCC_APB1ENR1_CAN1EN
 212:../../../libs/smtc-hal-mcu-stm32l4/third_party/STM32CubeL4/Drivers/STM32L4xx_HAL_Driver/Inc/stm32l4xx_ll_bus.h **** #if defined(CAN2)
 213:../../../libs/smtc-hal-mcu-stm32l4/third_party/STM32CubeL4/Drivers/STM32L4xx_HAL_Driver/Inc/stm32l4xx_ll_bus.h **** #define LL_APB1_GRP1_PERIPH_CAN2           RCC_APB1ENR1_CAN2EN
 214:../../../libs/smtc-hal-mcu-stm32l4/third_party/STM32CubeL4/Drivers/STM32L4xx_HAL_Driver/Inc/stm32l4xx_ll_bus.h **** #endif /* CAN2 */
 215:../../../libs/smtc-hal-mcu-stm32l4/third_party/STM32CubeL4/Drivers/STM32L4xx_HAL_Driver/Inc/stm32l4xx_ll_bus.h **** #if defined(USB)
 216:../../../libs/smtc-hal-mcu-stm32l4/third_party/STM32CubeL4/Drivers/STM32L4xx_HAL_Driver/Inc/stm32l4xx_ll_bus.h **** #define LL_APB1_GRP1_PERIPH_USB            RCC_APB1ENR1_USBFSEN
 217:../../../libs/smtc-hal-mcu-stm32l4/third_party/STM32CubeL4/Drivers/STM32L4xx_HAL_Driver/Inc/stm32l4xx_ll_bus.h **** #endif /* USB */
 218:../../../libs/smtc-hal-mcu-stm32l4/third_party/STM32CubeL4/Drivers/STM32L4xx_HAL_Driver/Inc/stm32l4xx_ll_bus.h **** #define LL_APB1_GRP1_PERIPH_PWR            RCC_APB1ENR1_PWREN
 219:../../../libs/smtc-hal-mcu-stm32l4/third_party/STM32CubeL4/Drivers/STM32L4xx_HAL_Driver/Inc/stm32l4xx_ll_bus.h **** #define LL_APB1_GRP1_PERIPH_DAC1           RCC_APB1ENR1_DAC1EN
 220:../../../libs/smtc-hal-mcu-stm32l4/third_party/STM32CubeL4/Drivers/STM32L4xx_HAL_Driver/Inc/stm32l4xx_ll_bus.h **** #define LL_APB1_GRP1_PERIPH_OPAMP          RCC_APB1ENR1_OPAMPEN
 221:../../../libs/smtc-hal-mcu-stm32l4/third_party/STM32CubeL4/Drivers/STM32L4xx_HAL_Driver/Inc/stm32l4xx_ll_bus.h **** #define LL_APB1_GRP1_PERIPH_LPTIM1         RCC_APB1ENR1_LPTIM1EN
 222:../../../libs/smtc-hal-mcu-stm32l4/third_party/STM32CubeL4/Drivers/STM32L4xx_HAL_Driver/Inc/stm32l4xx_ll_bus.h **** /**
 223:../../../libs/smtc-hal-mcu-stm32l4/third_party/STM32CubeL4/Drivers/STM32L4xx_HAL_Driver/Inc/stm32l4xx_ll_bus.h ****   * @}
 224:../../../libs/smtc-hal-mcu-stm32l4/third_party/STM32CubeL4/Drivers/STM32L4xx_HAL_Driver/Inc/stm32l4xx_ll_bus.h ****   */
 225:../../../libs/smtc-hal-mcu-stm32l4/third_party/STM32CubeL4/Drivers/STM32L4xx_HAL_Driver/Inc/stm32l4xx_ll_bus.h **** 
 226:../../../libs/smtc-hal-mcu-stm32l4/third_party/STM32CubeL4/Drivers/STM32L4xx_HAL_Driver/Inc/stm32l4xx_ll_bus.h **** 
 227:../../../libs/smtc-hal-mcu-stm32l4/third_party/STM32CubeL4/Drivers/STM32L4xx_HAL_Driver/Inc/stm32l4xx_ll_bus.h **** /** @defgroup BUS_LL_EC_APB1_GRP2_PERIPH  APB1 GRP2 PERIPH
 228:../../../libs/smtc-hal-mcu-stm32l4/third_party/STM32CubeL4/Drivers/STM32L4xx_HAL_Driver/Inc/stm32l4xx_ll_bus.h ****   * @{
 229:../../../libs/smtc-hal-mcu-stm32l4/third_party/STM32CubeL4/Drivers/STM32L4xx_HAL_Driver/Inc/stm32l4xx_ll_bus.h ****   */
 230:../../../libs/smtc-hal-mcu-stm32l4/third_party/STM32CubeL4/Drivers/STM32L4xx_HAL_Driver/Inc/stm32l4xx_ll_bus.h **** #define LL_APB1_GRP2_PERIPH_ALL            0xFFFFFFFFU
 231:../../../libs/smtc-hal-mcu-stm32l4/third_party/STM32CubeL4/Drivers/STM32L4xx_HAL_Driver/Inc/stm32l4xx_ll_bus.h **** #define LL_APB1_GRP2_PERIPH_LPUART1        RCC_APB1ENR2_LPUART1EN
 232:../../../libs/smtc-hal-mcu-stm32l4/third_party/STM32CubeL4/Drivers/STM32L4xx_HAL_Driver/Inc/stm32l4xx_ll_bus.h **** #if defined(I2C4)
 233:../../../libs/smtc-hal-mcu-stm32l4/third_party/STM32CubeL4/Drivers/STM32L4xx_HAL_Driver/Inc/stm32l4xx_ll_bus.h **** #define LL_APB1_GRP2_PERIPH_I2C4           RCC_APB1ENR2_I2C4EN
 234:../../../libs/smtc-hal-mcu-stm32l4/third_party/STM32CubeL4/Drivers/STM32L4xx_HAL_Driver/Inc/stm32l4xx_ll_bus.h **** #endif /* I2C4 */
 235:../../../libs/smtc-hal-mcu-stm32l4/third_party/STM32CubeL4/Drivers/STM32L4xx_HAL_Driver/Inc/stm32l4xx_ll_bus.h **** #if defined(SWPMI1)
 236:../../../libs/smtc-hal-mcu-stm32l4/third_party/STM32CubeL4/Drivers/STM32L4xx_HAL_Driver/Inc/stm32l4xx_ll_bus.h **** #define LL_APB1_GRP2_PERIPH_SWPMI1         RCC_APB1ENR2_SWPMI1EN
 237:../../../libs/smtc-hal-mcu-stm32l4/third_party/STM32CubeL4/Drivers/STM32L4xx_HAL_Driver/Inc/stm32l4xx_ll_bus.h **** #endif /* SWPMI1 */
 238:../../../libs/smtc-hal-mcu-stm32l4/third_party/STM32CubeL4/Drivers/STM32L4xx_HAL_Driver/Inc/stm32l4xx_ll_bus.h **** #define LL_APB1_GRP2_PERIPH_LPTIM2         RCC_APB1ENR2_LPTIM2EN
 239:../../../libs/smtc-hal-mcu-stm32l4/third_party/STM32CubeL4/Drivers/STM32L4xx_HAL_Driver/Inc/stm32l4xx_ll_bus.h **** /**
 240:../../../libs/smtc-hal-mcu-stm32l4/third_party/STM32CubeL4/Drivers/STM32L4xx_HAL_Driver/Inc/stm32l4xx_ll_bus.h ****   * @}
 241:../../../libs/smtc-hal-mcu-stm32l4/third_party/STM32CubeL4/Drivers/STM32L4xx_HAL_Driver/Inc/stm32l4xx_ll_bus.h ****   */
 242:../../../libs/smtc-hal-mcu-stm32l4/third_party/STM32CubeL4/Drivers/STM32L4xx_HAL_Driver/Inc/stm32l4xx_ll_bus.h **** 
 243:../../../libs/smtc-hal-mcu-stm32l4/third_party/STM32CubeL4/Drivers/STM32L4xx_HAL_Driver/Inc/stm32l4xx_ll_bus.h **** /** @defgroup BUS_LL_EC_APB2_GRP1_PERIPH  APB2 GRP1 PERIPH
 244:../../../libs/smtc-hal-mcu-stm32l4/third_party/STM32CubeL4/Drivers/STM32L4xx_HAL_Driver/Inc/stm32l4xx_ll_bus.h ****   * @{
 245:../../../libs/smtc-hal-mcu-stm32l4/third_party/STM32CubeL4/Drivers/STM32L4xx_HAL_Driver/Inc/stm32l4xx_ll_bus.h ****   */
 246:../../../libs/smtc-hal-mcu-stm32l4/third_party/STM32CubeL4/Drivers/STM32L4xx_HAL_Driver/Inc/stm32l4xx_ll_bus.h **** #define LL_APB2_GRP1_PERIPH_ALL            0xFFFFFFFFU
 247:../../../libs/smtc-hal-mcu-stm32l4/third_party/STM32CubeL4/Drivers/STM32L4xx_HAL_Driver/Inc/stm32l4xx_ll_bus.h **** #define LL_APB2_GRP1_PERIPH_SYSCFG         RCC_APB2ENR_SYSCFGEN
 248:../../../libs/smtc-hal-mcu-stm32l4/third_party/STM32CubeL4/Drivers/STM32L4xx_HAL_Driver/Inc/stm32l4xx_ll_bus.h **** #define LL_APB2_GRP1_PERIPH_FW             RCC_APB2ENR_FWEN
ARM GAS  C:\msys64\tmp\ccUcdgty.s 			page 23


 249:../../../libs/smtc-hal-mcu-stm32l4/third_party/STM32CubeL4/Drivers/STM32L4xx_HAL_Driver/Inc/stm32l4xx_ll_bus.h **** #if defined(SDMMC1) && defined(RCC_APB2ENR_SDMMC1EN)
 250:../../../libs/smtc-hal-mcu-stm32l4/third_party/STM32CubeL4/Drivers/STM32L4xx_HAL_Driver/Inc/stm32l4xx_ll_bus.h **** #define LL_APB2_GRP1_PERIPH_SDMMC1         RCC_APB2ENR_SDMMC1EN
 251:../../../libs/smtc-hal-mcu-stm32l4/third_party/STM32CubeL4/Drivers/STM32L4xx_HAL_Driver/Inc/stm32l4xx_ll_bus.h **** #endif /* SDMMC1 && RCC_APB2ENR_SDMMC1EN */
 252:../../../libs/smtc-hal-mcu-stm32l4/third_party/STM32CubeL4/Drivers/STM32L4xx_HAL_Driver/Inc/stm32l4xx_ll_bus.h **** #define LL_APB2_GRP1_PERIPH_TIM1           RCC_APB2ENR_TIM1EN
 253:../../../libs/smtc-hal-mcu-stm32l4/third_party/STM32CubeL4/Drivers/STM32L4xx_HAL_Driver/Inc/stm32l4xx_ll_bus.h **** #define LL_APB2_GRP1_PERIPH_SPI1           RCC_APB2ENR_SPI1EN
 254:../../../libs/smtc-hal-mcu-stm32l4/third_party/STM32CubeL4/Drivers/STM32L4xx_HAL_Driver/Inc/stm32l4xx_ll_bus.h **** #if defined(TIM8)
 255:../../../libs/smtc-hal-mcu-stm32l4/third_party/STM32CubeL4/Drivers/STM32L4xx_HAL_Driver/Inc/stm32l4xx_ll_bus.h **** #define LL_APB2_GRP1_PERIPH_TIM8           RCC_APB2ENR_TIM8EN
 256:../../../libs/smtc-hal-mcu-stm32l4/third_party/STM32CubeL4/Drivers/STM32L4xx_HAL_Driver/Inc/stm32l4xx_ll_bus.h **** #endif /* TIM8 */
 257:../../../libs/smtc-hal-mcu-stm32l4/third_party/STM32CubeL4/Drivers/STM32L4xx_HAL_Driver/Inc/stm32l4xx_ll_bus.h **** #define LL_APB2_GRP1_PERIPH_USART1         RCC_APB2ENR_USART1EN
 258:../../../libs/smtc-hal-mcu-stm32l4/third_party/STM32CubeL4/Drivers/STM32L4xx_HAL_Driver/Inc/stm32l4xx_ll_bus.h **** #define LL_APB2_GRP1_PERIPH_TIM15          RCC_APB2ENR_TIM15EN
 259:../../../libs/smtc-hal-mcu-stm32l4/third_party/STM32CubeL4/Drivers/STM32L4xx_HAL_Driver/Inc/stm32l4xx_ll_bus.h **** #define LL_APB2_GRP1_PERIPH_TIM16          RCC_APB2ENR_TIM16EN
 260:../../../libs/smtc-hal-mcu-stm32l4/third_party/STM32CubeL4/Drivers/STM32L4xx_HAL_Driver/Inc/stm32l4xx_ll_bus.h **** #if defined(TIM17)
 261:../../../libs/smtc-hal-mcu-stm32l4/third_party/STM32CubeL4/Drivers/STM32L4xx_HAL_Driver/Inc/stm32l4xx_ll_bus.h **** #define LL_APB2_GRP1_PERIPH_TIM17          RCC_APB2ENR_TIM17EN
 262:../../../libs/smtc-hal-mcu-stm32l4/third_party/STM32CubeL4/Drivers/STM32L4xx_HAL_Driver/Inc/stm32l4xx_ll_bus.h **** #endif /* TIM17 */
 263:../../../libs/smtc-hal-mcu-stm32l4/third_party/STM32CubeL4/Drivers/STM32L4xx_HAL_Driver/Inc/stm32l4xx_ll_bus.h **** #define LL_APB2_GRP1_PERIPH_SAI1           RCC_APB2ENR_SAI1EN
 264:../../../libs/smtc-hal-mcu-stm32l4/third_party/STM32CubeL4/Drivers/STM32L4xx_HAL_Driver/Inc/stm32l4xx_ll_bus.h **** #if defined(SAI2)
 265:../../../libs/smtc-hal-mcu-stm32l4/third_party/STM32CubeL4/Drivers/STM32L4xx_HAL_Driver/Inc/stm32l4xx_ll_bus.h **** #define LL_APB2_GRP1_PERIPH_SAI2           RCC_APB2ENR_SAI2EN
 266:../../../libs/smtc-hal-mcu-stm32l4/third_party/STM32CubeL4/Drivers/STM32L4xx_HAL_Driver/Inc/stm32l4xx_ll_bus.h **** #endif /* SAI2 */
 267:../../../libs/smtc-hal-mcu-stm32l4/third_party/STM32CubeL4/Drivers/STM32L4xx_HAL_Driver/Inc/stm32l4xx_ll_bus.h **** #if defined(DFSDM1_Channel0)
 268:../../../libs/smtc-hal-mcu-stm32l4/third_party/STM32CubeL4/Drivers/STM32L4xx_HAL_Driver/Inc/stm32l4xx_ll_bus.h **** #define LL_APB2_GRP1_PERIPH_DFSDM1         RCC_APB2ENR_DFSDM1EN
 269:../../../libs/smtc-hal-mcu-stm32l4/third_party/STM32CubeL4/Drivers/STM32L4xx_HAL_Driver/Inc/stm32l4xx_ll_bus.h **** #endif /* DFSDM1_Channel0 */
 270:../../../libs/smtc-hal-mcu-stm32l4/third_party/STM32CubeL4/Drivers/STM32L4xx_HAL_Driver/Inc/stm32l4xx_ll_bus.h **** #if defined(LTDC)
 271:../../../libs/smtc-hal-mcu-stm32l4/third_party/STM32CubeL4/Drivers/STM32L4xx_HAL_Driver/Inc/stm32l4xx_ll_bus.h **** #define LL_APB2_GRP1_PERIPH_LTDC           RCC_APB2ENR_LTDCEN
 272:../../../libs/smtc-hal-mcu-stm32l4/third_party/STM32CubeL4/Drivers/STM32L4xx_HAL_Driver/Inc/stm32l4xx_ll_bus.h **** #endif /* LTDC */
 273:../../../libs/smtc-hal-mcu-stm32l4/third_party/STM32CubeL4/Drivers/STM32L4xx_HAL_Driver/Inc/stm32l4xx_ll_bus.h **** #if defined(DSI)
 274:../../../libs/smtc-hal-mcu-stm32l4/third_party/STM32CubeL4/Drivers/STM32L4xx_HAL_Driver/Inc/stm32l4xx_ll_bus.h **** #define LL_APB2_GRP1_PERIPH_DSI            RCC_APB2ENR_DSIEN
 275:../../../libs/smtc-hal-mcu-stm32l4/third_party/STM32CubeL4/Drivers/STM32L4xx_HAL_Driver/Inc/stm32l4xx_ll_bus.h **** #endif /* DSI */
 276:../../../libs/smtc-hal-mcu-stm32l4/third_party/STM32CubeL4/Drivers/STM32L4xx_HAL_Driver/Inc/stm32l4xx_ll_bus.h **** /**
 277:../../../libs/smtc-hal-mcu-stm32l4/third_party/STM32CubeL4/Drivers/STM32L4xx_HAL_Driver/Inc/stm32l4xx_ll_bus.h ****   * @}
 278:../../../libs/smtc-hal-mcu-stm32l4/third_party/STM32CubeL4/Drivers/STM32L4xx_HAL_Driver/Inc/stm32l4xx_ll_bus.h ****   */
 279:../../../libs/smtc-hal-mcu-stm32l4/third_party/STM32CubeL4/Drivers/STM32L4xx_HAL_Driver/Inc/stm32l4xx_ll_bus.h **** 
 280:../../../libs/smtc-hal-mcu-stm32l4/third_party/STM32CubeL4/Drivers/STM32L4xx_HAL_Driver/Inc/stm32l4xx_ll_bus.h **** /** Legacy definitions for compatibility purpose
 281:../../../libs/smtc-hal-mcu-stm32l4/third_party/STM32CubeL4/Drivers/STM32L4xx_HAL_Driver/Inc/stm32l4xx_ll_bus.h **** @cond 0
 282:../../../libs/smtc-hal-mcu-stm32l4/third_party/STM32CubeL4/Drivers/STM32L4xx_HAL_Driver/Inc/stm32l4xx_ll_bus.h **** */
 283:../../../libs/smtc-hal-mcu-stm32l4/third_party/STM32CubeL4/Drivers/STM32L4xx_HAL_Driver/Inc/stm32l4xx_ll_bus.h **** #if defined(DFSDM1_Channel0)
 284:../../../libs/smtc-hal-mcu-stm32l4/third_party/STM32CubeL4/Drivers/STM32L4xx_HAL_Driver/Inc/stm32l4xx_ll_bus.h **** #define LL_APB2_GRP1_PERIPH_DFSDM          LL_APB2_GRP1_PERIPH_DFSDM1
 285:../../../libs/smtc-hal-mcu-stm32l4/third_party/STM32CubeL4/Drivers/STM32L4xx_HAL_Driver/Inc/stm32l4xx_ll_bus.h **** #endif /* DFSDM1_Channel0 */
 286:../../../libs/smtc-hal-mcu-stm32l4/third_party/STM32CubeL4/Drivers/STM32L4xx_HAL_Driver/Inc/stm32l4xx_ll_bus.h **** /**
 287:../../../libs/smtc-hal-mcu-stm32l4/third_party/STM32CubeL4/Drivers/STM32L4xx_HAL_Driver/Inc/stm32l4xx_ll_bus.h **** @endcond
 288:../../../libs/smtc-hal-mcu-stm32l4/third_party/STM32CubeL4/Drivers/STM32L4xx_HAL_Driver/Inc/stm32l4xx_ll_bus.h ****   */
 289:../../../libs/smtc-hal-mcu-stm32l4/third_party/STM32CubeL4/Drivers/STM32L4xx_HAL_Driver/Inc/stm32l4xx_ll_bus.h **** 
 290:../../../libs/smtc-hal-mcu-stm32l4/third_party/STM32CubeL4/Drivers/STM32L4xx_HAL_Driver/Inc/stm32l4xx_ll_bus.h **** /**
 291:../../../libs/smtc-hal-mcu-stm32l4/third_party/STM32CubeL4/Drivers/STM32L4xx_HAL_Driver/Inc/stm32l4xx_ll_bus.h ****   * @}
 292:../../../libs/smtc-hal-mcu-stm32l4/third_party/STM32CubeL4/Drivers/STM32L4xx_HAL_Driver/Inc/stm32l4xx_ll_bus.h ****   */
 293:../../../libs/smtc-hal-mcu-stm32l4/third_party/STM32CubeL4/Drivers/STM32L4xx_HAL_Driver/Inc/stm32l4xx_ll_bus.h **** 
 294:../../../libs/smtc-hal-mcu-stm32l4/third_party/STM32CubeL4/Drivers/STM32L4xx_HAL_Driver/Inc/stm32l4xx_ll_bus.h **** /* Exported macro ------------------------------------------------------------*/
 295:../../../libs/smtc-hal-mcu-stm32l4/third_party/STM32CubeL4/Drivers/STM32L4xx_HAL_Driver/Inc/stm32l4xx_ll_bus.h **** /* Exported functions --------------------------------------------------------*/
 296:../../../libs/smtc-hal-mcu-stm32l4/third_party/STM32CubeL4/Drivers/STM32L4xx_HAL_Driver/Inc/stm32l4xx_ll_bus.h **** /** @defgroup BUS_LL_Exported_Functions BUS Exported Functions
 297:../../../libs/smtc-hal-mcu-stm32l4/third_party/STM32CubeL4/Drivers/STM32L4xx_HAL_Driver/Inc/stm32l4xx_ll_bus.h ****   * @{
 298:../../../libs/smtc-hal-mcu-stm32l4/third_party/STM32CubeL4/Drivers/STM32L4xx_HAL_Driver/Inc/stm32l4xx_ll_bus.h ****   */
 299:../../../libs/smtc-hal-mcu-stm32l4/third_party/STM32CubeL4/Drivers/STM32L4xx_HAL_Driver/Inc/stm32l4xx_ll_bus.h **** 
 300:../../../libs/smtc-hal-mcu-stm32l4/third_party/STM32CubeL4/Drivers/STM32L4xx_HAL_Driver/Inc/stm32l4xx_ll_bus.h **** /** @defgroup BUS_LL_EF_AHB1 AHB1
 301:../../../libs/smtc-hal-mcu-stm32l4/third_party/STM32CubeL4/Drivers/STM32L4xx_HAL_Driver/Inc/stm32l4xx_ll_bus.h ****   * @{
 302:../../../libs/smtc-hal-mcu-stm32l4/third_party/STM32CubeL4/Drivers/STM32L4xx_HAL_Driver/Inc/stm32l4xx_ll_bus.h ****   */
 303:../../../libs/smtc-hal-mcu-stm32l4/third_party/STM32CubeL4/Drivers/STM32L4xx_HAL_Driver/Inc/stm32l4xx_ll_bus.h **** 
 304:../../../libs/smtc-hal-mcu-stm32l4/third_party/STM32CubeL4/Drivers/STM32L4xx_HAL_Driver/Inc/stm32l4xx_ll_bus.h **** /**
 305:../../../libs/smtc-hal-mcu-stm32l4/third_party/STM32CubeL4/Drivers/STM32L4xx_HAL_Driver/Inc/stm32l4xx_ll_bus.h ****   * @brief  Enable AHB1 peripherals clock.
ARM GAS  C:\msys64\tmp\ccUcdgty.s 			page 24


 306:../../../libs/smtc-hal-mcu-stm32l4/third_party/STM32CubeL4/Drivers/STM32L4xx_HAL_Driver/Inc/stm32l4xx_ll_bus.h ****   * @rmtoll AHB1ENR      DMA1EN        LL_AHB1_GRP1_EnableClock\n
 307:../../../libs/smtc-hal-mcu-stm32l4/third_party/STM32CubeL4/Drivers/STM32L4xx_HAL_Driver/Inc/stm32l4xx_ll_bus.h ****   *         AHB1ENR      DMA2EN        LL_AHB1_GRP1_EnableClock\n
 308:../../../libs/smtc-hal-mcu-stm32l4/third_party/STM32CubeL4/Drivers/STM32L4xx_HAL_Driver/Inc/stm32l4xx_ll_bus.h ****   *         AHB1ENR      DMAMUX1EN     LL_AHB1_GRP1_EnableClock\n
 309:../../../libs/smtc-hal-mcu-stm32l4/third_party/STM32CubeL4/Drivers/STM32L4xx_HAL_Driver/Inc/stm32l4xx_ll_bus.h ****   *         AHB1ENR      FLASHEN       LL_AHB1_GRP1_EnableClock\n
 310:../../../libs/smtc-hal-mcu-stm32l4/third_party/STM32CubeL4/Drivers/STM32L4xx_HAL_Driver/Inc/stm32l4xx_ll_bus.h ****   *         AHB1ENR      CRCEN         LL_AHB1_GRP1_EnableClock\n
 311:../../../libs/smtc-hal-mcu-stm32l4/third_party/STM32CubeL4/Drivers/STM32L4xx_HAL_Driver/Inc/stm32l4xx_ll_bus.h ****   *         AHB1ENR      TSCEN         LL_AHB1_GRP1_EnableClock\n
 312:../../../libs/smtc-hal-mcu-stm32l4/third_party/STM32CubeL4/Drivers/STM32L4xx_HAL_Driver/Inc/stm32l4xx_ll_bus.h ****   *         AHB1ENR      DMA2DEN       LL_AHB1_GRP1_EnableClock\n
 313:../../../libs/smtc-hal-mcu-stm32l4/third_party/STM32CubeL4/Drivers/STM32L4xx_HAL_Driver/Inc/stm32l4xx_ll_bus.h ****   *         AHB1ENR      GFXMMUEN      LL_AHB1_GRP1_EnableClock
 314:../../../libs/smtc-hal-mcu-stm32l4/third_party/STM32CubeL4/Drivers/STM32L4xx_HAL_Driver/Inc/stm32l4xx_ll_bus.h ****   * @param  Periphs This parameter can be a combination of the following values:
 315:../../../libs/smtc-hal-mcu-stm32l4/third_party/STM32CubeL4/Drivers/STM32L4xx_HAL_Driver/Inc/stm32l4xx_ll_bus.h ****   *         @arg @ref LL_AHB1_GRP1_PERIPH_DMA1
 316:../../../libs/smtc-hal-mcu-stm32l4/third_party/STM32CubeL4/Drivers/STM32L4xx_HAL_Driver/Inc/stm32l4xx_ll_bus.h ****   *         @arg @ref LL_AHB1_GRP1_PERIPH_DMA2
 317:../../../libs/smtc-hal-mcu-stm32l4/third_party/STM32CubeL4/Drivers/STM32L4xx_HAL_Driver/Inc/stm32l4xx_ll_bus.h ****   *         @arg @ref LL_AHB1_GRP1_PERIPH_DMAMUX1 (*)
 318:../../../libs/smtc-hal-mcu-stm32l4/third_party/STM32CubeL4/Drivers/STM32L4xx_HAL_Driver/Inc/stm32l4xx_ll_bus.h ****   *         @arg @ref LL_AHB1_GRP1_PERIPH_FLASH
 319:../../../libs/smtc-hal-mcu-stm32l4/third_party/STM32CubeL4/Drivers/STM32L4xx_HAL_Driver/Inc/stm32l4xx_ll_bus.h ****   *         @arg @ref LL_AHB1_GRP1_PERIPH_CRC
 320:../../../libs/smtc-hal-mcu-stm32l4/third_party/STM32CubeL4/Drivers/STM32L4xx_HAL_Driver/Inc/stm32l4xx_ll_bus.h ****   *         @arg @ref LL_AHB1_GRP1_PERIPH_TSC
 321:../../../libs/smtc-hal-mcu-stm32l4/third_party/STM32CubeL4/Drivers/STM32L4xx_HAL_Driver/Inc/stm32l4xx_ll_bus.h ****   *         @arg @ref LL_AHB1_GRP1_PERIPH_DMA2D (*)
 322:../../../libs/smtc-hal-mcu-stm32l4/third_party/STM32CubeL4/Drivers/STM32L4xx_HAL_Driver/Inc/stm32l4xx_ll_bus.h ****   *         @arg @ref LL_AHB1_GRP1_PERIPH_GFXMMU (*)
 323:../../../libs/smtc-hal-mcu-stm32l4/third_party/STM32CubeL4/Drivers/STM32L4xx_HAL_Driver/Inc/stm32l4xx_ll_bus.h ****   *
 324:../../../libs/smtc-hal-mcu-stm32l4/third_party/STM32CubeL4/Drivers/STM32L4xx_HAL_Driver/Inc/stm32l4xx_ll_bus.h ****   *         (*) value not defined in all devices.
 325:../../../libs/smtc-hal-mcu-stm32l4/third_party/STM32CubeL4/Drivers/STM32L4xx_HAL_Driver/Inc/stm32l4xx_ll_bus.h ****   * @retval None
 326:../../../libs/smtc-hal-mcu-stm32l4/third_party/STM32CubeL4/Drivers/STM32L4xx_HAL_Driver/Inc/stm32l4xx_ll_bus.h **** */
 327:../../../libs/smtc-hal-mcu-stm32l4/third_party/STM32CubeL4/Drivers/STM32L4xx_HAL_Driver/Inc/stm32l4xx_ll_bus.h **** __STATIC_INLINE void LL_AHB1_GRP1_EnableClock(uint32_t Periphs)
 328:../../../libs/smtc-hal-mcu-stm32l4/third_party/STM32CubeL4/Drivers/STM32L4xx_HAL_Driver/Inc/stm32l4xx_ll_bus.h **** {
 329:../../../libs/smtc-hal-mcu-stm32l4/third_party/STM32CubeL4/Drivers/STM32L4xx_HAL_Driver/Inc/stm32l4xx_ll_bus.h ****   __IO uint32_t tmpreg;
 330:../../../libs/smtc-hal-mcu-stm32l4/third_party/STM32CubeL4/Drivers/STM32L4xx_HAL_Driver/Inc/stm32l4xx_ll_bus.h ****   SET_BIT(RCC->AHB1ENR, Periphs);
 331:../../../libs/smtc-hal-mcu-stm32l4/third_party/STM32CubeL4/Drivers/STM32L4xx_HAL_Driver/Inc/stm32l4xx_ll_bus.h ****   /* Delay after an RCC peripheral clock enabling */
 332:../../../libs/smtc-hal-mcu-stm32l4/third_party/STM32CubeL4/Drivers/STM32L4xx_HAL_Driver/Inc/stm32l4xx_ll_bus.h ****   tmpreg = READ_BIT(RCC->AHB1ENR, Periphs);
 333:../../../libs/smtc-hal-mcu-stm32l4/third_party/STM32CubeL4/Drivers/STM32L4xx_HAL_Driver/Inc/stm32l4xx_ll_bus.h ****   (void)tmpreg;
 334:../../../libs/smtc-hal-mcu-stm32l4/third_party/STM32CubeL4/Drivers/STM32L4xx_HAL_Driver/Inc/stm32l4xx_ll_bus.h **** }
 335:../../../libs/smtc-hal-mcu-stm32l4/third_party/STM32CubeL4/Drivers/STM32L4xx_HAL_Driver/Inc/stm32l4xx_ll_bus.h **** 
 336:../../../libs/smtc-hal-mcu-stm32l4/third_party/STM32CubeL4/Drivers/STM32L4xx_HAL_Driver/Inc/stm32l4xx_ll_bus.h **** /**
 337:../../../libs/smtc-hal-mcu-stm32l4/third_party/STM32CubeL4/Drivers/STM32L4xx_HAL_Driver/Inc/stm32l4xx_ll_bus.h ****   * @brief  Check if AHB1 peripheral clock is enabled or not
 338:../../../libs/smtc-hal-mcu-stm32l4/third_party/STM32CubeL4/Drivers/STM32L4xx_HAL_Driver/Inc/stm32l4xx_ll_bus.h ****   * @rmtoll AHB1ENR      DMA1EN        LL_AHB1_GRP1_IsEnabledClock\n
 339:../../../libs/smtc-hal-mcu-stm32l4/third_party/STM32CubeL4/Drivers/STM32L4xx_HAL_Driver/Inc/stm32l4xx_ll_bus.h ****   *         AHB1ENR      DMA2EN        LL_AHB1_GRP1_IsEnabledClock\n
 340:../../../libs/smtc-hal-mcu-stm32l4/third_party/STM32CubeL4/Drivers/STM32L4xx_HAL_Driver/Inc/stm32l4xx_ll_bus.h ****   *         AHB1ENR      DMAMUX1EN     LL_AHB1_GRP1_IsEnabledClock\n
 341:../../../libs/smtc-hal-mcu-stm32l4/third_party/STM32CubeL4/Drivers/STM32L4xx_HAL_Driver/Inc/stm32l4xx_ll_bus.h ****   *         AHB1ENR      FLASHEN       LL_AHB1_GRP1_IsEnabledClock\n
 342:../../../libs/smtc-hal-mcu-stm32l4/third_party/STM32CubeL4/Drivers/STM32L4xx_HAL_Driver/Inc/stm32l4xx_ll_bus.h ****   *         AHB1ENR      CRCEN         LL_AHB1_GRP1_IsEnabledClock\n
 343:../../../libs/smtc-hal-mcu-stm32l4/third_party/STM32CubeL4/Drivers/STM32L4xx_HAL_Driver/Inc/stm32l4xx_ll_bus.h ****   *         AHB1ENR      TSCEN         LL_AHB1_GRP1_IsEnabledClock\n
 344:../../../libs/smtc-hal-mcu-stm32l4/third_party/STM32CubeL4/Drivers/STM32L4xx_HAL_Driver/Inc/stm32l4xx_ll_bus.h ****   *         AHB1ENR      DMA2DEN       LL_AHB1_GRP1_IsEnabledClock\n
 345:../../../libs/smtc-hal-mcu-stm32l4/third_party/STM32CubeL4/Drivers/STM32L4xx_HAL_Driver/Inc/stm32l4xx_ll_bus.h ****   *         AHB1ENR      GFXMMUEN      LL_AHB1_GRP1_IsEnabledClock
 346:../../../libs/smtc-hal-mcu-stm32l4/third_party/STM32CubeL4/Drivers/STM32L4xx_HAL_Driver/Inc/stm32l4xx_ll_bus.h ****   * @param  Periphs This parameter can be a combination of the following values:
 347:../../../libs/smtc-hal-mcu-stm32l4/third_party/STM32CubeL4/Drivers/STM32L4xx_HAL_Driver/Inc/stm32l4xx_ll_bus.h ****   *         @arg @ref LL_AHB1_GRP1_PERIPH_DMA1
 348:../../../libs/smtc-hal-mcu-stm32l4/third_party/STM32CubeL4/Drivers/STM32L4xx_HAL_Driver/Inc/stm32l4xx_ll_bus.h ****   *         @arg @ref LL_AHB1_GRP1_PERIPH_DMA2
 349:../../../libs/smtc-hal-mcu-stm32l4/third_party/STM32CubeL4/Drivers/STM32L4xx_HAL_Driver/Inc/stm32l4xx_ll_bus.h ****   *         @arg @ref LL_AHB1_GRP1_PERIPH_DMAMUX1 (*)
 350:../../../libs/smtc-hal-mcu-stm32l4/third_party/STM32CubeL4/Drivers/STM32L4xx_HAL_Driver/Inc/stm32l4xx_ll_bus.h ****   *         @arg @ref LL_AHB1_GRP1_PERIPH_FLASH
 351:../../../libs/smtc-hal-mcu-stm32l4/third_party/STM32CubeL4/Drivers/STM32L4xx_HAL_Driver/Inc/stm32l4xx_ll_bus.h ****   *         @arg @ref LL_AHB1_GRP1_PERIPH_CRC
 352:../../../libs/smtc-hal-mcu-stm32l4/third_party/STM32CubeL4/Drivers/STM32L4xx_HAL_Driver/Inc/stm32l4xx_ll_bus.h ****   *         @arg @ref LL_AHB1_GRP1_PERIPH_TSC
 353:../../../libs/smtc-hal-mcu-stm32l4/third_party/STM32CubeL4/Drivers/STM32L4xx_HAL_Driver/Inc/stm32l4xx_ll_bus.h ****   *         @arg @ref LL_AHB1_GRP1_PERIPH_DMA2D (*)
 354:../../../libs/smtc-hal-mcu-stm32l4/third_party/STM32CubeL4/Drivers/STM32L4xx_HAL_Driver/Inc/stm32l4xx_ll_bus.h ****   *         @arg @ref LL_AHB1_GRP1_PERIPH_GFXMMU (*)
 355:../../../libs/smtc-hal-mcu-stm32l4/third_party/STM32CubeL4/Drivers/STM32L4xx_HAL_Driver/Inc/stm32l4xx_ll_bus.h ****   *
 356:../../../libs/smtc-hal-mcu-stm32l4/third_party/STM32CubeL4/Drivers/STM32L4xx_HAL_Driver/Inc/stm32l4xx_ll_bus.h ****   *         (*) value not defined in all devices.
 357:../../../libs/smtc-hal-mcu-stm32l4/third_party/STM32CubeL4/Drivers/STM32L4xx_HAL_Driver/Inc/stm32l4xx_ll_bus.h ****   * @retval State of Periphs (1 or 0).
 358:../../../libs/smtc-hal-mcu-stm32l4/third_party/STM32CubeL4/Drivers/STM32L4xx_HAL_Driver/Inc/stm32l4xx_ll_bus.h **** */
 359:../../../libs/smtc-hal-mcu-stm32l4/third_party/STM32CubeL4/Drivers/STM32L4xx_HAL_Driver/Inc/stm32l4xx_ll_bus.h **** __STATIC_INLINE uint32_t LL_AHB1_GRP1_IsEnabledClock(uint32_t Periphs)
 360:../../../libs/smtc-hal-mcu-stm32l4/third_party/STM32CubeL4/Drivers/STM32L4xx_HAL_Driver/Inc/stm32l4xx_ll_bus.h **** {
 361:../../../libs/smtc-hal-mcu-stm32l4/third_party/STM32CubeL4/Drivers/STM32L4xx_HAL_Driver/Inc/stm32l4xx_ll_bus.h ****   return ((READ_BIT(RCC->AHB1ENR, Periphs) == Periphs) ? 1UL : 0UL);
 362:../../../libs/smtc-hal-mcu-stm32l4/third_party/STM32CubeL4/Drivers/STM32L4xx_HAL_Driver/Inc/stm32l4xx_ll_bus.h **** }
ARM GAS  C:\msys64\tmp\ccUcdgty.s 			page 25


 363:../../../libs/smtc-hal-mcu-stm32l4/third_party/STM32CubeL4/Drivers/STM32L4xx_HAL_Driver/Inc/stm32l4xx_ll_bus.h **** 
 364:../../../libs/smtc-hal-mcu-stm32l4/third_party/STM32CubeL4/Drivers/STM32L4xx_HAL_Driver/Inc/stm32l4xx_ll_bus.h **** /**
 365:../../../libs/smtc-hal-mcu-stm32l4/third_party/STM32CubeL4/Drivers/STM32L4xx_HAL_Driver/Inc/stm32l4xx_ll_bus.h ****   * @brief  Disable AHB1 peripherals clock.
 366:../../../libs/smtc-hal-mcu-stm32l4/third_party/STM32CubeL4/Drivers/STM32L4xx_HAL_Driver/Inc/stm32l4xx_ll_bus.h ****   * @rmtoll AHB1ENR      DMA1EN        LL_AHB1_GRP1_DisableClock\n
 367:../../../libs/smtc-hal-mcu-stm32l4/third_party/STM32CubeL4/Drivers/STM32L4xx_HAL_Driver/Inc/stm32l4xx_ll_bus.h ****   *         AHB1ENR      DMA2EN        LL_AHB1_GRP1_DisableClock\n
 368:../../../libs/smtc-hal-mcu-stm32l4/third_party/STM32CubeL4/Drivers/STM32L4xx_HAL_Driver/Inc/stm32l4xx_ll_bus.h ****   *         AHB1ENR      DMAMUX1EN     LL_AHB1_GRP1_DisableClock\n
 369:../../../libs/smtc-hal-mcu-stm32l4/third_party/STM32CubeL4/Drivers/STM32L4xx_HAL_Driver/Inc/stm32l4xx_ll_bus.h ****   *         AHB1ENR      FLASHEN       LL_AHB1_GRP1_DisableClock\n
 370:../../../libs/smtc-hal-mcu-stm32l4/third_party/STM32CubeL4/Drivers/STM32L4xx_HAL_Driver/Inc/stm32l4xx_ll_bus.h ****   *         AHB1ENR      CRCEN         LL_AHB1_GRP1_DisableClock\n
 371:../../../libs/smtc-hal-mcu-stm32l4/third_party/STM32CubeL4/Drivers/STM32L4xx_HAL_Driver/Inc/stm32l4xx_ll_bus.h ****   *         AHB1ENR      TSCEN         LL_AHB1_GRP1_DisableClock\n
 372:../../../libs/smtc-hal-mcu-stm32l4/third_party/STM32CubeL4/Drivers/STM32L4xx_HAL_Driver/Inc/stm32l4xx_ll_bus.h ****   *         AHB1ENR      DMA2DEN       LL_AHB1_GRP1_DisableClock\n
 373:../../../libs/smtc-hal-mcu-stm32l4/third_party/STM32CubeL4/Drivers/STM32L4xx_HAL_Driver/Inc/stm32l4xx_ll_bus.h ****   *         AHB1ENR      GFXMMUEN      LL_AHB1_GRP1_DisableClock
 374:../../../libs/smtc-hal-mcu-stm32l4/third_party/STM32CubeL4/Drivers/STM32L4xx_HAL_Driver/Inc/stm32l4xx_ll_bus.h ****   * @param  Periphs This parameter can be a combination of the following values:
 375:../../../libs/smtc-hal-mcu-stm32l4/third_party/STM32CubeL4/Drivers/STM32L4xx_HAL_Driver/Inc/stm32l4xx_ll_bus.h ****   *         @arg @ref LL_AHB1_GRP1_PERIPH_DMA1
 376:../../../libs/smtc-hal-mcu-stm32l4/third_party/STM32CubeL4/Drivers/STM32L4xx_HAL_Driver/Inc/stm32l4xx_ll_bus.h ****   *         @arg @ref LL_AHB1_GRP1_PERIPH_DMA2
 377:../../../libs/smtc-hal-mcu-stm32l4/third_party/STM32CubeL4/Drivers/STM32L4xx_HAL_Driver/Inc/stm32l4xx_ll_bus.h ****   *         @arg @ref LL_AHB1_GRP1_PERIPH_DMAMUX1 (*)
 378:../../../libs/smtc-hal-mcu-stm32l4/third_party/STM32CubeL4/Drivers/STM32L4xx_HAL_Driver/Inc/stm32l4xx_ll_bus.h ****   *         @arg @ref LL_AHB1_GRP1_PERIPH_FLASH
 379:../../../libs/smtc-hal-mcu-stm32l4/third_party/STM32CubeL4/Drivers/STM32L4xx_HAL_Driver/Inc/stm32l4xx_ll_bus.h ****   *         @arg @ref LL_AHB1_GRP1_PERIPH_CRC
 380:../../../libs/smtc-hal-mcu-stm32l4/third_party/STM32CubeL4/Drivers/STM32L4xx_HAL_Driver/Inc/stm32l4xx_ll_bus.h ****   *         @arg @ref LL_AHB1_GRP1_PERIPH_TSC
 381:../../../libs/smtc-hal-mcu-stm32l4/third_party/STM32CubeL4/Drivers/STM32L4xx_HAL_Driver/Inc/stm32l4xx_ll_bus.h ****   *         @arg @ref LL_AHB1_GRP1_PERIPH_DMA2D (*)
 382:../../../libs/smtc-hal-mcu-stm32l4/third_party/STM32CubeL4/Drivers/STM32L4xx_HAL_Driver/Inc/stm32l4xx_ll_bus.h ****   *         @arg @ref LL_AHB1_GRP1_PERIPH_GFXMMU (*)
 383:../../../libs/smtc-hal-mcu-stm32l4/third_party/STM32CubeL4/Drivers/STM32L4xx_HAL_Driver/Inc/stm32l4xx_ll_bus.h ****   *
 384:../../../libs/smtc-hal-mcu-stm32l4/third_party/STM32CubeL4/Drivers/STM32L4xx_HAL_Driver/Inc/stm32l4xx_ll_bus.h ****   *         (*) value not defined in all devices.
 385:../../../libs/smtc-hal-mcu-stm32l4/third_party/STM32CubeL4/Drivers/STM32L4xx_HAL_Driver/Inc/stm32l4xx_ll_bus.h ****   * @retval None
 386:../../../libs/smtc-hal-mcu-stm32l4/third_party/STM32CubeL4/Drivers/STM32L4xx_HAL_Driver/Inc/stm32l4xx_ll_bus.h **** */
 387:../../../libs/smtc-hal-mcu-stm32l4/third_party/STM32CubeL4/Drivers/STM32L4xx_HAL_Driver/Inc/stm32l4xx_ll_bus.h **** __STATIC_INLINE void LL_AHB1_GRP1_DisableClock(uint32_t Periphs)
 388:../../../libs/smtc-hal-mcu-stm32l4/third_party/STM32CubeL4/Drivers/STM32L4xx_HAL_Driver/Inc/stm32l4xx_ll_bus.h **** {
 389:../../../libs/smtc-hal-mcu-stm32l4/third_party/STM32CubeL4/Drivers/STM32L4xx_HAL_Driver/Inc/stm32l4xx_ll_bus.h ****   CLEAR_BIT(RCC->AHB1ENR, Periphs);
 390:../../../libs/smtc-hal-mcu-stm32l4/third_party/STM32CubeL4/Drivers/STM32L4xx_HAL_Driver/Inc/stm32l4xx_ll_bus.h **** }
 391:../../../libs/smtc-hal-mcu-stm32l4/third_party/STM32CubeL4/Drivers/STM32L4xx_HAL_Driver/Inc/stm32l4xx_ll_bus.h **** 
 392:../../../libs/smtc-hal-mcu-stm32l4/third_party/STM32CubeL4/Drivers/STM32L4xx_HAL_Driver/Inc/stm32l4xx_ll_bus.h **** /**
 393:../../../libs/smtc-hal-mcu-stm32l4/third_party/STM32CubeL4/Drivers/STM32L4xx_HAL_Driver/Inc/stm32l4xx_ll_bus.h ****   * @brief  Force AHB1 peripherals reset.
 394:../../../libs/smtc-hal-mcu-stm32l4/third_party/STM32CubeL4/Drivers/STM32L4xx_HAL_Driver/Inc/stm32l4xx_ll_bus.h ****   * @rmtoll AHB1RSTR     DMA1RST       LL_AHB1_GRP1_ForceReset\n
 395:../../../libs/smtc-hal-mcu-stm32l4/third_party/STM32CubeL4/Drivers/STM32L4xx_HAL_Driver/Inc/stm32l4xx_ll_bus.h ****   *         AHB1RSTR     DMA2RST       LL_AHB1_GRP1_ForceReset\n
 396:../../../libs/smtc-hal-mcu-stm32l4/third_party/STM32CubeL4/Drivers/STM32L4xx_HAL_Driver/Inc/stm32l4xx_ll_bus.h ****   *         AHB1RSTR     DMAMUX1RST     LL_AHB1_GRP1_ForceReset\n
 397:../../../libs/smtc-hal-mcu-stm32l4/third_party/STM32CubeL4/Drivers/STM32L4xx_HAL_Driver/Inc/stm32l4xx_ll_bus.h ****   *         AHB1RSTR     FLASHRST      LL_AHB1_GRP1_ForceReset\n
 398:../../../libs/smtc-hal-mcu-stm32l4/third_party/STM32CubeL4/Drivers/STM32L4xx_HAL_Driver/Inc/stm32l4xx_ll_bus.h ****   *         AHB1RSTR     CRCRST        LL_AHB1_GRP1_ForceReset\n
 399:../../../libs/smtc-hal-mcu-stm32l4/third_party/STM32CubeL4/Drivers/STM32L4xx_HAL_Driver/Inc/stm32l4xx_ll_bus.h ****   *         AHB1RSTR     TSCRST        LL_AHB1_GRP1_ForceReset\n
 400:../../../libs/smtc-hal-mcu-stm32l4/third_party/STM32CubeL4/Drivers/STM32L4xx_HAL_Driver/Inc/stm32l4xx_ll_bus.h ****   *         AHB1RSTR     DMA2DRST      LL_AHB1_GRP1_ForceReset\n
 401:../../../libs/smtc-hal-mcu-stm32l4/third_party/STM32CubeL4/Drivers/STM32L4xx_HAL_Driver/Inc/stm32l4xx_ll_bus.h ****   *         AHB1RSTR     GFXMMURST     LL_AHB1_GRP1_ForceReset
 402:../../../libs/smtc-hal-mcu-stm32l4/third_party/STM32CubeL4/Drivers/STM32L4xx_HAL_Driver/Inc/stm32l4xx_ll_bus.h ****   * @param  Periphs This parameter can be a combination of the following values:
 403:../../../libs/smtc-hal-mcu-stm32l4/third_party/STM32CubeL4/Drivers/STM32L4xx_HAL_Driver/Inc/stm32l4xx_ll_bus.h ****   *         @arg @ref LL_AHB1_GRP1_PERIPH_ALL
 404:../../../libs/smtc-hal-mcu-stm32l4/third_party/STM32CubeL4/Drivers/STM32L4xx_HAL_Driver/Inc/stm32l4xx_ll_bus.h ****   *         @arg @ref LL_AHB1_GRP1_PERIPH_DMA1
 405:../../../libs/smtc-hal-mcu-stm32l4/third_party/STM32CubeL4/Drivers/STM32L4xx_HAL_Driver/Inc/stm32l4xx_ll_bus.h ****   *         @arg @ref LL_AHB1_GRP1_PERIPH_DMA2
 406:../../../libs/smtc-hal-mcu-stm32l4/third_party/STM32CubeL4/Drivers/STM32L4xx_HAL_Driver/Inc/stm32l4xx_ll_bus.h ****   *         @arg @ref LL_AHB1_GRP1_PERIPH_DMAMUX1 (*)
 407:../../../libs/smtc-hal-mcu-stm32l4/third_party/STM32CubeL4/Drivers/STM32L4xx_HAL_Driver/Inc/stm32l4xx_ll_bus.h ****   *         @arg @ref LL_AHB1_GRP1_PERIPH_FLASH
 408:../../../libs/smtc-hal-mcu-stm32l4/third_party/STM32CubeL4/Drivers/STM32L4xx_HAL_Driver/Inc/stm32l4xx_ll_bus.h ****   *         @arg @ref LL_AHB1_GRP1_PERIPH_CRC
 409:../../../libs/smtc-hal-mcu-stm32l4/third_party/STM32CubeL4/Drivers/STM32L4xx_HAL_Driver/Inc/stm32l4xx_ll_bus.h ****   *         @arg @ref LL_AHB1_GRP1_PERIPH_TSC
 410:../../../libs/smtc-hal-mcu-stm32l4/third_party/STM32CubeL4/Drivers/STM32L4xx_HAL_Driver/Inc/stm32l4xx_ll_bus.h ****   *         @arg @ref LL_AHB1_GRP1_PERIPH_DMA2D (*)
 411:../../../libs/smtc-hal-mcu-stm32l4/third_party/STM32CubeL4/Drivers/STM32L4xx_HAL_Driver/Inc/stm32l4xx_ll_bus.h ****   *         @arg @ref LL_AHB1_GRP1_PERIPH_GFXMMU (*)
 412:../../../libs/smtc-hal-mcu-stm32l4/third_party/STM32CubeL4/Drivers/STM32L4xx_HAL_Driver/Inc/stm32l4xx_ll_bus.h ****   *
 413:../../../libs/smtc-hal-mcu-stm32l4/third_party/STM32CubeL4/Drivers/STM32L4xx_HAL_Driver/Inc/stm32l4xx_ll_bus.h ****   *         (*) value not defined in all devices.
 414:../../../libs/smtc-hal-mcu-stm32l4/third_party/STM32CubeL4/Drivers/STM32L4xx_HAL_Driver/Inc/stm32l4xx_ll_bus.h ****   * @retval None
 415:../../../libs/smtc-hal-mcu-stm32l4/third_party/STM32CubeL4/Drivers/STM32L4xx_HAL_Driver/Inc/stm32l4xx_ll_bus.h **** */
 416:../../../libs/smtc-hal-mcu-stm32l4/third_party/STM32CubeL4/Drivers/STM32L4xx_HAL_Driver/Inc/stm32l4xx_ll_bus.h **** __STATIC_INLINE void LL_AHB1_GRP1_ForceReset(uint32_t Periphs)
 417:../../../libs/smtc-hal-mcu-stm32l4/third_party/STM32CubeL4/Drivers/STM32L4xx_HAL_Driver/Inc/stm32l4xx_ll_bus.h **** {
 418:../../../libs/smtc-hal-mcu-stm32l4/third_party/STM32CubeL4/Drivers/STM32L4xx_HAL_Driver/Inc/stm32l4xx_ll_bus.h ****   SET_BIT(RCC->AHB1RSTR, Periphs);
 419:../../../libs/smtc-hal-mcu-stm32l4/third_party/STM32CubeL4/Drivers/STM32L4xx_HAL_Driver/Inc/stm32l4xx_ll_bus.h **** }
ARM GAS  C:\msys64\tmp\ccUcdgty.s 			page 26


 420:../../../libs/smtc-hal-mcu-stm32l4/third_party/STM32CubeL4/Drivers/STM32L4xx_HAL_Driver/Inc/stm32l4xx_ll_bus.h **** 
 421:../../../libs/smtc-hal-mcu-stm32l4/third_party/STM32CubeL4/Drivers/STM32L4xx_HAL_Driver/Inc/stm32l4xx_ll_bus.h **** /**
 422:../../../libs/smtc-hal-mcu-stm32l4/third_party/STM32CubeL4/Drivers/STM32L4xx_HAL_Driver/Inc/stm32l4xx_ll_bus.h ****   * @brief  Release AHB1 peripherals reset.
 423:../../../libs/smtc-hal-mcu-stm32l4/third_party/STM32CubeL4/Drivers/STM32L4xx_HAL_Driver/Inc/stm32l4xx_ll_bus.h ****   * @rmtoll AHB1RSTR     DMA1RST       LL_AHB1_GRP1_ReleaseReset\n
 424:../../../libs/smtc-hal-mcu-stm32l4/third_party/STM32CubeL4/Drivers/STM32L4xx_HAL_Driver/Inc/stm32l4xx_ll_bus.h ****   *         AHB1RSTR     DMA2RST       LL_AHB1_GRP1_ReleaseReset\n
 425:../../../libs/smtc-hal-mcu-stm32l4/third_party/STM32CubeL4/Drivers/STM32L4xx_HAL_Driver/Inc/stm32l4xx_ll_bus.h ****   *         AHB1RSTR     DMAMUX1RST     LL_AHB1_GRP1_ReleaseReset\n
 426:../../../libs/smtc-hal-mcu-stm32l4/third_party/STM32CubeL4/Drivers/STM32L4xx_HAL_Driver/Inc/stm32l4xx_ll_bus.h ****   *         AHB1RSTR     FLASHRST      LL_AHB1_GRP1_ReleaseReset\n
 427:../../../libs/smtc-hal-mcu-stm32l4/third_party/STM32CubeL4/Drivers/STM32L4xx_HAL_Driver/Inc/stm32l4xx_ll_bus.h ****   *         AHB1RSTR     CRCRST        LL_AHB1_GRP1_ReleaseReset\n
 428:../../../libs/smtc-hal-mcu-stm32l4/third_party/STM32CubeL4/Drivers/STM32L4xx_HAL_Driver/Inc/stm32l4xx_ll_bus.h ****   *         AHB1RSTR     TSCRST        LL_AHB1_GRP1_ReleaseReset\n
 429:../../../libs/smtc-hal-mcu-stm32l4/third_party/STM32CubeL4/Drivers/STM32L4xx_HAL_Driver/Inc/stm32l4xx_ll_bus.h ****   *         AHB1RSTR     DMA2DRST      LL_AHB1_GRP1_ReleaseReset\n
 430:../../../libs/smtc-hal-mcu-stm32l4/third_party/STM32CubeL4/Drivers/STM32L4xx_HAL_Driver/Inc/stm32l4xx_ll_bus.h ****   *         AHB1RSTR     GFXMMURST     LL_AHB1_GRP1_ReleaseReset
 431:../../../libs/smtc-hal-mcu-stm32l4/third_party/STM32CubeL4/Drivers/STM32L4xx_HAL_Driver/Inc/stm32l4xx_ll_bus.h ****   * @param  Periphs This parameter can be a combination of the following values:
 432:../../../libs/smtc-hal-mcu-stm32l4/third_party/STM32CubeL4/Drivers/STM32L4xx_HAL_Driver/Inc/stm32l4xx_ll_bus.h ****   *         @arg @ref LL_AHB1_GRP1_PERIPH_ALL
 433:../../../libs/smtc-hal-mcu-stm32l4/third_party/STM32CubeL4/Drivers/STM32L4xx_HAL_Driver/Inc/stm32l4xx_ll_bus.h ****   *         @arg @ref LL_AHB1_GRP1_PERIPH_DMA1
 434:../../../libs/smtc-hal-mcu-stm32l4/third_party/STM32CubeL4/Drivers/STM32L4xx_HAL_Driver/Inc/stm32l4xx_ll_bus.h ****   *         @arg @ref LL_AHB1_GRP1_PERIPH_DMA2
 435:../../../libs/smtc-hal-mcu-stm32l4/third_party/STM32CubeL4/Drivers/STM32L4xx_HAL_Driver/Inc/stm32l4xx_ll_bus.h ****   *         @arg @ref LL_AHB1_GRP1_PERIPH_DMAMUX1 (*)
 436:../../../libs/smtc-hal-mcu-stm32l4/third_party/STM32CubeL4/Drivers/STM32L4xx_HAL_Driver/Inc/stm32l4xx_ll_bus.h ****   *         @arg @ref LL_AHB1_GRP1_PERIPH_FLASH
 437:../../../libs/smtc-hal-mcu-stm32l4/third_party/STM32CubeL4/Drivers/STM32L4xx_HAL_Driver/Inc/stm32l4xx_ll_bus.h ****   *         @arg @ref LL_AHB1_GRP1_PERIPH_CRC
 438:../../../libs/smtc-hal-mcu-stm32l4/third_party/STM32CubeL4/Drivers/STM32L4xx_HAL_Driver/Inc/stm32l4xx_ll_bus.h ****   *         @arg @ref LL_AHB1_GRP1_PERIPH_TSC
 439:../../../libs/smtc-hal-mcu-stm32l4/third_party/STM32CubeL4/Drivers/STM32L4xx_HAL_Driver/Inc/stm32l4xx_ll_bus.h ****   *         @arg @ref LL_AHB1_GRP1_PERIPH_DMA2D (*)
 440:../../../libs/smtc-hal-mcu-stm32l4/third_party/STM32CubeL4/Drivers/STM32L4xx_HAL_Driver/Inc/stm32l4xx_ll_bus.h ****   *         @arg @ref LL_AHB1_GRP1_PERIPH_GFXMMU (*)
 441:../../../libs/smtc-hal-mcu-stm32l4/third_party/STM32CubeL4/Drivers/STM32L4xx_HAL_Driver/Inc/stm32l4xx_ll_bus.h ****   *
 442:../../../libs/smtc-hal-mcu-stm32l4/third_party/STM32CubeL4/Drivers/STM32L4xx_HAL_Driver/Inc/stm32l4xx_ll_bus.h ****   *         (*) value not defined in all devices.
 443:../../../libs/smtc-hal-mcu-stm32l4/third_party/STM32CubeL4/Drivers/STM32L4xx_HAL_Driver/Inc/stm32l4xx_ll_bus.h ****   * @retval None
 444:../../../libs/smtc-hal-mcu-stm32l4/third_party/STM32CubeL4/Drivers/STM32L4xx_HAL_Driver/Inc/stm32l4xx_ll_bus.h **** */
 445:../../../libs/smtc-hal-mcu-stm32l4/third_party/STM32CubeL4/Drivers/STM32L4xx_HAL_Driver/Inc/stm32l4xx_ll_bus.h **** __STATIC_INLINE void LL_AHB1_GRP1_ReleaseReset(uint32_t Periphs)
 446:../../../libs/smtc-hal-mcu-stm32l4/third_party/STM32CubeL4/Drivers/STM32L4xx_HAL_Driver/Inc/stm32l4xx_ll_bus.h **** {
 447:../../../libs/smtc-hal-mcu-stm32l4/third_party/STM32CubeL4/Drivers/STM32L4xx_HAL_Driver/Inc/stm32l4xx_ll_bus.h ****   CLEAR_BIT(RCC->AHB1RSTR, Periphs);
 448:../../../libs/smtc-hal-mcu-stm32l4/third_party/STM32CubeL4/Drivers/STM32L4xx_HAL_Driver/Inc/stm32l4xx_ll_bus.h **** }
 449:../../../libs/smtc-hal-mcu-stm32l4/third_party/STM32CubeL4/Drivers/STM32L4xx_HAL_Driver/Inc/stm32l4xx_ll_bus.h **** 
 450:../../../libs/smtc-hal-mcu-stm32l4/third_party/STM32CubeL4/Drivers/STM32L4xx_HAL_Driver/Inc/stm32l4xx_ll_bus.h **** /**
 451:../../../libs/smtc-hal-mcu-stm32l4/third_party/STM32CubeL4/Drivers/STM32L4xx_HAL_Driver/Inc/stm32l4xx_ll_bus.h ****   * @brief  Enable AHB1 peripheral clocks in Sleep and Stop modes
 452:../../../libs/smtc-hal-mcu-stm32l4/third_party/STM32CubeL4/Drivers/STM32L4xx_HAL_Driver/Inc/stm32l4xx_ll_bus.h ****   * @rmtoll AHB1SMENR    DMA1SMEN      LL_AHB1_GRP1_EnableClockStopSleep\n
 453:../../../libs/smtc-hal-mcu-stm32l4/third_party/STM32CubeL4/Drivers/STM32L4xx_HAL_Driver/Inc/stm32l4xx_ll_bus.h ****   *         AHB1SMENR    DMA2SMEN      LL_AHB1_GRP1_EnableClockStopSleep\n
 454:../../../libs/smtc-hal-mcu-stm32l4/third_party/STM32CubeL4/Drivers/STM32L4xx_HAL_Driver/Inc/stm32l4xx_ll_bus.h ****   *         AHB1SMENR    DMAMUX1SMEN   LL_AHB1_GRP1_EnableClockStopSleep\n
 455:../../../libs/smtc-hal-mcu-stm32l4/third_party/STM32CubeL4/Drivers/STM32L4xx_HAL_Driver/Inc/stm32l4xx_ll_bus.h ****   *         AHB1SMENR    FLASHSMEN     LL_AHB1_GRP1_EnableClockStopSleep\n
 456:../../../libs/smtc-hal-mcu-stm32l4/third_party/STM32CubeL4/Drivers/STM32L4xx_HAL_Driver/Inc/stm32l4xx_ll_bus.h ****   *         AHB1SMENR    SRAM1SMEN     LL_AHB1_GRP1_EnableClockStopSleep\n
 457:../../../libs/smtc-hal-mcu-stm32l4/third_party/STM32CubeL4/Drivers/STM32L4xx_HAL_Driver/Inc/stm32l4xx_ll_bus.h ****   *         AHB1SMENR    CRCSMEN       LL_AHB1_GRP1_EnableClockStopSleep\n
 458:../../../libs/smtc-hal-mcu-stm32l4/third_party/STM32CubeL4/Drivers/STM32L4xx_HAL_Driver/Inc/stm32l4xx_ll_bus.h ****   *         AHB1SMENR    TSCSMEN       LL_AHB1_GRP1_EnableClockStopSleep\n
 459:../../../libs/smtc-hal-mcu-stm32l4/third_party/STM32CubeL4/Drivers/STM32L4xx_HAL_Driver/Inc/stm32l4xx_ll_bus.h ****   *         AHB1SMENR    DMA2DSMEN     LL_AHB1_GRP1_EnableClockStopSleep\n
 460:../../../libs/smtc-hal-mcu-stm32l4/third_party/STM32CubeL4/Drivers/STM32L4xx_HAL_Driver/Inc/stm32l4xx_ll_bus.h ****   *         AHB1SMENR    GFXMMUSMEN    LL_AHB1_GRP1_EnableClockStopSleep
 461:../../../libs/smtc-hal-mcu-stm32l4/third_party/STM32CubeL4/Drivers/STM32L4xx_HAL_Driver/Inc/stm32l4xx_ll_bus.h ****   * @param  Periphs This parameter can be a combination of the following values:
 462:../../../libs/smtc-hal-mcu-stm32l4/third_party/STM32CubeL4/Drivers/STM32L4xx_HAL_Driver/Inc/stm32l4xx_ll_bus.h ****   *         @arg @ref LL_AHB1_GRP1_PERIPH_DMA1
 463:../../../libs/smtc-hal-mcu-stm32l4/third_party/STM32CubeL4/Drivers/STM32L4xx_HAL_Driver/Inc/stm32l4xx_ll_bus.h ****   *         @arg @ref LL_AHB1_GRP1_PERIPH_DMA2
 464:../../../libs/smtc-hal-mcu-stm32l4/third_party/STM32CubeL4/Drivers/STM32L4xx_HAL_Driver/Inc/stm32l4xx_ll_bus.h ****   *         @arg @ref LL_AHB1_GRP1_PERIPH_DMAMUX1 (*)
 465:../../../libs/smtc-hal-mcu-stm32l4/third_party/STM32CubeL4/Drivers/STM32L4xx_HAL_Driver/Inc/stm32l4xx_ll_bus.h ****   *         @arg @ref LL_AHB1_GRP1_PERIPH_FLASH
 466:../../../libs/smtc-hal-mcu-stm32l4/third_party/STM32CubeL4/Drivers/STM32L4xx_HAL_Driver/Inc/stm32l4xx_ll_bus.h ****   *         @arg @ref LL_AHB1_GRP1_PERIPH_SRAM1
 467:../../../libs/smtc-hal-mcu-stm32l4/third_party/STM32CubeL4/Drivers/STM32L4xx_HAL_Driver/Inc/stm32l4xx_ll_bus.h ****   *         @arg @ref LL_AHB1_GRP1_PERIPH_CRC
 468:../../../libs/smtc-hal-mcu-stm32l4/third_party/STM32CubeL4/Drivers/STM32L4xx_HAL_Driver/Inc/stm32l4xx_ll_bus.h ****   *         @arg @ref LL_AHB1_GRP1_PERIPH_TSC
 469:../../../libs/smtc-hal-mcu-stm32l4/third_party/STM32CubeL4/Drivers/STM32L4xx_HAL_Driver/Inc/stm32l4xx_ll_bus.h ****   *         @arg @ref LL_AHB1_GRP1_PERIPH_DMA2D (*)
 470:../../../libs/smtc-hal-mcu-stm32l4/third_party/STM32CubeL4/Drivers/STM32L4xx_HAL_Driver/Inc/stm32l4xx_ll_bus.h ****   *         @arg @ref LL_AHB1_GRP1_PERIPH_GFXMMU (*)
 471:../../../libs/smtc-hal-mcu-stm32l4/third_party/STM32CubeL4/Drivers/STM32L4xx_HAL_Driver/Inc/stm32l4xx_ll_bus.h ****   *
 472:../../../libs/smtc-hal-mcu-stm32l4/third_party/STM32CubeL4/Drivers/STM32L4xx_HAL_Driver/Inc/stm32l4xx_ll_bus.h ****   *         (*) value not defined in all devices.
 473:../../../libs/smtc-hal-mcu-stm32l4/third_party/STM32CubeL4/Drivers/STM32L4xx_HAL_Driver/Inc/stm32l4xx_ll_bus.h ****   * @retval None
 474:../../../libs/smtc-hal-mcu-stm32l4/third_party/STM32CubeL4/Drivers/STM32L4xx_HAL_Driver/Inc/stm32l4xx_ll_bus.h **** */
 475:../../../libs/smtc-hal-mcu-stm32l4/third_party/STM32CubeL4/Drivers/STM32L4xx_HAL_Driver/Inc/stm32l4xx_ll_bus.h **** __STATIC_INLINE void LL_AHB1_GRP1_EnableClockStopSleep(uint32_t Periphs)
 476:../../../libs/smtc-hal-mcu-stm32l4/third_party/STM32CubeL4/Drivers/STM32L4xx_HAL_Driver/Inc/stm32l4xx_ll_bus.h **** {
ARM GAS  C:\msys64\tmp\ccUcdgty.s 			page 27


 477:../../../libs/smtc-hal-mcu-stm32l4/third_party/STM32CubeL4/Drivers/STM32L4xx_HAL_Driver/Inc/stm32l4xx_ll_bus.h ****   __IO uint32_t tmpreg;
 478:../../../libs/smtc-hal-mcu-stm32l4/third_party/STM32CubeL4/Drivers/STM32L4xx_HAL_Driver/Inc/stm32l4xx_ll_bus.h ****   SET_BIT(RCC->AHB1SMENR, Periphs);
 479:../../../libs/smtc-hal-mcu-stm32l4/third_party/STM32CubeL4/Drivers/STM32L4xx_HAL_Driver/Inc/stm32l4xx_ll_bus.h ****   /* Delay after an RCC peripheral clock enabling */
 480:../../../libs/smtc-hal-mcu-stm32l4/third_party/STM32CubeL4/Drivers/STM32L4xx_HAL_Driver/Inc/stm32l4xx_ll_bus.h ****   tmpreg = READ_BIT(RCC->AHB1SMENR, Periphs);
 481:../../../libs/smtc-hal-mcu-stm32l4/third_party/STM32CubeL4/Drivers/STM32L4xx_HAL_Driver/Inc/stm32l4xx_ll_bus.h ****   (void)tmpreg;
 482:../../../libs/smtc-hal-mcu-stm32l4/third_party/STM32CubeL4/Drivers/STM32L4xx_HAL_Driver/Inc/stm32l4xx_ll_bus.h **** }
 483:../../../libs/smtc-hal-mcu-stm32l4/third_party/STM32CubeL4/Drivers/STM32L4xx_HAL_Driver/Inc/stm32l4xx_ll_bus.h **** 
 484:../../../libs/smtc-hal-mcu-stm32l4/third_party/STM32CubeL4/Drivers/STM32L4xx_HAL_Driver/Inc/stm32l4xx_ll_bus.h **** /**
 485:../../../libs/smtc-hal-mcu-stm32l4/third_party/STM32CubeL4/Drivers/STM32L4xx_HAL_Driver/Inc/stm32l4xx_ll_bus.h ****   * @brief  Disable AHB1 peripheral clocks in Sleep and Stop modes
 486:../../../libs/smtc-hal-mcu-stm32l4/third_party/STM32CubeL4/Drivers/STM32L4xx_HAL_Driver/Inc/stm32l4xx_ll_bus.h ****   * @rmtoll AHB1SMENR    DMA1SMEN      LL_AHB1_GRP1_DisableClockStopSleep\n
 487:../../../libs/smtc-hal-mcu-stm32l4/third_party/STM32CubeL4/Drivers/STM32L4xx_HAL_Driver/Inc/stm32l4xx_ll_bus.h ****   *         AHB1SMENR    DMA2SMEN      LL_AHB1_GRP1_DisableClockStopSleep\n
 488:../../../libs/smtc-hal-mcu-stm32l4/third_party/STM32CubeL4/Drivers/STM32L4xx_HAL_Driver/Inc/stm32l4xx_ll_bus.h ****   *         AHB1SMENR    DMAMUX1SMEN   LL_AHB1_GRP1_DisableClockStopSleep\n
 489:../../../libs/smtc-hal-mcu-stm32l4/third_party/STM32CubeL4/Drivers/STM32L4xx_HAL_Driver/Inc/stm32l4xx_ll_bus.h ****   *         AHB1SMENR    FLASHSMEN     LL_AHB1_GRP1_DisableClockStopSleep\n
 490:../../../libs/smtc-hal-mcu-stm32l4/third_party/STM32CubeL4/Drivers/STM32L4xx_HAL_Driver/Inc/stm32l4xx_ll_bus.h ****   *         AHB1SMENR    SRAM1SMEN     LL_AHB1_GRP1_DisableClockStopSleep\n
 491:../../../libs/smtc-hal-mcu-stm32l4/third_party/STM32CubeL4/Drivers/STM32L4xx_HAL_Driver/Inc/stm32l4xx_ll_bus.h ****   *         AHB1SMENR    CRCSMEN       LL_AHB1_GRP1_DisableClockStopSleep\n
 492:../../../libs/smtc-hal-mcu-stm32l4/third_party/STM32CubeL4/Drivers/STM32L4xx_HAL_Driver/Inc/stm32l4xx_ll_bus.h ****   *         AHB1SMENR    TSCSMEN       LL_AHB1_GRP1_DisableClockStopSleep\n
 493:../../../libs/smtc-hal-mcu-stm32l4/third_party/STM32CubeL4/Drivers/STM32L4xx_HAL_Driver/Inc/stm32l4xx_ll_bus.h ****   *         AHB1SMENR    DMA2DSMEN     LL_AHB1_GRP1_DisableClockStopSleep\n
 494:../../../libs/smtc-hal-mcu-stm32l4/third_party/STM32CubeL4/Drivers/STM32L4xx_HAL_Driver/Inc/stm32l4xx_ll_bus.h ****   *         AHB1SMENR    GFXMMUSMEN    LL_AHB1_GRP1_DisableClockStopSleep
 495:../../../libs/smtc-hal-mcu-stm32l4/third_party/STM32CubeL4/Drivers/STM32L4xx_HAL_Driver/Inc/stm32l4xx_ll_bus.h ****   * @param  Periphs This parameter can be a combination of the following values:
 496:../../../libs/smtc-hal-mcu-stm32l4/third_party/STM32CubeL4/Drivers/STM32L4xx_HAL_Driver/Inc/stm32l4xx_ll_bus.h ****   *         @arg @ref LL_AHB1_GRP1_PERIPH_DMA1
 497:../../../libs/smtc-hal-mcu-stm32l4/third_party/STM32CubeL4/Drivers/STM32L4xx_HAL_Driver/Inc/stm32l4xx_ll_bus.h ****   *         @arg @ref LL_AHB1_GRP1_PERIPH_DMA2
 498:../../../libs/smtc-hal-mcu-stm32l4/third_party/STM32CubeL4/Drivers/STM32L4xx_HAL_Driver/Inc/stm32l4xx_ll_bus.h ****   *         @arg @ref LL_AHB1_GRP1_PERIPH_DMAMUX1 (*)
 499:../../../libs/smtc-hal-mcu-stm32l4/third_party/STM32CubeL4/Drivers/STM32L4xx_HAL_Driver/Inc/stm32l4xx_ll_bus.h ****   *         @arg @ref LL_AHB1_GRP1_PERIPH_FLASH
 500:../../../libs/smtc-hal-mcu-stm32l4/third_party/STM32CubeL4/Drivers/STM32L4xx_HAL_Driver/Inc/stm32l4xx_ll_bus.h ****   *         @arg @ref LL_AHB1_GRP1_PERIPH_SRAM1
 501:../../../libs/smtc-hal-mcu-stm32l4/third_party/STM32CubeL4/Drivers/STM32L4xx_HAL_Driver/Inc/stm32l4xx_ll_bus.h ****   *         @arg @ref LL_AHB1_GRP1_PERIPH_CRC
 502:../../../libs/smtc-hal-mcu-stm32l4/third_party/STM32CubeL4/Drivers/STM32L4xx_HAL_Driver/Inc/stm32l4xx_ll_bus.h ****   *         @arg @ref LL_AHB1_GRP1_PERIPH_TSC
 503:../../../libs/smtc-hal-mcu-stm32l4/third_party/STM32CubeL4/Drivers/STM32L4xx_HAL_Driver/Inc/stm32l4xx_ll_bus.h ****   *         @arg @ref LL_AHB1_GRP1_PERIPH_DMA2D (*)
 504:../../../libs/smtc-hal-mcu-stm32l4/third_party/STM32CubeL4/Drivers/STM32L4xx_HAL_Driver/Inc/stm32l4xx_ll_bus.h ****   *         @arg @ref LL_AHB1_GRP1_PERIPH_GFXMMU (*)
 505:../../../libs/smtc-hal-mcu-stm32l4/third_party/STM32CubeL4/Drivers/STM32L4xx_HAL_Driver/Inc/stm32l4xx_ll_bus.h ****   *
 506:../../../libs/smtc-hal-mcu-stm32l4/third_party/STM32CubeL4/Drivers/STM32L4xx_HAL_Driver/Inc/stm32l4xx_ll_bus.h ****   *         (*) value not defined in all devices.
 507:../../../libs/smtc-hal-mcu-stm32l4/third_party/STM32CubeL4/Drivers/STM32L4xx_HAL_Driver/Inc/stm32l4xx_ll_bus.h ****   * @retval None
 508:../../../libs/smtc-hal-mcu-stm32l4/third_party/STM32CubeL4/Drivers/STM32L4xx_HAL_Driver/Inc/stm32l4xx_ll_bus.h **** */
 509:../../../libs/smtc-hal-mcu-stm32l4/third_party/STM32CubeL4/Drivers/STM32L4xx_HAL_Driver/Inc/stm32l4xx_ll_bus.h **** __STATIC_INLINE void LL_AHB1_GRP1_DisableClockStopSleep(uint32_t Periphs)
 510:../../../libs/smtc-hal-mcu-stm32l4/third_party/STM32CubeL4/Drivers/STM32L4xx_HAL_Driver/Inc/stm32l4xx_ll_bus.h **** {
 511:../../../libs/smtc-hal-mcu-stm32l4/third_party/STM32CubeL4/Drivers/STM32L4xx_HAL_Driver/Inc/stm32l4xx_ll_bus.h ****   CLEAR_BIT(RCC->AHB1SMENR, Periphs);
 512:../../../libs/smtc-hal-mcu-stm32l4/third_party/STM32CubeL4/Drivers/STM32L4xx_HAL_Driver/Inc/stm32l4xx_ll_bus.h **** }
 513:../../../libs/smtc-hal-mcu-stm32l4/third_party/STM32CubeL4/Drivers/STM32L4xx_HAL_Driver/Inc/stm32l4xx_ll_bus.h **** 
 514:../../../libs/smtc-hal-mcu-stm32l4/third_party/STM32CubeL4/Drivers/STM32L4xx_HAL_Driver/Inc/stm32l4xx_ll_bus.h **** /**
 515:../../../libs/smtc-hal-mcu-stm32l4/third_party/STM32CubeL4/Drivers/STM32L4xx_HAL_Driver/Inc/stm32l4xx_ll_bus.h ****   * @}
 516:../../../libs/smtc-hal-mcu-stm32l4/third_party/STM32CubeL4/Drivers/STM32L4xx_HAL_Driver/Inc/stm32l4xx_ll_bus.h ****   */
 517:../../../libs/smtc-hal-mcu-stm32l4/third_party/STM32CubeL4/Drivers/STM32L4xx_HAL_Driver/Inc/stm32l4xx_ll_bus.h **** 
 518:../../../libs/smtc-hal-mcu-stm32l4/third_party/STM32CubeL4/Drivers/STM32L4xx_HAL_Driver/Inc/stm32l4xx_ll_bus.h **** /** @defgroup BUS_LL_EF_AHB2 AHB2
 519:../../../libs/smtc-hal-mcu-stm32l4/third_party/STM32CubeL4/Drivers/STM32L4xx_HAL_Driver/Inc/stm32l4xx_ll_bus.h ****   * @{
 520:../../../libs/smtc-hal-mcu-stm32l4/third_party/STM32CubeL4/Drivers/STM32L4xx_HAL_Driver/Inc/stm32l4xx_ll_bus.h ****   */
 521:../../../libs/smtc-hal-mcu-stm32l4/third_party/STM32CubeL4/Drivers/STM32L4xx_HAL_Driver/Inc/stm32l4xx_ll_bus.h **** 
 522:../../../libs/smtc-hal-mcu-stm32l4/third_party/STM32CubeL4/Drivers/STM32L4xx_HAL_Driver/Inc/stm32l4xx_ll_bus.h **** /**
 523:../../../libs/smtc-hal-mcu-stm32l4/third_party/STM32CubeL4/Drivers/STM32L4xx_HAL_Driver/Inc/stm32l4xx_ll_bus.h ****   * @brief  Enable AHB2 peripherals clock.
 524:../../../libs/smtc-hal-mcu-stm32l4/third_party/STM32CubeL4/Drivers/STM32L4xx_HAL_Driver/Inc/stm32l4xx_ll_bus.h ****   * @rmtoll AHB2ENR      GPIOAEN       LL_AHB2_GRP1_EnableClock\n
 525:../../../libs/smtc-hal-mcu-stm32l4/third_party/STM32CubeL4/Drivers/STM32L4xx_HAL_Driver/Inc/stm32l4xx_ll_bus.h ****   *         AHB2ENR      GPIOBEN       LL_AHB2_GRP1_EnableClock\n
 526:../../../libs/smtc-hal-mcu-stm32l4/third_party/STM32CubeL4/Drivers/STM32L4xx_HAL_Driver/Inc/stm32l4xx_ll_bus.h ****   *         AHB2ENR      GPIOCEN       LL_AHB2_GRP1_EnableClock\n
 527:../../../libs/smtc-hal-mcu-stm32l4/third_party/STM32CubeL4/Drivers/STM32L4xx_HAL_Driver/Inc/stm32l4xx_ll_bus.h ****   *         AHB2ENR      GPIODEN       LL_AHB2_GRP1_EnableClock\n
 528:../../../libs/smtc-hal-mcu-stm32l4/third_party/STM32CubeL4/Drivers/STM32L4xx_HAL_Driver/Inc/stm32l4xx_ll_bus.h ****   *         AHB2ENR      GPIOEEN       LL_AHB2_GRP1_EnableClock\n
 529:../../../libs/smtc-hal-mcu-stm32l4/third_party/STM32CubeL4/Drivers/STM32L4xx_HAL_Driver/Inc/stm32l4xx_ll_bus.h ****   *         AHB2ENR      GPIOFEN       LL_AHB2_GRP1_EnableClock\n
 530:../../../libs/smtc-hal-mcu-stm32l4/third_party/STM32CubeL4/Drivers/STM32L4xx_HAL_Driver/Inc/stm32l4xx_ll_bus.h ****   *         AHB2ENR      GPIOGEN       LL_AHB2_GRP1_EnableClock\n
 531:../../../libs/smtc-hal-mcu-stm32l4/third_party/STM32CubeL4/Drivers/STM32L4xx_HAL_Driver/Inc/stm32l4xx_ll_bus.h ****   *         AHB2ENR      GPIOHEN       LL_AHB2_GRP1_EnableClock\n
 532:../../../libs/smtc-hal-mcu-stm32l4/third_party/STM32CubeL4/Drivers/STM32L4xx_HAL_Driver/Inc/stm32l4xx_ll_bus.h ****   *         AHB2ENR      GPIOIEN       LL_AHB2_GRP1_EnableClock\n
 533:../../../libs/smtc-hal-mcu-stm32l4/third_party/STM32CubeL4/Drivers/STM32L4xx_HAL_Driver/Inc/stm32l4xx_ll_bus.h ****   *         AHB2ENR      OTGFSEN       LL_AHB2_GRP1_EnableClock\n
ARM GAS  C:\msys64\tmp\ccUcdgty.s 			page 28


 534:../../../libs/smtc-hal-mcu-stm32l4/third_party/STM32CubeL4/Drivers/STM32L4xx_HAL_Driver/Inc/stm32l4xx_ll_bus.h ****   *         AHB2ENR      ADCEN         LL_AHB2_GRP1_EnableClock\n
 535:../../../libs/smtc-hal-mcu-stm32l4/third_party/STM32CubeL4/Drivers/STM32L4xx_HAL_Driver/Inc/stm32l4xx_ll_bus.h ****   *         AHB2ENR      DCMIEN        LL_AHB2_GRP1_EnableClock\n
 536:../../../libs/smtc-hal-mcu-stm32l4/third_party/STM32CubeL4/Drivers/STM32L4xx_HAL_Driver/Inc/stm32l4xx_ll_bus.h ****   *         AHB2ENR      AESEN         LL_AHB2_GRP1_EnableClock\n
 537:../../../libs/smtc-hal-mcu-stm32l4/third_party/STM32CubeL4/Drivers/STM32L4xx_HAL_Driver/Inc/stm32l4xx_ll_bus.h ****   *         AHB2ENR      HASHEN        LL_AHB2_GRP1_EnableClock\n
 538:../../../libs/smtc-hal-mcu-stm32l4/third_party/STM32CubeL4/Drivers/STM32L4xx_HAL_Driver/Inc/stm32l4xx_ll_bus.h ****   *         AHB2ENR      RNGEN         LL_AHB2_GRP1_EnableClock\n
 539:../../../libs/smtc-hal-mcu-stm32l4/third_party/STM32CubeL4/Drivers/STM32L4xx_HAL_Driver/Inc/stm32l4xx_ll_bus.h ****   *         AHB2ENR      OSPIMEN       LL_AHB2_GRP1_EnableClock\n
 540:../../../libs/smtc-hal-mcu-stm32l4/third_party/STM32CubeL4/Drivers/STM32L4xx_HAL_Driver/Inc/stm32l4xx_ll_bus.h ****   *         AHB2ENR      SDMMC1EN      LL_AHB2_GRP1_EnableClock
 541:../../../libs/smtc-hal-mcu-stm32l4/third_party/STM32CubeL4/Drivers/STM32L4xx_HAL_Driver/Inc/stm32l4xx_ll_bus.h ****   * @param  Periphs This parameter can be a combination of the following values:
 542:../../../libs/smtc-hal-mcu-stm32l4/third_party/STM32CubeL4/Drivers/STM32L4xx_HAL_Driver/Inc/stm32l4xx_ll_bus.h ****   *         @arg @ref LL_AHB2_GRP1_PERIPH_GPIOA
 543:../../../libs/smtc-hal-mcu-stm32l4/third_party/STM32CubeL4/Drivers/STM32L4xx_HAL_Driver/Inc/stm32l4xx_ll_bus.h ****   *         @arg @ref LL_AHB2_GRP1_PERIPH_GPIOB
 544:../../../libs/smtc-hal-mcu-stm32l4/third_party/STM32CubeL4/Drivers/STM32L4xx_HAL_Driver/Inc/stm32l4xx_ll_bus.h ****   *         @arg @ref LL_AHB2_GRP1_PERIPH_GPIOC
 545:../../../libs/smtc-hal-mcu-stm32l4/third_party/STM32CubeL4/Drivers/STM32L4xx_HAL_Driver/Inc/stm32l4xx_ll_bus.h ****   *         @arg @ref LL_AHB2_GRP1_PERIPH_GPIOD (*)
 546:../../../libs/smtc-hal-mcu-stm32l4/third_party/STM32CubeL4/Drivers/STM32L4xx_HAL_Driver/Inc/stm32l4xx_ll_bus.h ****   *         @arg @ref LL_AHB2_GRP1_PERIPH_GPIOE (*)
 547:../../../libs/smtc-hal-mcu-stm32l4/third_party/STM32CubeL4/Drivers/STM32L4xx_HAL_Driver/Inc/stm32l4xx_ll_bus.h ****   *         @arg @ref LL_AHB2_GRP1_PERIPH_GPIOF (*)
 548:../../../libs/smtc-hal-mcu-stm32l4/third_party/STM32CubeL4/Drivers/STM32L4xx_HAL_Driver/Inc/stm32l4xx_ll_bus.h ****   *         @arg @ref LL_AHB2_GRP1_PERIPH_GPIOG (*)
 549:../../../libs/smtc-hal-mcu-stm32l4/third_party/STM32CubeL4/Drivers/STM32L4xx_HAL_Driver/Inc/stm32l4xx_ll_bus.h ****   *         @arg @ref LL_AHB2_GRP1_PERIPH_GPIOH
 550:../../../libs/smtc-hal-mcu-stm32l4/third_party/STM32CubeL4/Drivers/STM32L4xx_HAL_Driver/Inc/stm32l4xx_ll_bus.h ****   *         @arg @ref LL_AHB2_GRP1_PERIPH_GPIOI (*)
 551:../../../libs/smtc-hal-mcu-stm32l4/third_party/STM32CubeL4/Drivers/STM32L4xx_HAL_Driver/Inc/stm32l4xx_ll_bus.h ****   *         @arg @ref LL_AHB2_GRP1_PERIPH_OTGFS (*)
 552:../../../libs/smtc-hal-mcu-stm32l4/third_party/STM32CubeL4/Drivers/STM32L4xx_HAL_Driver/Inc/stm32l4xx_ll_bus.h ****   *         @arg @ref LL_AHB2_GRP1_PERIPH_ADC
 553:../../../libs/smtc-hal-mcu-stm32l4/third_party/STM32CubeL4/Drivers/STM32L4xx_HAL_Driver/Inc/stm32l4xx_ll_bus.h ****   *         @arg @ref LL_AHB2_GRP1_PERIPH_DCMI (*)
 554:../../../libs/smtc-hal-mcu-stm32l4/third_party/STM32CubeL4/Drivers/STM32L4xx_HAL_Driver/Inc/stm32l4xx_ll_bus.h ****   *         @arg @ref LL_AHB2_GRP1_PERIPH_AES (*)
 555:../../../libs/smtc-hal-mcu-stm32l4/third_party/STM32CubeL4/Drivers/STM32L4xx_HAL_Driver/Inc/stm32l4xx_ll_bus.h ****   *         @arg @ref LL_AHB2_GRP1_PERIPH_HASH (*)
 556:../../../libs/smtc-hal-mcu-stm32l4/third_party/STM32CubeL4/Drivers/STM32L4xx_HAL_Driver/Inc/stm32l4xx_ll_bus.h ****   *         @arg @ref LL_AHB2_GRP1_PERIPH_RNG
 557:../../../libs/smtc-hal-mcu-stm32l4/third_party/STM32CubeL4/Drivers/STM32L4xx_HAL_Driver/Inc/stm32l4xx_ll_bus.h ****   *         @arg @ref LL_AHB2_GRP1_PERIPH_OSPIM (*)
 558:../../../libs/smtc-hal-mcu-stm32l4/third_party/STM32CubeL4/Drivers/STM32L4xx_HAL_Driver/Inc/stm32l4xx_ll_bus.h ****   *         @arg @ref LL_AHB2_GRP1_PERIPH_SDMMC1 (*)
 559:../../../libs/smtc-hal-mcu-stm32l4/third_party/STM32CubeL4/Drivers/STM32L4xx_HAL_Driver/Inc/stm32l4xx_ll_bus.h ****   *
 560:../../../libs/smtc-hal-mcu-stm32l4/third_party/STM32CubeL4/Drivers/STM32L4xx_HAL_Driver/Inc/stm32l4xx_ll_bus.h ****   *         (*) value not defined in all devices.
 561:../../../libs/smtc-hal-mcu-stm32l4/third_party/STM32CubeL4/Drivers/STM32L4xx_HAL_Driver/Inc/stm32l4xx_ll_bus.h ****   * @retval None
 562:../../../libs/smtc-hal-mcu-stm32l4/third_party/STM32CubeL4/Drivers/STM32L4xx_HAL_Driver/Inc/stm32l4xx_ll_bus.h **** */
 563:../../../libs/smtc-hal-mcu-stm32l4/third_party/STM32CubeL4/Drivers/STM32L4xx_HAL_Driver/Inc/stm32l4xx_ll_bus.h **** __STATIC_INLINE void LL_AHB2_GRP1_EnableClock(uint32_t Periphs)
 564:../../../libs/smtc-hal-mcu-stm32l4/third_party/STM32CubeL4/Drivers/STM32L4xx_HAL_Driver/Inc/stm32l4xx_ll_bus.h **** {
 392              		.loc 3 564 1
 393              		.cfi_startproc
 394              		@ args = 0, pretend = 0, frame = 16
 395              		@ frame_needed = 1, uses_anonymous_args = 0
 396              		@ link register save eliminated.
 397 0000 80B4     		push	{r7}
 398              	.LCFI42:
 399              		.cfi_def_cfa_offset 4
 400              		.cfi_offset 7, -4
 401 0002 85B0     		sub	sp, sp, #20
 402              	.LCFI43:
 403              		.cfi_def_cfa_offset 24
 404 0004 00AF     		add	r7, sp, #0
 405              	.LCFI44:
 406              		.cfi_def_cfa_register 7
 407 0006 7860     		str	r0, [r7, #4]
 565:../../../libs/smtc-hal-mcu-stm32l4/third_party/STM32CubeL4/Drivers/STM32L4xx_HAL_Driver/Inc/stm32l4xx_ll_bus.h ****   __IO uint32_t tmpreg;
 566:../../../libs/smtc-hal-mcu-stm32l4/third_party/STM32CubeL4/Drivers/STM32L4xx_HAL_Driver/Inc/stm32l4xx_ll_bus.h ****   SET_BIT(RCC->AHB2ENR, Periphs);
 408              		.loc 3 566 3
 409 0008 084B     		ldr	r3, .L22
 410 000a DA6C     		ldr	r2, [r3, #76]
 411 000c 0749     		ldr	r1, .L22
 412 000e 7B68     		ldr	r3, [r7, #4]
 413 0010 1343     		orrs	r3, r3, r2
 414 0012 CB64     		str	r3, [r1, #76]
 567:../../../libs/smtc-hal-mcu-stm32l4/third_party/STM32CubeL4/Drivers/STM32L4xx_HAL_Driver/Inc/stm32l4xx_ll_bus.h ****   /* Delay after an RCC peripheral clock enabling */
ARM GAS  C:\msys64\tmp\ccUcdgty.s 			page 29


 568:../../../libs/smtc-hal-mcu-stm32l4/third_party/STM32CubeL4/Drivers/STM32L4xx_HAL_Driver/Inc/stm32l4xx_ll_bus.h ****   tmpreg = READ_BIT(RCC->AHB2ENR, Periphs);
 415              		.loc 3 568 12
 416 0014 054B     		ldr	r3, .L22
 417 0016 DA6C     		ldr	r2, [r3, #76]
 418 0018 7B68     		ldr	r3, [r7, #4]
 419 001a 1340     		ands	r3, r3, r2
 420              		.loc 3 568 10
 421 001c FB60     		str	r3, [r7, #12]
 569:../../../libs/smtc-hal-mcu-stm32l4/third_party/STM32CubeL4/Drivers/STM32L4xx_HAL_Driver/Inc/stm32l4xx_ll_bus.h ****   (void)tmpreg;
 422              		.loc 3 569 3
 423 001e FB68     		ldr	r3, [r7, #12]
 570:../../../libs/smtc-hal-mcu-stm32l4/third_party/STM32CubeL4/Drivers/STM32L4xx_HAL_Driver/Inc/stm32l4xx_ll_bus.h **** }
 424              		.loc 3 570 1
 425 0020 00BF     		nop
 426 0022 1437     		adds	r7, r7, #20
 427              	.LCFI45:
 428              		.cfi_def_cfa_offset 4
 429 0024 BD46     		mov	sp, r7
 430              	.LCFI46:
 431              		.cfi_def_cfa_register 13
 432              		@ sp needed
 433 0026 5DF8047B 		ldr	r7, [sp], #4
 434              	.LCFI47:
 435              		.cfi_restore 7
 436              		.cfi_def_cfa_offset 0
 437 002a 7047     		bx	lr
 438              	.L23:
 439              		.align	2
 440              	.L22:
 441 002c 00100240 		.word	1073876992
 442              		.cfi_endproc
 443              	.LFE153:
 445              		.section	.text.LL_AHB2_GRP1_DisableClock,"ax",%progbits
 446              		.align	1
 447              		.syntax unified
 448              		.thumb
 449              		.thumb_func
 451              	LL_AHB2_GRP1_DisableClock:
 452              	.LFB155:
 571:../../../libs/smtc-hal-mcu-stm32l4/third_party/STM32CubeL4/Drivers/STM32L4xx_HAL_Driver/Inc/stm32l4xx_ll_bus.h **** 
 572:../../../libs/smtc-hal-mcu-stm32l4/third_party/STM32CubeL4/Drivers/STM32L4xx_HAL_Driver/Inc/stm32l4xx_ll_bus.h **** /**
 573:../../../libs/smtc-hal-mcu-stm32l4/third_party/STM32CubeL4/Drivers/STM32L4xx_HAL_Driver/Inc/stm32l4xx_ll_bus.h ****   * @brief  Check if AHB2 peripheral clock is enabled or not
 574:../../../libs/smtc-hal-mcu-stm32l4/third_party/STM32CubeL4/Drivers/STM32L4xx_HAL_Driver/Inc/stm32l4xx_ll_bus.h ****   * @rmtoll AHB2ENR      GPIOAEN       LL_AHB2_GRP1_IsEnabledClock\n
 575:../../../libs/smtc-hal-mcu-stm32l4/third_party/STM32CubeL4/Drivers/STM32L4xx_HAL_Driver/Inc/stm32l4xx_ll_bus.h ****   *         AHB2ENR      GPIOBEN       LL_AHB2_GRP1_IsEnabledClock\n
 576:../../../libs/smtc-hal-mcu-stm32l4/third_party/STM32CubeL4/Drivers/STM32L4xx_HAL_Driver/Inc/stm32l4xx_ll_bus.h ****   *         AHB2ENR      GPIOCEN       LL_AHB2_GRP1_IsEnabledClock\n
 577:../../../libs/smtc-hal-mcu-stm32l4/third_party/STM32CubeL4/Drivers/STM32L4xx_HAL_Driver/Inc/stm32l4xx_ll_bus.h ****   *         AHB2ENR      GPIODEN       LL_AHB2_GRP1_IsEnabledClock\n
 578:../../../libs/smtc-hal-mcu-stm32l4/third_party/STM32CubeL4/Drivers/STM32L4xx_HAL_Driver/Inc/stm32l4xx_ll_bus.h ****   *         AHB2ENR      GPIOEEN       LL_AHB2_GRP1_IsEnabledClock\n
 579:../../../libs/smtc-hal-mcu-stm32l4/third_party/STM32CubeL4/Drivers/STM32L4xx_HAL_Driver/Inc/stm32l4xx_ll_bus.h ****   *         AHB2ENR      GPIOFEN       LL_AHB2_GRP1_IsEnabledClock\n
 580:../../../libs/smtc-hal-mcu-stm32l4/third_party/STM32CubeL4/Drivers/STM32L4xx_HAL_Driver/Inc/stm32l4xx_ll_bus.h ****   *         AHB2ENR      GPIOGEN       LL_AHB2_GRP1_IsEnabledClock\n
 581:../../../libs/smtc-hal-mcu-stm32l4/third_party/STM32CubeL4/Drivers/STM32L4xx_HAL_Driver/Inc/stm32l4xx_ll_bus.h ****   *         AHB2ENR      GPIOHEN       LL_AHB2_GRP1_IsEnabledClock\n
 582:../../../libs/smtc-hal-mcu-stm32l4/third_party/STM32CubeL4/Drivers/STM32L4xx_HAL_Driver/Inc/stm32l4xx_ll_bus.h ****   *         AHB2ENR      GPIOIEN       LL_AHB2_GRP1_IsEnabledClock\n
 583:../../../libs/smtc-hal-mcu-stm32l4/third_party/STM32CubeL4/Drivers/STM32L4xx_HAL_Driver/Inc/stm32l4xx_ll_bus.h ****   *         AHB2ENR      OTGFSEN       LL_AHB2_GRP1_IsEnabledClock\n
 584:../../../libs/smtc-hal-mcu-stm32l4/third_party/STM32CubeL4/Drivers/STM32L4xx_HAL_Driver/Inc/stm32l4xx_ll_bus.h ****   *         AHB2ENR      ADCEN         LL_AHB2_GRP1_IsEnabledClock\n
 585:../../../libs/smtc-hal-mcu-stm32l4/third_party/STM32CubeL4/Drivers/STM32L4xx_HAL_Driver/Inc/stm32l4xx_ll_bus.h ****   *         AHB2ENR      DCMIEN        LL_AHB2_GRP1_IsEnabledClock\n
 586:../../../libs/smtc-hal-mcu-stm32l4/third_party/STM32CubeL4/Drivers/STM32L4xx_HAL_Driver/Inc/stm32l4xx_ll_bus.h ****   *         AHB2ENR      AESEN         LL_AHB2_GRP1_IsEnabledClock\n
 587:../../../libs/smtc-hal-mcu-stm32l4/third_party/STM32CubeL4/Drivers/STM32L4xx_HAL_Driver/Inc/stm32l4xx_ll_bus.h ****   *         AHB2ENR      HASHEN        LL_AHB2_GRP1_IsEnabledClock\n
 588:../../../libs/smtc-hal-mcu-stm32l4/third_party/STM32CubeL4/Drivers/STM32L4xx_HAL_Driver/Inc/stm32l4xx_ll_bus.h ****   *         AHB2ENR      RNGEN         LL_AHB2_GRP1_IsEnabledClock\n
ARM GAS  C:\msys64\tmp\ccUcdgty.s 			page 30


 589:../../../libs/smtc-hal-mcu-stm32l4/third_party/STM32CubeL4/Drivers/STM32L4xx_HAL_Driver/Inc/stm32l4xx_ll_bus.h ****   *         AHB2ENR      OSPIMEN       LL_AHB2_GRP1_IsEnabledClock\n
 590:../../../libs/smtc-hal-mcu-stm32l4/third_party/STM32CubeL4/Drivers/STM32L4xx_HAL_Driver/Inc/stm32l4xx_ll_bus.h ****   *         AHB2ENR      SDMMC1EN      LL_AHB2_GRP1_IsEnabledClock
 591:../../../libs/smtc-hal-mcu-stm32l4/third_party/STM32CubeL4/Drivers/STM32L4xx_HAL_Driver/Inc/stm32l4xx_ll_bus.h ****   * @param  Periphs This parameter can be a combination of the following values:
 592:../../../libs/smtc-hal-mcu-stm32l4/third_party/STM32CubeL4/Drivers/STM32L4xx_HAL_Driver/Inc/stm32l4xx_ll_bus.h ****   *         @arg @ref LL_AHB2_GRP1_PERIPH_GPIOA
 593:../../../libs/smtc-hal-mcu-stm32l4/third_party/STM32CubeL4/Drivers/STM32L4xx_HAL_Driver/Inc/stm32l4xx_ll_bus.h ****   *         @arg @ref LL_AHB2_GRP1_PERIPH_GPIOB
 594:../../../libs/smtc-hal-mcu-stm32l4/third_party/STM32CubeL4/Drivers/STM32L4xx_HAL_Driver/Inc/stm32l4xx_ll_bus.h ****   *         @arg @ref LL_AHB2_GRP1_PERIPH_GPIOC
 595:../../../libs/smtc-hal-mcu-stm32l4/third_party/STM32CubeL4/Drivers/STM32L4xx_HAL_Driver/Inc/stm32l4xx_ll_bus.h ****   *         @arg @ref LL_AHB2_GRP1_PERIPH_GPIOD (*)
 596:../../../libs/smtc-hal-mcu-stm32l4/third_party/STM32CubeL4/Drivers/STM32L4xx_HAL_Driver/Inc/stm32l4xx_ll_bus.h ****   *         @arg @ref LL_AHB2_GRP1_PERIPH_GPIOE (*)
 597:../../../libs/smtc-hal-mcu-stm32l4/third_party/STM32CubeL4/Drivers/STM32L4xx_HAL_Driver/Inc/stm32l4xx_ll_bus.h ****   *         @arg @ref LL_AHB2_GRP1_PERIPH_GPIOF (*)
 598:../../../libs/smtc-hal-mcu-stm32l4/third_party/STM32CubeL4/Drivers/STM32L4xx_HAL_Driver/Inc/stm32l4xx_ll_bus.h ****   *         @arg @ref LL_AHB2_GRP1_PERIPH_GPIOG (*)
 599:../../../libs/smtc-hal-mcu-stm32l4/third_party/STM32CubeL4/Drivers/STM32L4xx_HAL_Driver/Inc/stm32l4xx_ll_bus.h ****   *         @arg @ref LL_AHB2_GRP1_PERIPH_GPIOH
 600:../../../libs/smtc-hal-mcu-stm32l4/third_party/STM32CubeL4/Drivers/STM32L4xx_HAL_Driver/Inc/stm32l4xx_ll_bus.h ****   *         @arg @ref LL_AHB2_GRP1_PERIPH_GPIOI (*)
 601:../../../libs/smtc-hal-mcu-stm32l4/third_party/STM32CubeL4/Drivers/STM32L4xx_HAL_Driver/Inc/stm32l4xx_ll_bus.h ****   *         @arg @ref LL_AHB2_GRP1_PERIPH_OTGFS (*)
 602:../../../libs/smtc-hal-mcu-stm32l4/third_party/STM32CubeL4/Drivers/STM32L4xx_HAL_Driver/Inc/stm32l4xx_ll_bus.h ****   *         @arg @ref LL_AHB2_GRP1_PERIPH_ADC
 603:../../../libs/smtc-hal-mcu-stm32l4/third_party/STM32CubeL4/Drivers/STM32L4xx_HAL_Driver/Inc/stm32l4xx_ll_bus.h ****   *         @arg @ref LL_AHB2_GRP1_PERIPH_DCMI (*)
 604:../../../libs/smtc-hal-mcu-stm32l4/third_party/STM32CubeL4/Drivers/STM32L4xx_HAL_Driver/Inc/stm32l4xx_ll_bus.h ****   *         @arg @ref LL_AHB2_GRP1_PERIPH_AES (*)
 605:../../../libs/smtc-hal-mcu-stm32l4/third_party/STM32CubeL4/Drivers/STM32L4xx_HAL_Driver/Inc/stm32l4xx_ll_bus.h ****   *         @arg @ref LL_AHB2_GRP1_PERIPH_HASH (*)
 606:../../../libs/smtc-hal-mcu-stm32l4/third_party/STM32CubeL4/Drivers/STM32L4xx_HAL_Driver/Inc/stm32l4xx_ll_bus.h ****   *         @arg @ref LL_AHB2_GRP1_PERIPH_RNG
 607:../../../libs/smtc-hal-mcu-stm32l4/third_party/STM32CubeL4/Drivers/STM32L4xx_HAL_Driver/Inc/stm32l4xx_ll_bus.h ****   *         @arg @ref LL_AHB2_GRP1_PERIPH_OSPIM (*)
 608:../../../libs/smtc-hal-mcu-stm32l4/third_party/STM32CubeL4/Drivers/STM32L4xx_HAL_Driver/Inc/stm32l4xx_ll_bus.h ****   *         @arg @ref LL_AHB2_GRP1_PERIPH_SDMMC1 (*)
 609:../../../libs/smtc-hal-mcu-stm32l4/third_party/STM32CubeL4/Drivers/STM32L4xx_HAL_Driver/Inc/stm32l4xx_ll_bus.h ****   *
 610:../../../libs/smtc-hal-mcu-stm32l4/third_party/STM32CubeL4/Drivers/STM32L4xx_HAL_Driver/Inc/stm32l4xx_ll_bus.h ****   *         (*) value not defined in all devices.
 611:../../../libs/smtc-hal-mcu-stm32l4/third_party/STM32CubeL4/Drivers/STM32L4xx_HAL_Driver/Inc/stm32l4xx_ll_bus.h ****   * @retval State of Periphs (1 or 0).
 612:../../../libs/smtc-hal-mcu-stm32l4/third_party/STM32CubeL4/Drivers/STM32L4xx_HAL_Driver/Inc/stm32l4xx_ll_bus.h **** */
 613:../../../libs/smtc-hal-mcu-stm32l4/third_party/STM32CubeL4/Drivers/STM32L4xx_HAL_Driver/Inc/stm32l4xx_ll_bus.h **** __STATIC_INLINE uint32_t LL_AHB2_GRP1_IsEnabledClock(uint32_t Periphs)
 614:../../../libs/smtc-hal-mcu-stm32l4/third_party/STM32CubeL4/Drivers/STM32L4xx_HAL_Driver/Inc/stm32l4xx_ll_bus.h **** {
 615:../../../libs/smtc-hal-mcu-stm32l4/third_party/STM32CubeL4/Drivers/STM32L4xx_HAL_Driver/Inc/stm32l4xx_ll_bus.h ****   return ((READ_BIT(RCC->AHB2ENR, Periphs) == Periphs) ? 1UL : 0UL);
 616:../../../libs/smtc-hal-mcu-stm32l4/third_party/STM32CubeL4/Drivers/STM32L4xx_HAL_Driver/Inc/stm32l4xx_ll_bus.h **** }
 617:../../../libs/smtc-hal-mcu-stm32l4/third_party/STM32CubeL4/Drivers/STM32L4xx_HAL_Driver/Inc/stm32l4xx_ll_bus.h **** 
 618:../../../libs/smtc-hal-mcu-stm32l4/third_party/STM32CubeL4/Drivers/STM32L4xx_HAL_Driver/Inc/stm32l4xx_ll_bus.h **** /**
 619:../../../libs/smtc-hal-mcu-stm32l4/third_party/STM32CubeL4/Drivers/STM32L4xx_HAL_Driver/Inc/stm32l4xx_ll_bus.h ****   * @brief  Disable AHB2 peripherals clock.
 620:../../../libs/smtc-hal-mcu-stm32l4/third_party/STM32CubeL4/Drivers/STM32L4xx_HAL_Driver/Inc/stm32l4xx_ll_bus.h ****   * @rmtoll AHB2ENR      GPIOAEN       LL_AHB2_GRP1_DisableClock\n
 621:../../../libs/smtc-hal-mcu-stm32l4/third_party/STM32CubeL4/Drivers/STM32L4xx_HAL_Driver/Inc/stm32l4xx_ll_bus.h ****   *         AHB2ENR      GPIOBEN       LL_AHB2_GRP1_DisableClock\n
 622:../../../libs/smtc-hal-mcu-stm32l4/third_party/STM32CubeL4/Drivers/STM32L4xx_HAL_Driver/Inc/stm32l4xx_ll_bus.h ****   *         AHB2ENR      GPIOCEN       LL_AHB2_GRP1_DisableClock\n
 623:../../../libs/smtc-hal-mcu-stm32l4/third_party/STM32CubeL4/Drivers/STM32L4xx_HAL_Driver/Inc/stm32l4xx_ll_bus.h ****   *         AHB2ENR      GPIODEN       LL_AHB2_GRP1_DisableClock\n
 624:../../../libs/smtc-hal-mcu-stm32l4/third_party/STM32CubeL4/Drivers/STM32L4xx_HAL_Driver/Inc/stm32l4xx_ll_bus.h ****   *         AHB2ENR      GPIOEEN       LL_AHB2_GRP1_DisableClock\n
 625:../../../libs/smtc-hal-mcu-stm32l4/third_party/STM32CubeL4/Drivers/STM32L4xx_HAL_Driver/Inc/stm32l4xx_ll_bus.h ****   *         AHB2ENR      GPIOFEN       LL_AHB2_GRP1_DisableClock\n
 626:../../../libs/smtc-hal-mcu-stm32l4/third_party/STM32CubeL4/Drivers/STM32L4xx_HAL_Driver/Inc/stm32l4xx_ll_bus.h ****   *         AHB2ENR      GPIOGEN       LL_AHB2_GRP1_DisableClock\n
 627:../../../libs/smtc-hal-mcu-stm32l4/third_party/STM32CubeL4/Drivers/STM32L4xx_HAL_Driver/Inc/stm32l4xx_ll_bus.h ****   *         AHB2ENR      GPIOHEN       LL_AHB2_GRP1_DisableClock\n
 628:../../../libs/smtc-hal-mcu-stm32l4/third_party/STM32CubeL4/Drivers/STM32L4xx_HAL_Driver/Inc/stm32l4xx_ll_bus.h ****   *         AHB2ENR      GPIOIEN       LL_AHB2_GRP1_DisableClock\n
 629:../../../libs/smtc-hal-mcu-stm32l4/third_party/STM32CubeL4/Drivers/STM32L4xx_HAL_Driver/Inc/stm32l4xx_ll_bus.h ****   *         AHB2ENR      OTGFSEN       LL_AHB2_GRP1_DisableClock\n
 630:../../../libs/smtc-hal-mcu-stm32l4/third_party/STM32CubeL4/Drivers/STM32L4xx_HAL_Driver/Inc/stm32l4xx_ll_bus.h ****   *         AHB2ENR      ADCEN         LL_AHB2_GRP1_DisableClock\n
 631:../../../libs/smtc-hal-mcu-stm32l4/third_party/STM32CubeL4/Drivers/STM32L4xx_HAL_Driver/Inc/stm32l4xx_ll_bus.h ****   *         AHB2ENR      DCMIEN        LL_AHB2_GRP1_DisableClock\n
 632:../../../libs/smtc-hal-mcu-stm32l4/third_party/STM32CubeL4/Drivers/STM32L4xx_HAL_Driver/Inc/stm32l4xx_ll_bus.h ****   *         AHB2ENR      AESEN         LL_AHB2_GRP1_DisableClock\n
 633:../../../libs/smtc-hal-mcu-stm32l4/third_party/STM32CubeL4/Drivers/STM32L4xx_HAL_Driver/Inc/stm32l4xx_ll_bus.h ****   *         AHB2ENR      HASHEN        LL_AHB2_GRP1_DisableClock\n
 634:../../../libs/smtc-hal-mcu-stm32l4/third_party/STM32CubeL4/Drivers/STM32L4xx_HAL_Driver/Inc/stm32l4xx_ll_bus.h ****   *         AHB2ENR      RNGEN         LL_AHB2_GRP1_DisableClock\n
 635:../../../libs/smtc-hal-mcu-stm32l4/third_party/STM32CubeL4/Drivers/STM32L4xx_HAL_Driver/Inc/stm32l4xx_ll_bus.h ****   *         AHB2ENR      OSPIMEN       LL_AHB2_GRP1_DisableClock\n
 636:../../../libs/smtc-hal-mcu-stm32l4/third_party/STM32CubeL4/Drivers/STM32L4xx_HAL_Driver/Inc/stm32l4xx_ll_bus.h ****   *         AHB2ENR      SDMMC1EN      LL_AHB2_GRP1_DisableClock
 637:../../../libs/smtc-hal-mcu-stm32l4/third_party/STM32CubeL4/Drivers/STM32L4xx_HAL_Driver/Inc/stm32l4xx_ll_bus.h ****   * @param  Periphs This parameter can be a combination of the following values:
 638:../../../libs/smtc-hal-mcu-stm32l4/third_party/STM32CubeL4/Drivers/STM32L4xx_HAL_Driver/Inc/stm32l4xx_ll_bus.h ****   *         @arg @ref LL_AHB2_GRP1_PERIPH_GPIOA
 639:../../../libs/smtc-hal-mcu-stm32l4/third_party/STM32CubeL4/Drivers/STM32L4xx_HAL_Driver/Inc/stm32l4xx_ll_bus.h ****   *         @arg @ref LL_AHB2_GRP1_PERIPH_GPIOB
 640:../../../libs/smtc-hal-mcu-stm32l4/third_party/STM32CubeL4/Drivers/STM32L4xx_HAL_Driver/Inc/stm32l4xx_ll_bus.h ****   *         @arg @ref LL_AHB2_GRP1_PERIPH_GPIOC
 641:../../../libs/smtc-hal-mcu-stm32l4/third_party/STM32CubeL4/Drivers/STM32L4xx_HAL_Driver/Inc/stm32l4xx_ll_bus.h ****   *         @arg @ref LL_AHB2_GRP1_PERIPH_GPIOD (*)
 642:../../../libs/smtc-hal-mcu-stm32l4/third_party/STM32CubeL4/Drivers/STM32L4xx_HAL_Driver/Inc/stm32l4xx_ll_bus.h ****   *         @arg @ref LL_AHB2_GRP1_PERIPH_GPIOE (*)
 643:../../../libs/smtc-hal-mcu-stm32l4/third_party/STM32CubeL4/Drivers/STM32L4xx_HAL_Driver/Inc/stm32l4xx_ll_bus.h ****   *         @arg @ref LL_AHB2_GRP1_PERIPH_GPIOF (*)
 644:../../../libs/smtc-hal-mcu-stm32l4/third_party/STM32CubeL4/Drivers/STM32L4xx_HAL_Driver/Inc/stm32l4xx_ll_bus.h ****   *         @arg @ref LL_AHB2_GRP1_PERIPH_GPIOG (*)
 645:../../../libs/smtc-hal-mcu-stm32l4/third_party/STM32CubeL4/Drivers/STM32L4xx_HAL_Driver/Inc/stm32l4xx_ll_bus.h ****   *         @arg @ref LL_AHB2_GRP1_PERIPH_GPIOH
ARM GAS  C:\msys64\tmp\ccUcdgty.s 			page 31


 646:../../../libs/smtc-hal-mcu-stm32l4/third_party/STM32CubeL4/Drivers/STM32L4xx_HAL_Driver/Inc/stm32l4xx_ll_bus.h ****   *         @arg @ref LL_AHB2_GRP1_PERIPH_GPIOI (*)
 647:../../../libs/smtc-hal-mcu-stm32l4/third_party/STM32CubeL4/Drivers/STM32L4xx_HAL_Driver/Inc/stm32l4xx_ll_bus.h ****   *         @arg @ref LL_AHB2_GRP1_PERIPH_OTGFS (*)
 648:../../../libs/smtc-hal-mcu-stm32l4/third_party/STM32CubeL4/Drivers/STM32L4xx_HAL_Driver/Inc/stm32l4xx_ll_bus.h ****   *         @arg @ref LL_AHB2_GRP1_PERIPH_ADC
 649:../../../libs/smtc-hal-mcu-stm32l4/third_party/STM32CubeL4/Drivers/STM32L4xx_HAL_Driver/Inc/stm32l4xx_ll_bus.h ****   *         @arg @ref LL_AHB2_GRP1_PERIPH_DCMI (*)
 650:../../../libs/smtc-hal-mcu-stm32l4/third_party/STM32CubeL4/Drivers/STM32L4xx_HAL_Driver/Inc/stm32l4xx_ll_bus.h ****   *         @arg @ref LL_AHB2_GRP1_PERIPH_AES (*)
 651:../../../libs/smtc-hal-mcu-stm32l4/third_party/STM32CubeL4/Drivers/STM32L4xx_HAL_Driver/Inc/stm32l4xx_ll_bus.h ****   *         @arg @ref LL_AHB2_GRP1_PERIPH_HASH (*)
 652:../../../libs/smtc-hal-mcu-stm32l4/third_party/STM32CubeL4/Drivers/STM32L4xx_HAL_Driver/Inc/stm32l4xx_ll_bus.h ****   *         @arg @ref LL_AHB2_GRP1_PERIPH_RNG
 653:../../../libs/smtc-hal-mcu-stm32l4/third_party/STM32CubeL4/Drivers/STM32L4xx_HAL_Driver/Inc/stm32l4xx_ll_bus.h ****   *         @arg @ref LL_AHB2_GRP1_PERIPH_OSPIM (*)
 654:../../../libs/smtc-hal-mcu-stm32l4/third_party/STM32CubeL4/Drivers/STM32L4xx_HAL_Driver/Inc/stm32l4xx_ll_bus.h ****   *         @arg @ref LL_AHB2_GRP1_PERIPH_SDMMC1 (*)
 655:../../../libs/smtc-hal-mcu-stm32l4/third_party/STM32CubeL4/Drivers/STM32L4xx_HAL_Driver/Inc/stm32l4xx_ll_bus.h ****   *
 656:../../../libs/smtc-hal-mcu-stm32l4/third_party/STM32CubeL4/Drivers/STM32L4xx_HAL_Driver/Inc/stm32l4xx_ll_bus.h ****   *         (*) value not defined in all devices.
 657:../../../libs/smtc-hal-mcu-stm32l4/third_party/STM32CubeL4/Drivers/STM32L4xx_HAL_Driver/Inc/stm32l4xx_ll_bus.h ****   * @retval None
 658:../../../libs/smtc-hal-mcu-stm32l4/third_party/STM32CubeL4/Drivers/STM32L4xx_HAL_Driver/Inc/stm32l4xx_ll_bus.h **** */
 659:../../../libs/smtc-hal-mcu-stm32l4/third_party/STM32CubeL4/Drivers/STM32L4xx_HAL_Driver/Inc/stm32l4xx_ll_bus.h **** __STATIC_INLINE void LL_AHB2_GRP1_DisableClock(uint32_t Periphs)
 660:../../../libs/smtc-hal-mcu-stm32l4/third_party/STM32CubeL4/Drivers/STM32L4xx_HAL_Driver/Inc/stm32l4xx_ll_bus.h **** {
 453              		.loc 3 660 1
 454              		.cfi_startproc
 455              		@ args = 0, pretend = 0, frame = 8
 456              		@ frame_needed = 1, uses_anonymous_args = 0
 457              		@ link register save eliminated.
 458 0000 80B4     		push	{r7}
 459              	.LCFI48:
 460              		.cfi_def_cfa_offset 4
 461              		.cfi_offset 7, -4
 462 0002 83B0     		sub	sp, sp, #12
 463              	.LCFI49:
 464              		.cfi_def_cfa_offset 16
 465 0004 00AF     		add	r7, sp, #0
 466              	.LCFI50:
 467              		.cfi_def_cfa_register 7
 468 0006 7860     		str	r0, [r7, #4]
 661:../../../libs/smtc-hal-mcu-stm32l4/third_party/STM32CubeL4/Drivers/STM32L4xx_HAL_Driver/Inc/stm32l4xx_ll_bus.h ****   CLEAR_BIT(RCC->AHB2ENR, Periphs);
 469              		.loc 3 661 3
 470 0008 064B     		ldr	r3, .L25
 471 000a DA6C     		ldr	r2, [r3, #76]
 472 000c 7B68     		ldr	r3, [r7, #4]
 473 000e DB43     		mvns	r3, r3
 474 0010 0449     		ldr	r1, .L25
 475 0012 1340     		ands	r3, r3, r2
 476 0014 CB64     		str	r3, [r1, #76]
 662:../../../libs/smtc-hal-mcu-stm32l4/third_party/STM32CubeL4/Drivers/STM32L4xx_HAL_Driver/Inc/stm32l4xx_ll_bus.h **** }
 477              		.loc 3 662 1
 478 0016 00BF     		nop
 479 0018 0C37     		adds	r7, r7, #12
 480              	.LCFI51:
 481              		.cfi_def_cfa_offset 4
 482 001a BD46     		mov	sp, r7
 483              	.LCFI52:
 484              		.cfi_def_cfa_register 13
 485              		@ sp needed
 486 001c 5DF8047B 		ldr	r7, [sp], #4
 487              	.LCFI53:
 488              		.cfi_restore 7
 489              		.cfi_def_cfa_offset 0
 490 0020 7047     		bx	lr
 491              	.L26:
 492 0022 00BF     		.align	2
ARM GAS  C:\msys64\tmp\ccUcdgty.s 			page 32


 493              	.L25:
 494 0024 00100240 		.word	1073876992
 495              		.cfi_endproc
 496              	.LFE155:
 498              		.section	.text.LL_RCC_SetRNGClockSource,"ax",%progbits
 499              		.align	1
 500              		.syntax unified
 501              		.thumb
 502              		.thumb_func
 504              	LL_RCC_SetRNGClockSource:
 505              	.LFB254:
 506              		.file 4 "../../../libs/smtc-hal-mcu-stm32l4/third_party/STM32CubeL4/Drivers/STM32L4xx_HAL_Driver/I
   1:../../../libs/smtc-hal-mcu-stm32l4/third_party/STM32CubeL4/Drivers/STM32L4xx_HAL_Driver/Inc/stm32l4xx_ll_rcc.h **** /**
   2:../../../libs/smtc-hal-mcu-stm32l4/third_party/STM32CubeL4/Drivers/STM32L4xx_HAL_Driver/Inc/stm32l4xx_ll_rcc.h ****   ******************************************************************************
   3:../../../libs/smtc-hal-mcu-stm32l4/third_party/STM32CubeL4/Drivers/STM32L4xx_HAL_Driver/Inc/stm32l4xx_ll_rcc.h ****   * @file    stm32l4xx_ll_rcc.h
   4:../../../libs/smtc-hal-mcu-stm32l4/third_party/STM32CubeL4/Drivers/STM32L4xx_HAL_Driver/Inc/stm32l4xx_ll_rcc.h ****   * @author  MCD Application Team
   5:../../../libs/smtc-hal-mcu-stm32l4/third_party/STM32CubeL4/Drivers/STM32L4xx_HAL_Driver/Inc/stm32l4xx_ll_rcc.h ****   * @brief   Header file of RCC LL module.
   6:../../../libs/smtc-hal-mcu-stm32l4/third_party/STM32CubeL4/Drivers/STM32L4xx_HAL_Driver/Inc/stm32l4xx_ll_rcc.h ****   ******************************************************************************
   7:../../../libs/smtc-hal-mcu-stm32l4/third_party/STM32CubeL4/Drivers/STM32L4xx_HAL_Driver/Inc/stm32l4xx_ll_rcc.h ****   * @attention
   8:../../../libs/smtc-hal-mcu-stm32l4/third_party/STM32CubeL4/Drivers/STM32L4xx_HAL_Driver/Inc/stm32l4xx_ll_rcc.h ****   *
   9:../../../libs/smtc-hal-mcu-stm32l4/third_party/STM32CubeL4/Drivers/STM32L4xx_HAL_Driver/Inc/stm32l4xx_ll_rcc.h ****   * Copyright (c) 2017 STMicroelectronics.
  10:../../../libs/smtc-hal-mcu-stm32l4/third_party/STM32CubeL4/Drivers/STM32L4xx_HAL_Driver/Inc/stm32l4xx_ll_rcc.h ****   * All rights reserved.
  11:../../../libs/smtc-hal-mcu-stm32l4/third_party/STM32CubeL4/Drivers/STM32L4xx_HAL_Driver/Inc/stm32l4xx_ll_rcc.h ****   *
  12:../../../libs/smtc-hal-mcu-stm32l4/third_party/STM32CubeL4/Drivers/STM32L4xx_HAL_Driver/Inc/stm32l4xx_ll_rcc.h ****   * This software is licensed under terms that can be found in the LICENSE file in
  13:../../../libs/smtc-hal-mcu-stm32l4/third_party/STM32CubeL4/Drivers/STM32L4xx_HAL_Driver/Inc/stm32l4xx_ll_rcc.h ****   * the root directory of this software component.
  14:../../../libs/smtc-hal-mcu-stm32l4/third_party/STM32CubeL4/Drivers/STM32L4xx_HAL_Driver/Inc/stm32l4xx_ll_rcc.h ****   * If no LICENSE file comes with this software, it is provided AS-IS.
  15:../../../libs/smtc-hal-mcu-stm32l4/third_party/STM32CubeL4/Drivers/STM32L4xx_HAL_Driver/Inc/stm32l4xx_ll_rcc.h ****   ******************************************************************************
  16:../../../libs/smtc-hal-mcu-stm32l4/third_party/STM32CubeL4/Drivers/STM32L4xx_HAL_Driver/Inc/stm32l4xx_ll_rcc.h ****   */
  17:../../../libs/smtc-hal-mcu-stm32l4/third_party/STM32CubeL4/Drivers/STM32L4xx_HAL_Driver/Inc/stm32l4xx_ll_rcc.h **** 
  18:../../../libs/smtc-hal-mcu-stm32l4/third_party/STM32CubeL4/Drivers/STM32L4xx_HAL_Driver/Inc/stm32l4xx_ll_rcc.h **** /* Define to prevent recursive inclusion -------------------------------------*/
  19:../../../libs/smtc-hal-mcu-stm32l4/third_party/STM32CubeL4/Drivers/STM32L4xx_HAL_Driver/Inc/stm32l4xx_ll_rcc.h **** #ifndef STM32L4xx_LL_RCC_H
  20:../../../libs/smtc-hal-mcu-stm32l4/third_party/STM32CubeL4/Drivers/STM32L4xx_HAL_Driver/Inc/stm32l4xx_ll_rcc.h **** #define STM32L4xx_LL_RCC_H
  21:../../../libs/smtc-hal-mcu-stm32l4/third_party/STM32CubeL4/Drivers/STM32L4xx_HAL_Driver/Inc/stm32l4xx_ll_rcc.h **** 
  22:../../../libs/smtc-hal-mcu-stm32l4/third_party/STM32CubeL4/Drivers/STM32L4xx_HAL_Driver/Inc/stm32l4xx_ll_rcc.h **** #ifdef __cplusplus
  23:../../../libs/smtc-hal-mcu-stm32l4/third_party/STM32CubeL4/Drivers/STM32L4xx_HAL_Driver/Inc/stm32l4xx_ll_rcc.h **** extern "C" {
  24:../../../libs/smtc-hal-mcu-stm32l4/third_party/STM32CubeL4/Drivers/STM32L4xx_HAL_Driver/Inc/stm32l4xx_ll_rcc.h **** #endif
  25:../../../libs/smtc-hal-mcu-stm32l4/third_party/STM32CubeL4/Drivers/STM32L4xx_HAL_Driver/Inc/stm32l4xx_ll_rcc.h **** 
  26:../../../libs/smtc-hal-mcu-stm32l4/third_party/STM32CubeL4/Drivers/STM32L4xx_HAL_Driver/Inc/stm32l4xx_ll_rcc.h **** /* Includes ------------------------------------------------------------------*/
  27:../../../libs/smtc-hal-mcu-stm32l4/third_party/STM32CubeL4/Drivers/STM32L4xx_HAL_Driver/Inc/stm32l4xx_ll_rcc.h **** #include "stm32l4xx.h"
  28:../../../libs/smtc-hal-mcu-stm32l4/third_party/STM32CubeL4/Drivers/STM32L4xx_HAL_Driver/Inc/stm32l4xx_ll_rcc.h **** 
  29:../../../libs/smtc-hal-mcu-stm32l4/third_party/STM32CubeL4/Drivers/STM32L4xx_HAL_Driver/Inc/stm32l4xx_ll_rcc.h **** /** @addtogroup STM32L4xx_LL_Driver
  30:../../../libs/smtc-hal-mcu-stm32l4/third_party/STM32CubeL4/Drivers/STM32L4xx_HAL_Driver/Inc/stm32l4xx_ll_rcc.h ****   * @{
  31:../../../libs/smtc-hal-mcu-stm32l4/third_party/STM32CubeL4/Drivers/STM32L4xx_HAL_Driver/Inc/stm32l4xx_ll_rcc.h ****   */
  32:../../../libs/smtc-hal-mcu-stm32l4/third_party/STM32CubeL4/Drivers/STM32L4xx_HAL_Driver/Inc/stm32l4xx_ll_rcc.h **** 
  33:../../../libs/smtc-hal-mcu-stm32l4/third_party/STM32CubeL4/Drivers/STM32L4xx_HAL_Driver/Inc/stm32l4xx_ll_rcc.h **** #if defined(RCC)
  34:../../../libs/smtc-hal-mcu-stm32l4/third_party/STM32CubeL4/Drivers/STM32L4xx_HAL_Driver/Inc/stm32l4xx_ll_rcc.h **** 
  35:../../../libs/smtc-hal-mcu-stm32l4/third_party/STM32CubeL4/Drivers/STM32L4xx_HAL_Driver/Inc/stm32l4xx_ll_rcc.h **** /** @defgroup RCC_LL RCC
  36:../../../libs/smtc-hal-mcu-stm32l4/third_party/STM32CubeL4/Drivers/STM32L4xx_HAL_Driver/Inc/stm32l4xx_ll_rcc.h ****   * @{
  37:../../../libs/smtc-hal-mcu-stm32l4/third_party/STM32CubeL4/Drivers/STM32L4xx_HAL_Driver/Inc/stm32l4xx_ll_rcc.h ****   */
  38:../../../libs/smtc-hal-mcu-stm32l4/third_party/STM32CubeL4/Drivers/STM32L4xx_HAL_Driver/Inc/stm32l4xx_ll_rcc.h **** 
  39:../../../libs/smtc-hal-mcu-stm32l4/third_party/STM32CubeL4/Drivers/STM32L4xx_HAL_Driver/Inc/stm32l4xx_ll_rcc.h **** /* Private types -------------------------------------------------------------*/
  40:../../../libs/smtc-hal-mcu-stm32l4/third_party/STM32CubeL4/Drivers/STM32L4xx_HAL_Driver/Inc/stm32l4xx_ll_rcc.h **** /* Private variables ---------------------------------------------------------*/
  41:../../../libs/smtc-hal-mcu-stm32l4/third_party/STM32CubeL4/Drivers/STM32L4xx_HAL_Driver/Inc/stm32l4xx_ll_rcc.h **** /* Private constants ---------------------------------------------------------*/
  42:../../../libs/smtc-hal-mcu-stm32l4/third_party/STM32CubeL4/Drivers/STM32L4xx_HAL_Driver/Inc/stm32l4xx_ll_rcc.h **** /** @defgroup RCC_LL_Private_Constants RCC Private Constants
  43:../../../libs/smtc-hal-mcu-stm32l4/third_party/STM32CubeL4/Drivers/STM32L4xx_HAL_Driver/Inc/stm32l4xx_ll_rcc.h ****   * @{
  44:../../../libs/smtc-hal-mcu-stm32l4/third_party/STM32CubeL4/Drivers/STM32L4xx_HAL_Driver/Inc/stm32l4xx_ll_rcc.h ****   */
  45:../../../libs/smtc-hal-mcu-stm32l4/third_party/STM32CubeL4/Drivers/STM32L4xx_HAL_Driver/Inc/stm32l4xx_ll_rcc.h **** /* Defines used to perform offsets*/
ARM GAS  C:\msys64\tmp\ccUcdgty.s 			page 33


  46:../../../libs/smtc-hal-mcu-stm32l4/third_party/STM32CubeL4/Drivers/STM32L4xx_HAL_Driver/Inc/stm32l4xx_ll_rcc.h **** /* Offset used to access to RCC_CCIPR and RCC_CCIPR2 registers */
  47:../../../libs/smtc-hal-mcu-stm32l4/third_party/STM32CubeL4/Drivers/STM32L4xx_HAL_Driver/Inc/stm32l4xx_ll_rcc.h **** #define RCC_OFFSET_CCIPR        0U
  48:../../../libs/smtc-hal-mcu-stm32l4/third_party/STM32CubeL4/Drivers/STM32L4xx_HAL_Driver/Inc/stm32l4xx_ll_rcc.h **** #define RCC_OFFSET_CCIPR2       0x14U
  49:../../../libs/smtc-hal-mcu-stm32l4/third_party/STM32CubeL4/Drivers/STM32L4xx_HAL_Driver/Inc/stm32l4xx_ll_rcc.h **** 
  50:../../../libs/smtc-hal-mcu-stm32l4/third_party/STM32CubeL4/Drivers/STM32L4xx_HAL_Driver/Inc/stm32l4xx_ll_rcc.h **** /**
  51:../../../libs/smtc-hal-mcu-stm32l4/third_party/STM32CubeL4/Drivers/STM32L4xx_HAL_Driver/Inc/stm32l4xx_ll_rcc.h ****   * @}
  52:../../../libs/smtc-hal-mcu-stm32l4/third_party/STM32CubeL4/Drivers/STM32L4xx_HAL_Driver/Inc/stm32l4xx_ll_rcc.h ****   */
  53:../../../libs/smtc-hal-mcu-stm32l4/third_party/STM32CubeL4/Drivers/STM32L4xx_HAL_Driver/Inc/stm32l4xx_ll_rcc.h **** 
  54:../../../libs/smtc-hal-mcu-stm32l4/third_party/STM32CubeL4/Drivers/STM32L4xx_HAL_Driver/Inc/stm32l4xx_ll_rcc.h **** /* Private macros ------------------------------------------------------------*/
  55:../../../libs/smtc-hal-mcu-stm32l4/third_party/STM32CubeL4/Drivers/STM32L4xx_HAL_Driver/Inc/stm32l4xx_ll_rcc.h **** #if defined(USE_FULL_LL_DRIVER)
  56:../../../libs/smtc-hal-mcu-stm32l4/third_party/STM32CubeL4/Drivers/STM32L4xx_HAL_Driver/Inc/stm32l4xx_ll_rcc.h **** /** @defgroup RCC_LL_Private_Macros RCC Private Macros
  57:../../../libs/smtc-hal-mcu-stm32l4/third_party/STM32CubeL4/Drivers/STM32L4xx_HAL_Driver/Inc/stm32l4xx_ll_rcc.h ****   * @{
  58:../../../libs/smtc-hal-mcu-stm32l4/third_party/STM32CubeL4/Drivers/STM32L4xx_HAL_Driver/Inc/stm32l4xx_ll_rcc.h ****   */
  59:../../../libs/smtc-hal-mcu-stm32l4/third_party/STM32CubeL4/Drivers/STM32L4xx_HAL_Driver/Inc/stm32l4xx_ll_rcc.h **** /**
  60:../../../libs/smtc-hal-mcu-stm32l4/third_party/STM32CubeL4/Drivers/STM32L4xx_HAL_Driver/Inc/stm32l4xx_ll_rcc.h ****   * @}
  61:../../../libs/smtc-hal-mcu-stm32l4/third_party/STM32CubeL4/Drivers/STM32L4xx_HAL_Driver/Inc/stm32l4xx_ll_rcc.h ****   */
  62:../../../libs/smtc-hal-mcu-stm32l4/third_party/STM32CubeL4/Drivers/STM32L4xx_HAL_Driver/Inc/stm32l4xx_ll_rcc.h **** #endif /*USE_FULL_LL_DRIVER*/
  63:../../../libs/smtc-hal-mcu-stm32l4/third_party/STM32CubeL4/Drivers/STM32L4xx_HAL_Driver/Inc/stm32l4xx_ll_rcc.h **** 
  64:../../../libs/smtc-hal-mcu-stm32l4/third_party/STM32CubeL4/Drivers/STM32L4xx_HAL_Driver/Inc/stm32l4xx_ll_rcc.h **** /* Exported types ------------------------------------------------------------*/
  65:../../../libs/smtc-hal-mcu-stm32l4/third_party/STM32CubeL4/Drivers/STM32L4xx_HAL_Driver/Inc/stm32l4xx_ll_rcc.h **** #if defined(USE_FULL_LL_DRIVER)
  66:../../../libs/smtc-hal-mcu-stm32l4/third_party/STM32CubeL4/Drivers/STM32L4xx_HAL_Driver/Inc/stm32l4xx_ll_rcc.h **** /** @defgroup RCC_LL_Exported_Types RCC Exported Types
  67:../../../libs/smtc-hal-mcu-stm32l4/third_party/STM32CubeL4/Drivers/STM32L4xx_HAL_Driver/Inc/stm32l4xx_ll_rcc.h ****   * @{
  68:../../../libs/smtc-hal-mcu-stm32l4/third_party/STM32CubeL4/Drivers/STM32L4xx_HAL_Driver/Inc/stm32l4xx_ll_rcc.h ****   */
  69:../../../libs/smtc-hal-mcu-stm32l4/third_party/STM32CubeL4/Drivers/STM32L4xx_HAL_Driver/Inc/stm32l4xx_ll_rcc.h **** 
  70:../../../libs/smtc-hal-mcu-stm32l4/third_party/STM32CubeL4/Drivers/STM32L4xx_HAL_Driver/Inc/stm32l4xx_ll_rcc.h **** /** @defgroup LL_ES_CLOCK_FREQ Clocks Frequency Structure
  71:../../../libs/smtc-hal-mcu-stm32l4/third_party/STM32CubeL4/Drivers/STM32L4xx_HAL_Driver/Inc/stm32l4xx_ll_rcc.h ****   * @{
  72:../../../libs/smtc-hal-mcu-stm32l4/third_party/STM32CubeL4/Drivers/STM32L4xx_HAL_Driver/Inc/stm32l4xx_ll_rcc.h ****   */
  73:../../../libs/smtc-hal-mcu-stm32l4/third_party/STM32CubeL4/Drivers/STM32L4xx_HAL_Driver/Inc/stm32l4xx_ll_rcc.h **** 
  74:../../../libs/smtc-hal-mcu-stm32l4/third_party/STM32CubeL4/Drivers/STM32L4xx_HAL_Driver/Inc/stm32l4xx_ll_rcc.h **** /**
  75:../../../libs/smtc-hal-mcu-stm32l4/third_party/STM32CubeL4/Drivers/STM32L4xx_HAL_Driver/Inc/stm32l4xx_ll_rcc.h ****   * @brief  RCC Clocks Frequency Structure
  76:../../../libs/smtc-hal-mcu-stm32l4/third_party/STM32CubeL4/Drivers/STM32L4xx_HAL_Driver/Inc/stm32l4xx_ll_rcc.h ****   */
  77:../../../libs/smtc-hal-mcu-stm32l4/third_party/STM32CubeL4/Drivers/STM32L4xx_HAL_Driver/Inc/stm32l4xx_ll_rcc.h **** typedef struct
  78:../../../libs/smtc-hal-mcu-stm32l4/third_party/STM32CubeL4/Drivers/STM32L4xx_HAL_Driver/Inc/stm32l4xx_ll_rcc.h **** {
  79:../../../libs/smtc-hal-mcu-stm32l4/third_party/STM32CubeL4/Drivers/STM32L4xx_HAL_Driver/Inc/stm32l4xx_ll_rcc.h ****   uint32_t SYSCLK_Frequency;        /*!< SYSCLK clock frequency */
  80:../../../libs/smtc-hal-mcu-stm32l4/third_party/STM32CubeL4/Drivers/STM32L4xx_HAL_Driver/Inc/stm32l4xx_ll_rcc.h ****   uint32_t HCLK_Frequency;          /*!< HCLK clock frequency */
  81:../../../libs/smtc-hal-mcu-stm32l4/third_party/STM32CubeL4/Drivers/STM32L4xx_HAL_Driver/Inc/stm32l4xx_ll_rcc.h ****   uint32_t PCLK1_Frequency;         /*!< PCLK1 clock frequency */
  82:../../../libs/smtc-hal-mcu-stm32l4/third_party/STM32CubeL4/Drivers/STM32L4xx_HAL_Driver/Inc/stm32l4xx_ll_rcc.h ****   uint32_t PCLK2_Frequency;         /*!< PCLK2 clock frequency */
  83:../../../libs/smtc-hal-mcu-stm32l4/third_party/STM32CubeL4/Drivers/STM32L4xx_HAL_Driver/Inc/stm32l4xx_ll_rcc.h **** } LL_RCC_ClocksTypeDef;
  84:../../../libs/smtc-hal-mcu-stm32l4/third_party/STM32CubeL4/Drivers/STM32L4xx_HAL_Driver/Inc/stm32l4xx_ll_rcc.h **** 
  85:../../../libs/smtc-hal-mcu-stm32l4/third_party/STM32CubeL4/Drivers/STM32L4xx_HAL_Driver/Inc/stm32l4xx_ll_rcc.h **** /**
  86:../../../libs/smtc-hal-mcu-stm32l4/third_party/STM32CubeL4/Drivers/STM32L4xx_HAL_Driver/Inc/stm32l4xx_ll_rcc.h ****   * @}
  87:../../../libs/smtc-hal-mcu-stm32l4/third_party/STM32CubeL4/Drivers/STM32L4xx_HAL_Driver/Inc/stm32l4xx_ll_rcc.h ****   */
  88:../../../libs/smtc-hal-mcu-stm32l4/third_party/STM32CubeL4/Drivers/STM32L4xx_HAL_Driver/Inc/stm32l4xx_ll_rcc.h **** 
  89:../../../libs/smtc-hal-mcu-stm32l4/third_party/STM32CubeL4/Drivers/STM32L4xx_HAL_Driver/Inc/stm32l4xx_ll_rcc.h **** /**
  90:../../../libs/smtc-hal-mcu-stm32l4/third_party/STM32CubeL4/Drivers/STM32L4xx_HAL_Driver/Inc/stm32l4xx_ll_rcc.h ****   * @}
  91:../../../libs/smtc-hal-mcu-stm32l4/third_party/STM32CubeL4/Drivers/STM32L4xx_HAL_Driver/Inc/stm32l4xx_ll_rcc.h ****   */
  92:../../../libs/smtc-hal-mcu-stm32l4/third_party/STM32CubeL4/Drivers/STM32L4xx_HAL_Driver/Inc/stm32l4xx_ll_rcc.h **** #endif /* USE_FULL_LL_DRIVER */
  93:../../../libs/smtc-hal-mcu-stm32l4/third_party/STM32CubeL4/Drivers/STM32L4xx_HAL_Driver/Inc/stm32l4xx_ll_rcc.h **** 
  94:../../../libs/smtc-hal-mcu-stm32l4/third_party/STM32CubeL4/Drivers/STM32L4xx_HAL_Driver/Inc/stm32l4xx_ll_rcc.h **** /* Exported constants --------------------------------------------------------*/
  95:../../../libs/smtc-hal-mcu-stm32l4/third_party/STM32CubeL4/Drivers/STM32L4xx_HAL_Driver/Inc/stm32l4xx_ll_rcc.h **** /** @defgroup RCC_LL_Exported_Constants RCC Exported Constants
  96:../../../libs/smtc-hal-mcu-stm32l4/third_party/STM32CubeL4/Drivers/STM32L4xx_HAL_Driver/Inc/stm32l4xx_ll_rcc.h ****   * @{
  97:../../../libs/smtc-hal-mcu-stm32l4/third_party/STM32CubeL4/Drivers/STM32L4xx_HAL_Driver/Inc/stm32l4xx_ll_rcc.h ****   */
  98:../../../libs/smtc-hal-mcu-stm32l4/third_party/STM32CubeL4/Drivers/STM32L4xx_HAL_Driver/Inc/stm32l4xx_ll_rcc.h **** 
  99:../../../libs/smtc-hal-mcu-stm32l4/third_party/STM32CubeL4/Drivers/STM32L4xx_HAL_Driver/Inc/stm32l4xx_ll_rcc.h **** /** @defgroup RCC_LL_EC_OSC_VALUES Oscillator Values adaptation
 100:../../../libs/smtc-hal-mcu-stm32l4/third_party/STM32CubeL4/Drivers/STM32L4xx_HAL_Driver/Inc/stm32l4xx_ll_rcc.h ****   * @brief    Defines used to adapt values of different oscillators
 101:../../../libs/smtc-hal-mcu-stm32l4/third_party/STM32CubeL4/Drivers/STM32L4xx_HAL_Driver/Inc/stm32l4xx_ll_rcc.h ****   * @note     These values could be modified in the user environment according to
 102:../../../libs/smtc-hal-mcu-stm32l4/third_party/STM32CubeL4/Drivers/STM32L4xx_HAL_Driver/Inc/stm32l4xx_ll_rcc.h ****   *           HW set-up.
ARM GAS  C:\msys64\tmp\ccUcdgty.s 			page 34


 103:../../../libs/smtc-hal-mcu-stm32l4/third_party/STM32CubeL4/Drivers/STM32L4xx_HAL_Driver/Inc/stm32l4xx_ll_rcc.h ****   * @{
 104:../../../libs/smtc-hal-mcu-stm32l4/third_party/STM32CubeL4/Drivers/STM32L4xx_HAL_Driver/Inc/stm32l4xx_ll_rcc.h ****   */
 105:../../../libs/smtc-hal-mcu-stm32l4/third_party/STM32CubeL4/Drivers/STM32L4xx_HAL_Driver/Inc/stm32l4xx_ll_rcc.h **** #if !defined  (HSE_VALUE)
 106:../../../libs/smtc-hal-mcu-stm32l4/third_party/STM32CubeL4/Drivers/STM32L4xx_HAL_Driver/Inc/stm32l4xx_ll_rcc.h **** #define HSE_VALUE    8000000U   /*!< Value of the HSE oscillator in Hz */
 107:../../../libs/smtc-hal-mcu-stm32l4/third_party/STM32CubeL4/Drivers/STM32L4xx_HAL_Driver/Inc/stm32l4xx_ll_rcc.h **** #endif /* HSE_VALUE */
 108:../../../libs/smtc-hal-mcu-stm32l4/third_party/STM32CubeL4/Drivers/STM32L4xx_HAL_Driver/Inc/stm32l4xx_ll_rcc.h **** 
 109:../../../libs/smtc-hal-mcu-stm32l4/third_party/STM32CubeL4/Drivers/STM32L4xx_HAL_Driver/Inc/stm32l4xx_ll_rcc.h **** #if !defined  (HSI_VALUE)
 110:../../../libs/smtc-hal-mcu-stm32l4/third_party/STM32CubeL4/Drivers/STM32L4xx_HAL_Driver/Inc/stm32l4xx_ll_rcc.h **** #define HSI_VALUE    16000000U  /*!< Value of the HSI oscillator in Hz */
 111:../../../libs/smtc-hal-mcu-stm32l4/third_party/STM32CubeL4/Drivers/STM32L4xx_HAL_Driver/Inc/stm32l4xx_ll_rcc.h **** #endif /* HSI_VALUE */
 112:../../../libs/smtc-hal-mcu-stm32l4/third_party/STM32CubeL4/Drivers/STM32L4xx_HAL_Driver/Inc/stm32l4xx_ll_rcc.h **** 
 113:../../../libs/smtc-hal-mcu-stm32l4/third_party/STM32CubeL4/Drivers/STM32L4xx_HAL_Driver/Inc/stm32l4xx_ll_rcc.h **** #if !defined  (LSE_VALUE)
 114:../../../libs/smtc-hal-mcu-stm32l4/third_party/STM32CubeL4/Drivers/STM32L4xx_HAL_Driver/Inc/stm32l4xx_ll_rcc.h **** #define LSE_VALUE    32768U     /*!< Value of the LSE oscillator in Hz */
 115:../../../libs/smtc-hal-mcu-stm32l4/third_party/STM32CubeL4/Drivers/STM32L4xx_HAL_Driver/Inc/stm32l4xx_ll_rcc.h **** #endif /* LSE_VALUE */
 116:../../../libs/smtc-hal-mcu-stm32l4/third_party/STM32CubeL4/Drivers/STM32L4xx_HAL_Driver/Inc/stm32l4xx_ll_rcc.h **** 
 117:../../../libs/smtc-hal-mcu-stm32l4/third_party/STM32CubeL4/Drivers/STM32L4xx_HAL_Driver/Inc/stm32l4xx_ll_rcc.h **** #if !defined  (LSI_VALUE)
 118:../../../libs/smtc-hal-mcu-stm32l4/third_party/STM32CubeL4/Drivers/STM32L4xx_HAL_Driver/Inc/stm32l4xx_ll_rcc.h **** #define LSI_VALUE    32000U     /*!< Value of the LSI oscillator in Hz */
 119:../../../libs/smtc-hal-mcu-stm32l4/third_party/STM32CubeL4/Drivers/STM32L4xx_HAL_Driver/Inc/stm32l4xx_ll_rcc.h **** #endif /* LSI_VALUE */
 120:../../../libs/smtc-hal-mcu-stm32l4/third_party/STM32CubeL4/Drivers/STM32L4xx_HAL_Driver/Inc/stm32l4xx_ll_rcc.h **** #if defined(RCC_HSI48_SUPPORT)
 121:../../../libs/smtc-hal-mcu-stm32l4/third_party/STM32CubeL4/Drivers/STM32L4xx_HAL_Driver/Inc/stm32l4xx_ll_rcc.h **** 
 122:../../../libs/smtc-hal-mcu-stm32l4/third_party/STM32CubeL4/Drivers/STM32L4xx_HAL_Driver/Inc/stm32l4xx_ll_rcc.h **** #if !defined  (HSI48_VALUE)
 123:../../../libs/smtc-hal-mcu-stm32l4/third_party/STM32CubeL4/Drivers/STM32L4xx_HAL_Driver/Inc/stm32l4xx_ll_rcc.h **** #define HSI48_VALUE  48000000U  /*!< Value of the HSI48 oscillator in Hz */
 124:../../../libs/smtc-hal-mcu-stm32l4/third_party/STM32CubeL4/Drivers/STM32L4xx_HAL_Driver/Inc/stm32l4xx_ll_rcc.h **** #endif /* HSI48_VALUE */
 125:../../../libs/smtc-hal-mcu-stm32l4/third_party/STM32CubeL4/Drivers/STM32L4xx_HAL_Driver/Inc/stm32l4xx_ll_rcc.h **** #endif /* RCC_HSI48_SUPPORT */
 126:../../../libs/smtc-hal-mcu-stm32l4/third_party/STM32CubeL4/Drivers/STM32L4xx_HAL_Driver/Inc/stm32l4xx_ll_rcc.h **** 
 127:../../../libs/smtc-hal-mcu-stm32l4/third_party/STM32CubeL4/Drivers/STM32L4xx_HAL_Driver/Inc/stm32l4xx_ll_rcc.h **** #if !defined  (EXTERNAL_SAI1_CLOCK_VALUE)
 128:../../../libs/smtc-hal-mcu-stm32l4/third_party/STM32CubeL4/Drivers/STM32L4xx_HAL_Driver/Inc/stm32l4xx_ll_rcc.h **** #define EXTERNAL_SAI1_CLOCK_VALUE    48000U /*!< Value of the SAI1_EXTCLK external oscillator in Hz
 129:../../../libs/smtc-hal-mcu-stm32l4/third_party/STM32CubeL4/Drivers/STM32L4xx_HAL_Driver/Inc/stm32l4xx_ll_rcc.h **** #endif /* EXTERNAL_SAI1_CLOCK_VALUE */
 130:../../../libs/smtc-hal-mcu-stm32l4/third_party/STM32CubeL4/Drivers/STM32L4xx_HAL_Driver/Inc/stm32l4xx_ll_rcc.h **** 
 131:../../../libs/smtc-hal-mcu-stm32l4/third_party/STM32CubeL4/Drivers/STM32L4xx_HAL_Driver/Inc/stm32l4xx_ll_rcc.h **** #if !defined  (EXTERNAL_SAI2_CLOCK_VALUE)
 132:../../../libs/smtc-hal-mcu-stm32l4/third_party/STM32CubeL4/Drivers/STM32L4xx_HAL_Driver/Inc/stm32l4xx_ll_rcc.h **** #define EXTERNAL_SAI2_CLOCK_VALUE    48000U /*!< Value of the SAI2_EXTCLK external oscillator in Hz
 133:../../../libs/smtc-hal-mcu-stm32l4/third_party/STM32CubeL4/Drivers/STM32L4xx_HAL_Driver/Inc/stm32l4xx_ll_rcc.h **** #endif /* EXTERNAL_SAI2_CLOCK_VALUE */
 134:../../../libs/smtc-hal-mcu-stm32l4/third_party/STM32CubeL4/Drivers/STM32L4xx_HAL_Driver/Inc/stm32l4xx_ll_rcc.h **** /**
 135:../../../libs/smtc-hal-mcu-stm32l4/third_party/STM32CubeL4/Drivers/STM32L4xx_HAL_Driver/Inc/stm32l4xx_ll_rcc.h ****   * @}
 136:../../../libs/smtc-hal-mcu-stm32l4/third_party/STM32CubeL4/Drivers/STM32L4xx_HAL_Driver/Inc/stm32l4xx_ll_rcc.h ****   */
 137:../../../libs/smtc-hal-mcu-stm32l4/third_party/STM32CubeL4/Drivers/STM32L4xx_HAL_Driver/Inc/stm32l4xx_ll_rcc.h **** 
 138:../../../libs/smtc-hal-mcu-stm32l4/third_party/STM32CubeL4/Drivers/STM32L4xx_HAL_Driver/Inc/stm32l4xx_ll_rcc.h **** /** @defgroup RCC_LL_EC_CLEAR_FLAG Clear Flags Defines
 139:../../../libs/smtc-hal-mcu-stm32l4/third_party/STM32CubeL4/Drivers/STM32L4xx_HAL_Driver/Inc/stm32l4xx_ll_rcc.h ****   * @brief    Flags defines which can be used with LL_RCC_WriteReg function
 140:../../../libs/smtc-hal-mcu-stm32l4/third_party/STM32CubeL4/Drivers/STM32L4xx_HAL_Driver/Inc/stm32l4xx_ll_rcc.h ****   * @{
 141:../../../libs/smtc-hal-mcu-stm32l4/third_party/STM32CubeL4/Drivers/STM32L4xx_HAL_Driver/Inc/stm32l4xx_ll_rcc.h ****   */
 142:../../../libs/smtc-hal-mcu-stm32l4/third_party/STM32CubeL4/Drivers/STM32L4xx_HAL_Driver/Inc/stm32l4xx_ll_rcc.h **** #define LL_RCC_CICR_LSIRDYC                RCC_CICR_LSIRDYC     /*!< LSI Ready Interrupt Clear */
 143:../../../libs/smtc-hal-mcu-stm32l4/third_party/STM32CubeL4/Drivers/STM32L4xx_HAL_Driver/Inc/stm32l4xx_ll_rcc.h **** #define LL_RCC_CICR_LSERDYC                RCC_CICR_LSERDYC     /*!< LSE Ready Interrupt Clear */
 144:../../../libs/smtc-hal-mcu-stm32l4/third_party/STM32CubeL4/Drivers/STM32L4xx_HAL_Driver/Inc/stm32l4xx_ll_rcc.h **** #define LL_RCC_CICR_MSIRDYC                RCC_CICR_MSIRDYC     /*!< MSI Ready Interrupt Clear */
 145:../../../libs/smtc-hal-mcu-stm32l4/third_party/STM32CubeL4/Drivers/STM32L4xx_HAL_Driver/Inc/stm32l4xx_ll_rcc.h **** #define LL_RCC_CICR_HSIRDYC                RCC_CICR_HSIRDYC     /*!< HSI Ready Interrupt Clear */
 146:../../../libs/smtc-hal-mcu-stm32l4/third_party/STM32CubeL4/Drivers/STM32L4xx_HAL_Driver/Inc/stm32l4xx_ll_rcc.h **** #define LL_RCC_CICR_HSERDYC                RCC_CICR_HSERDYC     /*!< HSE Ready Interrupt Clear */
 147:../../../libs/smtc-hal-mcu-stm32l4/third_party/STM32CubeL4/Drivers/STM32L4xx_HAL_Driver/Inc/stm32l4xx_ll_rcc.h **** #define LL_RCC_CICR_PLLRDYC                RCC_CICR_PLLRDYC     /*!< PLL Ready Interrupt Clear */
 148:../../../libs/smtc-hal-mcu-stm32l4/third_party/STM32CubeL4/Drivers/STM32L4xx_HAL_Driver/Inc/stm32l4xx_ll_rcc.h **** #if defined(RCC_HSI48_SUPPORT)
 149:../../../libs/smtc-hal-mcu-stm32l4/third_party/STM32CubeL4/Drivers/STM32L4xx_HAL_Driver/Inc/stm32l4xx_ll_rcc.h **** #define LL_RCC_CICR_HSI48RDYC              RCC_CICR_HSI48RDYC   /*!< HSI48 Ready Interrupt Clear */
 150:../../../libs/smtc-hal-mcu-stm32l4/third_party/STM32CubeL4/Drivers/STM32L4xx_HAL_Driver/Inc/stm32l4xx_ll_rcc.h **** #endif /* RCC_HSI48_SUPPORT */
 151:../../../libs/smtc-hal-mcu-stm32l4/third_party/STM32CubeL4/Drivers/STM32L4xx_HAL_Driver/Inc/stm32l4xx_ll_rcc.h **** #if defined(RCC_PLLSAI1_SUPPORT)
 152:../../../libs/smtc-hal-mcu-stm32l4/third_party/STM32CubeL4/Drivers/STM32L4xx_HAL_Driver/Inc/stm32l4xx_ll_rcc.h **** #define LL_RCC_CICR_PLLSAI1RDYC            RCC_CICR_PLLSAI1RDYC /*!< PLLSAI1 Ready Interrupt Clear 
 153:../../../libs/smtc-hal-mcu-stm32l4/third_party/STM32CubeL4/Drivers/STM32L4xx_HAL_Driver/Inc/stm32l4xx_ll_rcc.h **** #endif /* RCC_PLLSAI1_SUPPORT */
 154:../../../libs/smtc-hal-mcu-stm32l4/third_party/STM32CubeL4/Drivers/STM32L4xx_HAL_Driver/Inc/stm32l4xx_ll_rcc.h **** #if defined(RCC_PLLSAI2_SUPPORT)
 155:../../../libs/smtc-hal-mcu-stm32l4/third_party/STM32CubeL4/Drivers/STM32L4xx_HAL_Driver/Inc/stm32l4xx_ll_rcc.h **** #define LL_RCC_CICR_PLLSAI2RDYC            RCC_CICR_PLLSAI2RDYC /*!< PLLSAI2 Ready Interrupt Clear 
 156:../../../libs/smtc-hal-mcu-stm32l4/third_party/STM32CubeL4/Drivers/STM32L4xx_HAL_Driver/Inc/stm32l4xx_ll_rcc.h **** #endif /* RCC_PLLSAI2_SUPPORT */
 157:../../../libs/smtc-hal-mcu-stm32l4/third_party/STM32CubeL4/Drivers/STM32L4xx_HAL_Driver/Inc/stm32l4xx_ll_rcc.h **** #define LL_RCC_CICR_LSECSSC                RCC_CICR_LSECSSC     /*!< LSE Clock Security System Inte
 158:../../../libs/smtc-hal-mcu-stm32l4/third_party/STM32CubeL4/Drivers/STM32L4xx_HAL_Driver/Inc/stm32l4xx_ll_rcc.h **** #define LL_RCC_CICR_CSSC                   RCC_CICR_CSSC        /*!< Clock Security System Interrup
 159:../../../libs/smtc-hal-mcu-stm32l4/third_party/STM32CubeL4/Drivers/STM32L4xx_HAL_Driver/Inc/stm32l4xx_ll_rcc.h **** /**
ARM GAS  C:\msys64\tmp\ccUcdgty.s 			page 35


 160:../../../libs/smtc-hal-mcu-stm32l4/third_party/STM32CubeL4/Drivers/STM32L4xx_HAL_Driver/Inc/stm32l4xx_ll_rcc.h ****   * @}
 161:../../../libs/smtc-hal-mcu-stm32l4/third_party/STM32CubeL4/Drivers/STM32L4xx_HAL_Driver/Inc/stm32l4xx_ll_rcc.h ****   */
 162:../../../libs/smtc-hal-mcu-stm32l4/third_party/STM32CubeL4/Drivers/STM32L4xx_HAL_Driver/Inc/stm32l4xx_ll_rcc.h **** 
 163:../../../libs/smtc-hal-mcu-stm32l4/third_party/STM32CubeL4/Drivers/STM32L4xx_HAL_Driver/Inc/stm32l4xx_ll_rcc.h **** /** @defgroup RCC_LL_EC_GET_FLAG Get Flags Defines
 164:../../../libs/smtc-hal-mcu-stm32l4/third_party/STM32CubeL4/Drivers/STM32L4xx_HAL_Driver/Inc/stm32l4xx_ll_rcc.h ****   * @brief    Flags defines which can be used with LL_RCC_ReadReg function
 165:../../../libs/smtc-hal-mcu-stm32l4/third_party/STM32CubeL4/Drivers/STM32L4xx_HAL_Driver/Inc/stm32l4xx_ll_rcc.h ****   * @{
 166:../../../libs/smtc-hal-mcu-stm32l4/third_party/STM32CubeL4/Drivers/STM32L4xx_HAL_Driver/Inc/stm32l4xx_ll_rcc.h ****   */
 167:../../../libs/smtc-hal-mcu-stm32l4/third_party/STM32CubeL4/Drivers/STM32L4xx_HAL_Driver/Inc/stm32l4xx_ll_rcc.h **** #define LL_RCC_CIFR_LSIRDYF                RCC_CIFR_LSIRDYF     /*!< LSI Ready Interrupt flag */
 168:../../../libs/smtc-hal-mcu-stm32l4/third_party/STM32CubeL4/Drivers/STM32L4xx_HAL_Driver/Inc/stm32l4xx_ll_rcc.h **** #define LL_RCC_CIFR_LSERDYF                RCC_CIFR_LSERDYF     /*!< LSE Ready Interrupt flag */
 169:../../../libs/smtc-hal-mcu-stm32l4/third_party/STM32CubeL4/Drivers/STM32L4xx_HAL_Driver/Inc/stm32l4xx_ll_rcc.h **** #define LL_RCC_CIFR_MSIRDYF                RCC_CIFR_MSIRDYF     /*!< MSI Ready Interrupt flag */
 170:../../../libs/smtc-hal-mcu-stm32l4/third_party/STM32CubeL4/Drivers/STM32L4xx_HAL_Driver/Inc/stm32l4xx_ll_rcc.h **** #define LL_RCC_CIFR_HSIRDYF                RCC_CIFR_HSIRDYF     /*!< HSI Ready Interrupt flag */
 171:../../../libs/smtc-hal-mcu-stm32l4/third_party/STM32CubeL4/Drivers/STM32L4xx_HAL_Driver/Inc/stm32l4xx_ll_rcc.h **** #define LL_RCC_CIFR_HSERDYF                RCC_CIFR_HSERDYF     /*!< HSE Ready Interrupt flag */
 172:../../../libs/smtc-hal-mcu-stm32l4/third_party/STM32CubeL4/Drivers/STM32L4xx_HAL_Driver/Inc/stm32l4xx_ll_rcc.h **** #define LL_RCC_CIFR_PLLRDYF                RCC_CIFR_PLLRDYF     /*!< PLL Ready Interrupt flag */
